ARM GAS  C:\Users\aticl\AppData\Local\Temp\cczf3dLE.s 			page 1


   1              		.cpu cortex-m7
   2              		.arch armv7e-m
   3              		.fpu fpv5-d16
   4              		.eabi_attribute 28, 1
   5              		.eabi_attribute 20, 1
   6              		.eabi_attribute 21, 1
   7              		.eabi_attribute 23, 3
   8              		.eabi_attribute 24, 1
   9              		.eabi_attribute 25, 1
  10              		.eabi_attribute 26, 1
  11              		.eabi_attribute 30, 1
  12              		.eabi_attribute 34, 1
  13              		.eabi_attribute 18, 4
  14              		.file	"main.c"
  15              		.text
  16              	.Ltext0:
  17              		.cfi_sections	.debug_frame
  18              		.file 1 "Core/Src/main.c"
  19              		.section	.text.MX_GPIO_Init,"ax",%progbits
  20              		.align	1
  21              		.syntax unified
  22              		.thumb
  23              		.thumb_func
  25              	MX_GPIO_Init:
  26              	.LFB152:
   1:Core/Src/main.c **** /* USER CODE BEGIN Header */
   2:Core/Src/main.c **** /**
   3:Core/Src/main.c ****   ******************************************************************************
   4:Core/Src/main.c ****   * @file           : main.c
   5:Core/Src/main.c ****   * @brief          : Main program body
   6:Core/Src/main.c ****   ******************************************************************************
   7:Core/Src/main.c ****   * @attention
   8:Core/Src/main.c ****   *
   9:Core/Src/main.c ****   * Copyright (c) 2025 STMicroelectronics.
  10:Core/Src/main.c ****   * All rights reserved.
  11:Core/Src/main.c ****   *
  12:Core/Src/main.c ****   * This software is licensed under terms that can be found in the LICENSE file
  13:Core/Src/main.c ****   * in the root directory of this software component.
  14:Core/Src/main.c ****   * If no LICENSE file comes with this software, it is provided AS-IS.
  15:Core/Src/main.c ****   *
  16:Core/Src/main.c ****   ******************************************************************************
  17:Core/Src/main.c ****   */
  18:Core/Src/main.c **** /* USER CODE END Header */
  19:Core/Src/main.c **** /* Includes ------------------------------------------------------------------*/
  20:Core/Src/main.c **** #include "main.h"
  21:Core/Src/main.c **** #include "usb_device.h"
  22:Core/Src/main.c **** 
  23:Core/Src/main.c **** /* Private includes ----------------------------------------------------------*/
  24:Core/Src/main.c **** /* USER CODE BEGIN Includes */
  25:Core/Src/main.c **** #include "usbd_cdc_if.h"
  26:Core/Src/main.c **** /* USER CODE END Includes */
  27:Core/Src/main.c **** 
  28:Core/Src/main.c **** /* Private typedef -----------------------------------------------------------*/
  29:Core/Src/main.c **** /* USER CODE BEGIN PTD */
  30:Core/Src/main.c **** 
  31:Core/Src/main.c **** 
  32:Core/Src/main.c **** /* USER CODE END PTD */
ARM GAS  C:\Users\aticl\AppData\Local\Temp\cczf3dLE.s 			page 2


  33:Core/Src/main.c **** 
  34:Core/Src/main.c **** /* Private define ------------------------------------------------------------*/
  35:Core/Src/main.c **** /* USER CODE BEGIN PD */
  36:Core/Src/main.c **** 
  37:Core/Src/main.c **** /* USER CODE END PD */
  38:Core/Src/main.c **** 
  39:Core/Src/main.c **** /* Private macro -------------------------------------------------------------*/
  40:Core/Src/main.c **** /* USER CODE BEGIN PM */
  41:Core/Src/main.c **** uint8_t TxBuffer[] = "Hello World! From STM32 USB CDC Device To Virtual COM Port\r\n";
  42:Core/Src/main.c **** uint8_t TxBufferLen = sizeof(TxBuffer);
  43:Core/Src/main.c **** /* USER CODE END PM */
  44:Core/Src/main.c **** 
  45:Core/Src/main.c **** /* Private variables ---------------------------------------------------------*/
  46:Core/Src/main.c **** 
  47:Core/Src/main.c **** FDCAN_HandleTypeDef hfdcan1;
  48:Core/Src/main.c **** 
  49:Core/Src/main.c **** TIM_HandleTypeDef htim2;
  50:Core/Src/main.c **** 
  51:Core/Src/main.c **** /* USER CODE BEGIN PV */
  52:Core/Src/main.c **** FDCAN_RxHeaderTypeDef RxHeader;
  53:Core/Src/main.c **** uint8_t RxData[8];
  54:Core/Src/main.c **** FDCAN_TxHeaderTypeDef TxHeader;
  55:Core/Src/main.c **** uint8_t TxData[8];
  56:Core/Src/main.c **** /* USER CODE END PV */
  57:Core/Src/main.c **** 
  58:Core/Src/main.c **** /* Private function prototypes -----------------------------------------------*/
  59:Core/Src/main.c **** void SystemClock_Config(void);
  60:Core/Src/main.c **** static void MPU_Config(void);
  61:Core/Src/main.c **** static void MX_GPIO_Init(void);
  62:Core/Src/main.c **** static void MX_TIM2_Init(void);
  63:Core/Src/main.c **** static void MX_FDCAN1_Init(void);
  64:Core/Src/main.c **** /* USER CODE BEGIN PFP */
  65:Core/Src/main.c **** static void FDCAN_Config(void);
  66:Core/Src/main.c **** /* USER CODE END PFP */
  67:Core/Src/main.c **** 
  68:Core/Src/main.c **** /* Private user code ---------------------------------------------------------*/
  69:Core/Src/main.c **** /* USER CODE BEGIN 0 */
  70:Core/Src/main.c **** 
  71:Core/Src/main.c **** /* USER CODE END 0 */
  72:Core/Src/main.c **** 
  73:Core/Src/main.c **** /**
  74:Core/Src/main.c ****   * @brief  The application entry point.
  75:Core/Src/main.c ****   * @retval int
  76:Core/Src/main.c ****   */
  77:Core/Src/main.c **** int main(void)
  78:Core/Src/main.c **** {
  79:Core/Src/main.c **** 
  80:Core/Src/main.c ****   /* USER CODE BEGIN 1 */
  81:Core/Src/main.c **** 
  82:Core/Src/main.c ****   /* USER CODE END 1 */
  83:Core/Src/main.c **** 
  84:Core/Src/main.c ****   /* MPU Configuration--------------------------------------------------------*/
  85:Core/Src/main.c ****   MPU_Config();
  86:Core/Src/main.c **** 
  87:Core/Src/main.c ****   /* MCU Configuration--------------------------------------------------------*/
  88:Core/Src/main.c **** 
  89:Core/Src/main.c ****   /* Reset of all peripherals, Initializes the Flash interface and the Systick. */
ARM GAS  C:\Users\aticl\AppData\Local\Temp\cczf3dLE.s 			page 3


  90:Core/Src/main.c ****   HAL_Init();
  91:Core/Src/main.c **** 
  92:Core/Src/main.c ****   /* USER CODE BEGIN Init */
  93:Core/Src/main.c **** 
  94:Core/Src/main.c ****   /* USER CODE END Init */
  95:Core/Src/main.c **** 
  96:Core/Src/main.c ****   /* Configure the system clock */
  97:Core/Src/main.c ****   SystemClock_Config();
  98:Core/Src/main.c **** 
  99:Core/Src/main.c ****   /* USER CODE BEGIN SysInit */
 100:Core/Src/main.c ****   /* Initialize all configured peripherals */
 101:Core/Src/main.c **** 
 102:Core/Src/main.c **** 
 103:Core/Src/main.c ****   /* USER CODE END SysInit */
 104:Core/Src/main.c **** 
 105:Core/Src/main.c ****   /* Initialize all configured peripherals */
 106:Core/Src/main.c ****   MX_GPIO_Init();
 107:Core/Src/main.c ****   MX_TIM2_Init();
 108:Core/Src/main.c ****   MX_FDCAN1_Init();
 109:Core/Src/main.c ****   MX_USB_DEVICE_Init();
 110:Core/Src/main.c ****   /* USER CODE BEGIN 2 */
 111:Core/Src/main.c ****   uint8_t send_default[] = "still running\r\n";
 112:Core/Src/main.c ****   uint8_t send_default_len = sizeof(send_default);
 113:Core/Src/main.c ****   HAL_TIM_PWM_Start(&htim2, TIM_CHANNEL_4);
 114:Core/Src/main.c ****   //HAL_FDCAN_Start(&hfdcan1);
 115:Core/Src/main.c ****   FDCAN_Config();
 116:Core/Src/main.c ****   /* USER CODE END 2 */
 117:Core/Src/main.c **** 
 118:Core/Src/main.c ****   /* Infinite loop */
 119:Core/Src/main.c ****   /* USER CODE BEGIN WHILE */
 120:Core/Src/main.c ****   while (1)
 121:Core/Src/main.c ****   {
 122:Core/Src/main.c ****         /* Fade in */
 123:Core/Src/main.c ****         for (uint16_t duty = 0; duty < 1000; duty++) {
 124:Core/Src/main.c ****             __HAL_TIM_SET_COMPARE(&htim2, TIM_CHANNEL_4, duty);
 125:Core/Src/main.c ****             HAL_Delay(1);  // controls fade speed
 126:Core/Src/main.c ****         }
 127:Core/Src/main.c **** 
 128:Core/Src/main.c ****         /* Fade out */
 129:Core/Src/main.c ****         for (uint16_t duty = 1000; duty > 0; duty--) {
 130:Core/Src/main.c ****             __HAL_TIM_SET_COMPARE(&htim2, TIM_CHANNEL_4, duty);
 131:Core/Src/main.c ****             HAL_Delay(1);
 132:Core/Src/main.c ****         }
 133:Core/Src/main.c **** 
 134:Core/Src/main.c ****     // Transmit CAN message
 135:Core/Src/main.c ****     TxData[0] = 0xAB;  // Example data
 136:Core/Src/main.c ****     TxData[1] = 0xCD;  // Example data
 137:Core/Src/main.c **** 
 138:Core/Src/main.c ****     uint32_t free_level = HAL_FDCAN_GetTxFifoFreeLevel(&hfdcan1);
 139:Core/Src/main.c **** char debug_msg[64];
 140:Core/Src/main.c **** snprintf(debug_msg, sizeof(debug_msg), "TX FIFO Free Level: %lu\r\n", free_level);
 141:Core/Src/main.c **** CDC_Transmit_FS((uint8_t *)debug_msg, strlen(debug_msg));
 142:Core/Src/main.c **** 
 143:Core/Src/main.c **** 
 144:Core/Src/main.c **** if (HAL_FDCAN_AddMessageToTxFifoQ(&hfdcan1, &TxHeader, TxData) != HAL_OK) {
 145:Core/Src/main.c ****     char error_msg[] = "CAN TX Error\r\n";
 146:Core/Src/main.c ****     CDC_Transmit_FS((uint8_t *)error_msg, strlen(error_msg));
ARM GAS  C:\Users\aticl\AppData\Local\Temp\cczf3dLE.s 			page 4


 147:Core/Src/main.c ****     HAL_Delay(100);  // Add a delay to prevent spamming
 148:Core/Src/main.c **** }
 149:Core/Src/main.c ****     CDC_Transmit_FS(send_default, send_default_len);
 150:Core/Src/main.c ****     HAL_Delay(100);
 151:Core/Src/main.c ****     /* USER CODE END WHILE */
 152:Core/Src/main.c **** 
 153:Core/Src/main.c ****     /* USER CODE BEGIN 3 */
 154:Core/Src/main.c ****   }
 155:Core/Src/main.c ****   /* USER CODE END 3 */
 156:Core/Src/main.c **** }
 157:Core/Src/main.c **** 
 158:Core/Src/main.c **** /**
 159:Core/Src/main.c ****   * @brief System Clock Configuration
 160:Core/Src/main.c ****   * @retval None
 161:Core/Src/main.c ****   */
 162:Core/Src/main.c **** void SystemClock_Config(void)
 163:Core/Src/main.c **** {
 164:Core/Src/main.c ****   RCC_OscInitTypeDef RCC_OscInitStruct = {0};
 165:Core/Src/main.c ****   RCC_ClkInitTypeDef RCC_ClkInitStruct = {0};
 166:Core/Src/main.c **** 
 167:Core/Src/main.c ****   /** Supply configuration update enable
 168:Core/Src/main.c ****   */
 169:Core/Src/main.c ****   HAL_PWREx_ConfigSupply(PWR_LDO_SUPPLY);
 170:Core/Src/main.c **** 
 171:Core/Src/main.c ****   /** Configure the main internal regulator output voltage
 172:Core/Src/main.c ****   */
 173:Core/Src/main.c ****   __HAL_PWR_VOLTAGESCALING_CONFIG(PWR_REGULATOR_VOLTAGE_SCALE3);
 174:Core/Src/main.c **** 
 175:Core/Src/main.c ****   while(!__HAL_PWR_GET_FLAG(PWR_FLAG_VOSRDY)) {}
 176:Core/Src/main.c **** 
 177:Core/Src/main.c ****   /** Initializes the RCC Oscillators according to the specified parameters
 178:Core/Src/main.c ****   * in the RCC_OscInitTypeDef structure.
 179:Core/Src/main.c ****   */
 180:Core/Src/main.c ****   RCC_OscInitStruct.OscillatorType = RCC_OSCILLATORTYPE_HSE;
 181:Core/Src/main.c ****   RCC_OscInitStruct.HSEState = RCC_HSE_ON;
 182:Core/Src/main.c ****   RCC_OscInitStruct.PLL.PLLState = RCC_PLL_ON;
 183:Core/Src/main.c ****   RCC_OscInitStruct.PLL.PLLSource = RCC_PLLSOURCE_HSE;
 184:Core/Src/main.c ****   RCC_OscInitStruct.PLL.PLLM = 5;
 185:Core/Src/main.c ****   RCC_OscInitStruct.PLL.PLLN = 48;
 186:Core/Src/main.c ****   RCC_OscInitStruct.PLL.PLLP = 2;
 187:Core/Src/main.c ****   RCC_OscInitStruct.PLL.PLLQ = 5;
 188:Core/Src/main.c ****   RCC_OscInitStruct.PLL.PLLR = 2;
 189:Core/Src/main.c ****   RCC_OscInitStruct.PLL.PLLRGE = RCC_PLL1VCIRANGE_2;
 190:Core/Src/main.c ****   RCC_OscInitStruct.PLL.PLLVCOSEL = RCC_PLL1VCOWIDE;
 191:Core/Src/main.c ****   RCC_OscInitStruct.PLL.PLLFRACN = 0;
 192:Core/Src/main.c ****   if (HAL_RCC_OscConfig(&RCC_OscInitStruct) != HAL_OK)
 193:Core/Src/main.c ****   {
 194:Core/Src/main.c ****     Error_Handler();
 195:Core/Src/main.c ****   }
 196:Core/Src/main.c **** 
 197:Core/Src/main.c ****   /** Initializes the CPU, AHB and APB buses clocks
 198:Core/Src/main.c ****   */
 199:Core/Src/main.c ****   RCC_ClkInitStruct.ClockType = RCC_CLOCKTYPE_HCLK|RCC_CLOCKTYPE_SYSCLK
 200:Core/Src/main.c ****                               |RCC_CLOCKTYPE_PCLK1|RCC_CLOCKTYPE_PCLK2
 201:Core/Src/main.c ****                               |RCC_CLOCKTYPE_D3PCLK1|RCC_CLOCKTYPE_D1PCLK1;
 202:Core/Src/main.c ****   RCC_ClkInitStruct.SYSCLKSource = RCC_SYSCLKSOURCE_PLLCLK;
 203:Core/Src/main.c ****   RCC_ClkInitStruct.SYSCLKDivider = RCC_SYSCLK_DIV1;
ARM GAS  C:\Users\aticl\AppData\Local\Temp\cczf3dLE.s 			page 5


 204:Core/Src/main.c ****   RCC_ClkInitStruct.AHBCLKDivider = RCC_HCLK_DIV1;
 205:Core/Src/main.c ****   RCC_ClkInitStruct.APB3CLKDivider = RCC_APB3_DIV1;
 206:Core/Src/main.c ****   RCC_ClkInitStruct.APB1CLKDivider = RCC_APB1_DIV1;
 207:Core/Src/main.c ****   RCC_ClkInitStruct.APB2CLKDivider = RCC_APB2_DIV1;
 208:Core/Src/main.c ****   RCC_ClkInitStruct.APB4CLKDivider = RCC_APB4_DIV1;
 209:Core/Src/main.c **** 
 210:Core/Src/main.c ****   if (HAL_RCC_ClockConfig(&RCC_ClkInitStruct, FLASH_LATENCY_2) != HAL_OK)
 211:Core/Src/main.c ****   {
 212:Core/Src/main.c ****     Error_Handler();
 213:Core/Src/main.c ****   }
 214:Core/Src/main.c **** }
 215:Core/Src/main.c **** 
 216:Core/Src/main.c **** /**
 217:Core/Src/main.c ****   * @brief FDCAN1 Initialization Function
 218:Core/Src/main.c ****   * @param None
 219:Core/Src/main.c ****   * @retval None
 220:Core/Src/main.c ****   */
 221:Core/Src/main.c **** static void MX_FDCAN1_Init(void)
 222:Core/Src/main.c **** {
 223:Core/Src/main.c **** 
 224:Core/Src/main.c ****   /* USER CODE BEGIN FDCAN1_Init 0 */
 225:Core/Src/main.c **** 
 226:Core/Src/main.c ****   /* USER CODE END FDCAN1_Init 0 */
 227:Core/Src/main.c **** 
 228:Core/Src/main.c ****   /* USER CODE BEGIN FDCAN1_Init 1 */
 229:Core/Src/main.c **** 
 230:Core/Src/main.c ****   /* USER CODE END FDCAN1_Init 1 */
 231:Core/Src/main.c ****   hfdcan1.Instance = FDCAN1;
 232:Core/Src/main.c ****   hfdcan1.Init.FrameFormat = FDCAN_FRAME_CLASSIC;
 233:Core/Src/main.c ****   hfdcan1.Init.Mode = FDCAN_MODE_NORMAL;
 234:Core/Src/main.c ****   hfdcan1.Init.AutoRetransmission = ENABLE;
 235:Core/Src/main.c ****   hfdcan1.Init.TransmitPause = DISABLE;
 236:Core/Src/main.c ****   hfdcan1.Init.ProtocolException = DISABLE;
 237:Core/Src/main.c ****   hfdcan1.Init.NominalPrescaler = 1;
 238:Core/Src/main.c ****   hfdcan1.Init.NominalSyncJumpWidth = 7;
 239:Core/Src/main.c ****   hfdcan1.Init.NominalTimeSeg1 = 42;
 240:Core/Src/main.c ****   hfdcan1.Init.NominalTimeSeg2 = 7;
 241:Core/Src/main.c ****   hfdcan1.Init.DataPrescaler = 2;
 242:Core/Src/main.c ****   hfdcan1.Init.DataSyncJumpWidth = 8;
 243:Core/Src/main.c ****   hfdcan1.Init.DataTimeSeg1 = 16;
 244:Core/Src/main.c ****   hfdcan1.Init.DataTimeSeg2 = 8;
 245:Core/Src/main.c ****   hfdcan1.Init.MessageRAMOffset = 0;
 246:Core/Src/main.c ****   hfdcan1.Init.StdFiltersNbr = 1;
 247:Core/Src/main.c ****   hfdcan1.Init.ExtFiltersNbr = 0;
 248:Core/Src/main.c ****   hfdcan1.Init.RxFifo0ElmtsNbr = 1;
 249:Core/Src/main.c ****   hfdcan1.Init.RxFifo0ElmtSize = FDCAN_DATA_BYTES_8;
 250:Core/Src/main.c ****   hfdcan1.Init.RxFifo1ElmtsNbr = 0;
 251:Core/Src/main.c ****   hfdcan1.Init.RxFifo1ElmtSize = FDCAN_DATA_BYTES_8;
 252:Core/Src/main.c ****   hfdcan1.Init.RxBuffersNbr = 16;
 253:Core/Src/main.c ****   hfdcan1.Init.RxBufferSize = FDCAN_DATA_BYTES_8;
 254:Core/Src/main.c ****   hfdcan1.Init.TxEventsNbr = 0;
 255:Core/Src/main.c ****   hfdcan1.Init.TxBuffersNbr = 0;
 256:Core/Src/main.c ****   hfdcan1.Init.TxFifoQueueElmtsNbr = 1;
 257:Core/Src/main.c ****   hfdcan1.Init.TxFifoQueueMode = FDCAN_TX_FIFO_OPERATION;
 258:Core/Src/main.c ****   hfdcan1.Init.TxElmtSize = FDCAN_DATA_BYTES_8;
 259:Core/Src/main.c ****   if (HAL_FDCAN_Init(&hfdcan1) != HAL_OK)
 260:Core/Src/main.c ****   {
ARM GAS  C:\Users\aticl\AppData\Local\Temp\cczf3dLE.s 			page 6


 261:Core/Src/main.c ****     Error_Handler();
 262:Core/Src/main.c ****   }
 263:Core/Src/main.c ****   /* USER CODE BEGIN FDCAN1_Init 2 */
 264:Core/Src/main.c **** char debug_msg[] = "Initializing FDCAN...\r\n";
 265:Core/Src/main.c **** CDC_Transmit_FS((uint8_t *)debug_msg, strlen(debug_msg));
 266:Core/Src/main.c **** 
 267:Core/Src/main.c **** if (HAL_FDCAN_Init(&hfdcan1) != HAL_OK)
 268:Core/Src/main.c **** {
 269:Core/Src/main.c ****     char error_msg[] = "FDCAN Init Failed\r\n";
 270:Core/Src/main.c ****     CDC_Transmit_FS((uint8_t *)error_msg, strlen(error_msg));
 271:Core/Src/main.c ****     Error_Handler();
 272:Core/Src/main.c **** }
 273:Core/Src/main.c **** else
 274:Core/Src/main.c **** {
 275:Core/Src/main.c ****     char success_msg[] = "FDCAN Init Successful\r\n";
 276:Core/Src/main.c ****     CDC_Transmit_FS((uint8_t *)success_msg, strlen(success_msg));
 277:Core/Src/main.c **** }
 278:Core/Src/main.c ****   /* USER CODE END FDCAN1_Init 2 */
 279:Core/Src/main.c **** 
 280:Core/Src/main.c **** }
 281:Core/Src/main.c **** 
 282:Core/Src/main.c **** /**
 283:Core/Src/main.c ****   * @brief TIM2 Initialization Function
 284:Core/Src/main.c ****   * @param None
 285:Core/Src/main.c ****   * @retval None
 286:Core/Src/main.c ****   */
 287:Core/Src/main.c **** static void MX_TIM2_Init(void)
 288:Core/Src/main.c **** {
 289:Core/Src/main.c **** 
 290:Core/Src/main.c ****   /* USER CODE BEGIN TIM2_Init 0 */
 291:Core/Src/main.c **** 
 292:Core/Src/main.c ****   /* USER CODE END TIM2_Init 0 */
 293:Core/Src/main.c **** 
 294:Core/Src/main.c ****   TIM_MasterConfigTypeDef sMasterConfig = {0};
 295:Core/Src/main.c ****   TIM_OC_InitTypeDef sConfigOC = {0};
 296:Core/Src/main.c **** 
 297:Core/Src/main.c ****   /* USER CODE BEGIN TIM2_Init 1 */
 298:Core/Src/main.c **** 
 299:Core/Src/main.c ****   /* USER CODE END TIM2_Init 1 */
 300:Core/Src/main.c ****   htim2.Instance = TIM2;
 301:Core/Src/main.c ****   htim2.Init.Prescaler = 25;
 302:Core/Src/main.c ****   htim2.Init.CounterMode = TIM_COUNTERMODE_UP;
 303:Core/Src/main.c ****   htim2.Init.Period = 999;
 304:Core/Src/main.c ****   htim2.Init.ClockDivision = TIM_CLOCKDIVISION_DIV1;
 305:Core/Src/main.c ****   htim2.Init.AutoReloadPreload = TIM_AUTORELOAD_PRELOAD_DISABLE;
 306:Core/Src/main.c ****   if (HAL_TIM_PWM_Init(&htim2) != HAL_OK)
 307:Core/Src/main.c ****   {
 308:Core/Src/main.c ****     Error_Handler();
 309:Core/Src/main.c ****   }
 310:Core/Src/main.c ****   sMasterConfig.MasterOutputTrigger = TIM_TRGO_RESET;
 311:Core/Src/main.c ****   sMasterConfig.MasterSlaveMode = TIM_MASTERSLAVEMODE_DISABLE;
 312:Core/Src/main.c ****   if (HAL_TIMEx_MasterConfigSynchronization(&htim2, &sMasterConfig) != HAL_OK)
 313:Core/Src/main.c ****   {
 314:Core/Src/main.c ****     Error_Handler();
 315:Core/Src/main.c ****   }
 316:Core/Src/main.c ****   sConfigOC.OCMode = TIM_OCMODE_PWM1;
 317:Core/Src/main.c ****   sConfigOC.Pulse = 500;
ARM GAS  C:\Users\aticl\AppData\Local\Temp\cczf3dLE.s 			page 7


 318:Core/Src/main.c ****   sConfigOC.OCPolarity = TIM_OCPOLARITY_HIGH;
 319:Core/Src/main.c ****   sConfigOC.OCFastMode = TIM_OCFAST_DISABLE;
 320:Core/Src/main.c ****   if (HAL_TIM_PWM_ConfigChannel(&htim2, &sConfigOC, TIM_CHANNEL_4) != HAL_OK)
 321:Core/Src/main.c ****   {
 322:Core/Src/main.c ****     Error_Handler();
 323:Core/Src/main.c ****   }
 324:Core/Src/main.c ****   /* USER CODE BEGIN TIM2_Init 2 */
 325:Core/Src/main.c **** 
 326:Core/Src/main.c ****   /* USER CODE END TIM2_Init 2 */
 327:Core/Src/main.c ****   HAL_TIM_MspPostInit(&htim2);
 328:Core/Src/main.c **** 
 329:Core/Src/main.c **** }
 330:Core/Src/main.c **** 
 331:Core/Src/main.c **** /**
 332:Core/Src/main.c ****   * @brief GPIO Initialization Function
 333:Core/Src/main.c ****   * @param None
 334:Core/Src/main.c ****   * @retval None
 335:Core/Src/main.c ****   */
 336:Core/Src/main.c **** static void MX_GPIO_Init(void)
 337:Core/Src/main.c **** {
  27              		.loc 1 337 1 view -0
  28              		.cfi_startproc
  29              		@ args = 0, pretend = 0, frame = 16
  30              		@ frame_needed = 0, uses_anonymous_args = 0
  31              		@ link register save eliminated.
  32 0000 84B0     		sub	sp, sp, #16
  33              		.cfi_def_cfa_offset 16
 338:Core/Src/main.c ****   /* USER CODE BEGIN MX_GPIO_Init_1 */
 339:Core/Src/main.c **** 
 340:Core/Src/main.c ****   /* USER CODE END MX_GPIO_Init_1 */
 341:Core/Src/main.c **** 
 342:Core/Src/main.c ****   /* GPIO Ports Clock Enable */
 343:Core/Src/main.c ****   __HAL_RCC_GPIOH_CLK_ENABLE();
  34              		.loc 1 343 3 view .LVU1
  35              	.LBB2:
  36              		.loc 1 343 3 view .LVU2
  37              		.loc 1 343 3 view .LVU3
  38 0002 134B     		ldr	r3, .L3
  39 0004 D3F8E020 		ldr	r2, [r3, #224]
  40 0008 42F08002 		orr	r2, r2, #128
  41 000c C3F8E020 		str	r2, [r3, #224]
  42              		.loc 1 343 3 view .LVU4
  43 0010 D3F8E020 		ldr	r2, [r3, #224]
  44 0014 02F08002 		and	r2, r2, #128
  45 0018 0192     		str	r2, [sp, #4]
  46              		.loc 1 343 3 view .LVU5
  47 001a 019A     		ldr	r2, [sp, #4]
  48              	.LBE2:
  49              		.loc 1 343 3 view .LVU6
 344:Core/Src/main.c ****   __HAL_RCC_GPIOA_CLK_ENABLE();
  50              		.loc 1 344 3 view .LVU7
  51              	.LBB3:
  52              		.loc 1 344 3 view .LVU8
  53              		.loc 1 344 3 view .LVU9
  54 001c D3F8E020 		ldr	r2, [r3, #224]
  55 0020 42F00102 		orr	r2, r2, #1
  56 0024 C3F8E020 		str	r2, [r3, #224]
ARM GAS  C:\Users\aticl\AppData\Local\Temp\cczf3dLE.s 			page 8


  57              		.loc 1 344 3 view .LVU10
  58 0028 D3F8E020 		ldr	r2, [r3, #224]
  59 002c 02F00102 		and	r2, r2, #1
  60 0030 0292     		str	r2, [sp, #8]
  61              		.loc 1 344 3 view .LVU11
  62 0032 029A     		ldr	r2, [sp, #8]
  63              	.LBE3:
  64              		.loc 1 344 3 view .LVU12
 345:Core/Src/main.c ****   __HAL_RCC_GPIOD_CLK_ENABLE();
  65              		.loc 1 345 3 view .LVU13
  66              	.LBB4:
  67              		.loc 1 345 3 view .LVU14
  68              		.loc 1 345 3 view .LVU15
  69 0034 D3F8E020 		ldr	r2, [r3, #224]
  70 0038 42F00802 		orr	r2, r2, #8
  71 003c C3F8E020 		str	r2, [r3, #224]
  72              		.loc 1 345 3 view .LVU16
  73 0040 D3F8E030 		ldr	r3, [r3, #224]
  74 0044 03F00803 		and	r3, r3, #8
  75 0048 0393     		str	r3, [sp, #12]
  76              		.loc 1 345 3 view .LVU17
  77 004a 039B     		ldr	r3, [sp, #12]
  78              	.LBE4:
  79              		.loc 1 345 3 view .LVU18
 346:Core/Src/main.c **** 
 347:Core/Src/main.c ****   /* USER CODE BEGIN MX_GPIO_Init_2 */
 348:Core/Src/main.c **** 
 349:Core/Src/main.c ****   /* USER CODE END MX_GPIO_Init_2 */
 350:Core/Src/main.c **** }
  80              		.loc 1 350 1 is_stmt 0 view .LVU19
  81 004c 04B0     		add	sp, sp, #16
  82              		.cfi_def_cfa_offset 0
  83              		@ sp needed
  84 004e 7047     		bx	lr
  85              	.L4:
  86              		.align	2
  87              	.L3:
  88 0050 00440258 		.word	1476543488
  89              		.cfi_endproc
  90              	.LFE152:
  92              		.section	.text.MPU_Config,"ax",%progbits
  93              		.align	1
  94              		.syntax unified
  95              		.thumb
  96              		.thumb_func
  98              	MPU_Config:
  99              	.LFB155:
 351:Core/Src/main.c **** 
 352:Core/Src/main.c **** /* USER CODE BEGIN 4 */
 353:Core/Src/main.c **** /**
 354:Core/Src/main.c ****   * @brief  Configures the FDCAN.
 355:Core/Src/main.c ****   *   None
 356:Core/Src/main.c ****   * @retval None
 357:Core/Src/main.c ****   */
 358:Core/Src/main.c **** static void FDCAN_Config(void)
 359:Core/Src/main.c **** {  
 360:Core/Src/main.c ****   TxHeader.Identifier = 0x321;
ARM GAS  C:\Users\aticl\AppData\Local\Temp\cczf3dLE.s 			page 9


 361:Core/Src/main.c ****   TxHeader.IdType = FDCAN_STANDARD_ID;
 362:Core/Src/main.c ****   TxHeader.TxFrameType = FDCAN_DATA_FRAME;
 363:Core/Src/main.c ****   TxHeader.DataLength = FDCAN_DLC_BYTES_2;
 364:Core/Src/main.c ****   TxHeader.ErrorStateIndicator = FDCAN_ESI_PASSIVE;
 365:Core/Src/main.c ****   TxHeader.BitRateSwitch = FDCAN_BRS_OFF;
 366:Core/Src/main.c ****   TxHeader.FDFormat = FDCAN_CLASSIC_CAN;
 367:Core/Src/main.c ****   TxHeader.TxEventFifoControl = FDCAN_NO_TX_EVENTS;
 368:Core/Src/main.c ****   TxHeader.MessageMarker = 0;
 369:Core/Src/main.c ****   if (HAL_FDCAN_ConfigGlobalFilter(&hfdcan1, FDCAN_ACCEPT_IN_RX_FIFO0, FDCAN_ACCEPT_IN_RX_FIFO0, FD
 370:Core/Src/main.c ****   {
 371:Core/Src/main.c ****     Error_Handler();
 372:Core/Src/main.c ****   }
 373:Core/Src/main.c **** 
 374:Core/Src/main.c ****   if (HAL_FDCAN_Start(&hfdcan1) != HAL_OK)
 375:Core/Src/main.c ****   {
 376:Core/Src/main.c ****     Error_Handler();
 377:Core/Src/main.c ****   }
 378:Core/Src/main.c **** 
 379:Core/Src/main.c ****   if (HAL_FDCAN_ActivateNotification(&hfdcan1, 
 380:Core/Src/main.c ****                                      FDCAN_IT_RX_FIFO0_NEW_MESSAGE | 
 381:Core/Src/main.c ****                                      FDCAN_IT_BUS_OFF | 
 382:Core/Src/main.c ****                                      FDCAN_IT_ERROR_PASSIVE | 
 383:Core/Src/main.c ****                                      FDCAN_IT_ERROR_WARNING, 
 384:Core/Src/main.c ****                                      0) != HAL_OK)
 385:Core/Src/main.c ****   {
 386:Core/Src/main.c ****     Error_Handler();
 387:Core/Src/main.c ****   }
 388:Core/Src/main.c **** 
 389:Core/Src/main.c **** }
 390:Core/Src/main.c **** 
 391:Core/Src/main.c **** void HAL_FDCAN_RxFifo0Callback(FDCAN_HandleTypeDef *hfdcan, uint32_t RxFifo0ITs)
 392:Core/Src/main.c **** {
 393:Core/Src/main.c ****     if (RxFifo0ITs & FDCAN_IT_RX_FIFO0_NEW_MESSAGE)
 394:Core/Src/main.c ****     {
 395:Core/Src/main.c ****         /* Retrieve Rx messages from RX FIFO0 */
 396:Core/Src/main.c ****         if (HAL_FDCAN_GetRxMessage(hfdcan, FDCAN_RX_FIFO0, &RxHeader, RxData) != HAL_OK)
 397:Core/Src/main.c ****         {
 398:Core/Src/main.c ****             Error_Handler();
 399:Core/Src/main.c ****         }
 400:Core/Src/main.c **** 
 401:Core/Src/main.c ****         /* Convert DLC to actual data length */
 402:Core/Src/main.c ****         uint8_t data_length = (RxHeader.DataLength >> 16) & 0xF;
 403:Core/Src/main.c **** 
 404:Core/Src/main.c ****         /* Print received message over USB */
 405:Core/Src/main.c ****         char msg[64];
 406:Core/Src/main.c ****         int len = snprintf(msg, sizeof(msg), "ID: 0x%03X, DLC: %d, Data: ", RxHeader.Identifier, da
 407:Core/Src/main.c ****         for (int i = 0; i < data_length; i++)
 408:Core/Src/main.c ****         {
 409:Core/Src/main.c ****             len += snprintf(msg + len, sizeof(msg) - len, "%02X ", RxData[i]);
 410:Core/Src/main.c ****         }
 411:Core/Src/main.c ****         snprintf(msg + len, sizeof(msg) - len, "\r\n");
 412:Core/Src/main.c **** 
 413:Core/Src/main.c ****         CDC_Transmit_FS((uint8_t *)msg, strlen(msg));
 414:Core/Src/main.c ****     }
 415:Core/Src/main.c **** 
 416:Core/Src/main.c ****     if (RxFifo0ITs & FDCAN_IT_BUS_OFF)
 417:Core/Src/main.c ****     {
ARM GAS  C:\Users\aticl\AppData\Local\Temp\cczf3dLE.s 			page 10


 418:Core/Src/main.c ****         char error_msg[] = "CAN Bus-Off Error\r\n";
 419:Core/Src/main.c ****         CDC_Transmit_FS((uint8_t *)error_msg, strlen(error_msg));
 420:Core/Src/main.c ****         HAL_FDCAN_Stop(hfdcan);  // Stop the CAN peripheral
 421:Core/Src/main.c ****         HAL_Delay(1000);         // Wait before attempting recovery
 422:Core/Src/main.c ****         HAL_FDCAN_Start(hfdcan); // Restart the CAN peripheral
 423:Core/Src/main.c ****     }
 424:Core/Src/main.c **** 
 425:Core/Src/main.c ****     if (RxFifo0ITs & FDCAN_IT_ERROR_PASSIVE)
 426:Core/Src/main.c ****     {
 427:Core/Src/main.c ****         char error_msg[] = "CAN Error Passive\r\n";
 428:Core/Src/main.c ****         CDC_Transmit_FS((uint8_t *)error_msg, strlen(error_msg));
 429:Core/Src/main.c ****     }
 430:Core/Src/main.c **** 
 431:Core/Src/main.c ****     if (RxFifo0ITs & FDCAN_IT_ERROR_WARNING)
 432:Core/Src/main.c ****     {
 433:Core/Src/main.c ****         char error_msg[] = "CAN Error Warning\r\n";
 434:Core/Src/main.c ****         CDC_Transmit_FS((uint8_t *)error_msg, strlen(error_msg));
 435:Core/Src/main.c ****     }
 436:Core/Src/main.c **** }
 437:Core/Src/main.c **** 
 438:Core/Src/main.c **** 
 439:Core/Src/main.c **** /* USER CODE END 4 */
 440:Core/Src/main.c **** 
 441:Core/Src/main.c ****  /* MPU Configuration */
 442:Core/Src/main.c **** 
 443:Core/Src/main.c **** void MPU_Config(void)
 444:Core/Src/main.c **** {
 100              		.loc 1 444 1 is_stmt 1 view -0
 101              		.cfi_startproc
 102              		@ args = 0, pretend = 0, frame = 16
 103              		@ frame_needed = 0, uses_anonymous_args = 0
 104 0000 30B5     		push	{r4, r5, lr}
 105              		.cfi_def_cfa_offset 12
 106              		.cfi_offset 4, -12
 107              		.cfi_offset 5, -8
 108              		.cfi_offset 14, -4
 109 0002 85B0     		sub	sp, sp, #20
 110              		.cfi_def_cfa_offset 32
 445:Core/Src/main.c ****   MPU_Region_InitTypeDef MPU_InitStruct = {0};
 111              		.loc 1 445 3 view .LVU21
 112              		.loc 1 445 26 is_stmt 0 view .LVU22
 113 0004 0024     		movs	r4, #0
 114 0006 0094     		str	r4, [sp]
 115 0008 0194     		str	r4, [sp, #4]
 116 000a 0294     		str	r4, [sp, #8]
 117 000c 0394     		str	r4, [sp, #12]
 446:Core/Src/main.c **** 
 447:Core/Src/main.c ****   /* Disables the MPU */
 448:Core/Src/main.c ****   HAL_MPU_Disable();
 118              		.loc 1 448 3 is_stmt 1 view .LVU23
 119 000e FFF7FEFF 		bl	HAL_MPU_Disable
 120              	.LVL0:
 449:Core/Src/main.c **** 
 450:Core/Src/main.c ****   /** Initializes and configures the Region and the memory to be protected
 451:Core/Src/main.c ****   */
 452:Core/Src/main.c ****   MPU_InitStruct.Enable = MPU_REGION_ENABLE;
 121              		.loc 1 452 3 view .LVU24
ARM GAS  C:\Users\aticl\AppData\Local\Temp\cczf3dLE.s 			page 11


 122              		.loc 1 452 25 is_stmt 0 view .LVU25
 123 0012 0123     		movs	r3, #1
 124 0014 8DF80030 		strb	r3, [sp]
 453:Core/Src/main.c ****   MPU_InitStruct.Number = MPU_REGION_NUMBER0;
 125              		.loc 1 453 3 is_stmt 1 view .LVU26
 126              		.loc 1 453 25 is_stmt 0 view .LVU27
 127 0018 8DF80140 		strb	r4, [sp, #1]
 454:Core/Src/main.c ****   MPU_InitStruct.BaseAddress = 0x0;
 128              		.loc 1 454 3 is_stmt 1 view .LVU28
 129              		.loc 1 454 30 is_stmt 0 view .LVU29
 130 001c 0194     		str	r4, [sp, #4]
 455:Core/Src/main.c ****   MPU_InitStruct.Size = MPU_REGION_SIZE_4GB;
 131              		.loc 1 455 3 is_stmt 1 view .LVU30
 132              		.loc 1 455 23 is_stmt 0 view .LVU31
 133 001e 1F22     		movs	r2, #31
 134 0020 8DF80820 		strb	r2, [sp, #8]
 456:Core/Src/main.c ****   MPU_InitStruct.SubRegionDisable = 0x87;
 135              		.loc 1 456 3 is_stmt 1 view .LVU32
 136              		.loc 1 456 35 is_stmt 0 view .LVU33
 137 0024 8722     		movs	r2, #135
 138 0026 8DF80920 		strb	r2, [sp, #9]
 457:Core/Src/main.c ****   MPU_InitStruct.TypeExtField = MPU_TEX_LEVEL0;
 139              		.loc 1 457 3 is_stmt 1 view .LVU34
 140              		.loc 1 457 31 is_stmt 0 view .LVU35
 141 002a 8DF80A40 		strb	r4, [sp, #10]
 458:Core/Src/main.c ****   MPU_InitStruct.AccessPermission = MPU_REGION_NO_ACCESS;
 142              		.loc 1 458 3 is_stmt 1 view .LVU36
 143              		.loc 1 458 35 is_stmt 0 view .LVU37
 144 002e 8DF80B40 		strb	r4, [sp, #11]
 459:Core/Src/main.c ****   MPU_InitStruct.DisableExec = MPU_INSTRUCTION_ACCESS_DISABLE;
 145              		.loc 1 459 3 is_stmt 1 view .LVU38
 146              		.loc 1 459 30 is_stmt 0 view .LVU39
 147 0032 8DF80C30 		strb	r3, [sp, #12]
 460:Core/Src/main.c ****   MPU_InitStruct.IsShareable = MPU_ACCESS_SHAREABLE;
 148              		.loc 1 460 3 is_stmt 1 view .LVU40
 149              		.loc 1 460 30 is_stmt 0 view .LVU41
 150 0036 8DF80D30 		strb	r3, [sp, #13]
 461:Core/Src/main.c ****   MPU_InitStruct.IsCacheable = MPU_ACCESS_NOT_CACHEABLE;
 151              		.loc 1 461 3 is_stmt 1 view .LVU42
 152              		.loc 1 461 30 is_stmt 0 view .LVU43
 153 003a 8DF80E40 		strb	r4, [sp, #14]
 462:Core/Src/main.c ****   MPU_InitStruct.IsBufferable = MPU_ACCESS_NOT_BUFFERABLE;
 154              		.loc 1 462 3 is_stmt 1 view .LVU44
 155              		.loc 1 462 31 is_stmt 0 view .LVU45
 156 003e 8DF80F40 		strb	r4, [sp, #15]
 463:Core/Src/main.c **** 
 464:Core/Src/main.c ****   HAL_MPU_ConfigRegion(&MPU_InitStruct);
 157              		.loc 1 464 3 is_stmt 1 view .LVU46
 158 0042 6846     		mov	r0, sp
 159 0044 FFF7FEFF 		bl	HAL_MPU_ConfigRegion
 160              	.LVL1:
 465:Core/Src/main.c ****   /* Enables the MPU */
 466:Core/Src/main.c ****   HAL_MPU_Enable(MPU_PRIVILEGED_DEFAULT);
 161              		.loc 1 466 3 view .LVU47
 162 0048 0420     		movs	r0, #4
 163 004a FFF7FEFF 		bl	HAL_MPU_Enable
 164              	.LVL2:
ARM GAS  C:\Users\aticl\AppData\Local\Temp\cczf3dLE.s 			page 12


 467:Core/Src/main.c **** 
 468:Core/Src/main.c **** }
 165              		.loc 1 468 1 is_stmt 0 view .LVU48
 166 004e 05B0     		add	sp, sp, #20
 167              		.cfi_def_cfa_offset 12
 168              		@ sp needed
 169 0050 30BD     		pop	{r4, r5, pc}
 170              		.cfi_endproc
 171              	.LFE155:
 173              		.section	.rodata.Error_Handler.str1.4,"aMS",%progbits,1
 174              		.align	2
 175              	.LC0:
 176 0000 4572726F 		.ascii	"Error occurred\015\012\000"
 176      72206F63 
 176      63757272 
 176      65640D0A 
 176      00
 177              		.section	.text.Error_Handler,"ax",%progbits
 178              		.align	1
 179              		.global	Error_Handler
 180              		.syntax unified
 181              		.thumb
 182              		.thumb_func
 184              	Error_Handler:
 185              	.LFB156:
 469:Core/Src/main.c **** 
 470:Core/Src/main.c **** /**
 471:Core/Src/main.c ****   * @brief  This function is executed in case of error occurrence.
 472:Core/Src/main.c ****   * @retval None
 473:Core/Src/main.c ****   */
 474:Core/Src/main.c **** void Error_Handler(void)
 475:Core/Src/main.c **** {
 186              		.loc 1 475 1 is_stmt 1 view -0
 187              		.cfi_startproc
 188              		@ Volatile: function does not return.
 189              		@ args = 0, pretend = 0, frame = 24
 190              		@ frame_needed = 0, uses_anonymous_args = 0
 191 0000 00B5     		push	{lr}
 192              		.cfi_def_cfa_offset 4
 193              		.cfi_offset 14, -4
 194 0002 87B0     		sub	sp, sp, #28
 195              		.cfi_def_cfa_offset 32
 196              	.L8:
 476:Core/Src/main.c ****   /* USER CODE BEGIN Error_Handler_Debug */
 477:Core/Src/main.c ****   /* User can add his own implementation to report the HAL error return state */
 478:Core/Src/main.c ****     while (1)
 197              		.loc 1 478 5 view .LVU50
 198              	.LBB5:
 479:Core/Src/main.c ****   {
 480:Core/Src/main.c ****     char error_msg[] = "Error occurred\r\n";
 199              		.loc 1 480 5 view .LVU51
 200              		.loc 1 480 10 is_stmt 0 view .LVU52
 201 0004 0DF1040C 		add	ip, sp, #4
 202 0008 094C     		ldr	r4, .L10
 203 000a 0FCC     		ldmia	r4!, {r0, r1, r2, r3}
 204 000c ACE80F00 		stmia	ip!, {r0, r1, r2, r3}
 205 0010 2368     		ldr	r3, [r4]
ARM GAS  C:\Users\aticl\AppData\Local\Temp\cczf3dLE.s 			page 13


 206 0012 8CF80030 		strb	r3, [ip]
 481:Core/Src/main.c ****     CDC_Transmit_FS((uint8_t *)error_msg, strlen(error_msg));
 207              		.loc 1 481 5 is_stmt 1 view .LVU53
 208              		.loc 1 481 43 is_stmt 0 view .LVU54
 209 0016 01AC     		add	r4, sp, #4
 210 0018 2046     		mov	r0, r4
 211 001a FFF7FEFF 		bl	strlen
 212              	.LVL3:
 213              		.loc 1 481 5 discriminator 1 view .LVU55
 214 001e 81B2     		uxth	r1, r0
 215 0020 2046     		mov	r0, r4
 216 0022 FFF7FEFF 		bl	CDC_Transmit_FS
 217              	.LVL4:
 482:Core/Src/main.c ****     HAL_Delay(1000);  // Wait for the message to be sent
 218              		.loc 1 482 5 is_stmt 1 view .LVU56
 219 0026 4FF47A70 		mov	r0, #1000
 220 002a FFF7FEFF 		bl	HAL_Delay
 221              	.LVL5:
 222              	.LBE5:
 478:Core/Src/main.c ****   {
 223              		.loc 1 478 11 view .LVU57
 224 002e E9E7     		b	.L8
 225              	.L11:
 226              		.align	2
 227              	.L10:
 228 0030 00000000 		.word	.LC0
 229              		.cfi_endproc
 230              	.LFE156:
 232              		.section	.text.MX_TIM2_Init,"ax",%progbits
 233              		.align	1
 234              		.syntax unified
 235              		.thumb
 236              		.thumb_func
 238              	MX_TIM2_Init:
 239              	.LFB151:
 288:Core/Src/main.c **** 
 240              		.loc 1 288 1 view -0
 241              		.cfi_startproc
 242              		@ args = 0, pretend = 0, frame = 40
 243              		@ frame_needed = 0, uses_anonymous_args = 0
 244 0000 00B5     		push	{lr}
 245              		.cfi_def_cfa_offset 4
 246              		.cfi_offset 14, -4
 247 0002 8BB0     		sub	sp, sp, #44
 248              		.cfi_def_cfa_offset 48
 294:Core/Src/main.c ****   TIM_OC_InitTypeDef sConfigOC = {0};
 249              		.loc 1 294 3 view .LVU59
 294:Core/Src/main.c ****   TIM_OC_InitTypeDef sConfigOC = {0};
 250              		.loc 1 294 27 is_stmt 0 view .LVU60
 251 0004 0023     		movs	r3, #0
 252 0006 0793     		str	r3, [sp, #28]
 253 0008 0893     		str	r3, [sp, #32]
 254 000a 0993     		str	r3, [sp, #36]
 295:Core/Src/main.c **** 
 255              		.loc 1 295 3 is_stmt 1 view .LVU61
 295:Core/Src/main.c **** 
 256              		.loc 1 295 22 is_stmt 0 view .LVU62
ARM GAS  C:\Users\aticl\AppData\Local\Temp\cczf3dLE.s 			page 14


 257 000c 0093     		str	r3, [sp]
 258 000e 0193     		str	r3, [sp, #4]
 259 0010 0293     		str	r3, [sp, #8]
 260 0012 0393     		str	r3, [sp, #12]
 261 0014 0493     		str	r3, [sp, #16]
 262 0016 0593     		str	r3, [sp, #20]
 263 0018 0693     		str	r3, [sp, #24]
 300:Core/Src/main.c ****   htim2.Init.Prescaler = 25;
 264              		.loc 1 300 3 is_stmt 1 view .LVU63
 300:Core/Src/main.c ****   htim2.Init.Prescaler = 25;
 265              		.loc 1 300 18 is_stmt 0 view .LVU64
 266 001a 1848     		ldr	r0, .L20
 267 001c 4FF08042 		mov	r2, #1073741824
 268 0020 0260     		str	r2, [r0]
 301:Core/Src/main.c ****   htim2.Init.CounterMode = TIM_COUNTERMODE_UP;
 269              		.loc 1 301 3 is_stmt 1 view .LVU65
 301:Core/Src/main.c ****   htim2.Init.CounterMode = TIM_COUNTERMODE_UP;
 270              		.loc 1 301 24 is_stmt 0 view .LVU66
 271 0022 1922     		movs	r2, #25
 272 0024 4260     		str	r2, [r0, #4]
 302:Core/Src/main.c ****   htim2.Init.Period = 999;
 273              		.loc 1 302 3 is_stmt 1 view .LVU67
 302:Core/Src/main.c ****   htim2.Init.Period = 999;
 274              		.loc 1 302 26 is_stmt 0 view .LVU68
 275 0026 8360     		str	r3, [r0, #8]
 303:Core/Src/main.c ****   htim2.Init.ClockDivision = TIM_CLOCKDIVISION_DIV1;
 276              		.loc 1 303 3 is_stmt 1 view .LVU69
 303:Core/Src/main.c ****   htim2.Init.ClockDivision = TIM_CLOCKDIVISION_DIV1;
 277              		.loc 1 303 21 is_stmt 0 view .LVU70
 278 0028 40F2E732 		movw	r2, #999
 279 002c C260     		str	r2, [r0, #12]
 304:Core/Src/main.c ****   htim2.Init.AutoReloadPreload = TIM_AUTORELOAD_PRELOAD_DISABLE;
 280              		.loc 1 304 3 is_stmt 1 view .LVU71
 304:Core/Src/main.c ****   htim2.Init.AutoReloadPreload = TIM_AUTORELOAD_PRELOAD_DISABLE;
 281              		.loc 1 304 28 is_stmt 0 view .LVU72
 282 002e 0361     		str	r3, [r0, #16]
 305:Core/Src/main.c ****   if (HAL_TIM_PWM_Init(&htim2) != HAL_OK)
 283              		.loc 1 305 3 is_stmt 1 view .LVU73
 305:Core/Src/main.c ****   if (HAL_TIM_PWM_Init(&htim2) != HAL_OK)
 284              		.loc 1 305 32 is_stmt 0 view .LVU74
 285 0030 8361     		str	r3, [r0, #24]
 306:Core/Src/main.c ****   {
 286              		.loc 1 306 3 is_stmt 1 view .LVU75
 306:Core/Src/main.c ****   {
 287              		.loc 1 306 7 is_stmt 0 view .LVU76
 288 0032 FFF7FEFF 		bl	HAL_TIM_PWM_Init
 289              	.LVL6:
 306:Core/Src/main.c ****   {
 290              		.loc 1 306 6 discriminator 1 view .LVU77
 291 0036 D8B9     		cbnz	r0, .L17
 310:Core/Src/main.c ****   sMasterConfig.MasterSlaveMode = TIM_MASTERSLAVEMODE_DISABLE;
 292              		.loc 1 310 3 is_stmt 1 view .LVU78
 310:Core/Src/main.c ****   sMasterConfig.MasterSlaveMode = TIM_MASTERSLAVEMODE_DISABLE;
 293              		.loc 1 310 37 is_stmt 0 view .LVU79
 294 0038 0023     		movs	r3, #0
 295 003a 0793     		str	r3, [sp, #28]
 311:Core/Src/main.c ****   if (HAL_TIMEx_MasterConfigSynchronization(&htim2, &sMasterConfig) != HAL_OK)
ARM GAS  C:\Users\aticl\AppData\Local\Temp\cczf3dLE.s 			page 15


 296              		.loc 1 311 3 is_stmt 1 view .LVU80
 311:Core/Src/main.c ****   if (HAL_TIMEx_MasterConfigSynchronization(&htim2, &sMasterConfig) != HAL_OK)
 297              		.loc 1 311 33 is_stmt 0 view .LVU81
 298 003c 0993     		str	r3, [sp, #36]
 312:Core/Src/main.c ****   {
 299              		.loc 1 312 3 is_stmt 1 view .LVU82
 312:Core/Src/main.c ****   {
 300              		.loc 1 312 7 is_stmt 0 view .LVU83
 301 003e 07A9     		add	r1, sp, #28
 302 0040 0E48     		ldr	r0, .L20
 303 0042 FFF7FEFF 		bl	HAL_TIMEx_MasterConfigSynchronization
 304              	.LVL7:
 312:Core/Src/main.c ****   {
 305              		.loc 1 312 6 discriminator 1 view .LVU84
 306 0046 A8B9     		cbnz	r0, .L18
 316:Core/Src/main.c ****   sConfigOC.Pulse = 500;
 307              		.loc 1 316 3 is_stmt 1 view .LVU85
 316:Core/Src/main.c ****   sConfigOC.Pulse = 500;
 308              		.loc 1 316 20 is_stmt 0 view .LVU86
 309 0048 6023     		movs	r3, #96
 310 004a 0093     		str	r3, [sp]
 317:Core/Src/main.c ****   sConfigOC.OCPolarity = TIM_OCPOLARITY_HIGH;
 311              		.loc 1 317 3 is_stmt 1 view .LVU87
 317:Core/Src/main.c ****   sConfigOC.OCPolarity = TIM_OCPOLARITY_HIGH;
 312              		.loc 1 317 19 is_stmt 0 view .LVU88
 313 004c 4FF4FA73 		mov	r3, #500
 314 0050 0193     		str	r3, [sp, #4]
 318:Core/Src/main.c ****   sConfigOC.OCFastMode = TIM_OCFAST_DISABLE;
 315              		.loc 1 318 3 is_stmt 1 view .LVU89
 318:Core/Src/main.c ****   sConfigOC.OCFastMode = TIM_OCFAST_DISABLE;
 316              		.loc 1 318 24 is_stmt 0 view .LVU90
 317 0052 0023     		movs	r3, #0
 318 0054 0293     		str	r3, [sp, #8]
 319:Core/Src/main.c ****   if (HAL_TIM_PWM_ConfigChannel(&htim2, &sConfigOC, TIM_CHANNEL_4) != HAL_OK)
 319              		.loc 1 319 3 is_stmt 1 view .LVU91
 319:Core/Src/main.c ****   if (HAL_TIM_PWM_ConfigChannel(&htim2, &sConfigOC, TIM_CHANNEL_4) != HAL_OK)
 320              		.loc 1 319 24 is_stmt 0 view .LVU92
 321 0056 0493     		str	r3, [sp, #16]
 320:Core/Src/main.c ****   {
 322              		.loc 1 320 3 is_stmt 1 view .LVU93
 320:Core/Src/main.c ****   {
 323              		.loc 1 320 7 is_stmt 0 view .LVU94
 324 0058 0C22     		movs	r2, #12
 325 005a 6946     		mov	r1, sp
 326 005c 0748     		ldr	r0, .L20
 327 005e FFF7FEFF 		bl	HAL_TIM_PWM_ConfigChannel
 328              	.LVL8:
 320:Core/Src/main.c ****   {
 329              		.loc 1 320 6 discriminator 1 view .LVU95
 330 0062 48B9     		cbnz	r0, .L19
 327:Core/Src/main.c **** 
 331              		.loc 1 327 3 is_stmt 1 view .LVU96
 332 0064 0548     		ldr	r0, .L20
 333 0066 FFF7FEFF 		bl	HAL_TIM_MspPostInit
 334              	.LVL9:
 329:Core/Src/main.c **** 
 335              		.loc 1 329 1 is_stmt 0 view .LVU97
ARM GAS  C:\Users\aticl\AppData\Local\Temp\cczf3dLE.s 			page 16


 336 006a 0BB0     		add	sp, sp, #44
 337              		.cfi_remember_state
 338              		.cfi_def_cfa_offset 4
 339              		@ sp needed
 340 006c 5DF804FB 		ldr	pc, [sp], #4
 341              	.L17:
 342              		.cfi_restore_state
 308:Core/Src/main.c ****   }
 343              		.loc 1 308 5 is_stmt 1 view .LVU98
 344 0070 FFF7FEFF 		bl	Error_Handler
 345              	.LVL10:
 346              	.L18:
 314:Core/Src/main.c ****   }
 347              		.loc 1 314 5 view .LVU99
 348 0074 FFF7FEFF 		bl	Error_Handler
 349              	.LVL11:
 350              	.L19:
 322:Core/Src/main.c ****   }
 351              		.loc 1 322 5 view .LVU100
 352 0078 FFF7FEFF 		bl	Error_Handler
 353              	.LVL12:
 354              	.L21:
 355              		.align	2
 356              	.L20:
 357 007c 00000000 		.word	htim2
 358              		.cfi_endproc
 359              	.LFE151:
 361              		.section	.rodata.MX_FDCAN1_Init.str1.4,"aMS",%progbits,1
 362              		.align	2
 363              	.LC1:
 364 0000 496E6974 		.ascii	"Initializing FDCAN...\015\012\000"
 364      69616C69 
 364      7A696E67 
 364      20464443 
 364      414E2E2E 
 365              		.align	2
 366              	.LC3:
 367 0018 46444341 		.ascii	"FDCAN Init Successful\015\012\000"
 367      4E20496E 
 367      69742053 
 367      75636365 
 367      73736675 
 368              		.align	2
 369              	.LC2:
 370 0030 46444341 		.ascii	"FDCAN Init Failed\015\012\000"
 370      4E20496E 
 370      69742046 
 370      61696C65 
 370      640D0A00 
 371              		.section	.text.MX_FDCAN1_Init,"ax",%progbits
 372              		.align	1
 373              		.syntax unified
 374              		.thumb
 375              		.thumb_func
 377              	MX_FDCAN1_Init:
 378              	.LFB150:
 222:Core/Src/main.c **** 
ARM GAS  C:\Users\aticl\AppData\Local\Temp\cczf3dLE.s 			page 17


 379              		.loc 1 222 1 view -0
 380              		.cfi_startproc
 381              		@ args = 0, pretend = 0, frame = 48
 382              		@ frame_needed = 0, uses_anonymous_args = 0
 383 0000 30B5     		push	{r4, r5, lr}
 384              		.cfi_def_cfa_offset 12
 385              		.cfi_offset 4, -12
 386              		.cfi_offset 5, -8
 387              		.cfi_offset 14, -4
 388 0002 8DB0     		sub	sp, sp, #52
 389              		.cfi_def_cfa_offset 64
 231:Core/Src/main.c ****   hfdcan1.Init.FrameFormat = FDCAN_FRAME_CLASSIC;
 390              		.loc 1 231 3 view .LVU102
 231:Core/Src/main.c ****   hfdcan1.Init.FrameFormat = FDCAN_FRAME_CLASSIC;
 391              		.loc 1 231 20 is_stmt 0 view .LVU103
 392 0004 2F48     		ldr	r0, .L28
 393 0006 304B     		ldr	r3, .L28+4
 394 0008 0360     		str	r3, [r0]
 232:Core/Src/main.c ****   hfdcan1.Init.Mode = FDCAN_MODE_NORMAL;
 395              		.loc 1 232 3 is_stmt 1 view .LVU104
 232:Core/Src/main.c ****   hfdcan1.Init.Mode = FDCAN_MODE_NORMAL;
 396              		.loc 1 232 28 is_stmt 0 view .LVU105
 397 000a 0023     		movs	r3, #0
 398 000c 8360     		str	r3, [r0, #8]
 233:Core/Src/main.c ****   hfdcan1.Init.AutoRetransmission = ENABLE;
 399              		.loc 1 233 3 is_stmt 1 view .LVU106
 233:Core/Src/main.c ****   hfdcan1.Init.AutoRetransmission = ENABLE;
 400              		.loc 1 233 21 is_stmt 0 view .LVU107
 401 000e C360     		str	r3, [r0, #12]
 234:Core/Src/main.c ****   hfdcan1.Init.TransmitPause = DISABLE;
 402              		.loc 1 234 3 is_stmt 1 view .LVU108
 234:Core/Src/main.c ****   hfdcan1.Init.TransmitPause = DISABLE;
 403              		.loc 1 234 35 is_stmt 0 view .LVU109
 404 0010 0122     		movs	r2, #1
 405 0012 0274     		strb	r2, [r0, #16]
 235:Core/Src/main.c ****   hfdcan1.Init.ProtocolException = DISABLE;
 406              		.loc 1 235 3 is_stmt 1 view .LVU110
 235:Core/Src/main.c ****   hfdcan1.Init.ProtocolException = DISABLE;
 407              		.loc 1 235 30 is_stmt 0 view .LVU111
 408 0014 4374     		strb	r3, [r0, #17]
 236:Core/Src/main.c ****   hfdcan1.Init.NominalPrescaler = 1;
 409              		.loc 1 236 3 is_stmt 1 view .LVU112
 236:Core/Src/main.c ****   hfdcan1.Init.NominalPrescaler = 1;
 410              		.loc 1 236 34 is_stmt 0 view .LVU113
 411 0016 8374     		strb	r3, [r0, #18]
 237:Core/Src/main.c ****   hfdcan1.Init.NominalSyncJumpWidth = 7;
 412              		.loc 1 237 3 is_stmt 1 view .LVU114
 237:Core/Src/main.c ****   hfdcan1.Init.NominalSyncJumpWidth = 7;
 413              		.loc 1 237 33 is_stmt 0 view .LVU115
 414 0018 4261     		str	r2, [r0, #20]
 238:Core/Src/main.c ****   hfdcan1.Init.NominalTimeSeg1 = 42;
 415              		.loc 1 238 3 is_stmt 1 view .LVU116
 238:Core/Src/main.c ****   hfdcan1.Init.NominalTimeSeg1 = 42;
 416              		.loc 1 238 37 is_stmt 0 view .LVU117
 417 001a 0721     		movs	r1, #7
 418 001c 8161     		str	r1, [r0, #24]
 239:Core/Src/main.c ****   hfdcan1.Init.NominalTimeSeg2 = 7;
ARM GAS  C:\Users\aticl\AppData\Local\Temp\cczf3dLE.s 			page 18


 419              		.loc 1 239 3 is_stmt 1 view .LVU118
 239:Core/Src/main.c ****   hfdcan1.Init.NominalTimeSeg2 = 7;
 420              		.loc 1 239 32 is_stmt 0 view .LVU119
 421 001e 2A24     		movs	r4, #42
 422 0020 C461     		str	r4, [r0, #28]
 240:Core/Src/main.c ****   hfdcan1.Init.DataPrescaler = 2;
 423              		.loc 1 240 3 is_stmt 1 view .LVU120
 240:Core/Src/main.c ****   hfdcan1.Init.DataPrescaler = 2;
 424              		.loc 1 240 32 is_stmt 0 view .LVU121
 425 0022 0162     		str	r1, [r0, #32]
 241:Core/Src/main.c ****   hfdcan1.Init.DataSyncJumpWidth = 8;
 426              		.loc 1 241 3 is_stmt 1 view .LVU122
 241:Core/Src/main.c ****   hfdcan1.Init.DataSyncJumpWidth = 8;
 427              		.loc 1 241 30 is_stmt 0 view .LVU123
 428 0024 0221     		movs	r1, #2
 429 0026 4162     		str	r1, [r0, #36]
 242:Core/Src/main.c ****   hfdcan1.Init.DataTimeSeg1 = 16;
 430              		.loc 1 242 3 is_stmt 1 view .LVU124
 242:Core/Src/main.c ****   hfdcan1.Init.DataTimeSeg1 = 16;
 431              		.loc 1 242 34 is_stmt 0 view .LVU125
 432 0028 0821     		movs	r1, #8
 433 002a 8162     		str	r1, [r0, #40]
 243:Core/Src/main.c ****   hfdcan1.Init.DataTimeSeg2 = 8;
 434              		.loc 1 243 3 is_stmt 1 view .LVU126
 243:Core/Src/main.c ****   hfdcan1.Init.DataTimeSeg2 = 8;
 435              		.loc 1 243 29 is_stmt 0 view .LVU127
 436 002c 1024     		movs	r4, #16
 437 002e C462     		str	r4, [r0, #44]
 244:Core/Src/main.c ****   hfdcan1.Init.MessageRAMOffset = 0;
 438              		.loc 1 244 3 is_stmt 1 view .LVU128
 244:Core/Src/main.c ****   hfdcan1.Init.MessageRAMOffset = 0;
 439              		.loc 1 244 29 is_stmt 0 view .LVU129
 440 0030 0163     		str	r1, [r0, #48]
 245:Core/Src/main.c ****   hfdcan1.Init.StdFiltersNbr = 1;
 441              		.loc 1 245 3 is_stmt 1 view .LVU130
 245:Core/Src/main.c ****   hfdcan1.Init.StdFiltersNbr = 1;
 442              		.loc 1 245 33 is_stmt 0 view .LVU131
 443 0032 4363     		str	r3, [r0, #52]
 246:Core/Src/main.c ****   hfdcan1.Init.ExtFiltersNbr = 0;
 444              		.loc 1 246 3 is_stmt 1 view .LVU132
 246:Core/Src/main.c ****   hfdcan1.Init.ExtFiltersNbr = 0;
 445              		.loc 1 246 30 is_stmt 0 view .LVU133
 446 0034 8263     		str	r2, [r0, #56]
 247:Core/Src/main.c ****   hfdcan1.Init.RxFifo0ElmtsNbr = 1;
 447              		.loc 1 247 3 is_stmt 1 view .LVU134
 247:Core/Src/main.c ****   hfdcan1.Init.RxFifo0ElmtsNbr = 1;
 448              		.loc 1 247 30 is_stmt 0 view .LVU135
 449 0036 C363     		str	r3, [r0, #60]
 248:Core/Src/main.c ****   hfdcan1.Init.RxFifo0ElmtSize = FDCAN_DATA_BYTES_8;
 450              		.loc 1 248 3 is_stmt 1 view .LVU136
 248:Core/Src/main.c ****   hfdcan1.Init.RxFifo0ElmtSize = FDCAN_DATA_BYTES_8;
 451              		.loc 1 248 32 is_stmt 0 view .LVU137
 452 0038 0264     		str	r2, [r0, #64]
 249:Core/Src/main.c ****   hfdcan1.Init.RxFifo1ElmtsNbr = 0;
 453              		.loc 1 249 3 is_stmt 1 view .LVU138
 249:Core/Src/main.c ****   hfdcan1.Init.RxFifo1ElmtsNbr = 0;
 454              		.loc 1 249 32 is_stmt 0 view .LVU139
ARM GAS  C:\Users\aticl\AppData\Local\Temp\cczf3dLE.s 			page 19


 455 003a 0421     		movs	r1, #4
 456 003c 4164     		str	r1, [r0, #68]
 250:Core/Src/main.c ****   hfdcan1.Init.RxFifo1ElmtSize = FDCAN_DATA_BYTES_8;
 457              		.loc 1 250 3 is_stmt 1 view .LVU140
 250:Core/Src/main.c ****   hfdcan1.Init.RxFifo1ElmtSize = FDCAN_DATA_BYTES_8;
 458              		.loc 1 250 32 is_stmt 0 view .LVU141
 459 003e 8364     		str	r3, [r0, #72]
 251:Core/Src/main.c ****   hfdcan1.Init.RxBuffersNbr = 16;
 460              		.loc 1 251 3 is_stmt 1 view .LVU142
 251:Core/Src/main.c ****   hfdcan1.Init.RxBuffersNbr = 16;
 461              		.loc 1 251 32 is_stmt 0 view .LVU143
 462 0040 C164     		str	r1, [r0, #76]
 252:Core/Src/main.c ****   hfdcan1.Init.RxBufferSize = FDCAN_DATA_BYTES_8;
 463              		.loc 1 252 3 is_stmt 1 view .LVU144
 252:Core/Src/main.c ****   hfdcan1.Init.RxBufferSize = FDCAN_DATA_BYTES_8;
 464              		.loc 1 252 29 is_stmt 0 view .LVU145
 465 0042 0465     		str	r4, [r0, #80]
 253:Core/Src/main.c ****   hfdcan1.Init.TxEventsNbr = 0;
 466              		.loc 1 253 3 is_stmt 1 view .LVU146
 253:Core/Src/main.c ****   hfdcan1.Init.TxEventsNbr = 0;
 467              		.loc 1 253 29 is_stmt 0 view .LVU147
 468 0044 4165     		str	r1, [r0, #84]
 254:Core/Src/main.c ****   hfdcan1.Init.TxBuffersNbr = 0;
 469              		.loc 1 254 3 is_stmt 1 view .LVU148
 254:Core/Src/main.c ****   hfdcan1.Init.TxBuffersNbr = 0;
 470              		.loc 1 254 28 is_stmt 0 view .LVU149
 471 0046 8365     		str	r3, [r0, #88]
 255:Core/Src/main.c ****   hfdcan1.Init.TxFifoQueueElmtsNbr = 1;
 472              		.loc 1 255 3 is_stmt 1 view .LVU150
 255:Core/Src/main.c ****   hfdcan1.Init.TxFifoQueueElmtsNbr = 1;
 473              		.loc 1 255 29 is_stmt 0 view .LVU151
 474 0048 C365     		str	r3, [r0, #92]
 256:Core/Src/main.c ****   hfdcan1.Init.TxFifoQueueMode = FDCAN_TX_FIFO_OPERATION;
 475              		.loc 1 256 3 is_stmt 1 view .LVU152
 256:Core/Src/main.c ****   hfdcan1.Init.TxFifoQueueMode = FDCAN_TX_FIFO_OPERATION;
 476              		.loc 1 256 36 is_stmt 0 view .LVU153
 477 004a 0266     		str	r2, [r0, #96]
 257:Core/Src/main.c ****   hfdcan1.Init.TxElmtSize = FDCAN_DATA_BYTES_8;
 478              		.loc 1 257 3 is_stmt 1 view .LVU154
 257:Core/Src/main.c ****   hfdcan1.Init.TxElmtSize = FDCAN_DATA_BYTES_8;
 479              		.loc 1 257 32 is_stmt 0 view .LVU155
 480 004c 4366     		str	r3, [r0, #100]
 258:Core/Src/main.c ****   if (HAL_FDCAN_Init(&hfdcan1) != HAL_OK)
 481              		.loc 1 258 3 is_stmt 1 view .LVU156
 258:Core/Src/main.c ****   if (HAL_FDCAN_Init(&hfdcan1) != HAL_OK)
 482              		.loc 1 258 27 is_stmt 0 view .LVU157
 483 004e 8166     		str	r1, [r0, #104]
 259:Core/Src/main.c ****   {
 484              		.loc 1 259 3 is_stmt 1 view .LVU158
 259:Core/Src/main.c ****   {
 485              		.loc 1 259 7 is_stmt 0 view .LVU159
 486 0050 FFF7FEFF 		bl	HAL_FDCAN_Init
 487              	.LVL13:
 259:Core/Src/main.c ****   {
 488              		.loc 1 259 6 discriminator 1 view .LVU160
 489 0054 28BB     		cbnz	r0, .L26
 264:Core/Src/main.c **** CDC_Transmit_FS((uint8_t *)debug_msg, strlen(debug_msg));
ARM GAS  C:\Users\aticl\AppData\Local\Temp\cczf3dLE.s 			page 20


 490              		.loc 1 264 1 is_stmt 1 view .LVU161
 264:Core/Src/main.c **** CDC_Transmit_FS((uint8_t *)debug_msg, strlen(debug_msg));
 491              		.loc 1 264 6 is_stmt 0 view .LVU162
 492 0056 06AC     		add	r4, sp, #24
 493 0058 1C4D     		ldr	r5, .L28+8
 494 005a 0FCD     		ldmia	r5!, {r0, r1, r2, r3}
 495 005c 0FC4     		stmia	r4!, {r0, r1, r2, r3}
 496 005e 95E80300 		ldm	r5, {r0, r1}
 497 0062 84E80300 		stm	r4, {r0, r1}
 265:Core/Src/main.c **** 
 498              		.loc 1 265 1 is_stmt 1 view .LVU163
 265:Core/Src/main.c **** 
 499              		.loc 1 265 39 is_stmt 0 view .LVU164
 500 0066 06AC     		add	r4, sp, #24
 501 0068 2046     		mov	r0, r4
 502 006a FFF7FEFF 		bl	strlen
 503              	.LVL14:
 265:Core/Src/main.c **** 
 504              		.loc 1 265 1 discriminator 1 view .LVU165
 505 006e 81B2     		uxth	r1, r0
 506 0070 2046     		mov	r0, r4
 507 0072 FFF7FEFF 		bl	CDC_Transmit_FS
 508              	.LVL15:
 267:Core/Src/main.c **** {
 509              		.loc 1 267 1 is_stmt 1 view .LVU166
 267:Core/Src/main.c **** {
 510              		.loc 1 267 5 is_stmt 0 view .LVU167
 511 0076 1348     		ldr	r0, .L28
 512 0078 FFF7FEFF 		bl	HAL_FDCAN_Init
 513              	.LVL16:
 267:Core/Src/main.c **** {
 514              		.loc 1 267 4 discriminator 1 view .LVU168
 515 007c 98B9     		cbnz	r0, .L27
 516              	.LBB6:
 275:Core/Src/main.c ****     CDC_Transmit_FS((uint8_t *)success_msg, strlen(success_msg));
 517              		.loc 1 275 5 is_stmt 1 view .LVU169
 275:Core/Src/main.c ****     CDC_Transmit_FS((uint8_t *)success_msg, strlen(success_msg));
 518              		.loc 1 275 10 is_stmt 0 view .LVU170
 519 007e EC46     		mov	ip, sp
 520 0080 134C     		ldr	r4, .L28+12
 521 0082 0FCC     		ldmia	r4!, {r0, r1, r2, r3}
 522 0084 ACE80F00 		stmia	ip!, {r0, r1, r2, r3}
 523 0088 94E80300 		ldm	r4, {r0, r1}
 524 008c 8CE80300 		stm	ip, {r0, r1}
 276:Core/Src/main.c **** }
 525              		.loc 1 276 5 is_stmt 1 view .LVU171
 276:Core/Src/main.c **** }
 526              		.loc 1 276 45 is_stmt 0 view .LVU172
 527 0090 6846     		mov	r0, sp
 528 0092 FFF7FEFF 		bl	strlen
 529              	.LVL17:
 276:Core/Src/main.c **** }
 530              		.loc 1 276 5 discriminator 1 view .LVU173
 531 0096 81B2     		uxth	r1, r0
 532 0098 6846     		mov	r0, sp
 533 009a FFF7FEFF 		bl	CDC_Transmit_FS
 534              	.LVL18:
ARM GAS  C:\Users\aticl\AppData\Local\Temp\cczf3dLE.s 			page 21


 535              	.LBE6:
 280:Core/Src/main.c **** 
 536              		.loc 1 280 1 view .LVU174
 537 009e 0DB0     		add	sp, sp, #52
 538              		.cfi_remember_state
 539              		.cfi_def_cfa_offset 12
 540              		@ sp needed
 541 00a0 30BD     		pop	{r4, r5, pc}
 542              	.L26:
 543              		.cfi_restore_state
 261:Core/Src/main.c ****   }
 544              		.loc 1 261 5 is_stmt 1 view .LVU175
 545 00a2 FFF7FEFF 		bl	Error_Handler
 546              	.LVL19:
 547              	.L27:
 548              	.LBB7:
 269:Core/Src/main.c ****     CDC_Transmit_FS((uint8_t *)error_msg, strlen(error_msg));
 549              		.loc 1 269 5 view .LVU176
 269:Core/Src/main.c ****     CDC_Transmit_FS((uint8_t *)error_msg, strlen(error_msg));
 550              		.loc 1 269 10 is_stmt 0 view .LVU177
 551 00a6 6C46     		mov	r4, sp
 552 00a8 0A4D     		ldr	r5, .L28+16
 553 00aa 0FCD     		ldmia	r5!, {r0, r1, r2, r3}
 554 00ac 0FC4     		stmia	r4!, {r0, r1, r2, r3}
 555 00ae 2B68     		ldr	r3, [r5]
 556 00b0 2360     		str	r3, [r4]
 270:Core/Src/main.c ****     Error_Handler();
 557              		.loc 1 270 5 is_stmt 1 view .LVU178
 270:Core/Src/main.c ****     Error_Handler();
 558              		.loc 1 270 43 is_stmt 0 view .LVU179
 559 00b2 6846     		mov	r0, sp
 560 00b4 FFF7FEFF 		bl	strlen
 561              	.LVL20:
 270:Core/Src/main.c ****     Error_Handler();
 562              		.loc 1 270 5 discriminator 1 view .LVU180
 563 00b8 81B2     		uxth	r1, r0
 564 00ba 6846     		mov	r0, sp
 565 00bc FFF7FEFF 		bl	CDC_Transmit_FS
 566              	.LVL21:
 271:Core/Src/main.c **** }
 567              		.loc 1 271 5 is_stmt 1 view .LVU181
 568 00c0 FFF7FEFF 		bl	Error_Handler
 569              	.LVL22:
 570              	.L29:
 571              		.align	2
 572              	.L28:
 573 00c4 00000000 		.word	hfdcan1
 574 00c8 00A00040 		.word	1073782784
 575 00cc 00000000 		.word	.LC1
 576 00d0 18000000 		.word	.LC3
 577 00d4 30000000 		.word	.LC2
 578              	.LBE7:
 579              		.cfi_endproc
 580              	.LFE150:
 582              		.section	.text.FDCAN_Config,"ax",%progbits
 583              		.align	1
 584              		.syntax unified
ARM GAS  C:\Users\aticl\AppData\Local\Temp\cczf3dLE.s 			page 22


 585              		.thumb
 586              		.thumb_func
 588              	FDCAN_Config:
 589              	.LFB153:
 359:Core/Src/main.c ****   TxHeader.Identifier = 0x321;
 590              		.loc 1 359 1 view -0
 591              		.cfi_startproc
 592              		@ args = 0, pretend = 0, frame = 0
 593              		@ frame_needed = 0, uses_anonymous_args = 0
 594 0000 00B5     		push	{lr}
 595              		.cfi_def_cfa_offset 4
 596              		.cfi_offset 14, -4
 597 0002 83B0     		sub	sp, sp, #12
 598              		.cfi_def_cfa_offset 16
 360:Core/Src/main.c ****   TxHeader.IdType = FDCAN_STANDARD_ID;
 599              		.loc 1 360 3 view .LVU183
 360:Core/Src/main.c ****   TxHeader.IdType = FDCAN_STANDARD_ID;
 600              		.loc 1 360 23 is_stmt 0 view .LVU184
 601 0004 144B     		ldr	r3, .L38
 602 0006 40F22132 		movw	r2, #801
 603 000a 1A60     		str	r2, [r3]
 361:Core/Src/main.c ****   TxHeader.TxFrameType = FDCAN_DATA_FRAME;
 604              		.loc 1 361 3 is_stmt 1 view .LVU185
 361:Core/Src/main.c ****   TxHeader.TxFrameType = FDCAN_DATA_FRAME;
 605              		.loc 1 361 19 is_stmt 0 view .LVU186
 606 000c 0021     		movs	r1, #0
 607 000e 5960     		str	r1, [r3, #4]
 362:Core/Src/main.c ****   TxHeader.DataLength = FDCAN_DLC_BYTES_2;
 608              		.loc 1 362 3 is_stmt 1 view .LVU187
 362:Core/Src/main.c ****   TxHeader.DataLength = FDCAN_DLC_BYTES_2;
 609              		.loc 1 362 24 is_stmt 0 view .LVU188
 610 0010 9960     		str	r1, [r3, #8]
 363:Core/Src/main.c ****   TxHeader.ErrorStateIndicator = FDCAN_ESI_PASSIVE;
 611              		.loc 1 363 3 is_stmt 1 view .LVU189
 363:Core/Src/main.c ****   TxHeader.ErrorStateIndicator = FDCAN_ESI_PASSIVE;
 612              		.loc 1 363 23 is_stmt 0 view .LVU190
 613 0012 0222     		movs	r2, #2
 614 0014 DA60     		str	r2, [r3, #12]
 364:Core/Src/main.c ****   TxHeader.BitRateSwitch = FDCAN_BRS_OFF;
 615              		.loc 1 364 3 is_stmt 1 view .LVU191
 364:Core/Src/main.c ****   TxHeader.BitRateSwitch = FDCAN_BRS_OFF;
 616              		.loc 1 364 32 is_stmt 0 view .LVU192
 617 0016 4FF00042 		mov	r2, #-2147483648
 618 001a 1A61     		str	r2, [r3, #16]
 365:Core/Src/main.c ****   TxHeader.FDFormat = FDCAN_CLASSIC_CAN;
 619              		.loc 1 365 3 is_stmt 1 view .LVU193
 365:Core/Src/main.c ****   TxHeader.FDFormat = FDCAN_CLASSIC_CAN;
 620              		.loc 1 365 26 is_stmt 0 view .LVU194
 621 001c 5961     		str	r1, [r3, #20]
 366:Core/Src/main.c ****   TxHeader.TxEventFifoControl = FDCAN_NO_TX_EVENTS;
 622              		.loc 1 366 3 is_stmt 1 view .LVU195
 366:Core/Src/main.c ****   TxHeader.TxEventFifoControl = FDCAN_NO_TX_EVENTS;
 623              		.loc 1 366 21 is_stmt 0 view .LVU196
 624 001e 9961     		str	r1, [r3, #24]
 367:Core/Src/main.c ****   TxHeader.MessageMarker = 0;
 625              		.loc 1 367 3 is_stmt 1 view .LVU197
 367:Core/Src/main.c ****   TxHeader.MessageMarker = 0;
ARM GAS  C:\Users\aticl\AppData\Local\Temp\cczf3dLE.s 			page 23


 626              		.loc 1 367 31 is_stmt 0 view .LVU198
 627 0020 D961     		str	r1, [r3, #28]
 368:Core/Src/main.c ****   if (HAL_FDCAN_ConfigGlobalFilter(&hfdcan1, FDCAN_ACCEPT_IN_RX_FIFO0, FDCAN_ACCEPT_IN_RX_FIFO0, FD
 628              		.loc 1 368 3 is_stmt 1 view .LVU199
 368:Core/Src/main.c ****   if (HAL_FDCAN_ConfigGlobalFilter(&hfdcan1, FDCAN_ACCEPT_IN_RX_FIFO0, FDCAN_ACCEPT_IN_RX_FIFO0, FD
 629              		.loc 1 368 26 is_stmt 0 view .LVU200
 630 0022 1962     		str	r1, [r3, #32]
 369:Core/Src/main.c ****   {
 631              		.loc 1 369 3 is_stmt 1 view .LVU201
 369:Core/Src/main.c ****   {
 632              		.loc 1 369 7 is_stmt 0 view .LVU202
 633 0024 0123     		movs	r3, #1
 634 0026 0093     		str	r3, [sp]
 635 0028 0A46     		mov	r2, r1
 636 002a 0C48     		ldr	r0, .L38+4
 637 002c FFF7FEFF 		bl	HAL_FDCAN_ConfigGlobalFilter
 638              	.LVL23:
 369:Core/Src/main.c ****   {
 639              		.loc 1 369 6 discriminator 1 view .LVU203
 640 0030 60B9     		cbnz	r0, .L35
 374:Core/Src/main.c ****   {
 641              		.loc 1 374 3 is_stmt 1 view .LVU204
 374:Core/Src/main.c ****   {
 642              		.loc 1 374 7 is_stmt 0 view .LVU205
 643 0032 0A48     		ldr	r0, .L38+4
 644 0034 FFF7FEFF 		bl	HAL_FDCAN_Start
 645              	.LVL24:
 374:Core/Src/main.c ****   {
 646              		.loc 1 374 6 discriminator 1 view .LVU206
 647 0038 50B9     		cbnz	r0, .L36
 379:Core/Src/main.c ****                                      FDCAN_IT_RX_FIFO0_NEW_MESSAGE | 
 648              		.loc 1 379 3 is_stmt 1 view .LVU207
 379:Core/Src/main.c ****                                      FDCAN_IT_RX_FIFO0_NEW_MESSAGE | 
 649              		.loc 1 379 7 is_stmt 0 view .LVU208
 650 003a 0022     		movs	r2, #0
 651 003c 0849     		ldr	r1, .L38+8
 652 003e 0748     		ldr	r0, .L38+4
 653 0040 FFF7FEFF 		bl	HAL_FDCAN_ActivateNotification
 654              	.LVL25:
 379:Core/Src/main.c ****                                      FDCAN_IT_RX_FIFO0_NEW_MESSAGE | 
 655              		.loc 1 379 6 discriminator 1 view .LVU209
 656 0044 30B9     		cbnz	r0, .L37
 389:Core/Src/main.c **** 
 657              		.loc 1 389 1 view .LVU210
 658 0046 03B0     		add	sp, sp, #12
 659              		.cfi_remember_state
 660              		.cfi_def_cfa_offset 4
 661              		@ sp needed
 662 0048 5DF804FB 		ldr	pc, [sp], #4
 663              	.L35:
 664              		.cfi_restore_state
 371:Core/Src/main.c ****   }
 665              		.loc 1 371 5 is_stmt 1 view .LVU211
 666 004c FFF7FEFF 		bl	Error_Handler
 667              	.LVL26:
 668              	.L36:
 376:Core/Src/main.c ****   }
ARM GAS  C:\Users\aticl\AppData\Local\Temp\cczf3dLE.s 			page 24


 669              		.loc 1 376 5 view .LVU212
 670 0050 FFF7FEFF 		bl	Error_Handler
 671              	.LVL27:
 672              	.L37:
 386:Core/Src/main.c ****   }
 673              		.loc 1 386 5 view .LVU213
 674 0054 FFF7FEFF 		bl	Error_Handler
 675              	.LVL28:
 676              	.L39:
 677              		.align	2
 678              	.L38:
 679 0058 00000000 		.word	TxHeader
 680 005c 00000000 		.word	hfdcan1
 681 0060 01008003 		.word	58720257
 682              		.cfi_endproc
 683              	.LFE153:
 685              		.section	.text.SystemClock_Config,"ax",%progbits
 686              		.align	1
 687              		.global	SystemClock_Config
 688              		.syntax unified
 689              		.thumb
 690              		.thumb_func
 692              	SystemClock_Config:
 693              	.LFB149:
 163:Core/Src/main.c ****   RCC_OscInitTypeDef RCC_OscInitStruct = {0};
 694              		.loc 1 163 1 view -0
 695              		.cfi_startproc
 696              		@ args = 0, pretend = 0, frame = 112
 697              		@ frame_needed = 0, uses_anonymous_args = 0
 698 0000 00B5     		push	{lr}
 699              		.cfi_def_cfa_offset 4
 700              		.cfi_offset 14, -4
 701 0002 9DB0     		sub	sp, sp, #116
 702              		.cfi_def_cfa_offset 120
 164:Core/Src/main.c ****   RCC_ClkInitTypeDef RCC_ClkInitStruct = {0};
 703              		.loc 1 164 3 view .LVU215
 164:Core/Src/main.c ****   RCC_ClkInitTypeDef RCC_ClkInitStruct = {0};
 704              		.loc 1 164 22 is_stmt 0 view .LVU216
 705 0004 4C22     		movs	r2, #76
 706 0006 0021     		movs	r1, #0
 707 0008 09A8     		add	r0, sp, #36
 708 000a FFF7FEFF 		bl	memset
 709              	.LVL29:
 165:Core/Src/main.c **** 
 710              		.loc 1 165 3 is_stmt 1 view .LVU217
 165:Core/Src/main.c **** 
 711              		.loc 1 165 22 is_stmt 0 view .LVU218
 712 000e 2022     		movs	r2, #32
 713 0010 0021     		movs	r1, #0
 714 0012 01A8     		add	r0, sp, #4
 715 0014 FFF7FEFF 		bl	memset
 716              	.LVL30:
 169:Core/Src/main.c **** 
 717              		.loc 1 169 3 is_stmt 1 view .LVU219
 718 0018 0220     		movs	r0, #2
 719 001a FFF7FEFF 		bl	HAL_PWREx_ConfigSupply
 720              	.LVL31:
ARM GAS  C:\Users\aticl\AppData\Local\Temp\cczf3dLE.s 			page 25


 173:Core/Src/main.c **** 
 721              		.loc 1 173 3 view .LVU220
 722              	.LBB8:
 173:Core/Src/main.c **** 
 723              		.loc 1 173 3 view .LVU221
 724 001e 0023     		movs	r3, #0
 725 0020 0093     		str	r3, [sp]
 173:Core/Src/main.c **** 
 726              		.loc 1 173 3 view .LVU222
 173:Core/Src/main.c **** 
 727              		.loc 1 173 3 discriminator 2 view .LVU223
 728 0022 244B     		ldr	r3, .L47
 729 0024 DA6A     		ldr	r2, [r3, #44]
 730 0026 22F00102 		bic	r2, r2, #1
 731 002a DA62     		str	r2, [r3, #44]
 173:Core/Src/main.c **** 
 732              		.loc 1 173 3 view .LVU224
 173:Core/Src/main.c **** 
 733              		.loc 1 173 3 is_stmt 0 discriminator 2 view .LVU225
 734 002c DB6A     		ldr	r3, [r3, #44]
 735 002e 03F00103 		and	r3, r3, #1
 736 0032 0093     		str	r3, [sp]
 173:Core/Src/main.c **** 
 737              		.loc 1 173 3 is_stmt 1 view .LVU226
 173:Core/Src/main.c **** 
 738              		.loc 1 173 3 is_stmt 0 discriminator 2 view .LVU227
 739 0034 204A     		ldr	r2, .L47+4
 740 0036 9369     		ldr	r3, [r2, #24]
 741 0038 23F44043 		bic	r3, r3, #49152
 742 003c 43F48043 		orr	r3, r3, #16384
 743 0040 9361     		str	r3, [r2, #24]
 173:Core/Src/main.c **** 
 744              		.loc 1 173 3 is_stmt 1 view .LVU228
 173:Core/Src/main.c **** 
 745              		.loc 1 173 3 is_stmt 0 discriminator 2 view .LVU229
 746 0042 9369     		ldr	r3, [r2, #24]
 747 0044 03F44043 		and	r3, r3, #49152
 748 0048 0093     		str	r3, [sp]
 173:Core/Src/main.c **** 
 749              		.loc 1 173 3 is_stmt 1 discriminator 4 view .LVU230
 750 004a 009B     		ldr	r3, [sp]
 751              	.LBE8:
 173:Core/Src/main.c **** 
 752              		.loc 1 173 3 view .LVU231
 175:Core/Src/main.c **** 
 753              		.loc 1 175 3 view .LVU232
 754              	.L41:
 175:Core/Src/main.c **** 
 755              		.loc 1 175 48 discriminator 1 view .LVU233
 175:Core/Src/main.c **** 
 756              		.loc 1 175 9 discriminator 1 view .LVU234
 175:Core/Src/main.c **** 
 757              		.loc 1 175 10 is_stmt 0 discriminator 1 view .LVU235
 758 004c 1A4B     		ldr	r3, .L47+4
 759 004e 9B69     		ldr	r3, [r3, #24]
 175:Core/Src/main.c **** 
 760              		.loc 1 175 9 discriminator 1 view .LVU236
ARM GAS  C:\Users\aticl\AppData\Local\Temp\cczf3dLE.s 			page 26


 761 0050 13F4005F 		tst	r3, #8192
 762 0054 FAD0     		beq	.L41
 180:Core/Src/main.c ****   RCC_OscInitStruct.HSEState = RCC_HSE_ON;
 763              		.loc 1 180 3 is_stmt 1 view .LVU237
 180:Core/Src/main.c ****   RCC_OscInitStruct.HSEState = RCC_HSE_ON;
 764              		.loc 1 180 36 is_stmt 0 view .LVU238
 765 0056 0123     		movs	r3, #1
 766 0058 0993     		str	r3, [sp, #36]
 181:Core/Src/main.c ****   RCC_OscInitStruct.PLL.PLLState = RCC_PLL_ON;
 767              		.loc 1 181 3 is_stmt 1 view .LVU239
 181:Core/Src/main.c ****   RCC_OscInitStruct.PLL.PLLState = RCC_PLL_ON;
 768              		.loc 1 181 30 is_stmt 0 view .LVU240
 769 005a 4FF48033 		mov	r3, #65536
 770 005e 0A93     		str	r3, [sp, #40]
 182:Core/Src/main.c ****   RCC_OscInitStruct.PLL.PLLSource = RCC_PLLSOURCE_HSE;
 771              		.loc 1 182 3 is_stmt 1 view .LVU241
 182:Core/Src/main.c ****   RCC_OscInitStruct.PLL.PLLSource = RCC_PLLSOURCE_HSE;
 772              		.loc 1 182 34 is_stmt 0 view .LVU242
 773 0060 0223     		movs	r3, #2
 774 0062 1293     		str	r3, [sp, #72]
 183:Core/Src/main.c ****   RCC_OscInitStruct.PLL.PLLM = 5;
 775              		.loc 1 183 3 is_stmt 1 view .LVU243
 183:Core/Src/main.c ****   RCC_OscInitStruct.PLL.PLLM = 5;
 776              		.loc 1 183 35 is_stmt 0 view .LVU244
 777 0064 1393     		str	r3, [sp, #76]
 184:Core/Src/main.c ****   RCC_OscInitStruct.PLL.PLLN = 48;
 778              		.loc 1 184 3 is_stmt 1 view .LVU245
 184:Core/Src/main.c ****   RCC_OscInitStruct.PLL.PLLN = 48;
 779              		.loc 1 184 30 is_stmt 0 view .LVU246
 780 0066 0522     		movs	r2, #5
 781 0068 1492     		str	r2, [sp, #80]
 185:Core/Src/main.c ****   RCC_OscInitStruct.PLL.PLLP = 2;
 782              		.loc 1 185 3 is_stmt 1 view .LVU247
 185:Core/Src/main.c ****   RCC_OscInitStruct.PLL.PLLP = 2;
 783              		.loc 1 185 30 is_stmt 0 view .LVU248
 784 006a 3021     		movs	r1, #48
 785 006c 1591     		str	r1, [sp, #84]
 186:Core/Src/main.c ****   RCC_OscInitStruct.PLL.PLLQ = 5;
 786              		.loc 1 186 3 is_stmt 1 view .LVU249
 186:Core/Src/main.c ****   RCC_OscInitStruct.PLL.PLLQ = 5;
 787              		.loc 1 186 30 is_stmt 0 view .LVU250
 788 006e 1693     		str	r3, [sp, #88]
 187:Core/Src/main.c ****   RCC_OscInitStruct.PLL.PLLR = 2;
 789              		.loc 1 187 3 is_stmt 1 view .LVU251
 187:Core/Src/main.c ****   RCC_OscInitStruct.PLL.PLLR = 2;
 790              		.loc 1 187 30 is_stmt 0 view .LVU252
 791 0070 1792     		str	r2, [sp, #92]
 188:Core/Src/main.c ****   RCC_OscInitStruct.PLL.PLLRGE = RCC_PLL1VCIRANGE_2;
 792              		.loc 1 188 3 is_stmt 1 view .LVU253
 188:Core/Src/main.c ****   RCC_OscInitStruct.PLL.PLLRGE = RCC_PLL1VCIRANGE_2;
 793              		.loc 1 188 30 is_stmt 0 view .LVU254
 794 0072 1893     		str	r3, [sp, #96]
 189:Core/Src/main.c ****   RCC_OscInitStruct.PLL.PLLVCOSEL = RCC_PLL1VCOWIDE;
 795              		.loc 1 189 3 is_stmt 1 view .LVU255
 189:Core/Src/main.c ****   RCC_OscInitStruct.PLL.PLLVCOSEL = RCC_PLL1VCOWIDE;
 796              		.loc 1 189 32 is_stmt 0 view .LVU256
 797 0074 0823     		movs	r3, #8
ARM GAS  C:\Users\aticl\AppData\Local\Temp\cczf3dLE.s 			page 27


 798 0076 1993     		str	r3, [sp, #100]
 190:Core/Src/main.c ****   RCC_OscInitStruct.PLL.PLLFRACN = 0;
 799              		.loc 1 190 3 is_stmt 1 view .LVU257
 190:Core/Src/main.c ****   RCC_OscInitStruct.PLL.PLLFRACN = 0;
 800              		.loc 1 190 35 is_stmt 0 view .LVU258
 801 0078 0023     		movs	r3, #0
 802 007a 1A93     		str	r3, [sp, #104]
 191:Core/Src/main.c ****   if (HAL_RCC_OscConfig(&RCC_OscInitStruct) != HAL_OK)
 803              		.loc 1 191 3 is_stmt 1 view .LVU259
 191:Core/Src/main.c ****   if (HAL_RCC_OscConfig(&RCC_OscInitStruct) != HAL_OK)
 804              		.loc 1 191 34 is_stmt 0 view .LVU260
 805 007c 1B93     		str	r3, [sp, #108]
 192:Core/Src/main.c ****   {
 806              		.loc 1 192 3 is_stmt 1 view .LVU261
 192:Core/Src/main.c ****   {
 807              		.loc 1 192 7 is_stmt 0 view .LVU262
 808 007e 09A8     		add	r0, sp, #36
 809 0080 FFF7FEFF 		bl	HAL_RCC_OscConfig
 810              	.LVL32:
 192:Core/Src/main.c ****   {
 811              		.loc 1 192 6 discriminator 1 view .LVU263
 812 0084 90B9     		cbnz	r0, .L45
 199:Core/Src/main.c ****                               |RCC_CLOCKTYPE_PCLK1|RCC_CLOCKTYPE_PCLK2
 813              		.loc 1 199 3 is_stmt 1 view .LVU264
 199:Core/Src/main.c ****                               |RCC_CLOCKTYPE_PCLK1|RCC_CLOCKTYPE_PCLK2
 814              		.loc 1 199 31 is_stmt 0 view .LVU265
 815 0086 3F23     		movs	r3, #63
 816 0088 0193     		str	r3, [sp, #4]
 202:Core/Src/main.c ****   RCC_ClkInitStruct.SYSCLKDivider = RCC_SYSCLK_DIV1;
 817              		.loc 1 202 3 is_stmt 1 view .LVU266
 202:Core/Src/main.c ****   RCC_ClkInitStruct.SYSCLKDivider = RCC_SYSCLK_DIV1;
 818              		.loc 1 202 34 is_stmt 0 view .LVU267
 819 008a 0323     		movs	r3, #3
 820 008c 0293     		str	r3, [sp, #8]
 203:Core/Src/main.c ****   RCC_ClkInitStruct.AHBCLKDivider = RCC_HCLK_DIV1;
 821              		.loc 1 203 3 is_stmt 1 view .LVU268
 203:Core/Src/main.c ****   RCC_ClkInitStruct.AHBCLKDivider = RCC_HCLK_DIV1;
 822              		.loc 1 203 35 is_stmt 0 view .LVU269
 823 008e 0023     		movs	r3, #0
 824 0090 0393     		str	r3, [sp, #12]
 204:Core/Src/main.c ****   RCC_ClkInitStruct.APB3CLKDivider = RCC_APB3_DIV1;
 825              		.loc 1 204 3 is_stmt 1 view .LVU270
 204:Core/Src/main.c ****   RCC_ClkInitStruct.APB3CLKDivider = RCC_APB3_DIV1;
 826              		.loc 1 204 35 is_stmt 0 view .LVU271
 827 0092 0493     		str	r3, [sp, #16]
 205:Core/Src/main.c ****   RCC_ClkInitStruct.APB1CLKDivider = RCC_APB1_DIV1;
 828              		.loc 1 205 3 is_stmt 1 view .LVU272
 205:Core/Src/main.c ****   RCC_ClkInitStruct.APB1CLKDivider = RCC_APB1_DIV1;
 829              		.loc 1 205 36 is_stmt 0 view .LVU273
 830 0094 0593     		str	r3, [sp, #20]
 206:Core/Src/main.c ****   RCC_ClkInitStruct.APB2CLKDivider = RCC_APB2_DIV1;
 831              		.loc 1 206 3 is_stmt 1 view .LVU274
 206:Core/Src/main.c ****   RCC_ClkInitStruct.APB2CLKDivider = RCC_APB2_DIV1;
 832              		.loc 1 206 36 is_stmt 0 view .LVU275
 833 0096 0693     		str	r3, [sp, #24]
 207:Core/Src/main.c ****   RCC_ClkInitStruct.APB4CLKDivider = RCC_APB4_DIV1;
 834              		.loc 1 207 3 is_stmt 1 view .LVU276
ARM GAS  C:\Users\aticl\AppData\Local\Temp\cczf3dLE.s 			page 28


 207:Core/Src/main.c ****   RCC_ClkInitStruct.APB4CLKDivider = RCC_APB4_DIV1;
 835              		.loc 1 207 36 is_stmt 0 view .LVU277
 836 0098 0793     		str	r3, [sp, #28]
 208:Core/Src/main.c **** 
 837              		.loc 1 208 3 is_stmt 1 view .LVU278
 208:Core/Src/main.c **** 
 838              		.loc 1 208 36 is_stmt 0 view .LVU279
 839 009a 0893     		str	r3, [sp, #32]
 210:Core/Src/main.c ****   {
 840              		.loc 1 210 3 is_stmt 1 view .LVU280
 210:Core/Src/main.c ****   {
 841              		.loc 1 210 7 is_stmt 0 view .LVU281
 842 009c 0221     		movs	r1, #2
 843 009e 01A8     		add	r0, sp, #4
 844 00a0 FFF7FEFF 		bl	HAL_RCC_ClockConfig
 845              	.LVL33:
 210:Core/Src/main.c ****   {
 846              		.loc 1 210 6 discriminator 1 view .LVU282
 847 00a4 20B9     		cbnz	r0, .L46
 214:Core/Src/main.c **** 
 848              		.loc 1 214 1 view .LVU283
 849 00a6 1DB0     		add	sp, sp, #116
 850              		.cfi_remember_state
 851              		.cfi_def_cfa_offset 4
 852              		@ sp needed
 853 00a8 5DF804FB 		ldr	pc, [sp], #4
 854              	.L45:
 855              		.cfi_restore_state
 194:Core/Src/main.c ****   }
 856              		.loc 1 194 5 is_stmt 1 view .LVU284
 857 00ac FFF7FEFF 		bl	Error_Handler
 858              	.LVL34:
 859              	.L46:
 212:Core/Src/main.c ****   }
 860              		.loc 1 212 5 view .LVU285
 861 00b0 FFF7FEFF 		bl	Error_Handler
 862              	.LVL35:
 863              	.L48:
 864              		.align	2
 865              	.L47:
 866 00b4 00040058 		.word	1476396032
 867 00b8 00480258 		.word	1476544512
 868              		.cfi_endproc
 869              	.LFE149:
 871              		.section	.rodata.main.str1.4,"aMS",%progbits,1
 872              		.align	2
 873              	.LC5:
 874 0000 54582046 		.ascii	"TX FIFO Free Level: %lu\015\012\000"
 874      49464F20 
 874      46726565 
 874      204C6576 
 874      656C3A20 
 875 001a 0000     		.align	2
 876              	.LC4:
 877 001c 7374696C 		.ascii	"still running\015\012\000"
 877      6C207275 
 877      6E6E696E 
ARM GAS  C:\Users\aticl\AppData\Local\Temp\cczf3dLE.s 			page 29


 877      670D0A00 
 878              		.align	2
 879              	.LC6:
 880 002c 43414E20 		.ascii	"CAN TX Error\015\012\000"
 880      54582045 
 880      72726F72 
 880      0D0A00
 881              		.section	.text.main,"ax",%progbits
 882              		.align	1
 883              		.global	main
 884              		.syntax unified
 885              		.thumb
 886              		.thumb_func
 888              	main:
 889              	.LFB148:
  78:Core/Src/main.c **** 
 890              		.loc 1 78 1 view -0
 891              		.cfi_startproc
 892              		@ args = 0, pretend = 0, frame = 96
 893              		@ frame_needed = 0, uses_anonymous_args = 0
 894 0000 70B5     		push	{r4, r5, r6, lr}
 895              		.cfi_def_cfa_offset 16
 896              		.cfi_offset 4, -16
 897              		.cfi_offset 5, -12
 898              		.cfi_offset 6, -8
 899              		.cfi_offset 14, -4
 900 0002 98B0     		sub	sp, sp, #96
 901              		.cfi_def_cfa_offset 112
  85:Core/Src/main.c **** 
 902              		.loc 1 85 3 view .LVU287
 903 0004 FFF7FEFF 		bl	MPU_Config
 904              	.LVL36:
  90:Core/Src/main.c **** 
 905              		.loc 1 90 3 view .LVU288
 906 0008 FFF7FEFF 		bl	HAL_Init
 907              	.LVL37:
  97:Core/Src/main.c **** 
 908              		.loc 1 97 3 view .LVU289
 909 000c FFF7FEFF 		bl	SystemClock_Config
 910              	.LVL38:
 106:Core/Src/main.c ****   MX_TIM2_Init();
 911              		.loc 1 106 3 view .LVU290
 912 0010 FFF7FEFF 		bl	MX_GPIO_Init
 913              	.LVL39:
 107:Core/Src/main.c ****   MX_FDCAN1_Init();
 914              		.loc 1 107 3 view .LVU291
 915 0014 FFF7FEFF 		bl	MX_TIM2_Init
 916              	.LVL40:
 108:Core/Src/main.c ****   MX_USB_DEVICE_Init();
 917              		.loc 1 108 3 view .LVU292
 918 0018 FFF7FEFF 		bl	MX_FDCAN1_Init
 919              	.LVL41:
 109:Core/Src/main.c ****   /* USER CODE BEGIN 2 */
 920              		.loc 1 109 3 view .LVU293
 921 001c FFF7FEFF 		bl	MX_USB_DEVICE_Init
 922              	.LVL42:
 111:Core/Src/main.c ****   uint8_t send_default_len = sizeof(send_default);
ARM GAS  C:\Users\aticl\AppData\Local\Temp\cczf3dLE.s 			page 30


 923              		.loc 1 111 3 view .LVU294
 111:Core/Src/main.c ****   uint8_t send_default_len = sizeof(send_default);
 924              		.loc 1 111 11 is_stmt 0 view .LVU295
 925 0020 2D4B     		ldr	r3, .L57
 926 0022 0FCB     		ldm	r3, {r0, r1, r2, r3}
 927 0024 18AC     		add	r4, sp, #96
 928 0026 04E90F00 		stmdb	r4, {r0, r1, r2, r3}
 112:Core/Src/main.c ****   HAL_TIM_PWM_Start(&htim2, TIM_CHANNEL_4);
 929              		.loc 1 112 3 is_stmt 1 view .LVU296
 930              	.LVL43:
 113:Core/Src/main.c ****   //HAL_FDCAN_Start(&hfdcan1);
 931              		.loc 1 113 3 view .LVU297
 932 002a 0C21     		movs	r1, #12
 933 002c 2B48     		ldr	r0, .L57+4
 934 002e FFF7FEFF 		bl	HAL_TIM_PWM_Start
 935              	.LVL44:
 115:Core/Src/main.c ****   /* USER CODE END 2 */
 936              		.loc 1 115 3 view .LVU298
 937 0032 FFF7FEFF 		bl	FDCAN_Config
 938              	.LVL45:
 939 0036 4DE0     		b	.L55
 940              	.LVL46:
 941              	.L51:
 942              	.LBB9:
 943              	.LBB10:
 124:Core/Src/main.c ****             HAL_Delay(1);  // controls fade speed
 944              		.loc 1 124 13 view .LVU299
 945 0038 284B     		ldr	r3, .L57+4
 946 003a 1B68     		ldr	r3, [r3]
 947 003c 1C64     		str	r4, [r3, #64]
 125:Core/Src/main.c ****         }
 948              		.loc 1 125 13 view .LVU300
 949 003e 0120     		movs	r0, #1
 950 0040 FFF7FEFF 		bl	HAL_Delay
 951              	.LVL47:
 123:Core/Src/main.c ****             __HAL_TIM_SET_COMPARE(&htim2, TIM_CHANNEL_4, duty);
 952              		.loc 1 123 50 discriminator 3 view .LVU301
 953 0044 0134     		adds	r4, r4, #1
 954              	.LVL48:
 123:Core/Src/main.c ****             __HAL_TIM_SET_COMPARE(&htim2, TIM_CHANNEL_4, duty);
 955              		.loc 1 123 50 is_stmt 0 discriminator 3 view .LVU302
 956 0046 A4B2     		uxth	r4, r4
 957              	.LVL49:
 958              	.L50:
 123:Core/Src/main.c ****             __HAL_TIM_SET_COMPARE(&htim2, TIM_CHANNEL_4, duty);
 959              		.loc 1 123 38 is_stmt 1 discriminator 1 view .LVU303
 960 0048 B4F57A7F 		cmp	r4, #1000
 961 004c F4D3     		bcc	.L51
 962              	.LBE10:
 963              	.LBB11:
 129:Core/Src/main.c ****             __HAL_TIM_SET_COMPARE(&htim2, TIM_CHANNEL_4, duty);
 964              		.loc 1 129 23 is_stmt 0 view .LVU304
 965 004e 4FF47A74 		mov	r4, #1000
 966              	.LVL50:
 129:Core/Src/main.c ****             __HAL_TIM_SET_COMPARE(&htim2, TIM_CHANNEL_4, duty);
 967              		.loc 1 129 23 view .LVU305
 968 0052 07E0     		b	.L52
ARM GAS  C:\Users\aticl\AppData\Local\Temp\cczf3dLE.s 			page 31


 969              	.LVL51:
 970              	.L53:
 130:Core/Src/main.c ****             HAL_Delay(1);
 971              		.loc 1 130 13 is_stmt 1 view .LVU306
 972 0054 214B     		ldr	r3, .L57+4
 973 0056 1B68     		ldr	r3, [r3]
 974 0058 1C64     		str	r4, [r3, #64]
 131:Core/Src/main.c ****         }
 975              		.loc 1 131 13 view .LVU307
 976 005a 0120     		movs	r0, #1
 977 005c FFF7FEFF 		bl	HAL_Delay
 978              	.LVL52:
 129:Core/Src/main.c ****             __HAL_TIM_SET_COMPARE(&htim2, TIM_CHANNEL_4, duty);
 979              		.loc 1 129 50 discriminator 3 view .LVU308
 980 0060 013C     		subs	r4, r4, #1
 981              	.LVL53:
 129:Core/Src/main.c ****             __HAL_TIM_SET_COMPARE(&htim2, TIM_CHANNEL_4, duty);
 982              		.loc 1 129 50 is_stmt 0 discriminator 3 view .LVU309
 983 0062 A4B2     		uxth	r4, r4
 984              	.LVL54:
 985              	.L52:
 129:Core/Src/main.c ****             __HAL_TIM_SET_COMPARE(&htim2, TIM_CHANNEL_4, duty);
 986              		.loc 1 129 41 is_stmt 1 discriminator 1 view .LVU310
 987 0064 002C     		cmp	r4, #0
 988 0066 F5D1     		bne	.L53
 989              	.LBE11:
 135:Core/Src/main.c ****     TxData[1] = 0xCD;  // Example data
 990              		.loc 1 135 5 view .LVU311
 135:Core/Src/main.c ****     TxData[1] = 0xCD;  // Example data
 991              		.loc 1 135 15 is_stmt 0 view .LVU312
 992 0068 1D4C     		ldr	r4, .L57+8
 993              	.LVL55:
 135:Core/Src/main.c ****     TxData[1] = 0xCD;  // Example data
 994              		.loc 1 135 15 view .LVU313
 995 006a AB23     		movs	r3, #171
 996 006c 2370     		strb	r3, [r4]
 136:Core/Src/main.c **** 
 997              		.loc 1 136 5 is_stmt 1 view .LVU314
 136:Core/Src/main.c **** 
 998              		.loc 1 136 15 is_stmt 0 view .LVU315
 999 006e CD23     		movs	r3, #205
 1000 0070 6370     		strb	r3, [r4, #1]
 138:Core/Src/main.c **** char debug_msg[64];
 1001              		.loc 1 138 5 is_stmt 1 view .LVU316
 138:Core/Src/main.c **** char debug_msg[64];
 1002              		.loc 1 138 27 is_stmt 0 view .LVU317
 1003 0072 1C4E     		ldr	r6, .L57+12
 1004 0074 3046     		mov	r0, r6
 1005 0076 FFF7FEFF 		bl	HAL_FDCAN_GetTxFifoFreeLevel
 1006              	.LVL56:
 1007 007a 0346     		mov	r3, r0
 1008              	.LVL57:
 139:Core/Src/main.c **** snprintf(debug_msg, sizeof(debug_msg), "TX FIFO Free Level: %lu\r\n", free_level);
 1009              		.loc 1 139 1 is_stmt 1 view .LVU318
 140:Core/Src/main.c **** CDC_Transmit_FS((uint8_t *)debug_msg, strlen(debug_msg));
 1010              		.loc 1 140 1 view .LVU319
 1011 007c 04AD     		add	r5, sp, #16
ARM GAS  C:\Users\aticl\AppData\Local\Temp\cczf3dLE.s 			page 32


 1012 007e 1A4A     		ldr	r2, .L57+16
 1013 0080 4021     		movs	r1, #64
 1014 0082 2846     		mov	r0, r5
 1015              	.LVL58:
 140:Core/Src/main.c **** CDC_Transmit_FS((uint8_t *)debug_msg, strlen(debug_msg));
 1016              		.loc 1 140 1 is_stmt 0 view .LVU320
 1017 0084 FFF7FEFF 		bl	snprintf
 1018              	.LVL59:
 141:Core/Src/main.c **** 
 1019              		.loc 1 141 1 is_stmt 1 view .LVU321
 141:Core/Src/main.c **** 
 1020              		.loc 1 141 39 is_stmt 0 view .LVU322
 1021 0088 2846     		mov	r0, r5
 1022 008a FFF7FEFF 		bl	strlen
 1023              	.LVL60:
 141:Core/Src/main.c **** 
 1024              		.loc 1 141 1 discriminator 1 view .LVU323
 1025 008e 81B2     		uxth	r1, r0
 1026 0090 2846     		mov	r0, r5
 1027 0092 FFF7FEFF 		bl	CDC_Transmit_FS
 1028              	.LVL61:
 144:Core/Src/main.c ****     char error_msg[] = "CAN TX Error\r\n";
 1029              		.loc 1 144 1 is_stmt 1 view .LVU324
 144:Core/Src/main.c ****     char error_msg[] = "CAN TX Error\r\n";
 1030              		.loc 1 144 5 is_stmt 0 view .LVU325
 1031 0096 2246     		mov	r2, r4
 1032 0098 1449     		ldr	r1, .L57+20
 1033 009a 3046     		mov	r0, r6
 1034 009c FFF7FEFF 		bl	HAL_FDCAN_AddMessageToTxFifoQ
 1035              	.LVL62:
 144:Core/Src/main.c ****     char error_msg[] = "CAN TX Error\r\n";
 1036              		.loc 1 144 4 discriminator 1 view .LVU326
 1037 00a0 88B1     		cbz	r0, .L54
 1038              	.LBB12:
 145:Core/Src/main.c ****     CDC_Transmit_FS((uint8_t *)error_msg, strlen(error_msg));
 1039              		.loc 1 145 5 is_stmt 1 view .LVU327
 145:Core/Src/main.c ****     CDC_Transmit_FS((uint8_t *)error_msg, strlen(error_msg));
 1040              		.loc 1 145 10 is_stmt 0 view .LVU328
 1041 00a2 134B     		ldr	r3, .L57+24
 1042 00a4 6C46     		mov	r4, sp
 1043 00a6 0FCB     		ldm	r3, {r0, r1, r2, r3}
 1044 00a8 07C4     		stmia	r4!, {r0, r1, r2}
 1045 00aa 24F8023B 		strh	r3, [r4], #2	@ movhi
 1046 00ae 1B0C     		lsrs	r3, r3, #16
 1047 00b0 2370     		strb	r3, [r4]
 146:Core/Src/main.c ****     HAL_Delay(100);  // Add a delay to prevent spamming
 1048              		.loc 1 146 5 is_stmt 1 view .LVU329
 146:Core/Src/main.c ****     HAL_Delay(100);  // Add a delay to prevent spamming
 1049              		.loc 1 146 43 is_stmt 0 view .LVU330
 1050 00b2 6846     		mov	r0, sp
 1051 00b4 FFF7FEFF 		bl	strlen
 1052              	.LVL63:
 146:Core/Src/main.c ****     HAL_Delay(100);  // Add a delay to prevent spamming
 1053              		.loc 1 146 5 discriminator 1 view .LVU331
 1054 00b8 81B2     		uxth	r1, r0
 1055 00ba 6846     		mov	r0, sp
 1056 00bc FFF7FEFF 		bl	CDC_Transmit_FS
ARM GAS  C:\Users\aticl\AppData\Local\Temp\cczf3dLE.s 			page 33


 1057              	.LVL64:
 147:Core/Src/main.c **** }
 1058              		.loc 1 147 5 is_stmt 1 view .LVU332
 1059 00c0 6420     		movs	r0, #100
 1060 00c2 FFF7FEFF 		bl	HAL_Delay
 1061              	.LVL65:
 1062              	.L54:
 1063              	.LBE12:
 149:Core/Src/main.c ****     HAL_Delay(100);
 1064              		.loc 1 149 5 view .LVU333
 1065 00c6 1021     		movs	r1, #16
 1066 00c8 14A8     		add	r0, sp, #80
 1067 00ca FFF7FEFF 		bl	CDC_Transmit_FS
 1068              	.LVL66:
 150:Core/Src/main.c ****     /* USER CODE END WHILE */
 1069              		.loc 1 150 5 view .LVU334
 1070 00ce 6420     		movs	r0, #100
 1071 00d0 FFF7FEFF 		bl	HAL_Delay
 1072              	.LVL67:
 1073              	.LBE9:
 120:Core/Src/main.c ****   {
 1074              		.loc 1 120 9 view .LVU335
 1075              	.L55:
 120:Core/Src/main.c ****   {
 1076              		.loc 1 120 3 view .LVU336
 1077              	.LBB14:
 123:Core/Src/main.c ****             __HAL_TIM_SET_COMPARE(&htim2, TIM_CHANNEL_4, duty);
 1078              		.loc 1 123 9 view .LVU337
 1079              	.LBB13:
 123:Core/Src/main.c ****             __HAL_TIM_SET_COMPARE(&htim2, TIM_CHANNEL_4, duty);
 1080              		.loc 1 123 14 view .LVU338
 123:Core/Src/main.c ****             __HAL_TIM_SET_COMPARE(&htim2, TIM_CHANNEL_4, duty);
 1081              		.loc 1 123 23 is_stmt 0 view .LVU339
 1082 00d4 0024     		movs	r4, #0
 123:Core/Src/main.c ****             __HAL_TIM_SET_COMPARE(&htim2, TIM_CHANNEL_4, duty);
 1083              		.loc 1 123 9 view .LVU340
 1084 00d6 B7E7     		b	.L50
 1085              	.L58:
 1086              		.align	2
 1087              	.L57:
 1088 00d8 1C000000 		.word	.LC4
 1089 00dc 00000000 		.word	htim2
 1090 00e0 00000000 		.word	TxData
 1091 00e4 00000000 		.word	hfdcan1
 1092 00e8 00000000 		.word	.LC5
 1093 00ec 00000000 		.word	TxHeader
 1094 00f0 2C000000 		.word	.LC6
 1095              	.LBE13:
 1096              	.LBE14:
 1097              		.cfi_endproc
 1098              	.LFE148:
 1100              		.section	.rodata.HAL_FDCAN_RxFifo0Callback.str1.4,"aMS",%progbits,1
 1101              		.align	2
 1102              	.LC7:
 1103 0000 49443A20 		.ascii	"ID: 0x%03X, DLC: %d, Data: \000"
 1103      30782530 
 1103      33582C20 
ARM GAS  C:\Users\aticl\AppData\Local\Temp\cczf3dLE.s 			page 34


 1103      444C433A 
 1103      2025642C 
 1104              		.align	2
 1105              	.LC8:
 1106 001c 25303258 		.ascii	"%02X \000"
 1106      2000
 1107 0022 0000     		.align	2
 1108              	.LC9:
 1109 0024 0D0A00   		.ascii	"\015\012\000"
 1110 0027 00       		.align	2
 1111              	.LC10:
 1112 0028 43414E20 		.ascii	"CAN Bus-Off Error\015\012\000"
 1112      4275732D 
 1112      4F666620 
 1112      4572726F 
 1112      720D0A00 
 1113              		.align	2
 1114              	.LC11:
 1115 003c 43414E20 		.ascii	"CAN Error Passive\015\012\000"
 1115      4572726F 
 1115      72205061 
 1115      73736976 
 1115      650D0A00 
 1116              		.align	2
 1117              	.LC12:
 1118 0050 43414E20 		.ascii	"CAN Error Warning\015\012\000"
 1118      4572726F 
 1118      72205761 
 1118      726E696E 
 1118      670D0A00 
 1119              		.section	.text.HAL_FDCAN_RxFifo0Callback,"ax",%progbits
 1120              		.align	1
 1121              		.global	HAL_FDCAN_RxFifo0Callback
 1122              		.syntax unified
 1123              		.thumb
 1124              		.thumb_func
 1126              	HAL_FDCAN_RxFifo0Callback:
 1127              	.LVL68:
 1128              	.LFB154:
 392:Core/Src/main.c ****     if (RxFifo0ITs & FDCAN_IT_RX_FIFO0_NEW_MESSAGE)
 1129              		.loc 1 392 1 is_stmt 1 view -0
 1130              		.cfi_startproc
 1131              		@ args = 0, pretend = 0, frame = 64
 1132              		@ frame_needed = 0, uses_anonymous_args = 0
 392:Core/Src/main.c ****     if (RxFifo0ITs & FDCAN_IT_RX_FIFO0_NEW_MESSAGE)
 1133              		.loc 1 392 1 is_stmt 0 view .LVU342
 1134 0000 2DE9F041 		push	{r4, r5, r6, r7, r8, lr}
 1135              		.cfi_def_cfa_offset 24
 1136              		.cfi_offset 4, -24
 1137              		.cfi_offset 5, -20
 1138              		.cfi_offset 6, -16
 1139              		.cfi_offset 7, -12
 1140              		.cfi_offset 8, -8
 1141              		.cfi_offset 14, -4
 1142 0004 92B0     		sub	sp, sp, #72
 1143              		.cfi_def_cfa_offset 96
 1144 0006 8046     		mov	r8, r0
ARM GAS  C:\Users\aticl\AppData\Local\Temp\cczf3dLE.s 			page 35


 1145 0008 0E46     		mov	r6, r1
 393:Core/Src/main.c ****     {
 1146              		.loc 1 393 5 is_stmt 1 view .LVU343
 393:Core/Src/main.c ****     {
 1147              		.loc 1 393 8 is_stmt 0 view .LVU344
 1148 000a 11F0010F 		tst	r1, #1
 1149 000e 0BD1     		bne	.L68
 1150              	.LVL69:
 1151              	.L60:
 416:Core/Src/main.c ****     {
 1152              		.loc 1 416 5 is_stmt 1 view .LVU345
 416:Core/Src/main.c ****     {
 1153              		.loc 1 416 8 is_stmt 0 view .LVU346
 1154 0010 16F0007F 		tst	r6, #33554432
 1155 0014 3AD1     		bne	.L69
 1156              	.L64:
 425:Core/Src/main.c ****     {
 1157              		.loc 1 425 5 is_stmt 1 view .LVU347
 425:Core/Src/main.c ****     {
 1158              		.loc 1 425 8 is_stmt 0 view .LVU348
 1159 0016 16F4000F 		tst	r6, #8388608
 1160 001a 50D1     		bne	.L70
 1161              	.L65:
 431:Core/Src/main.c ****     {
 1162              		.loc 1 431 5 is_stmt 1 view .LVU349
 431:Core/Src/main.c ****     {
 1163              		.loc 1 431 8 is_stmt 0 view .LVU350
 1164 001c 16F0807F 		tst	r6, #16777216
 1165 0020 5CD1     		bne	.L71
 1166              	.L59:
 436:Core/Src/main.c **** 
 1167              		.loc 1 436 1 view .LVU351
 1168 0022 12B0     		add	sp, sp, #72
 1169              		.cfi_remember_state
 1170              		.cfi_def_cfa_offset 24
 1171              		@ sp needed
 1172 0024 BDE8F081 		pop	{r4, r5, r6, r7, r8, pc}
 1173              	.LVL70:
 1174              	.L68:
 1175              		.cfi_restore_state
 1176              	.LBB15:
 396:Core/Src/main.c ****         {
 1177              		.loc 1 396 9 is_stmt 1 view .LVU352
 396:Core/Src/main.c ****         {
 1178              		.loc 1 396 13 is_stmt 0 view .LVU353
 1179 0028 344B     		ldr	r3, .L73
 1180 002a 354A     		ldr	r2, .L73+4
 1181 002c 4021     		movs	r1, #64
 1182              	.LVL71:
 396:Core/Src/main.c ****         {
 1183              		.loc 1 396 13 view .LVU354
 1184 002e FFF7FEFF 		bl	HAL_FDCAN_GetRxMessage
 1185              	.LVL72:
 396:Core/Src/main.c ****         {
 1186              		.loc 1 396 12 discriminator 1 view .LVU355
 1187 0032 68B9     		cbnz	r0, .L72
 402:Core/Src/main.c **** 
ARM GAS  C:\Users\aticl\AppData\Local\Temp\cczf3dLE.s 			page 36


 1188              		.loc 1 402 9 is_stmt 1 view .LVU356
 402:Core/Src/main.c **** 
 1189              		.loc 1 402 40 is_stmt 0 view .LVU357
 1190 0034 324B     		ldr	r3, .L73+4
 402:Core/Src/main.c **** 
 1191              		.loc 1 402 59 view .LVU358
 1192 0036 9F7B     		ldrb	r7, [r3, #14]	@ zero_extendqisi2
 402:Core/Src/main.c **** 
 1193              		.loc 1 402 17 view .LVU359
 1194 0038 07F00F07 		and	r7, r7, #15
 1195              	.LVL73:
 405:Core/Src/main.c ****         int len = snprintf(msg, sizeof(msg), "ID: 0x%03X, DLC: %d, Data: ", RxHeader.Identifier, da
 1196              		.loc 1 405 9 is_stmt 1 view .LVU360
 406:Core/Src/main.c ****         for (int i = 0; i < data_length; i++)
 1197              		.loc 1 406 9 view .LVU361
 406:Core/Src/main.c ****         for (int i = 0; i < data_length; i++)
 1198              		.loc 1 406 19 is_stmt 0 view .LVU362
 1199 003c 0097     		str	r7, [sp]
 1200 003e 1B68     		ldr	r3, [r3]
 1201 0040 304A     		ldr	r2, .L73+8
 1202 0042 4021     		movs	r1, #64
 1203 0044 02A8     		add	r0, sp, #8
 1204 0046 FFF7FEFF 		bl	snprintf
 1205              	.LVL74:
 1206 004a 0446     		mov	r4, r0
 1207              	.LVL75:
 407:Core/Src/main.c ****         {
 1208              		.loc 1 407 9 is_stmt 1 view .LVU363
 1209              	.LBB16:
 407:Core/Src/main.c ****         {
 1210              		.loc 1 407 14 view .LVU364
 407:Core/Src/main.c ****         {
 1211              		.loc 1 407 18 is_stmt 0 view .LVU365
 1212 004c 0025     		movs	r5, #0
 407:Core/Src/main.c ****         {
 1213              		.loc 1 407 9 view .LVU366
 1214 004e 0CE0     		b	.L62
 1215              	.LVL76:
 1216              	.L72:
 407:Core/Src/main.c ****         {
 1217              		.loc 1 407 9 view .LVU367
 1218              	.LBE16:
 398:Core/Src/main.c ****         }
 1219              		.loc 1 398 13 is_stmt 1 view .LVU368
 1220 0050 FFF7FEFF 		bl	Error_Handler
 1221              	.LVL77:
 1222              	.L63:
 1223              	.LBB17:
 409:Core/Src/main.c ****         }
 1224              		.loc 1 409 13 view .LVU369
 409:Core/Src/main.c ****         }
 1225              		.loc 1 409 20 is_stmt 0 view .LVU370
 1226 0054 294B     		ldr	r3, .L73
 1227 0056 5B5D     		ldrb	r3, [r3, r5]	@ zero_extendqisi2
 1228 0058 2B4A     		ldr	r2, .L73+12
 1229 005a C4F14001 		rsb	r1, r4, #64
 1230 005e 02A8     		add	r0, sp, #8
ARM GAS  C:\Users\aticl\AppData\Local\Temp\cczf3dLE.s 			page 37


 1231 0060 2044     		add	r0, r0, r4
 1232 0062 FFF7FEFF 		bl	snprintf
 1233              	.LVL78:
 409:Core/Src/main.c ****         }
 1234              		.loc 1 409 17 discriminator 1 view .LVU371
 1235 0066 0444     		add	r4, r4, r0
 1236              	.LVL79:
 407:Core/Src/main.c ****         {
 1237              		.loc 1 407 43 is_stmt 1 discriminator 3 view .LVU372
 1238 0068 0135     		adds	r5, r5, #1
 1239              	.LVL80:
 1240              	.L62:
 407:Core/Src/main.c ****         {
 1241              		.loc 1 407 27 discriminator 1 view .LVU373
 1242 006a AF42     		cmp	r7, r5
 1243 006c F2DC     		bgt	.L63
 407:Core/Src/main.c ****         {
 1244              		.loc 1 407 27 is_stmt 0 discriminator 1 view .LVU374
 1245              	.LBE17:
 411:Core/Src/main.c **** 
 1246              		.loc 1 411 9 is_stmt 1 view .LVU375
 1247 006e 02AD     		add	r5, sp, #8
 1248              	.LVL81:
 411:Core/Src/main.c **** 
 1249              		.loc 1 411 9 is_stmt 0 view .LVU376
 1250 0070 264A     		ldr	r2, .L73+16
 1251 0072 C4F14001 		rsb	r1, r4, #64
 1252 0076 2819     		adds	r0, r5, r4
 1253 0078 FFF7FEFF 		bl	snprintf
 1254              	.LVL82:
 413:Core/Src/main.c ****     }
 1255              		.loc 1 413 9 is_stmt 1 view .LVU377
 413:Core/Src/main.c ****     }
 1256              		.loc 1 413 41 is_stmt 0 view .LVU378
 1257 007c 2846     		mov	r0, r5
 1258 007e FFF7FEFF 		bl	strlen
 1259              	.LVL83:
 413:Core/Src/main.c ****     }
 1260              		.loc 1 413 9 discriminator 1 view .LVU379
 1261 0082 81B2     		uxth	r1, r0
 1262 0084 2846     		mov	r0, r5
 1263 0086 FFF7FEFF 		bl	CDC_Transmit_FS
 1264              	.LVL84:
 1265 008a C1E7     		b	.L60
 1266              	.LVL85:
 1267              	.L69:
 413:Core/Src/main.c ****     }
 1268              		.loc 1 413 9 discriminator 1 view .LVU380
 1269              	.LBE15:
 1270              	.LBB18:
 418:Core/Src/main.c ****         CDC_Transmit_FS((uint8_t *)error_msg, strlen(error_msg));
 1271              		.loc 1 418 9 is_stmt 1 view .LVU381
 418:Core/Src/main.c ****         CDC_Transmit_FS((uint8_t *)error_msg, strlen(error_msg));
 1272              		.loc 1 418 14 is_stmt 0 view .LVU382
 1273 008c 02AC     		add	r4, sp, #8
 1274 008e 204D     		ldr	r5, .L73+20
 1275 0090 0FCD     		ldmia	r5!, {r0, r1, r2, r3}
ARM GAS  C:\Users\aticl\AppData\Local\Temp\cczf3dLE.s 			page 38


 1276 0092 0FC4     		stmia	r4!, {r0, r1, r2, r3}
 1277 0094 2B68     		ldr	r3, [r5]
 1278 0096 2360     		str	r3, [r4]
 419:Core/Src/main.c ****         HAL_FDCAN_Stop(hfdcan);  // Stop the CAN peripheral
 1279              		.loc 1 419 9 is_stmt 1 view .LVU383
 419:Core/Src/main.c ****         HAL_FDCAN_Stop(hfdcan);  // Stop the CAN peripheral
 1280              		.loc 1 419 47 is_stmt 0 view .LVU384
 1281 0098 02AC     		add	r4, sp, #8
 1282 009a 2046     		mov	r0, r4
 1283 009c FFF7FEFF 		bl	strlen
 1284              	.LVL86:
 419:Core/Src/main.c ****         HAL_FDCAN_Stop(hfdcan);  // Stop the CAN peripheral
 1285              		.loc 1 419 9 discriminator 1 view .LVU385
 1286 00a0 81B2     		uxth	r1, r0
 1287 00a2 2046     		mov	r0, r4
 1288 00a4 FFF7FEFF 		bl	CDC_Transmit_FS
 1289              	.LVL87:
 420:Core/Src/main.c ****         HAL_Delay(1000);         // Wait before attempting recovery
 1290              		.loc 1 420 9 is_stmt 1 view .LVU386
 1291 00a8 4046     		mov	r0, r8
 1292 00aa FFF7FEFF 		bl	HAL_FDCAN_Stop
 1293              	.LVL88:
 421:Core/Src/main.c ****         HAL_FDCAN_Start(hfdcan); // Restart the CAN peripheral
 1294              		.loc 1 421 9 view .LVU387
 1295 00ae 4FF47A70 		mov	r0, #1000
 1296 00b2 FFF7FEFF 		bl	HAL_Delay
 1297              	.LVL89:
 422:Core/Src/main.c ****     }
 1298              		.loc 1 422 9 view .LVU388
 1299 00b6 4046     		mov	r0, r8
 1300 00b8 FFF7FEFF 		bl	HAL_FDCAN_Start
 1301              	.LVL90:
 1302 00bc ABE7     		b	.L64
 1303              	.L70:
 422:Core/Src/main.c ****     }
 1304              		.loc 1 422 9 is_stmt 0 view .LVU389
 1305              	.LBE18:
 1306              	.LBB19:
 427:Core/Src/main.c ****         CDC_Transmit_FS((uint8_t *)error_msg, strlen(error_msg));
 1307              		.loc 1 427 9 is_stmt 1 view .LVU390
 427:Core/Src/main.c ****         CDC_Transmit_FS((uint8_t *)error_msg, strlen(error_msg));
 1308              		.loc 1 427 14 is_stmt 0 view .LVU391
 1309 00be 02AC     		add	r4, sp, #8
 1310 00c0 144D     		ldr	r5, .L73+24
 1311 00c2 0FCD     		ldmia	r5!, {r0, r1, r2, r3}
 1312 00c4 0FC4     		stmia	r4!, {r0, r1, r2, r3}
 1313 00c6 2B68     		ldr	r3, [r5]
 1314 00c8 2360     		str	r3, [r4]
 428:Core/Src/main.c ****     }
 1315              		.loc 1 428 9 is_stmt 1 view .LVU392
 428:Core/Src/main.c ****     }
 1316              		.loc 1 428 47 is_stmt 0 view .LVU393
 1317 00ca 02AC     		add	r4, sp, #8
 1318 00cc 2046     		mov	r0, r4
 1319 00ce FFF7FEFF 		bl	strlen
 1320              	.LVL91:
 428:Core/Src/main.c ****     }
ARM GAS  C:\Users\aticl\AppData\Local\Temp\cczf3dLE.s 			page 39


 1321              		.loc 1 428 9 discriminator 1 view .LVU394
 1322 00d2 81B2     		uxth	r1, r0
 1323 00d4 2046     		mov	r0, r4
 1324 00d6 FFF7FEFF 		bl	CDC_Transmit_FS
 1325              	.LVL92:
 1326 00da 9FE7     		b	.L65
 1327              	.L71:
 428:Core/Src/main.c ****     }
 1328              		.loc 1 428 9 discriminator 1 view .LVU395
 1329              	.LBE19:
 1330              	.LBB20:
 433:Core/Src/main.c ****         CDC_Transmit_FS((uint8_t *)error_msg, strlen(error_msg));
 1331              		.loc 1 433 9 is_stmt 1 view .LVU396
 433:Core/Src/main.c ****         CDC_Transmit_FS((uint8_t *)error_msg, strlen(error_msg));
 1332              		.loc 1 433 14 is_stmt 0 view .LVU397
 1333 00dc 02AC     		add	r4, sp, #8
 1334 00de 0E4D     		ldr	r5, .L73+28
 1335 00e0 0FCD     		ldmia	r5!, {r0, r1, r2, r3}
 1336 00e2 0FC4     		stmia	r4!, {r0, r1, r2, r3}
 1337 00e4 2B68     		ldr	r3, [r5]
 1338 00e6 2360     		str	r3, [r4]
 434:Core/Src/main.c ****     }
 1339              		.loc 1 434 9 is_stmt 1 view .LVU398
 434:Core/Src/main.c ****     }
 1340              		.loc 1 434 47 is_stmt 0 view .LVU399
 1341 00e8 02AC     		add	r4, sp, #8
 1342 00ea 2046     		mov	r0, r4
 1343 00ec FFF7FEFF 		bl	strlen
 1344              	.LVL93:
 434:Core/Src/main.c ****     }
 1345              		.loc 1 434 9 discriminator 1 view .LVU400
 1346 00f0 81B2     		uxth	r1, r0
 1347 00f2 2046     		mov	r0, r4
 1348 00f4 FFF7FEFF 		bl	CDC_Transmit_FS
 1349              	.LVL94:
 1350              	.LBE20:
 436:Core/Src/main.c **** 
 1351              		.loc 1 436 1 view .LVU401
 1352 00f8 93E7     		b	.L59
 1353              	.L74:
 1354 00fa 00BF     		.align	2
 1355              	.L73:
 1356 00fc 00000000 		.word	RxData
 1357 0100 00000000 		.word	RxHeader
 1358 0104 00000000 		.word	.LC7
 1359 0108 1C000000 		.word	.LC8
 1360 010c 24000000 		.word	.LC9
 1361 0110 28000000 		.word	.LC10
 1362 0114 3C000000 		.word	.LC11
 1363 0118 50000000 		.word	.LC12
 1364              		.cfi_endproc
 1365              	.LFE154:
 1367              		.global	TxData
 1368              		.section	.bss.TxData,"aw",%nobits
 1369              		.align	2
 1372              	TxData:
 1373 0000 00000000 		.space	8
ARM GAS  C:\Users\aticl\AppData\Local\Temp\cczf3dLE.s 			page 40


 1373      00000000 
 1374              		.global	TxHeader
 1375              		.section	.bss.TxHeader,"aw",%nobits
 1376              		.align	2
 1379              	TxHeader:
 1380 0000 00000000 		.space	36
 1380      00000000 
 1380      00000000 
 1380      00000000 
 1380      00000000 
 1381              		.global	RxData
 1382              		.section	.bss.RxData,"aw",%nobits
 1383              		.align	2
 1386              	RxData:
 1387 0000 00000000 		.space	8
 1387      00000000 
 1388              		.global	RxHeader
 1389              		.section	.bss.RxHeader,"aw",%nobits
 1390              		.align	2
 1393              	RxHeader:
 1394 0000 00000000 		.space	40
 1394      00000000 
 1394      00000000 
 1394      00000000 
 1394      00000000 
 1395              		.global	htim2
 1396              		.section	.bss.htim2,"aw",%nobits
 1397              		.align	2
 1400              	htim2:
 1401 0000 00000000 		.space	76
 1401      00000000 
 1401      00000000 
 1401      00000000 
 1401      00000000 
 1402              		.global	hfdcan1
 1403              		.section	.bss.hfdcan1,"aw",%nobits
 1404              		.align	2
 1407              	hfdcan1:
 1408 0000 00000000 		.space	160
 1408      00000000 
 1408      00000000 
 1408      00000000 
 1408      00000000 
 1409              		.global	TxBufferLen
 1410              		.section	.data.TxBufferLen,"aw"
 1413              	TxBufferLen:
 1414 0000 3D       		.byte	61
 1415              		.global	TxBuffer
 1416              		.section	.data.TxBuffer,"aw"
 1417              		.align	2
 1420              	TxBuffer:
 1421 0000 48656C6C 		.ascii	"Hello World! From STM32 USB CDC Device To Virtual C"
 1421      6F20576F 
 1421      726C6421 
 1421      2046726F 
 1421      6D205354 
 1422 0033 4F4D2050 		.ascii	"OM Port\015\012\000"
ARM GAS  C:\Users\aticl\AppData\Local\Temp\cczf3dLE.s 			page 41


 1422      6F72740D 
 1422      0A00
 1423              		.text
 1424              	.Letext0:
 1425              		.file 2 "C:/Users/aticl/AppData/Roaming/Code/User/globalStorage/bmd.stm32-for-vscode/@xpack-dev-to
 1426              		.file 3 "C:/Users/aticl/AppData/Roaming/Code/User/globalStorage/bmd.stm32-for-vscode/@xpack-dev-to
 1427              		.file 4 "Drivers/CMSIS/Device/ST/STM32H7xx/Include/stm32h750xx.h"
 1428              		.file 5 "Drivers/CMSIS/Device/ST/STM32H7xx/Include/stm32h7xx.h"
 1429              		.file 6 "C:/Users/aticl/AppData/Roaming/Code/User/globalStorage/bmd.stm32-for-vscode/@xpack-dev-to
 1430              		.file 7 "Drivers/STM32H7xx_HAL_Driver/Inc/stm32h7xx_hal_def.h"
 1431              		.file 8 "Drivers/STM32H7xx_HAL_Driver/Inc/stm32h7xx_hal_rcc.h"
 1432              		.file 9 "Drivers/STM32H7xx_HAL_Driver/Inc/stm32h7xx_hal_dma.h"
 1433              		.file 10 "Drivers/STM32H7xx_HAL_Driver/Inc/stm32h7xx_hal_cortex.h"
 1434              		.file 11 "Drivers/STM32H7xx_HAL_Driver/Inc/stm32h7xx_hal_fdcan.h"
 1435              		.file 12 "Drivers/STM32H7xx_HAL_Driver/Inc/stm32h7xx_hal_tim.h"
 1436              		.file 13 "Drivers/STM32H7xx_HAL_Driver/Inc/stm32h7xx_hal_pwr_ex.h"
 1437              		.file 14 "Drivers/STM32H7xx_HAL_Driver/Inc/stm32h7xx_hal_tim_ex.h"
 1438              		.file 15 "Core/Inc/main.h"
 1439              		.file 16 "USB_DEVICE/App/usbd_cdc_if.h"
 1440              		.file 17 "C:/Users/aticl/AppData/Roaming/Code/User/globalStorage/bmd.stm32-for-vscode/@xpack-dev-t
 1441              		.file 18 "C:/Users/aticl/AppData/Roaming/Code/User/globalStorage/bmd.stm32-for-vscode/@xpack-dev-t
 1442              		.file 19 "Drivers/STM32H7xx_HAL_Driver/Inc/stm32h7xx_hal.h"
 1443              		.file 20 "USB_DEVICE/App/usb_device.h"
 1444              		.file 21 "<built-in>"
ARM GAS  C:\Users\aticl\AppData\Local\Temp\cczf3dLE.s 			page 42

