
build/debug/stm32_h7_hse_test1.elf:     file format elf32-littlearm

Sections:
Idx Name          Size      VMA       LMA       File off  Algn
  0 .isr_vector   00000298  08000000  08000000  00001000  2**0
                  CONTENTS, ALLOC, LOAD, READONLY, DATA
  1 .text         00005e50  08000298  08000298  00001298  2**2
                  CONTENTS, ALLOC, LOAD, READONLY, CODE
  2 .rodata       000000b4  080060e8  080060e8  000070e8  2**2
                  CONTENTS, ALLOC, LOAD, READONLY, DATA
  3 .ARM.extab    00000000  0800619c  0800619c  00008100  2**0
                  CONTENTS, READONLY
  4 .ARM          00000000  0800619c  0800619c  00008100  2**0
                  CONTENTS, READONLY
  5 .preinit_array 00000000  0800619c  0800619c  00008100  2**0
                  CONTENTS, ALLOC, LOAD, DATA
  6 .init_array   00000004  0800619c  0800619c  0000719c  2**2
                  CONTENTS, ALLOC, LOAD, READONLY, DATA
  7 .fini_array   00000004  080061a0  080061a0  000071a0  2**2
                  CONTENTS, ALLOC, LOAD, READONLY, DATA
  8 .data         00000100  20000000  080061a4  00008000  2**2
                  CONTENTS, ALLOC, LOAD, DATA
  9 .bss          00000d30  20000100  080062a4  00008100  2**2
                  ALLOC
 10 ._user_heap_stack 00000600  20000e30  080062a4  00008e30  2**0
                  ALLOC
 11 .ARM.attributes 0000002e  00000000  00000000  00008100  2**0
                  CONTENTS, READONLY
 12 .comment      00000039  00000000  00000000  0000812e  2**0
                  CONTENTS, READONLY
 13 .debug_info   0002203f  00000000  00000000  00008167  2**0
                  CONTENTS, READONLY, DEBUGGING, OCTETS
 14 .debug_abbrev 00003f32  00000000  00000000  0002a1a6  2**0
                  CONTENTS, READONLY, DEBUGGING, OCTETS
 15 .debug_loclists 00010111  00000000  00000000  0002e0d8  2**0
                  CONTENTS, READONLY, DEBUGGING, OCTETS
 16 .debug_aranges 00001718  00000000  00000000  0003e1f0  2**3
                  CONTENTS, READONLY, DEBUGGING, OCTETS
 17 .debug_rnglists 0000120e  00000000  00000000  0003f908  2**0
                  CONTENTS, READONLY, DEBUGGING, OCTETS
 18 .debug_line   00018105  00000000  00000000  00040b16  2**0
                  CONTENTS, READONLY, DEBUGGING, OCTETS
 19 .debug_str    0000879a  00000000  00000000  00058c1b  2**0
                  CONTENTS, READONLY, DEBUGGING, OCTETS
 20 .debug_frame  00003ae4  00000000  00000000  000613b8  2**2
                  CONTENTS, READONLY, DEBUGGING, OCTETS
 21 .debug_line_str 00000048  00000000  00000000  00064e9c  2**0
                  CONTENTS, READONLY, DEBUGGING, OCTETS

Disassembly of section .text:

08000298 <__do_global_dtors_aux>:
 8000298:	b510      	push	{r4, lr}
 800029a:	4c05      	ldr	r4, [pc, #20]	@ (80002b0 <__do_global_dtors_aux+0x18>)
 800029c:	7823      	ldrb	r3, [r4, #0]
 800029e:	b933      	cbnz	r3, 80002ae <__do_global_dtors_aux+0x16>
 80002a0:	4b04      	ldr	r3, [pc, #16]	@ (80002b4 <__do_global_dtors_aux+0x1c>)
 80002a2:	b113      	cbz	r3, 80002aa <__do_global_dtors_aux+0x12>
 80002a4:	4804      	ldr	r0, [pc, #16]	@ (80002b8 <__do_global_dtors_aux+0x20>)
 80002a6:	f3af 8000 	nop.w
 80002aa:	2301      	movs	r3, #1
 80002ac:	7023      	strb	r3, [r4, #0]
 80002ae:	bd10      	pop	{r4, pc}
 80002b0:	20000100 	.word	0x20000100
 80002b4:	00000000 	.word	0x00000000
 80002b8:	080060d0 	.word	0x080060d0

080002bc <frame_dummy>:
 80002bc:	b508      	push	{r3, lr}
 80002be:	4b03      	ldr	r3, [pc, #12]	@ (80002cc <frame_dummy+0x10>)
 80002c0:	b11b      	cbz	r3, 80002ca <frame_dummy+0xe>
 80002c2:	4903      	ldr	r1, [pc, #12]	@ (80002d0 <frame_dummy+0x14>)
 80002c4:	4803      	ldr	r0, [pc, #12]	@ (80002d4 <frame_dummy+0x18>)
 80002c6:	f3af 8000 	nop.w
 80002ca:	bd08      	pop	{r3, pc}
 80002cc:	00000000 	.word	0x00000000
 80002d0:	20000104 	.word	0x20000104
 80002d4:	080060d0 	.word	0x080060d0

080002d8 <MX_GPIO_Init>:
  * @brief GPIO Initialization Function
  * @param None
  * @retval None
  */
static void MX_GPIO_Init(void)
{
 80002d8:	b084      	sub	sp, #16
  /* USER CODE BEGIN MX_GPIO_Init_1 */

  /* USER CODE END MX_GPIO_Init_1 */

  /* GPIO Ports Clock Enable */
  __HAL_RCC_GPIOH_CLK_ENABLE();
 80002da:	4b13      	ldr	r3, [pc, #76]	@ (8000328 <MX_GPIO_Init+0x50>)
 80002dc:	f8d3 20e0 	ldr.w	r2, [r3, #224]	@ 0xe0
 80002e0:	f042 0280 	orr.w	r2, r2, #128	@ 0x80
 80002e4:	f8c3 20e0 	str.w	r2, [r3, #224]	@ 0xe0
 80002e8:	f8d3 20e0 	ldr.w	r2, [r3, #224]	@ 0xe0
 80002ec:	f002 0280 	and.w	r2, r2, #128	@ 0x80
 80002f0:	9201      	str	r2, [sp, #4]
 80002f2:	9a01      	ldr	r2, [sp, #4]
  __HAL_RCC_GPIOA_CLK_ENABLE();
 80002f4:	f8d3 20e0 	ldr.w	r2, [r3, #224]	@ 0xe0
 80002f8:	f042 0201 	orr.w	r2, r2, #1
 80002fc:	f8c3 20e0 	str.w	r2, [r3, #224]	@ 0xe0
 8000300:	f8d3 20e0 	ldr.w	r2, [r3, #224]	@ 0xe0
 8000304:	f002 0201 	and.w	r2, r2, #1
 8000308:	9202      	str	r2, [sp, #8]
 800030a:	9a02      	ldr	r2, [sp, #8]
  __HAL_RCC_GPIOD_CLK_ENABLE();
 800030c:	f8d3 20e0 	ldr.w	r2, [r3, #224]	@ 0xe0
 8000310:	f042 0208 	orr.w	r2, r2, #8
 8000314:	f8c3 20e0 	str.w	r2, [r3, #224]	@ 0xe0
 8000318:	f8d3 30e0 	ldr.w	r3, [r3, #224]	@ 0xe0
 800031c:	f003 0308 	and.w	r3, r3, #8
 8000320:	9303      	str	r3, [sp, #12]
 8000322:	9b03      	ldr	r3, [sp, #12]

  /* USER CODE BEGIN MX_GPIO_Init_2 */

  /* USER CODE END MX_GPIO_Init_2 */
}
 8000324:	b004      	add	sp, #16
 8000326:	4770      	bx	lr
 8000328:	58024400 	.word	0x58024400

0800032c <MPU_Config>:
/* USER CODE END 4 */

 /* MPU Configuration */

void MPU_Config(void)
{
 800032c:	b530      	push	{r4, r5, lr}
 800032e:	b085      	sub	sp, #20
  MPU_Region_InitTypeDef MPU_InitStruct = {0};
 8000330:	2400      	movs	r4, #0
 8000332:	9400      	str	r4, [sp, #0]
 8000334:	9401      	str	r4, [sp, #4]
 8000336:	9402      	str	r4, [sp, #8]
 8000338:	9403      	str	r4, [sp, #12]

  /* Disables the MPU */
  HAL_MPU_Disable();
 800033a:	f000 fa2b 	bl	8000794 <HAL_MPU_Disable>

  /** Initializes and configures the Region and the memory to be protected
  */
  MPU_InitStruct.Enable = MPU_REGION_ENABLE;
 800033e:	2301      	movs	r3, #1
 8000340:	f88d 3000 	strb.w	r3, [sp]
  MPU_InitStruct.Number = MPU_REGION_NUMBER0;
 8000344:	f88d 4001 	strb.w	r4, [sp, #1]
  MPU_InitStruct.BaseAddress = 0x0;
 8000348:	9401      	str	r4, [sp, #4]
  MPU_InitStruct.Size = MPU_REGION_SIZE_4GB;
 800034a:	221f      	movs	r2, #31
 800034c:	f88d 2008 	strb.w	r2, [sp, #8]
  MPU_InitStruct.SubRegionDisable = 0x87;
 8000350:	2287      	movs	r2, #135	@ 0x87
 8000352:	f88d 2009 	strb.w	r2, [sp, #9]
  MPU_InitStruct.TypeExtField = MPU_TEX_LEVEL0;
 8000356:	f88d 400a 	strb.w	r4, [sp, #10]
  MPU_InitStruct.AccessPermission = MPU_REGION_NO_ACCESS;
 800035a:	f88d 400b 	strb.w	r4, [sp, #11]
  MPU_InitStruct.DisableExec = MPU_INSTRUCTION_ACCESS_DISABLE;
 800035e:	f88d 300c 	strb.w	r3, [sp, #12]
  MPU_InitStruct.IsShareable = MPU_ACCESS_SHAREABLE;
 8000362:	f88d 300d 	strb.w	r3, [sp, #13]
  MPU_InitStruct.IsCacheable = MPU_ACCESS_NOT_CACHEABLE;
 8000366:	f88d 400e 	strb.w	r4, [sp, #14]
  MPU_InitStruct.IsBufferable = MPU_ACCESS_NOT_BUFFERABLE;
 800036a:	f88d 400f 	strb.w	r4, [sp, #15]

  HAL_MPU_ConfigRegion(&MPU_InitStruct);
 800036e:	4668      	mov	r0, sp
 8000370:	f000 fa2e 	bl	80007d0 <HAL_MPU_ConfigRegion>
  /* Enables the MPU */
  HAL_MPU_Enable(MPU_PRIVILEGED_DEFAULT);
 8000374:	2004      	movs	r0, #4
 8000376:	f000 fa1b 	bl	80007b0 <HAL_MPU_Enable>

}
 800037a:	b005      	add	sp, #20
 800037c:	bd30      	pop	{r4, r5, pc}

0800037e <Error_Handler>:
  \details Disables IRQ interrupts by setting the I-bit in the CPSR.
           Can only be executed in Privileged modes.
 */
__STATIC_FORCEINLINE void __disable_irq(void)
{
  __ASM volatile ("cpsid i" : : : "memory");
 800037e:	b672      	cpsid	i
void Error_Handler(void)
{
  /* USER CODE BEGIN Error_Handler_Debug */
  /* User can add his own implementation to report the HAL error return state */
  __disable_irq();
  while (1)
 8000380:	e7fe      	b.n	8000380 <Error_Handler+0x2>
	...

08000384 <MX_TIM2_Init>:
{
 8000384:	b500      	push	{lr}
 8000386:	b08b      	sub	sp, #44	@ 0x2c
  TIM_MasterConfigTypeDef sMasterConfig = {0};
 8000388:	2300      	movs	r3, #0
 800038a:	9307      	str	r3, [sp, #28]
 800038c:	9308      	str	r3, [sp, #32]
 800038e:	9309      	str	r3, [sp, #36]	@ 0x24
  TIM_OC_InitTypeDef sConfigOC = {0};
 8000390:	9300      	str	r3, [sp, #0]
 8000392:	9301      	str	r3, [sp, #4]
 8000394:	9302      	str	r3, [sp, #8]
 8000396:	9303      	str	r3, [sp, #12]
 8000398:	9304      	str	r3, [sp, #16]
 800039a:	9305      	str	r3, [sp, #20]
 800039c:	9306      	str	r3, [sp, #24]
  htim2.Instance = TIM2;
 800039e:	4818      	ldr	r0, [pc, #96]	@ (8000400 <MX_TIM2_Init+0x7c>)
 80003a0:	f04f 4280 	mov.w	r2, #1073741824	@ 0x40000000
 80003a4:	6002      	str	r2, [r0, #0]
  htim2.Init.Prescaler = 25;
 80003a6:	2219      	movs	r2, #25
 80003a8:	6042      	str	r2, [r0, #4]
  htim2.Init.CounterMode = TIM_COUNTERMODE_UP;
 80003aa:	6083      	str	r3, [r0, #8]
  htim2.Init.Period = 999;
 80003ac:	f240 32e7 	movw	r2, #999	@ 0x3e7
 80003b0:	60c2      	str	r2, [r0, #12]
  htim2.Init.ClockDivision = TIM_CLOCKDIVISION_DIV1;
 80003b2:	6103      	str	r3, [r0, #16]
  htim2.Init.AutoReloadPreload = TIM_AUTORELOAD_PRELOAD_DISABLE;
 80003b4:	6183      	str	r3, [r0, #24]
  if (HAL_TIM_PWM_Init(&htim2) != HAL_OK)
 80003b6:	f003 fac1 	bl	800393c <HAL_TIM_PWM_Init>
 80003ba:	b9d8      	cbnz	r0, 80003f4 <MX_TIM2_Init+0x70>
  sMasterConfig.MasterOutputTrigger = TIM_TRGO_RESET;
 80003bc:	2300      	movs	r3, #0
 80003be:	9307      	str	r3, [sp, #28]
  sMasterConfig.MasterSlaveMode = TIM_MASTERSLAVEMODE_DISABLE;
 80003c0:	9309      	str	r3, [sp, #36]	@ 0x24
  if (HAL_TIMEx_MasterConfigSynchronization(&htim2, &sMasterConfig) != HAL_OK)
 80003c2:	a907      	add	r1, sp, #28
 80003c4:	480e      	ldr	r0, [pc, #56]	@ (8000400 <MX_TIM2_Init+0x7c>)
 80003c6:	f003 fc8f 	bl	8003ce8 <HAL_TIMEx_MasterConfigSynchronization>
 80003ca:	b9a8      	cbnz	r0, 80003f8 <MX_TIM2_Init+0x74>
  sConfigOC.OCMode = TIM_OCMODE_PWM1;
 80003cc:	2360      	movs	r3, #96	@ 0x60
 80003ce:	9300      	str	r3, [sp, #0]
  sConfigOC.Pulse = 500;
 80003d0:	f44f 73fa 	mov.w	r3, #500	@ 0x1f4
 80003d4:	9301      	str	r3, [sp, #4]
  sConfigOC.OCPolarity = TIM_OCPOLARITY_HIGH;
 80003d6:	2300      	movs	r3, #0
 80003d8:	9302      	str	r3, [sp, #8]
  sConfigOC.OCFastMode = TIM_OCFAST_DISABLE;
 80003da:	9304      	str	r3, [sp, #16]
  if (HAL_TIM_PWM_ConfigChannel(&htim2, &sConfigOC, TIM_CHANNEL_4) != HAL_OK)
 80003dc:	220c      	movs	r2, #12
 80003de:	4669      	mov	r1, sp
 80003e0:	4807      	ldr	r0, [pc, #28]	@ (8000400 <MX_TIM2_Init+0x7c>)
 80003e2:	f003 fb25 	bl	8003a30 <HAL_TIM_PWM_ConfigChannel>
 80003e6:	b948      	cbnz	r0, 80003fc <MX_TIM2_Init+0x78>
  HAL_TIM_MspPostInit(&htim2);
 80003e8:	4805      	ldr	r0, [pc, #20]	@ (8000400 <MX_TIM2_Init+0x7c>)
 80003ea:	f000 fde7 	bl	8000fbc <HAL_TIM_MspPostInit>
}
 80003ee:	b00b      	add	sp, #44	@ 0x2c
 80003f0:	f85d fb04 	ldr.w	pc, [sp], #4
    Error_Handler();
 80003f4:	f7ff ffc3 	bl	800037e <Error_Handler>
    Error_Handler();
 80003f8:	f7ff ffc1 	bl	800037e <Error_Handler>
    Error_Handler();
 80003fc:	f7ff ffbf 	bl	800037e <Error_Handler>
 8000400:	2000011c 	.word	0x2000011c

08000404 <MX_FDCAN1_Init>:
{
 8000404:	b508      	push	{r3, lr}
  hfdcan1.Instance = FDCAN1;
 8000406:	4814      	ldr	r0, [pc, #80]	@ (8000458 <MX_FDCAN1_Init+0x54>)
 8000408:	4b14      	ldr	r3, [pc, #80]	@ (800045c <MX_FDCAN1_Init+0x58>)
 800040a:	6003      	str	r3, [r0, #0]
  hfdcan1.Init.FrameFormat = FDCAN_FRAME_CLASSIC;
 800040c:	2300      	movs	r3, #0
 800040e:	6083      	str	r3, [r0, #8]
  hfdcan1.Init.Mode = FDCAN_MODE_NORMAL;
 8000410:	60c3      	str	r3, [r0, #12]
  hfdcan1.Init.AutoRetransmission = DISABLE;
 8000412:	7403      	strb	r3, [r0, #16]
  hfdcan1.Init.TransmitPause = DISABLE;
 8000414:	7443      	strb	r3, [r0, #17]
  hfdcan1.Init.ProtocolException = DISABLE;
 8000416:	7483      	strb	r3, [r0, #18]
  hfdcan1.Init.NominalPrescaler = 6;
 8000418:	2206      	movs	r2, #6
 800041a:	6142      	str	r2, [r0, #20]
  hfdcan1.Init.NominalSyncJumpWidth = 1;
 800041c:	2101      	movs	r1, #1
 800041e:	6181      	str	r1, [r0, #24]
  hfdcan1.Init.NominalTimeSeg1 = 3;
 8000420:	2203      	movs	r2, #3
 8000422:	61c2      	str	r2, [r0, #28]
  hfdcan1.Init.NominalTimeSeg2 = 4;
 8000424:	2204      	movs	r2, #4
 8000426:	6202      	str	r2, [r0, #32]
  hfdcan1.Init.DataPrescaler = 1;
 8000428:	6241      	str	r1, [r0, #36]	@ 0x24
  hfdcan1.Init.DataSyncJumpWidth = 1;
 800042a:	6281      	str	r1, [r0, #40]	@ 0x28
  hfdcan1.Init.DataTimeSeg1 = 1;
 800042c:	62c1      	str	r1, [r0, #44]	@ 0x2c
  hfdcan1.Init.DataTimeSeg2 = 1;
 800042e:	6301      	str	r1, [r0, #48]	@ 0x30
  hfdcan1.Init.MessageRAMOffset = 0;
 8000430:	6343      	str	r3, [r0, #52]	@ 0x34
  hfdcan1.Init.StdFiltersNbr = 0;
 8000432:	6383      	str	r3, [r0, #56]	@ 0x38
  hfdcan1.Init.ExtFiltersNbr = 0;
 8000434:	63c3      	str	r3, [r0, #60]	@ 0x3c
  hfdcan1.Init.RxFifo0ElmtsNbr = 0;
 8000436:	6403      	str	r3, [r0, #64]	@ 0x40
  hfdcan1.Init.RxFifo0ElmtSize = FDCAN_DATA_BYTES_8;
 8000438:	6442      	str	r2, [r0, #68]	@ 0x44
  hfdcan1.Init.RxFifo1ElmtsNbr = 0;
 800043a:	6483      	str	r3, [r0, #72]	@ 0x48
  hfdcan1.Init.RxFifo1ElmtSize = FDCAN_DATA_BYTES_8;
 800043c:	64c2      	str	r2, [r0, #76]	@ 0x4c
  hfdcan1.Init.RxBuffersNbr = 0;
 800043e:	6503      	str	r3, [r0, #80]	@ 0x50
  hfdcan1.Init.RxBufferSize = FDCAN_DATA_BYTES_8;
 8000440:	6542      	str	r2, [r0, #84]	@ 0x54
  hfdcan1.Init.TxEventsNbr = 0;
 8000442:	6583      	str	r3, [r0, #88]	@ 0x58
  hfdcan1.Init.TxBuffersNbr = 0;
 8000444:	65c3      	str	r3, [r0, #92]	@ 0x5c
  hfdcan1.Init.TxFifoQueueElmtsNbr = 0;
 8000446:	6603      	str	r3, [r0, #96]	@ 0x60
  hfdcan1.Init.TxFifoQueueMode = FDCAN_TX_FIFO_OPERATION;
 8000448:	6643      	str	r3, [r0, #100]	@ 0x64
  hfdcan1.Init.TxElmtSize = FDCAN_DATA_BYTES_8;
 800044a:	6682      	str	r2, [r0, #104]	@ 0x68
  if (HAL_FDCAN_Init(&hfdcan1) != HAL_OK)
 800044c:	f000 fad6 	bl	80009fc <HAL_FDCAN_Init>
 8000450:	b900      	cbnz	r0, 8000454 <MX_FDCAN1_Init+0x50>
}
 8000452:	bd08      	pop	{r3, pc}
    Error_Handler();
 8000454:	f7ff ff93 	bl	800037e <Error_Handler>
 8000458:	20000168 	.word	0x20000168
 800045c:	4000a000 	.word	0x4000a000

08000460 <SystemClock_Config>:
{
 8000460:	b500      	push	{lr}
 8000462:	b09d      	sub	sp, #116	@ 0x74
  RCC_OscInitTypeDef RCC_OscInitStruct = {0};
 8000464:	224c      	movs	r2, #76	@ 0x4c
 8000466:	2100      	movs	r1, #0
 8000468:	a809      	add	r0, sp, #36	@ 0x24
 800046a:	f005 fdf6 	bl	800605a <memset>
  RCC_ClkInitTypeDef RCC_ClkInitStruct = {0};
 800046e:	2220      	movs	r2, #32
 8000470:	2100      	movs	r1, #0
 8000472:	a801      	add	r0, sp, #4
 8000474:	f005 fdf1 	bl	800605a <memset>
  HAL_PWREx_ConfigSupply(PWR_LDO_SUPPLY);
 8000478:	2002      	movs	r0, #2
 800047a:	f001 fc3d 	bl	8001cf8 <HAL_PWREx_ConfigSupply>
  __HAL_PWR_VOLTAGESCALING_CONFIG(PWR_REGULATOR_VOLTAGE_SCALE3);
 800047e:	2300      	movs	r3, #0
 8000480:	9300      	str	r3, [sp, #0]
 8000482:	4b24      	ldr	r3, [pc, #144]	@ (8000514 <SystemClock_Config+0xb4>)
 8000484:	6ada      	ldr	r2, [r3, #44]	@ 0x2c
 8000486:	f022 0201 	bic.w	r2, r2, #1
 800048a:	62da      	str	r2, [r3, #44]	@ 0x2c
 800048c:	6adb      	ldr	r3, [r3, #44]	@ 0x2c
 800048e:	f003 0301 	and.w	r3, r3, #1
 8000492:	9300      	str	r3, [sp, #0]
 8000494:	4a20      	ldr	r2, [pc, #128]	@ (8000518 <SystemClock_Config+0xb8>)
 8000496:	6993      	ldr	r3, [r2, #24]
 8000498:	f423 4340 	bic.w	r3, r3, #49152	@ 0xc000
 800049c:	f443 4380 	orr.w	r3, r3, #16384	@ 0x4000
 80004a0:	6193      	str	r3, [r2, #24]
 80004a2:	6993      	ldr	r3, [r2, #24]
 80004a4:	f403 4340 	and.w	r3, r3, #49152	@ 0xc000
 80004a8:	9300      	str	r3, [sp, #0]
 80004aa:	9b00      	ldr	r3, [sp, #0]
  while(!__HAL_PWR_GET_FLAG(PWR_FLAG_VOSRDY)) {}
 80004ac:	4b1a      	ldr	r3, [pc, #104]	@ (8000518 <SystemClock_Config+0xb8>)
 80004ae:	699b      	ldr	r3, [r3, #24]
 80004b0:	f413 5f00 	tst.w	r3, #8192	@ 0x2000
 80004b4:	d0fa      	beq.n	80004ac <SystemClock_Config+0x4c>
  RCC_OscInitStruct.OscillatorType = RCC_OSCILLATORTYPE_HSE;
 80004b6:	2301      	movs	r3, #1
 80004b8:	9309      	str	r3, [sp, #36]	@ 0x24
  RCC_OscInitStruct.HSEState = RCC_HSE_ON;
 80004ba:	f44f 3380 	mov.w	r3, #65536	@ 0x10000
 80004be:	930a      	str	r3, [sp, #40]	@ 0x28
  RCC_OscInitStruct.PLL.PLLState = RCC_PLL_ON;
 80004c0:	2302      	movs	r3, #2
 80004c2:	9312      	str	r3, [sp, #72]	@ 0x48
  RCC_OscInitStruct.PLL.PLLSource = RCC_PLLSOURCE_HSE;
 80004c4:	9313      	str	r3, [sp, #76]	@ 0x4c
  RCC_OscInitStruct.PLL.PLLM = 5;
 80004c6:	2205      	movs	r2, #5
 80004c8:	9214      	str	r2, [sp, #80]	@ 0x50
  RCC_OscInitStruct.PLL.PLLN = 48;
 80004ca:	2130      	movs	r1, #48	@ 0x30
 80004cc:	9115      	str	r1, [sp, #84]	@ 0x54
  RCC_OscInitStruct.PLL.PLLP = 14;
 80004ce:	210e      	movs	r1, #14
 80004d0:	9116      	str	r1, [sp, #88]	@ 0x58
  RCC_OscInitStruct.PLL.PLLQ = 5;
 80004d2:	9217      	str	r2, [sp, #92]	@ 0x5c
  RCC_OscInitStruct.PLL.PLLR = 2;
 80004d4:	9318      	str	r3, [sp, #96]	@ 0x60
  RCC_OscInitStruct.PLL.PLLRGE = RCC_PLL1VCIRANGE_2;
 80004d6:	2308      	movs	r3, #8
 80004d8:	9319      	str	r3, [sp, #100]	@ 0x64
  RCC_OscInitStruct.PLL.PLLVCOSEL = RCC_PLL1VCOWIDE;
 80004da:	2300      	movs	r3, #0
 80004dc:	931a      	str	r3, [sp, #104]	@ 0x68
  RCC_OscInitStruct.PLL.PLLFRACN = 0;
 80004de:	931b      	str	r3, [sp, #108]	@ 0x6c
  if (HAL_RCC_OscConfig(&RCC_OscInitStruct) != HAL_OK)
 80004e0:	a809      	add	r0, sp, #36	@ 0x24
 80004e2:	f001 fc3b 	bl	8001d5c <HAL_RCC_OscConfig>
 80004e6:	b988      	cbnz	r0, 800050c <SystemClock_Config+0xac>
  RCC_ClkInitStruct.ClockType = RCC_CLOCKTYPE_HCLK|RCC_CLOCKTYPE_SYSCLK
 80004e8:	233f      	movs	r3, #63	@ 0x3f
 80004ea:	9301      	str	r3, [sp, #4]
  RCC_ClkInitStruct.SYSCLKSource = RCC_SYSCLKSOURCE_HSE;
 80004ec:	2302      	movs	r3, #2
 80004ee:	9302      	str	r3, [sp, #8]
  RCC_ClkInitStruct.SYSCLKDivider = RCC_SYSCLK_DIV1;
 80004f0:	2100      	movs	r1, #0
 80004f2:	9103      	str	r1, [sp, #12]
  RCC_ClkInitStruct.AHBCLKDivider = RCC_HCLK_DIV1;
 80004f4:	9104      	str	r1, [sp, #16]
  RCC_ClkInitStruct.APB3CLKDivider = RCC_APB3_DIV1;
 80004f6:	9105      	str	r1, [sp, #20]
  RCC_ClkInitStruct.APB1CLKDivider = RCC_APB1_DIV1;
 80004f8:	9106      	str	r1, [sp, #24]
  RCC_ClkInitStruct.APB2CLKDivider = RCC_APB2_DIV1;
 80004fa:	9107      	str	r1, [sp, #28]
  RCC_ClkInitStruct.APB4CLKDivider = RCC_APB4_DIV1;
 80004fc:	9108      	str	r1, [sp, #32]
  if (HAL_RCC_ClockConfig(&RCC_ClkInitStruct, FLASH_LATENCY_0) != HAL_OK)
 80004fe:	a801      	add	r0, sp, #4
 8000500:	f002 f880 	bl	8002604 <HAL_RCC_ClockConfig>
 8000504:	b920      	cbnz	r0, 8000510 <SystemClock_Config+0xb0>
}
 8000506:	b01d      	add	sp, #116	@ 0x74
 8000508:	f85d fb04 	ldr.w	pc, [sp], #4
    Error_Handler();
 800050c:	f7ff ff37 	bl	800037e <Error_Handler>
    Error_Handler();
 8000510:	f7ff ff35 	bl	800037e <Error_Handler>
 8000514:	58000400 	.word	0x58000400
 8000518:	58024800 	.word	0x58024800

0800051c <main>:
{
 800051c:	b510      	push	{r4, lr}
 800051e:	b084      	sub	sp, #16
  MPU_Config();
 8000520:	f7ff ff04 	bl	800032c <MPU_Config>
  HAL_Init();
 8000524:	f000 f862 	bl	80005ec <HAL_Init>
  SystemClock_Config();
 8000528:	f7ff ff9a 	bl	8000460 <SystemClock_Config>
  MX_GPIO_Init();
 800052c:	f7ff fed4 	bl	80002d8 <MX_GPIO_Init>
  MX_TIM2_Init();
 8000530:	f7ff ff28 	bl	8000384 <MX_TIM2_Init>
  MX_FDCAN1_Init();
 8000534:	f7ff ff66 	bl	8000404 <MX_FDCAN1_Init>
  MX_USB_DEVICE_Init();
 8000538:	f004 fa80 	bl	8004a3c <MX_USB_DEVICE_Init>
  uint8_t send_default[] = "still running\r\n";
 800053c:	4b15      	ldr	r3, [pc, #84]	@ (8000594 <main+0x78>)
 800053e:	cb0f      	ldmia	r3, {r0, r1, r2, r3}
 8000540:	ac04      	add	r4, sp, #16
 8000542:	e904 000f 	stmdb	r4, {r0, r1, r2, r3}
  HAL_TIM_PWM_Start(&htim2, TIM_CHANNEL_4);
 8000546:	210c      	movs	r1, #12
 8000548:	4813      	ldr	r0, [pc, #76]	@ (8000598 <main+0x7c>)
 800054a:	f003 fb1d 	bl	8003b88 <HAL_TIM_PWM_Start>
 800054e:	e01e      	b.n	800058e <main+0x72>
            __HAL_TIM_SET_COMPARE(&htim2, TIM_CHANNEL_4, duty);
 8000550:	4b11      	ldr	r3, [pc, #68]	@ (8000598 <main+0x7c>)
 8000552:	681b      	ldr	r3, [r3, #0]
 8000554:	641c      	str	r4, [r3, #64]	@ 0x40
            HAL_Delay(1);  // controls fade speed
 8000556:	2001      	movs	r0, #1
 8000558:	f000 f888 	bl	800066c <HAL_Delay>
        for (uint16_t duty = 0; duty < 1000; duty++) {
 800055c:	3401      	adds	r4, #1
 800055e:	b2a4      	uxth	r4, r4
 8000560:	f5b4 7f7a 	cmp.w	r4, #1000	@ 0x3e8
 8000564:	d3f4      	bcc.n	8000550 <main+0x34>
        for (uint16_t duty = 1000; duty > 0; duty--) {
 8000566:	f44f 747a 	mov.w	r4, #1000	@ 0x3e8
 800056a:	e007      	b.n	800057c <main+0x60>
            __HAL_TIM_SET_COMPARE(&htim2, TIM_CHANNEL_4, duty);
 800056c:	4b0a      	ldr	r3, [pc, #40]	@ (8000598 <main+0x7c>)
 800056e:	681b      	ldr	r3, [r3, #0]
 8000570:	641c      	str	r4, [r3, #64]	@ 0x40
            HAL_Delay(1);
 8000572:	2001      	movs	r0, #1
 8000574:	f000 f87a 	bl	800066c <HAL_Delay>
        for (uint16_t duty = 1000; duty > 0; duty--) {
 8000578:	3c01      	subs	r4, #1
 800057a:	b2a4      	uxth	r4, r4
 800057c:	2c00      	cmp	r4, #0
 800057e:	d1f5      	bne.n	800056c <main+0x50>
      CDC_Transmit_FS(send_default, send_default_len);
 8000580:	2110      	movs	r1, #16
 8000582:	4668      	mov	r0, sp
 8000584:	f004 fd2a 	bl	8004fdc <CDC_Transmit_FS>
      HAL_Delay(100);
 8000588:	2064      	movs	r0, #100	@ 0x64
 800058a:	f000 f86f 	bl	800066c <HAL_Delay>
        for (uint16_t duty = 0; duty < 1000; duty++) {
 800058e:	2400      	movs	r4, #0
 8000590:	e7e6      	b.n	8000560 <main+0x44>
 8000592:	bf00      	nop
 8000594:	08006134 	.word	0x08006134
 8000598:	2000011c 	.word	0x2000011c

0800059c <HAL_InitTick>:
  * @retval HAL status
  */
__weak HAL_StatusTypeDef HAL_InitTick(uint32_t TickPriority)
{
  /* Check uwTickFreq for MisraC 2012 (even if uwTickFreq is a enum type that don't take the value zero)*/
  if((uint32_t)uwTickFreq == 0UL)
 800059c:	4b10      	ldr	r3, [pc, #64]	@ (80005e0 <HAL_InitTick+0x44>)
 800059e:	781b      	ldrb	r3, [r3, #0]
 80005a0:	b90b      	cbnz	r3, 80005a6 <HAL_InitTick+0xa>
  {
    return HAL_ERROR;
 80005a2:	2001      	movs	r0, #1
    return HAL_ERROR;
  }

  /* Return function status */
  return HAL_OK;
}
 80005a4:	4770      	bx	lr
{
 80005a6:	b510      	push	{r4, lr}
 80005a8:	4604      	mov	r4, r0
    if (HAL_SYSTICK_Config(SystemCoreClock / (1000UL / (uint32_t)uwTickFreq)) > 0U)
 80005aa:	f44f 707a 	mov.w	r0, #1000	@ 0x3e8
 80005ae:	fbb0 f3f3 	udiv	r3, r0, r3
 80005b2:	4a0c      	ldr	r2, [pc, #48]	@ (80005e4 <HAL_InitTick+0x48>)
 80005b4:	6810      	ldr	r0, [r2, #0]
 80005b6:	fbb0 f0f3 	udiv	r0, r0, r3
 80005ba:	f000 f8d7 	bl	800076c <HAL_SYSTICK_Config>
 80005be:	b968      	cbnz	r0, 80005dc <HAL_InitTick+0x40>
  if (TickPriority < (1UL << __NVIC_PRIO_BITS))
 80005c0:	2c0f      	cmp	r4, #15
 80005c2:	d901      	bls.n	80005c8 <HAL_InitTick+0x2c>
    return HAL_ERROR;
 80005c4:	2001      	movs	r0, #1
 80005c6:	e00a      	b.n	80005de <HAL_InitTick+0x42>
    HAL_NVIC_SetPriority(SysTick_IRQn, TickPriority, 0U);
 80005c8:	2200      	movs	r2, #0
 80005ca:	4621      	mov	r1, r4
 80005cc:	f04f 30ff 	mov.w	r0, #4294967295
 80005d0:	f000 f8b8 	bl	8000744 <HAL_NVIC_SetPriority>
    uwTickPrio = TickPriority;
 80005d4:	4b04      	ldr	r3, [pc, #16]	@ (80005e8 <HAL_InitTick+0x4c>)
 80005d6:	601c      	str	r4, [r3, #0]
  return HAL_OK;
 80005d8:	2000      	movs	r0, #0
 80005da:	e000      	b.n	80005de <HAL_InitTick+0x42>
      return HAL_ERROR;
 80005dc:	2001      	movs	r0, #1
}
 80005de:	bd10      	pop	{r4, pc}
 80005e0:	20000000 	.word	0x20000000
 80005e4:	2000000c 	.word	0x2000000c
 80005e8:	20000004 	.word	0x20000004

080005ec <HAL_Init>:
{
 80005ec:	b510      	push	{r4, lr}
  HAL_NVIC_SetPriorityGrouping(NVIC_PRIORITYGROUP_4);
 80005ee:	2003      	movs	r0, #3
 80005f0:	f000 f896 	bl	8000720 <HAL_NVIC_SetPriorityGrouping>
  common_system_clock = HAL_RCC_GetSysClockFreq() >> ((D1CorePrescTable[(RCC->D1CFGR & RCC_D1CFGR_D1CPRE)>> RCC_D1CFGR_D1CPRE_Pos]) & 0x1FU);
 80005f4:	f001 ff0a 	bl	800240c <HAL_RCC_GetSysClockFreq>
 80005f8:	490f      	ldr	r1, [pc, #60]	@ (8000638 <HAL_Init+0x4c>)
 80005fa:	698b      	ldr	r3, [r1, #24]
 80005fc:	f3c3 2303 	ubfx	r3, r3, #8, #4
 8000600:	4a0e      	ldr	r2, [pc, #56]	@ (800063c <HAL_Init+0x50>)
 8000602:	5cd3      	ldrb	r3, [r2, r3]
 8000604:	f003 031f 	and.w	r3, r3, #31
 8000608:	40d8      	lsrs	r0, r3
  SystemD2Clock = (common_system_clock >> ((D1CorePrescTable[(RCC->D1CFGR & RCC_D1CFGR_HPRE)>> RCC_D1CFGR_HPRE_Pos]) & 0x1FU));
 800060a:	698b      	ldr	r3, [r1, #24]
 800060c:	f003 030f 	and.w	r3, r3, #15
 8000610:	5cd3      	ldrb	r3, [r2, r3]
 8000612:	f003 031f 	and.w	r3, r3, #31
 8000616:	fa20 f303 	lsr.w	r3, r0, r3
 800061a:	4a09      	ldr	r2, [pc, #36]	@ (8000640 <HAL_Init+0x54>)
 800061c:	6013      	str	r3, [r2, #0]
  SystemCoreClock = common_system_clock;
 800061e:	4b09      	ldr	r3, [pc, #36]	@ (8000644 <HAL_Init+0x58>)
 8000620:	6018      	str	r0, [r3, #0]
  if(HAL_InitTick(TICK_INT_PRIORITY) != HAL_OK)
 8000622:	200f      	movs	r0, #15
 8000624:	f7ff ffba 	bl	800059c <HAL_InitTick>
 8000628:	b110      	cbz	r0, 8000630 <HAL_Init+0x44>
    return HAL_ERROR;
 800062a:	2401      	movs	r4, #1
}
 800062c:	4620      	mov	r0, r4
 800062e:	bd10      	pop	{r4, pc}
 8000630:	4604      	mov	r4, r0
  HAL_MspInit();
 8000632:	f000 fc3d 	bl	8000eb0 <HAL_MspInit>
  return HAL_OK;
 8000636:	e7f9      	b.n	800062c <HAL_Init+0x40>
 8000638:	58024400 	.word	0x58024400
 800063c:	0800618c 	.word	0x0800618c
 8000640:	20000008 	.word	0x20000008
 8000644:	2000000c 	.word	0x2000000c

08000648 <HAL_IncTick>:
  *      implementations in user file.
  * @retval None
  */
__weak void HAL_IncTick(void)
{
  uwTick += (uint32_t)uwTickFreq;
 8000648:	4b03      	ldr	r3, [pc, #12]	@ (8000658 <HAL_IncTick+0x10>)
 800064a:	781b      	ldrb	r3, [r3, #0]
 800064c:	4a03      	ldr	r2, [pc, #12]	@ (800065c <HAL_IncTick+0x14>)
 800064e:	6811      	ldr	r1, [r2, #0]
 8000650:	440b      	add	r3, r1
 8000652:	6013      	str	r3, [r2, #0]
}
 8000654:	4770      	bx	lr
 8000656:	bf00      	nop
 8000658:	20000000 	.word	0x20000000
 800065c:	20000208 	.word	0x20000208

08000660 <HAL_GetTick>:
  *       implementations in user file.
  * @retval tick value
  */
__weak uint32_t HAL_GetTick(void)
{
  return uwTick;
 8000660:	4b01      	ldr	r3, [pc, #4]	@ (8000668 <HAL_GetTick+0x8>)
 8000662:	6818      	ldr	r0, [r3, #0]
}
 8000664:	4770      	bx	lr
 8000666:	bf00      	nop
 8000668:	20000208 	.word	0x20000208

0800066c <HAL_Delay>:
  *       implementations in user file.
  * @param Delay  specifies the delay time length, in milliseconds.
  * @retval None
  */
__weak void HAL_Delay(uint32_t Delay)
{
 800066c:	b538      	push	{r3, r4, r5, lr}
 800066e:	4604      	mov	r4, r0
  uint32_t tickstart = HAL_GetTick();
 8000670:	f7ff fff6 	bl	8000660 <HAL_GetTick>
 8000674:	4605      	mov	r5, r0
  uint32_t wait = Delay;

  /* Add a freq to guarantee minimum wait */
  if (wait < HAL_MAX_DELAY)
 8000676:	f1b4 3fff 	cmp.w	r4, #4294967295
 800067a:	d002      	beq.n	8000682 <HAL_Delay+0x16>
  {
    wait += (uint32_t)(uwTickFreq);
 800067c:	4b04      	ldr	r3, [pc, #16]	@ (8000690 <HAL_Delay+0x24>)
 800067e:	781b      	ldrb	r3, [r3, #0]
 8000680:	441c      	add	r4, r3
  }

  while ((HAL_GetTick() - tickstart) < wait)
 8000682:	f7ff ffed 	bl	8000660 <HAL_GetTick>
 8000686:	1b40      	subs	r0, r0, r5
 8000688:	42a0      	cmp	r0, r4
 800068a:	d3fa      	bcc.n	8000682 <HAL_Delay+0x16>
  {
  }
}
 800068c:	bd38      	pop	{r3, r4, r5, pc}
 800068e:	bf00      	nop
 8000690:	20000000 	.word	0x20000000

08000694 <HAL_GetREVID>:
  * @brief  Returns the device revision identifier.
  * @retval Device revision identifier
  */
uint32_t HAL_GetREVID(void)
{
   return((DBGMCU->IDCODE) >> 16);
 8000694:	4b01      	ldr	r3, [pc, #4]	@ (800069c <HAL_GetREVID+0x8>)
 8000696:	6818      	ldr	r0, [r3, #0]
}
 8000698:	0c00      	lsrs	r0, r0, #16
 800069a:	4770      	bx	lr
 800069c:	5c001000 	.word	0x5c001000

080006a0 <__NVIC_EnableIRQ>:
  \param [in]      IRQn  Device specific interrupt number.
  \note    IRQn must not be negative.
 */
__STATIC_INLINE void __NVIC_EnableIRQ(IRQn_Type IRQn)
{
  if ((int32_t)(IRQn) >= 0)
 80006a0:	2800      	cmp	r0, #0
 80006a2:	db07      	blt.n	80006b4 <__NVIC_EnableIRQ+0x14>
  {
    __COMPILER_BARRIER();
    NVIC->ISER[(((uint32_t)IRQn) >> 5UL)] = (uint32_t)(1UL << (((uint32_t)IRQn) & 0x1FUL));
 80006a4:	f000 021f 	and.w	r2, r0, #31
 80006a8:	0940      	lsrs	r0, r0, #5
 80006aa:	2301      	movs	r3, #1
 80006ac:	4093      	lsls	r3, r2
 80006ae:	4a02      	ldr	r2, [pc, #8]	@ (80006b8 <__NVIC_EnableIRQ+0x18>)
 80006b0:	f842 3020 	str.w	r3, [r2, r0, lsl #2]
    __COMPILER_BARRIER();
  }
}
 80006b4:	4770      	bx	lr
 80006b6:	bf00      	nop
 80006b8:	e000e100 	.word	0xe000e100

080006bc <__NVIC_SetPriority>:
  \param [in]  priority  Priority to set.
  \note    The priority cannot be set for every processor exception.
 */
__STATIC_INLINE void __NVIC_SetPriority(IRQn_Type IRQn, uint32_t priority)
{
  if ((int32_t)(IRQn) >= 0)
 80006bc:	2800      	cmp	r0, #0
 80006be:	db04      	blt.n	80006ca <__NVIC_SetPriority+0xe>
  {
    NVIC->IP[((uint32_t)IRQn)]                = (uint8_t)((priority << (8U - __NVIC_PRIO_BITS)) & (uint32_t)0xFFUL);
 80006c0:	0109      	lsls	r1, r1, #4
 80006c2:	b2c9      	uxtb	r1, r1
 80006c4:	4b04      	ldr	r3, [pc, #16]	@ (80006d8 <__NVIC_SetPriority+0x1c>)
 80006c6:	5419      	strb	r1, [r3, r0]
 80006c8:	4770      	bx	lr
  }
  else
  {
    SCB->SHPR[(((uint32_t)IRQn) & 0xFUL)-4UL] = (uint8_t)((priority << (8U - __NVIC_PRIO_BITS)) & (uint32_t)0xFFUL);
 80006ca:	f000 000f 	and.w	r0, r0, #15
 80006ce:	0109      	lsls	r1, r1, #4
 80006d0:	b2c9      	uxtb	r1, r1
 80006d2:	4b02      	ldr	r3, [pc, #8]	@ (80006dc <__NVIC_SetPriority+0x20>)
 80006d4:	5419      	strb	r1, [r3, r0]
  }
}
 80006d6:	4770      	bx	lr
 80006d8:	e000e400 	.word	0xe000e400
 80006dc:	e000ed14 	.word	0xe000ed14

080006e0 <NVIC_EncodePriority>:
  \param [in]   PreemptPriority  Preemptive priority value (starting from 0).
  \param [in]       SubPriority  Subpriority value (starting from 0).
  \return                        Encoded priority. Value can be used in the function \ref NVIC_SetPriority().
 */
__STATIC_INLINE uint32_t NVIC_EncodePriority (uint32_t PriorityGroup, uint32_t PreemptPriority, uint32_t SubPriority)
{
 80006e0:	b500      	push	{lr}
  uint32_t PriorityGroupTmp = (PriorityGroup & (uint32_t)0x07UL);   /* only values 0..7 are used          */
 80006e2:	f000 0007 	and.w	r0, r0, #7
  uint32_t PreemptPriorityBits;
  uint32_t SubPriorityBits;

  PreemptPriorityBits = ((7UL - PriorityGroupTmp) > (uint32_t)(__NVIC_PRIO_BITS)) ? (uint32_t)(__NVIC_PRIO_BITS) : (uint32_t)(7UL - PriorityGroupTmp);
 80006e6:	f1c0 0c07 	rsb	ip, r0, #7
 80006ea:	f1bc 0f04 	cmp.w	ip, #4
 80006ee:	bf28      	it	cs
 80006f0:	f04f 0c04 	movcs.w	ip, #4
  SubPriorityBits     = ((PriorityGroupTmp + (uint32_t)(__NVIC_PRIO_BITS)) < (uint32_t)7UL) ? (uint32_t)0UL : (uint32_t)((PriorityGroupTmp - 7UL) + (uint32_t)(__NVIC_PRIO_BITS));
 80006f4:	1d03      	adds	r3, r0, #4
 80006f6:	2b06      	cmp	r3, #6
 80006f8:	d90f      	bls.n	800071a <NVIC_EncodePriority+0x3a>
 80006fa:	1ec3      	subs	r3, r0, #3

  return (
           ((PreemptPriority & (uint32_t)((1UL << (PreemptPriorityBits)) - 1UL)) << SubPriorityBits) |
 80006fc:	f04f 3eff 	mov.w	lr, #4294967295
 8000700:	fa0e f00c 	lsl.w	r0, lr, ip
 8000704:	ea21 0100 	bic.w	r1, r1, r0
 8000708:	4099      	lsls	r1, r3
           ((SubPriority     & (uint32_t)((1UL << (SubPriorityBits    )) - 1UL)))
 800070a:	fa0e fe03 	lsl.w	lr, lr, r3
 800070e:	ea22 020e 	bic.w	r2, r2, lr
         );
}
 8000712:	ea41 0002 	orr.w	r0, r1, r2
 8000716:	f85d fb04 	ldr.w	pc, [sp], #4
  SubPriorityBits     = ((PriorityGroupTmp + (uint32_t)(__NVIC_PRIO_BITS)) < (uint32_t)7UL) ? (uint32_t)0UL : (uint32_t)((PriorityGroupTmp - 7UL) + (uint32_t)(__NVIC_PRIO_BITS));
 800071a:	2300      	movs	r3, #0
 800071c:	e7ee      	b.n	80006fc <NVIC_EncodePriority+0x1c>
	...

08000720 <HAL_NVIC_SetPriorityGrouping>:
  reg_value  =  SCB->AIRCR;                                                   /* read old register configuration    */
 8000720:	4906      	ldr	r1, [pc, #24]	@ (800073c <HAL_NVIC_SetPriorityGrouping+0x1c>)
 8000722:	68cb      	ldr	r3, [r1, #12]
  reg_value &= ~((uint32_t)(SCB_AIRCR_VECTKEY_Msk | SCB_AIRCR_PRIGROUP_Msk)); /* clear bits to change               */
 8000724:	f423 63e0 	bic.w	r3, r3, #1792	@ 0x700
 8000728:	041b      	lsls	r3, r3, #16
 800072a:	0c1b      	lsrs	r3, r3, #16
                (PriorityGroupTmp << SCB_AIRCR_PRIGROUP_Pos)  );              /* Insert write key and priority group */
 800072c:	0200      	lsls	r0, r0, #8
 800072e:	f400 60e0 	and.w	r0, r0, #1792	@ 0x700
                ((uint32_t)0x5FAUL << SCB_AIRCR_VECTKEY_Pos) |
 8000732:	4303      	orrs	r3, r0
  reg_value  =  (reg_value                                   |
 8000734:	4a02      	ldr	r2, [pc, #8]	@ (8000740 <HAL_NVIC_SetPriorityGrouping+0x20>)
 8000736:	431a      	orrs	r2, r3
  SCB->AIRCR =  reg_value;
 8000738:	60ca      	str	r2, [r1, #12]
  /* Check the parameters */
  assert_param(IS_NVIC_PRIORITY_GROUP(PriorityGroup));

  /* Set the PRIGROUP[10:8] bits according to the PriorityGroup parameter value */
  NVIC_SetPriorityGrouping(PriorityGroup);
}
 800073a:	4770      	bx	lr
 800073c:	e000ed00 	.word	0xe000ed00
 8000740:	05fa0000 	.word	0x05fa0000

08000744 <HAL_NVIC_SetPriority>:
  *         This parameter can be a value between 0 and 15
  *         A lower priority value indicates a higher priority.
  * @retval None
  */
void HAL_NVIC_SetPriority(IRQn_Type IRQn, uint32_t PreemptPriority, uint32_t SubPriority)
{
 8000744:	b510      	push	{r4, lr}
 8000746:	4604      	mov	r4, r0
  return ((uint32_t)((SCB->AIRCR & SCB_AIRCR_PRIGROUP_Msk) >> SCB_AIRCR_PRIGROUP_Pos));
 8000748:	4b05      	ldr	r3, [pc, #20]	@ (8000760 <HAL_NVIC_SetPriority+0x1c>)
 800074a:	68d8      	ldr	r0, [r3, #12]
  assert_param(IS_NVIC_SUB_PRIORITY(SubPriority));
  assert_param(IS_NVIC_PREEMPTION_PRIORITY(PreemptPriority));

  prioritygroup = NVIC_GetPriorityGrouping();

  NVIC_SetPriority(IRQn, NVIC_EncodePriority(prioritygroup, PreemptPriority, SubPriority));
 800074c:	f3c0 2002 	ubfx	r0, r0, #8, #3
 8000750:	f7ff ffc6 	bl	80006e0 <NVIC_EncodePriority>
 8000754:	4601      	mov	r1, r0
 8000756:	4620      	mov	r0, r4
 8000758:	f7ff ffb0 	bl	80006bc <__NVIC_SetPriority>
}
 800075c:	bd10      	pop	{r4, pc}
 800075e:	bf00      	nop
 8000760:	e000ed00 	.word	0xe000ed00

08000764 <HAL_NVIC_EnableIRQ>:
  *         This parameter can be an enumerator of IRQn_Type enumeration
  *         (For the complete STM32 Devices IRQ Channels list, please refer to the appropriate CMSIS device file (stm32h7xxxx.h))
  * @retval None
  */
void HAL_NVIC_EnableIRQ(IRQn_Type IRQn)
{
 8000764:	b508      	push	{r3, lr}
  /* Check the parameters */
  assert_param(IS_NVIC_DEVICE_IRQ(IRQn));

  /* Enable interrupt */
  NVIC_EnableIRQ(IRQn);
 8000766:	f7ff ff9b 	bl	80006a0 <__NVIC_EnableIRQ>
}
 800076a:	bd08      	pop	{r3, pc}

0800076c <HAL_SYSTICK_Config>:
           function <b>SysTick_Config</b> is not included. In this case, the file <b><i>device</i>.h</b>
           must contain a vendor-specific implementation of this function.
 */
__STATIC_INLINE uint32_t SysTick_Config(uint32_t ticks)
{
  if ((ticks - 1UL) > SysTick_LOAD_RELOAD_Msk)
 800076c:	3801      	subs	r0, #1
 800076e:	f1b0 7f80 	cmp.w	r0, #16777216	@ 0x1000000
 8000772:	d20b      	bcs.n	800078c <HAL_SYSTICK_Config+0x20>
  {
    return (1UL);                                                   /* Reload value impossible */
  }

  SysTick->LOAD  = (uint32_t)(ticks - 1UL);                         /* set reload register */
 8000774:	f04f 23e0 	mov.w	r3, #3758153728	@ 0xe000e000
 8000778:	6158      	str	r0, [r3, #20]
    SCB->SHPR[(((uint32_t)IRQn) & 0xFUL)-4UL] = (uint8_t)((priority << (8U - __NVIC_PRIO_BITS)) & (uint32_t)0xFFUL);
 800077a:	4a05      	ldr	r2, [pc, #20]	@ (8000790 <HAL_SYSTICK_Config+0x24>)
 800077c:	21f0      	movs	r1, #240	@ 0xf0
 800077e:	f882 1023 	strb.w	r1, [r2, #35]	@ 0x23
  NVIC_SetPriority (SysTick_IRQn, (1UL << __NVIC_PRIO_BITS) - 1UL); /* set Priority for Systick Interrupt */
  SysTick->VAL   = 0UL;                                             /* Load the SysTick Counter Value */
 8000782:	2000      	movs	r0, #0
 8000784:	6198      	str	r0, [r3, #24]
  SysTick->CTRL  = SysTick_CTRL_CLKSOURCE_Msk |
 8000786:	2207      	movs	r2, #7
 8000788:	611a      	str	r2, [r3, #16]
                   SysTick_CTRL_TICKINT_Msk   |
                   SysTick_CTRL_ENABLE_Msk;                         /* Enable SysTick IRQ and SysTick Timer */
  return (0UL);                                                     /* Function successful */
 800078a:	4770      	bx	lr
    return (1UL);                                                   /* Reload value impossible */
 800078c:	2001      	movs	r0, #1
  *                  - 1  Function failed.
  */
uint32_t HAL_SYSTICK_Config(uint32_t TicksNumb)
{
   return SysTick_Config(TicksNumb);
}
 800078e:	4770      	bx	lr
 8000790:	e000ed00 	.word	0xe000ed00

08000794 <HAL_MPU_Disable>:
  \details Ensures the apparent order of the explicit memory operations before
           and after the instruction, without ensuring their completion.
 */
__STATIC_FORCEINLINE void __DMB(void)
{
  __ASM volatile ("dmb 0xF":::"memory");
 8000794:	f3bf 8f5f 	dmb	sy
{
  /* Make sure outstanding transfers are done */
  __DMB();

  /* Disable fault exceptions */
  SCB->SHCSR &= ~SCB_SHCSR_MEMFAULTENA_Msk;
 8000798:	4b04      	ldr	r3, [pc, #16]	@ (80007ac <HAL_MPU_Disable+0x18>)
 800079a:	6a5a      	ldr	r2, [r3, #36]	@ 0x24
 800079c:	f422 3280 	bic.w	r2, r2, #65536	@ 0x10000
 80007a0:	625a      	str	r2, [r3, #36]	@ 0x24

  /* Disable the MPU and clear the control register*/
  MPU->CTRL = 0;
 80007a2:	2200      	movs	r2, #0
 80007a4:	f8c3 2094 	str.w	r2, [r3, #148]	@ 0x94
}
 80007a8:	4770      	bx	lr
 80007aa:	bf00      	nop
 80007ac:	e000ed00 	.word	0xe000ed00

080007b0 <HAL_MPU_Enable>:
  * @retval None
  */
void HAL_MPU_Enable(uint32_t MPU_Control)
{
  /* Enable the MPU */
  MPU->CTRL = MPU_Control | MPU_CTRL_ENABLE_Msk;
 80007b0:	f040 0001 	orr.w	r0, r0, #1
 80007b4:	4b05      	ldr	r3, [pc, #20]	@ (80007cc <HAL_MPU_Enable+0x1c>)
 80007b6:	f8c3 0094 	str.w	r0, [r3, #148]	@ 0x94

  /* Enable fault exceptions */
  SCB->SHCSR |= SCB_SHCSR_MEMFAULTENA_Msk;
 80007ba:	6a5a      	ldr	r2, [r3, #36]	@ 0x24
 80007bc:	f442 3280 	orr.w	r2, r2, #65536	@ 0x10000
 80007c0:	625a      	str	r2, [r3, #36]	@ 0x24
  __ASM volatile ("dsb 0xF":::"memory");
 80007c2:	f3bf 8f4f 	dsb	sy
  __ASM volatile ("isb 0xF":::"memory");
 80007c6:	f3bf 8f6f 	isb	sy

  /* Ensure MPU setting take effects */
  __DSB();
  __ISB();
}
 80007ca:	4770      	bx	lr
 80007cc:	e000ed00 	.word	0xe000ed00

080007d0 <HAL_MPU_ConfigRegion>:
  assert_param(IS_MPU_ACCESS_BUFFERABLE(MPU_Init->IsBufferable));
  assert_param(IS_MPU_SUB_REGION_DISABLE(MPU_Init->SubRegionDisable));
  assert_param(IS_MPU_REGION_SIZE(MPU_Init->Size));

  /* Set the Region number */
  MPU->RNR = MPU_Init->Number;
 80007d0:	7843      	ldrb	r3, [r0, #1]
 80007d2:	4a14      	ldr	r2, [pc, #80]	@ (8000824 <HAL_MPU_ConfigRegion+0x54>)
 80007d4:	f8c2 3098 	str.w	r3, [r2, #152]	@ 0x98

  /* Disable the Region */
  CLEAR_BIT(MPU->RASR, MPU_RASR_ENABLE_Msk);
 80007d8:	f8d2 30a0 	ldr.w	r3, [r2, #160]	@ 0xa0
 80007dc:	f023 0301 	bic.w	r3, r3, #1
 80007e0:	f8c2 30a0 	str.w	r3, [r2, #160]	@ 0xa0

  /* Apply configuration */
  MPU->RBAR = MPU_Init->BaseAddress;
 80007e4:	6843      	ldr	r3, [r0, #4]
 80007e6:	f8c2 309c 	str.w	r3, [r2, #156]	@ 0x9c
  MPU->RASR = ((uint32_t)MPU_Init->DisableExec             << MPU_RASR_XN_Pos)   |
 80007ea:	7b01      	ldrb	r1, [r0, #12]
              ((uint32_t)MPU_Init->AccessPermission        << MPU_RASR_AP_Pos)   |
 80007ec:	7ac3      	ldrb	r3, [r0, #11]
 80007ee:	061b      	lsls	r3, r3, #24
  MPU->RASR = ((uint32_t)MPU_Init->DisableExec             << MPU_RASR_XN_Pos)   |
 80007f0:	ea43 7301 	orr.w	r3, r3, r1, lsl #28
              ((uint32_t)MPU_Init->TypeExtField            << MPU_RASR_TEX_Pos)  |
 80007f4:	7a81      	ldrb	r1, [r0, #10]
              ((uint32_t)MPU_Init->AccessPermission        << MPU_RASR_AP_Pos)   |
 80007f6:	ea43 43c1 	orr.w	r3, r3, r1, lsl #19
              ((uint32_t)MPU_Init->IsShareable             << MPU_RASR_S_Pos)    |
 80007fa:	7b41      	ldrb	r1, [r0, #13]
              ((uint32_t)MPU_Init->TypeExtField            << MPU_RASR_TEX_Pos)  |
 80007fc:	ea43 4381 	orr.w	r3, r3, r1, lsl #18
              ((uint32_t)MPU_Init->IsCacheable             << MPU_RASR_C_Pos)    |
 8000800:	7b81      	ldrb	r1, [r0, #14]
              ((uint32_t)MPU_Init->IsShareable             << MPU_RASR_S_Pos)    |
 8000802:	ea43 4341 	orr.w	r3, r3, r1, lsl #17
              ((uint32_t)MPU_Init->IsBufferable            << MPU_RASR_B_Pos)    |
 8000806:	7bc1      	ldrb	r1, [r0, #15]
              ((uint32_t)MPU_Init->IsCacheable             << MPU_RASR_C_Pos)    |
 8000808:	ea43 4301 	orr.w	r3, r3, r1, lsl #16
              ((uint32_t)MPU_Init->SubRegionDisable        << MPU_RASR_SRD_Pos)  |
 800080c:	7a41      	ldrb	r1, [r0, #9]
              ((uint32_t)MPU_Init->IsBufferable            << MPU_RASR_B_Pos)    |
 800080e:	ea43 2301 	orr.w	r3, r3, r1, lsl #8
              ((uint32_t)MPU_Init->Size                    << MPU_RASR_SIZE_Pos) |
 8000812:	7a01      	ldrb	r1, [r0, #8]
              ((uint32_t)MPU_Init->SubRegionDisable        << MPU_RASR_SRD_Pos)  |
 8000814:	ea43 0341 	orr.w	r3, r3, r1, lsl #1
              ((uint32_t)MPU_Init->Enable                  << MPU_RASR_ENABLE_Pos);
 8000818:	7801      	ldrb	r1, [r0, #0]
              ((uint32_t)MPU_Init->Size                    << MPU_RASR_SIZE_Pos) |
 800081a:	430b      	orrs	r3, r1
  MPU->RASR = ((uint32_t)MPU_Init->DisableExec             << MPU_RASR_XN_Pos)   |
 800081c:	f8c2 30a0 	str.w	r3, [r2, #160]	@ 0xa0
}
 8000820:	4770      	bx	lr
 8000822:	bf00      	nop
 8000824:	e000ed00 	.word	0xe000ed00

08000828 <FDCAN_CalcultateRamBlockAddresses>:
  * @param  hfdcan pointer to an FDCAN_HandleTypeDef structure that contains
  *         the configuration information for the specified FDCAN.
  * @retval HAL status
 */
static HAL_StatusTypeDef FDCAN_CalcultateRamBlockAddresses(FDCAN_HandleTypeDef *hfdcan)
{
 8000828:	b430      	push	{r4, r5}
  uint32_t RAMcounter;
  uint32_t StartAddress;

  StartAddress = hfdcan->Init.MessageRAMOffset;
 800082a:	6b41      	ldr	r1, [r0, #52]	@ 0x34

  /* Standard filter list start address */
  MODIFY_REG(hfdcan->Instance->SIDFC, FDCAN_SIDFC_FLSSA, (StartAddress << FDCAN_SIDFC_FLSSA_Pos));
 800082c:	6804      	ldr	r4, [r0, #0]
 800082e:	f8d4 3084 	ldr.w	r3, [r4, #132]	@ 0x84
 8000832:	4a6f      	ldr	r2, [pc, #444]	@ (80009f0 <FDCAN_CalcultateRamBlockAddresses+0x1c8>)
 8000834:	4013      	ands	r3, r2
 8000836:	ea43 0381 	orr.w	r3, r3, r1, lsl #2
 800083a:	f8c4 3084 	str.w	r3, [r4, #132]	@ 0x84

  /* Standard filter elements number */
  MODIFY_REG(hfdcan->Instance->SIDFC, FDCAN_SIDFC_LSS, (hfdcan->Init.StdFiltersNbr << FDCAN_SIDFC_LSS_Pos));
 800083e:	6804      	ldr	r4, [r0, #0]
 8000840:	f8d4 3084 	ldr.w	r3, [r4, #132]	@ 0x84
 8000844:	f423 037f 	bic.w	r3, r3, #16711680	@ 0xff0000
 8000848:	6b85      	ldr	r5, [r0, #56]	@ 0x38
 800084a:	ea43 4305 	orr.w	r3, r3, r5, lsl #16
 800084e:	f8c4 3084 	str.w	r3, [r4, #132]	@ 0x84

  /* Extended filter list start address */
  StartAddress += hfdcan->Init.StdFiltersNbr;
 8000852:	6b83      	ldr	r3, [r0, #56]	@ 0x38
 8000854:	440b      	add	r3, r1
  MODIFY_REG(hfdcan->Instance->XIDFC, FDCAN_XIDFC_FLESA, (StartAddress << FDCAN_XIDFC_FLESA_Pos));
 8000856:	6804      	ldr	r4, [r0, #0]
 8000858:	f8d4 1088 	ldr.w	r1, [r4, #136]	@ 0x88
 800085c:	4011      	ands	r1, r2
 800085e:	ea41 0183 	orr.w	r1, r1, r3, lsl #2
 8000862:	f8c4 1088 	str.w	r1, [r4, #136]	@ 0x88

  /* Extended filter elements number */
  MODIFY_REG(hfdcan->Instance->XIDFC, FDCAN_XIDFC_LSE, (hfdcan->Init.ExtFiltersNbr << FDCAN_XIDFC_LSE_Pos));
 8000866:	6804      	ldr	r4, [r0, #0]
 8000868:	f8d4 1088 	ldr.w	r1, [r4, #136]	@ 0x88
 800086c:	f421 01fe 	bic.w	r1, r1, #8323072	@ 0x7f0000
 8000870:	6bc5      	ldr	r5, [r0, #60]	@ 0x3c
 8000872:	ea41 4105 	orr.w	r1, r1, r5, lsl #16
 8000876:	f8c4 1088 	str.w	r1, [r4, #136]	@ 0x88

  /* Rx FIFO 0 start address */
  StartAddress += (hfdcan->Init.ExtFiltersNbr * 2U);
 800087a:	6bc1      	ldr	r1, [r0, #60]	@ 0x3c
 800087c:	eb03 0341 	add.w	r3, r3, r1, lsl #1
  MODIFY_REG(hfdcan->Instance->RXF0C, FDCAN_RXF0C_F0SA, (StartAddress << FDCAN_RXF0C_F0SA_Pos));
 8000880:	6804      	ldr	r4, [r0, #0]
 8000882:	f8d4 10a0 	ldr.w	r1, [r4, #160]	@ 0xa0
 8000886:	4011      	ands	r1, r2
 8000888:	ea41 0183 	orr.w	r1, r1, r3, lsl #2
 800088c:	f8c4 10a0 	str.w	r1, [r4, #160]	@ 0xa0

  /* Rx FIFO 0 elements number */
  MODIFY_REG(hfdcan->Instance->RXF0C, FDCAN_RXF0C_F0S, (hfdcan->Init.RxFifo0ElmtsNbr << FDCAN_RXF0C_F0S_Pos));
 8000890:	6804      	ldr	r4, [r0, #0]
 8000892:	f8d4 10a0 	ldr.w	r1, [r4, #160]	@ 0xa0
 8000896:	f421 01fe 	bic.w	r1, r1, #8323072	@ 0x7f0000
 800089a:	6c05      	ldr	r5, [r0, #64]	@ 0x40
 800089c:	ea41 4105 	orr.w	r1, r1, r5, lsl #16
 80008a0:	f8c4 10a0 	str.w	r1, [r4, #160]	@ 0xa0

  /* Rx FIFO 1 start address */
  StartAddress += (hfdcan->Init.RxFifo0ElmtsNbr * hfdcan->Init.RxFifo0ElmtSize);
 80008a4:	6c01      	ldr	r1, [r0, #64]	@ 0x40
 80008a6:	6c44      	ldr	r4, [r0, #68]	@ 0x44
 80008a8:	fb04 3301 	mla	r3, r4, r1, r3
  MODIFY_REG(hfdcan->Instance->RXF1C, FDCAN_RXF1C_F1SA, (StartAddress << FDCAN_RXF1C_F1SA_Pos));
 80008ac:	6804      	ldr	r4, [r0, #0]
 80008ae:	f8d4 10b0 	ldr.w	r1, [r4, #176]	@ 0xb0
 80008b2:	4011      	ands	r1, r2
 80008b4:	ea41 0183 	orr.w	r1, r1, r3, lsl #2
 80008b8:	f8c4 10b0 	str.w	r1, [r4, #176]	@ 0xb0

  /* Rx FIFO 1 elements number */
  MODIFY_REG(hfdcan->Instance->RXF1C, FDCAN_RXF1C_F1S, (hfdcan->Init.RxFifo1ElmtsNbr << FDCAN_RXF1C_F1S_Pos));
 80008bc:	6804      	ldr	r4, [r0, #0]
 80008be:	f8d4 10b0 	ldr.w	r1, [r4, #176]	@ 0xb0
 80008c2:	f421 01fe 	bic.w	r1, r1, #8323072	@ 0x7f0000
 80008c6:	6c85      	ldr	r5, [r0, #72]	@ 0x48
 80008c8:	ea41 4105 	orr.w	r1, r1, r5, lsl #16
 80008cc:	f8c4 10b0 	str.w	r1, [r4, #176]	@ 0xb0

  /* Rx buffer list start address */
  StartAddress += (hfdcan->Init.RxFifo1ElmtsNbr * hfdcan->Init.RxFifo1ElmtSize);
 80008d0:	6c81      	ldr	r1, [r0, #72]	@ 0x48
 80008d2:	6cc4      	ldr	r4, [r0, #76]	@ 0x4c
 80008d4:	fb04 3301 	mla	r3, r4, r1, r3
  MODIFY_REG(hfdcan->Instance->RXBC, FDCAN_RXBC_RBSA, (StartAddress << FDCAN_RXBC_RBSA_Pos));
 80008d8:	6804      	ldr	r4, [r0, #0]
 80008da:	f8d4 10ac 	ldr.w	r1, [r4, #172]	@ 0xac
 80008de:	4011      	ands	r1, r2
 80008e0:	ea41 0183 	orr.w	r1, r1, r3, lsl #2
 80008e4:	f8c4 10ac 	str.w	r1, [r4, #172]	@ 0xac

  /* Tx event FIFO start address */
  StartAddress += (hfdcan->Init.RxBuffersNbr * hfdcan->Init.RxBufferSize);
 80008e8:	6d01      	ldr	r1, [r0, #80]	@ 0x50
 80008ea:	6d44      	ldr	r4, [r0, #84]	@ 0x54
 80008ec:	fb04 3301 	mla	r3, r4, r1, r3
  MODIFY_REG(hfdcan->Instance->TXEFC, FDCAN_TXEFC_EFSA, (StartAddress << FDCAN_TXEFC_EFSA_Pos));
 80008f0:	6804      	ldr	r4, [r0, #0]
 80008f2:	f8d4 10f0 	ldr.w	r1, [r4, #240]	@ 0xf0
 80008f6:	4011      	ands	r1, r2
 80008f8:	ea41 0183 	orr.w	r1, r1, r3, lsl #2
 80008fc:	f8c4 10f0 	str.w	r1, [r4, #240]	@ 0xf0

  /* Tx event FIFO elements number */
  MODIFY_REG(hfdcan->Instance->TXEFC, FDCAN_TXEFC_EFS, (hfdcan->Init.TxEventsNbr << FDCAN_TXEFC_EFS_Pos));
 8000900:	6804      	ldr	r4, [r0, #0]
 8000902:	f8d4 10f0 	ldr.w	r1, [r4, #240]	@ 0xf0
 8000906:	f421 117c 	bic.w	r1, r1, #4128768	@ 0x3f0000
 800090a:	6d85      	ldr	r5, [r0, #88]	@ 0x58
 800090c:	ea41 4105 	orr.w	r1, r1, r5, lsl #16
 8000910:	f8c4 10f0 	str.w	r1, [r4, #240]	@ 0xf0

  /* Tx buffer list start address */
  StartAddress += (hfdcan->Init.TxEventsNbr * 2U);
 8000914:	6d81      	ldr	r1, [r0, #88]	@ 0x58
 8000916:	eb03 0341 	add.w	r3, r3, r1, lsl #1
  MODIFY_REG(hfdcan->Instance->TXBC, FDCAN_TXBC_TBSA, (StartAddress << FDCAN_TXBC_TBSA_Pos));
 800091a:	6804      	ldr	r4, [r0, #0]
 800091c:	f8d4 10c0 	ldr.w	r1, [r4, #192]	@ 0xc0
 8000920:	400a      	ands	r2, r1
 8000922:	ea42 0383 	orr.w	r3, r2, r3, lsl #2
 8000926:	f8c4 30c0 	str.w	r3, [r4, #192]	@ 0xc0

  /* Dedicated Tx buffers number */
  MODIFY_REG(hfdcan->Instance->TXBC, FDCAN_TXBC_NDTB, (hfdcan->Init.TxBuffersNbr << FDCAN_TXBC_NDTB_Pos));
 800092a:	6802      	ldr	r2, [r0, #0]
 800092c:	f8d2 30c0 	ldr.w	r3, [r2, #192]	@ 0xc0
 8000930:	f423 137c 	bic.w	r3, r3, #4128768	@ 0x3f0000
 8000934:	6dc1      	ldr	r1, [r0, #92]	@ 0x5c
 8000936:	ea43 4301 	orr.w	r3, r3, r1, lsl #16
 800093a:	f8c2 30c0 	str.w	r3, [r2, #192]	@ 0xc0

  /* Tx FIFO/queue elements number */
  MODIFY_REG(hfdcan->Instance->TXBC, FDCAN_TXBC_TFQS, (hfdcan->Init.TxFifoQueueElmtsNbr << FDCAN_TXBC_TFQS_Pos));
 800093e:	6802      	ldr	r2, [r0, #0]
 8000940:	f8d2 30c0 	ldr.w	r3, [r2, #192]	@ 0xc0
 8000944:	f023 537c 	bic.w	r3, r3, #1056964608	@ 0x3f000000
 8000948:	6e01      	ldr	r1, [r0, #96]	@ 0x60
 800094a:	ea43 6301 	orr.w	r3, r3, r1, lsl #24
 800094e:	f8c2 30c0 	str.w	r3, [r2, #192]	@ 0xc0

  hfdcan->msgRam.StandardFilterSA = SRAMCAN_BASE + (hfdcan->Init.MessageRAMOffset * 4U);
 8000952:	6b43      	ldr	r3, [r0, #52]	@ 0x34
 8000954:	4a27      	ldr	r2, [pc, #156]	@ (80009f4 <FDCAN_CalcultateRamBlockAddresses+0x1cc>)
 8000956:	441a      	add	r2, r3
 8000958:	0092      	lsls	r2, r2, #2
 800095a:	66c2      	str	r2, [r0, #108]	@ 0x6c
  hfdcan->msgRam.ExtendedFilterSA = hfdcan->msgRam.StandardFilterSA + (hfdcan->Init.StdFiltersNbr * 4U);
 800095c:	6b83      	ldr	r3, [r0, #56]	@ 0x38
 800095e:	eb02 0383 	add.w	r3, r2, r3, lsl #2
 8000962:	6703      	str	r3, [r0, #112]	@ 0x70
  hfdcan->msgRam.RxFIFO0SA = hfdcan->msgRam.ExtendedFilterSA + (hfdcan->Init.ExtFiltersNbr * 2U * 4U);
 8000964:	6bc1      	ldr	r1, [r0, #60]	@ 0x3c
 8000966:	eb03 03c1 	add.w	r3, r3, r1, lsl #3
 800096a:	6743      	str	r3, [r0, #116]	@ 0x74
  hfdcan->msgRam.RxFIFO1SA = hfdcan->msgRam.RxFIFO0SA +
                             (hfdcan->Init.RxFifo0ElmtsNbr * hfdcan->Init.RxFifo0ElmtSize * 4U);
 800096c:	6c01      	ldr	r1, [r0, #64]	@ 0x40
 800096e:	6c44      	ldr	r4, [r0, #68]	@ 0x44
 8000970:	fb04 f101 	mul.w	r1, r4, r1
  hfdcan->msgRam.RxFIFO1SA = hfdcan->msgRam.RxFIFO0SA +
 8000974:	eb03 0381 	add.w	r3, r3, r1, lsl #2
 8000978:	6783      	str	r3, [r0, #120]	@ 0x78
  hfdcan->msgRam.RxBufferSA = hfdcan->msgRam.RxFIFO1SA +
                              (hfdcan->Init.RxFifo1ElmtsNbr * hfdcan->Init.RxFifo1ElmtSize * 4U);
 800097a:	6c81      	ldr	r1, [r0, #72]	@ 0x48
 800097c:	6cc4      	ldr	r4, [r0, #76]	@ 0x4c
 800097e:	fb04 f101 	mul.w	r1, r4, r1
  hfdcan->msgRam.RxBufferSA = hfdcan->msgRam.RxFIFO1SA +
 8000982:	eb03 0381 	add.w	r3, r3, r1, lsl #2
 8000986:	67c3      	str	r3, [r0, #124]	@ 0x7c
  hfdcan->msgRam.TxEventFIFOSA = hfdcan->msgRam.RxBufferSA +
                                 (hfdcan->Init.RxBuffersNbr * hfdcan->Init.RxBufferSize * 4U);
 8000988:	6d01      	ldr	r1, [r0, #80]	@ 0x50
 800098a:	6d44      	ldr	r4, [r0, #84]	@ 0x54
 800098c:	fb04 f101 	mul.w	r1, r4, r1
  hfdcan->msgRam.TxEventFIFOSA = hfdcan->msgRam.RxBufferSA +
 8000990:	eb03 0381 	add.w	r3, r3, r1, lsl #2
 8000994:	f8c0 3080 	str.w	r3, [r0, #128]	@ 0x80
  hfdcan->msgRam.TxBufferSA = hfdcan->msgRam.TxEventFIFOSA + (hfdcan->Init.TxEventsNbr * 2U * 4U);
 8000998:	6d81      	ldr	r1, [r0, #88]	@ 0x58
 800099a:	eb03 03c1 	add.w	r3, r3, r1, lsl #3
 800099e:	f8c0 3084 	str.w	r3, [r0, #132]	@ 0x84
  hfdcan->msgRam.TxFIFOQSA = hfdcan->msgRam.TxBufferSA + (hfdcan->Init.TxBuffersNbr * hfdcan->Init.TxElmtSize * 4U);
 80009a2:	6e81      	ldr	r1, [r0, #104]	@ 0x68
 80009a4:	6dc4      	ldr	r4, [r0, #92]	@ 0x5c
 80009a6:	fb01 fc04 	mul.w	ip, r1, r4
 80009aa:	eb03 038c 	add.w	r3, r3, ip, lsl #2
 80009ae:	f8c0 3088 	str.w	r3, [r0, #136]	@ 0x88

  hfdcan->msgRam.EndAddress = hfdcan->msgRam.TxFIFOQSA +
                              (hfdcan->Init.TxFifoQueueElmtsNbr * hfdcan->Init.TxElmtSize * 4U);
 80009b2:	6e04      	ldr	r4, [r0, #96]	@ 0x60
 80009b4:	fb04 f101 	mul.w	r1, r4, r1
  hfdcan->msgRam.EndAddress = hfdcan->msgRam.TxFIFOQSA +
 80009b8:	eb03 0381 	add.w	r3, r3, r1, lsl #2
 80009bc:	f8c0 3090 	str.w	r3, [r0, #144]	@ 0x90

  if (hfdcan->msgRam.EndAddress > FDCAN_MESSAGE_RAM_END_ADDRESS) /* Last address of the Message RAM */
 80009c0:	490d      	ldr	r1, [pc, #52]	@ (80009f8 <FDCAN_CalcultateRamBlockAddresses+0x1d0>)
 80009c2:	428b      	cmp	r3, r1
 80009c4:	d90d      	bls.n	80009e2 <FDCAN_CalcultateRamBlockAddresses+0x1ba>
  {
    /* Update error code.
       Message RAM overflow */
    hfdcan->ErrorCode |= HAL_FDCAN_ERROR_PARAM;
 80009c6:	f8d0 309c 	ldr.w	r3, [r0, #156]	@ 0x9c
 80009ca:	f043 0320 	orr.w	r3, r3, #32
 80009ce:	f8c0 309c 	str.w	r3, [r0, #156]	@ 0x9c

    /* Change FDCAN state */
    hfdcan->State = HAL_FDCAN_STATE_ERROR;
 80009d2:	2303      	movs	r3, #3
 80009d4:	f880 3098 	strb.w	r3, [r0, #152]	@ 0x98

    return HAL_ERROR;
 80009d8:	2001      	movs	r0, #1
 80009da:	e007      	b.n	80009ec <FDCAN_CalcultateRamBlockAddresses+0x1c4>
  else
  {
    /* Flush the allocated Message RAM area */
    for (RAMcounter = hfdcan->msgRam.StandardFilterSA; RAMcounter < hfdcan->msgRam.EndAddress; RAMcounter += 4U)
    {
      *(uint32_t *)(RAMcounter) = 0x00000000;
 80009dc:	2300      	movs	r3, #0
 80009de:	f842 3b04 	str.w	r3, [r2], #4
    for (RAMcounter = hfdcan->msgRam.StandardFilterSA; RAMcounter < hfdcan->msgRam.EndAddress; RAMcounter += 4U)
 80009e2:	f8d0 3090 	ldr.w	r3, [r0, #144]	@ 0x90
 80009e6:	4293      	cmp	r3, r2
 80009e8:	d8f8      	bhi.n	80009dc <FDCAN_CalcultateRamBlockAddresses+0x1b4>
    }
  }

  /* Return function status */
  return HAL_OK;
 80009ea:	2000      	movs	r0, #0
}
 80009ec:	bc30      	pop	{r4, r5}
 80009ee:	4770      	bx	lr
 80009f0:	ffff0003 	.word	0xffff0003
 80009f4:	10002b00 	.word	0x10002b00
 80009f8:	4000d3fc 	.word	0x4000d3fc

080009fc <HAL_FDCAN_Init>:
{
 80009fc:	b530      	push	{r4, r5, lr}
 80009fe:	b095      	sub	sp, #84	@ 0x54
 8000a00:	4604      	mov	r4, r0
  const uint32_t CvtEltSize[] = {0, 0, 0, 0, 0, 1, 2, 3, 4, 0, 5, 0, 0, 0, 6, 0, 0, 0, 7};
 8000a02:	224c      	movs	r2, #76	@ 0x4c
 8000a04:	49a0      	ldr	r1, [pc, #640]	@ (8000c88 <HAL_FDCAN_Init+0x28c>)
 8000a06:	a801      	add	r0, sp, #4
 8000a08:	f005 fb54 	bl	80060b4 <memcpy>
  if (hfdcan == NULL)
 8000a0c:	2c00      	cmp	r4, #0
 8000a0e:	f000 8138 	beq.w	8000c82 <HAL_FDCAN_Init+0x286>
  if (hfdcan->Instance == FDCAN1)
 8000a12:	6823      	ldr	r3, [r4, #0]
 8000a14:	4a9d      	ldr	r2, [pc, #628]	@ (8000c8c <HAL_FDCAN_Init+0x290>)
 8000a16:	4293      	cmp	r3, r2
 8000a18:	d020      	beq.n	8000a5c <HAL_FDCAN_Init+0x60>
  if (hfdcan->State == HAL_FDCAN_STATE_RESET)
 8000a1a:	f894 3098 	ldrb.w	r3, [r4, #152]	@ 0x98
 8000a1e:	b30b      	cbz	r3, 8000a64 <HAL_FDCAN_Init+0x68>
  CLEAR_BIT(hfdcan->Instance->CCCR, FDCAN_CCCR_CSR);
 8000a20:	6822      	ldr	r2, [r4, #0]
 8000a22:	6993      	ldr	r3, [r2, #24]
 8000a24:	f023 0310 	bic.w	r3, r3, #16
 8000a28:	6193      	str	r3, [r2, #24]
  tickstart = HAL_GetTick();
 8000a2a:	f7ff fe19 	bl	8000660 <HAL_GetTick>
 8000a2e:	4605      	mov	r5, r0
  while ((hfdcan->Instance->CCCR & FDCAN_CCCR_CSA) == FDCAN_CCCR_CSA)
 8000a30:	6823      	ldr	r3, [r4, #0]
 8000a32:	699a      	ldr	r2, [r3, #24]
 8000a34:	f012 0f08 	tst.w	r2, #8
 8000a38:	d01a      	beq.n	8000a70 <HAL_FDCAN_Init+0x74>
    if ((HAL_GetTick() - tickstart) > FDCAN_TIMEOUT_VALUE)
 8000a3a:	f7ff fe11 	bl	8000660 <HAL_GetTick>
 8000a3e:	1b43      	subs	r3, r0, r5
 8000a40:	2b0a      	cmp	r3, #10
 8000a42:	d9f5      	bls.n	8000a30 <HAL_FDCAN_Init+0x34>
      hfdcan->ErrorCode |= HAL_FDCAN_ERROR_TIMEOUT;
 8000a44:	f8d4 309c 	ldr.w	r3, [r4, #156]	@ 0x9c
 8000a48:	f043 0301 	orr.w	r3, r3, #1
 8000a4c:	f8c4 309c 	str.w	r3, [r4, #156]	@ 0x9c
      hfdcan->State = HAL_FDCAN_STATE_ERROR;
 8000a50:	2303      	movs	r3, #3
 8000a52:	f884 3098 	strb.w	r3, [r4, #152]	@ 0x98
      return HAL_ERROR;
 8000a56:	2001      	movs	r0, #1
}
 8000a58:	b015      	add	sp, #84	@ 0x54
 8000a5a:	bd30      	pop	{r4, r5, pc}
    hfdcan->ttcan = (TTCAN_TypeDef *)((uint32_t)hfdcan->Instance + 0x100U);
 8000a5c:	f503 7380 	add.w	r3, r3, #256	@ 0x100
 8000a60:	6063      	str	r3, [r4, #4]
 8000a62:	e7da      	b.n	8000a1a <HAL_FDCAN_Init+0x1e>
    hfdcan->Lock = HAL_UNLOCKED;
 8000a64:	f884 3099 	strb.w	r3, [r4, #153]	@ 0x99
    HAL_FDCAN_MspInit(hfdcan);
 8000a68:	4620      	mov	r0, r4
 8000a6a:	f000 fa33 	bl	8000ed4 <HAL_FDCAN_MspInit>
 8000a6e:	e7d7      	b.n	8000a20 <HAL_FDCAN_Init+0x24>
  SET_BIT(hfdcan->Instance->CCCR, FDCAN_CCCR_INIT);
 8000a70:	699a      	ldr	r2, [r3, #24]
 8000a72:	f042 0201 	orr.w	r2, r2, #1
 8000a76:	619a      	str	r2, [r3, #24]
  tickstart = HAL_GetTick();
 8000a78:	f7ff fdf2 	bl	8000660 <HAL_GetTick>
 8000a7c:	4605      	mov	r5, r0
  while ((hfdcan->Instance->CCCR & FDCAN_CCCR_INIT) == 0U)
 8000a7e:	6823      	ldr	r3, [r4, #0]
 8000a80:	699a      	ldr	r2, [r3, #24]
 8000a82:	f012 0f01 	tst.w	r2, #1
 8000a86:	d10f      	bne.n	8000aa8 <HAL_FDCAN_Init+0xac>
    if ((HAL_GetTick() - tickstart) > FDCAN_TIMEOUT_VALUE)
 8000a88:	f7ff fdea 	bl	8000660 <HAL_GetTick>
 8000a8c:	1b40      	subs	r0, r0, r5
 8000a8e:	280a      	cmp	r0, #10
 8000a90:	d9f5      	bls.n	8000a7e <HAL_FDCAN_Init+0x82>
      hfdcan->ErrorCode |= HAL_FDCAN_ERROR_TIMEOUT;
 8000a92:	f8d4 309c 	ldr.w	r3, [r4, #156]	@ 0x9c
 8000a96:	f043 0301 	orr.w	r3, r3, #1
 8000a9a:	f8c4 309c 	str.w	r3, [r4, #156]	@ 0x9c
      hfdcan->State = HAL_FDCAN_STATE_ERROR;
 8000a9e:	2303      	movs	r3, #3
 8000aa0:	f884 3098 	strb.w	r3, [r4, #152]	@ 0x98
      return HAL_ERROR;
 8000aa4:	2001      	movs	r0, #1
 8000aa6:	e7d7      	b.n	8000a58 <HAL_FDCAN_Init+0x5c>
  SET_BIT(hfdcan->Instance->CCCR, FDCAN_CCCR_CCE);
 8000aa8:	699a      	ldr	r2, [r3, #24]
 8000aaa:	f042 0202 	orr.w	r2, r2, #2
 8000aae:	619a      	str	r2, [r3, #24]
  if (hfdcan->Init.AutoRetransmission == ENABLE)
 8000ab0:	7c23      	ldrb	r3, [r4, #16]
 8000ab2:	2b01      	cmp	r3, #1
 8000ab4:	d040      	beq.n	8000b38 <HAL_FDCAN_Init+0x13c>
    SET_BIT(hfdcan->Instance->CCCR, FDCAN_CCCR_DAR);
 8000ab6:	6822      	ldr	r2, [r4, #0]
 8000ab8:	6993      	ldr	r3, [r2, #24]
 8000aba:	f043 0340 	orr.w	r3, r3, #64	@ 0x40
 8000abe:	6193      	str	r3, [r2, #24]
  if (hfdcan->Init.TransmitPause == ENABLE)
 8000ac0:	7c63      	ldrb	r3, [r4, #17]
 8000ac2:	2b01      	cmp	r3, #1
 8000ac4:	d03e      	beq.n	8000b44 <HAL_FDCAN_Init+0x148>
    CLEAR_BIT(hfdcan->Instance->CCCR, FDCAN_CCCR_TXP);
 8000ac6:	6822      	ldr	r2, [r4, #0]
 8000ac8:	6993      	ldr	r3, [r2, #24]
 8000aca:	f423 4380 	bic.w	r3, r3, #16384	@ 0x4000
 8000ace:	6193      	str	r3, [r2, #24]
  if (hfdcan->Init.ProtocolException == ENABLE)
 8000ad0:	7ca3      	ldrb	r3, [r4, #18]
 8000ad2:	2b01      	cmp	r3, #1
 8000ad4:	d03c      	beq.n	8000b50 <HAL_FDCAN_Init+0x154>
    SET_BIT(hfdcan->Instance->CCCR, FDCAN_CCCR_PXHD);
 8000ad6:	6822      	ldr	r2, [r4, #0]
 8000ad8:	6993      	ldr	r3, [r2, #24]
 8000ada:	f443 5380 	orr.w	r3, r3, #4096	@ 0x1000
 8000ade:	6193      	str	r3, [r2, #24]
  MODIFY_REG(hfdcan->Instance->CCCR, FDCAN_FRAME_FD_BRS, hfdcan->Init.FrameFormat);
 8000ae0:	6822      	ldr	r2, [r4, #0]
 8000ae2:	6993      	ldr	r3, [r2, #24]
 8000ae4:	f423 7340 	bic.w	r3, r3, #768	@ 0x300
 8000ae8:	68a1      	ldr	r1, [r4, #8]
 8000aea:	430b      	orrs	r3, r1
 8000aec:	6193      	str	r3, [r2, #24]
  CLEAR_BIT(hfdcan->Instance->CCCR, (FDCAN_CCCR_TEST | FDCAN_CCCR_MON | FDCAN_CCCR_ASM));
 8000aee:	6822      	ldr	r2, [r4, #0]
 8000af0:	6993      	ldr	r3, [r2, #24]
 8000af2:	f023 03a4 	bic.w	r3, r3, #164	@ 0xa4
 8000af6:	6193      	str	r3, [r2, #24]
  CLEAR_BIT(hfdcan->Instance->TEST, FDCAN_TEST_LBCK);
 8000af8:	6822      	ldr	r2, [r4, #0]
 8000afa:	6913      	ldr	r3, [r2, #16]
 8000afc:	f023 0310 	bic.w	r3, r3, #16
 8000b00:	6113      	str	r3, [r2, #16]
  if (hfdcan->Init.Mode == FDCAN_MODE_RESTRICTED_OPERATION)
 8000b02:	68e3      	ldr	r3, [r4, #12]
 8000b04:	2b01      	cmp	r3, #1
 8000b06:	d029      	beq.n	8000b5c <HAL_FDCAN_Init+0x160>
  else if (hfdcan->Init.Mode != FDCAN_MODE_NORMAL)
 8000b08:	2b00      	cmp	r3, #0
 8000b0a:	d02c      	beq.n	8000b66 <HAL_FDCAN_Init+0x16a>
    if (hfdcan->Init.Mode != FDCAN_MODE_BUS_MONITORING)
 8000b0c:	2b02      	cmp	r3, #2
 8000b0e:	f000 809b 	beq.w	8000c48 <HAL_FDCAN_Init+0x24c>
      SET_BIT(hfdcan->Instance->CCCR, FDCAN_CCCR_TEST);
 8000b12:	6822      	ldr	r2, [r4, #0]
 8000b14:	6993      	ldr	r3, [r2, #24]
 8000b16:	f043 0380 	orr.w	r3, r3, #128	@ 0x80
 8000b1a:	6193      	str	r3, [r2, #24]
      SET_BIT(hfdcan->Instance->TEST, FDCAN_TEST_LBCK);
 8000b1c:	6822      	ldr	r2, [r4, #0]
 8000b1e:	6913      	ldr	r3, [r2, #16]
 8000b20:	f043 0310 	orr.w	r3, r3, #16
 8000b24:	6113      	str	r3, [r2, #16]
      if (hfdcan->Init.Mode == FDCAN_MODE_INTERNAL_LOOPBACK)
 8000b26:	68e3      	ldr	r3, [r4, #12]
 8000b28:	2b03      	cmp	r3, #3
 8000b2a:	d11c      	bne.n	8000b66 <HAL_FDCAN_Init+0x16a>
        SET_BIT(hfdcan->Instance->CCCR, FDCAN_CCCR_MON);
 8000b2c:	6822      	ldr	r2, [r4, #0]
 8000b2e:	6993      	ldr	r3, [r2, #24]
 8000b30:	f043 0320 	orr.w	r3, r3, #32
 8000b34:	6193      	str	r3, [r2, #24]
 8000b36:	e016      	b.n	8000b66 <HAL_FDCAN_Init+0x16a>
    CLEAR_BIT(hfdcan->Instance->CCCR, FDCAN_CCCR_DAR);
 8000b38:	6822      	ldr	r2, [r4, #0]
 8000b3a:	6993      	ldr	r3, [r2, #24]
 8000b3c:	f023 0340 	bic.w	r3, r3, #64	@ 0x40
 8000b40:	6193      	str	r3, [r2, #24]
 8000b42:	e7bd      	b.n	8000ac0 <HAL_FDCAN_Init+0xc4>
    SET_BIT(hfdcan->Instance->CCCR, FDCAN_CCCR_TXP);
 8000b44:	6822      	ldr	r2, [r4, #0]
 8000b46:	6993      	ldr	r3, [r2, #24]
 8000b48:	f443 4380 	orr.w	r3, r3, #16384	@ 0x4000
 8000b4c:	6193      	str	r3, [r2, #24]
 8000b4e:	e7bf      	b.n	8000ad0 <HAL_FDCAN_Init+0xd4>
    CLEAR_BIT(hfdcan->Instance->CCCR, FDCAN_CCCR_PXHD);
 8000b50:	6822      	ldr	r2, [r4, #0]
 8000b52:	6993      	ldr	r3, [r2, #24]
 8000b54:	f423 5380 	bic.w	r3, r3, #4096	@ 0x1000
 8000b58:	6193      	str	r3, [r2, #24]
 8000b5a:	e7c1      	b.n	8000ae0 <HAL_FDCAN_Init+0xe4>
    SET_BIT(hfdcan->Instance->CCCR, FDCAN_CCCR_ASM);
 8000b5c:	6822      	ldr	r2, [r4, #0]
 8000b5e:	6993      	ldr	r3, [r2, #24]
 8000b60:	f043 0304 	orr.w	r3, r3, #4
 8000b64:	6193      	str	r3, [r2, #24]
  hfdcan->Instance->NBTP = ((((uint32_t)hfdcan->Init.NominalSyncJumpWidth - 1U) << FDCAN_NBTP_NSJW_Pos) | \
 8000b66:	69a3      	ldr	r3, [r4, #24]
 8000b68:	1e5a      	subs	r2, r3, #1
                            (((uint32_t)hfdcan->Init.NominalTimeSeg1 - 1U) << FDCAN_NBTP_NTSEG1_Pos)    | \
 8000b6a:	69e3      	ldr	r3, [r4, #28]
 8000b6c:	3b01      	subs	r3, #1
 8000b6e:	021b      	lsls	r3, r3, #8
  hfdcan->Instance->NBTP = ((((uint32_t)hfdcan->Init.NominalSyncJumpWidth - 1U) << FDCAN_NBTP_NSJW_Pos) | \
 8000b70:	ea43 6342 	orr.w	r3, r3, r2, lsl #25
                            (((uint32_t)hfdcan->Init.NominalTimeSeg2 - 1U) << FDCAN_NBTP_NTSEG2_Pos)    | \
 8000b74:	6a22      	ldr	r2, [r4, #32]
 8000b76:	3a01      	subs	r2, #1
                            (((uint32_t)hfdcan->Init.NominalTimeSeg1 - 1U) << FDCAN_NBTP_NTSEG1_Pos)    | \
 8000b78:	4313      	orrs	r3, r2
                            (((uint32_t)hfdcan->Init.NominalPrescaler - 1U) << FDCAN_NBTP_NBRP_Pos));
 8000b7a:	6962      	ldr	r2, [r4, #20]
 8000b7c:	3a01      	subs	r2, #1
  hfdcan->Instance->NBTP = ((((uint32_t)hfdcan->Init.NominalSyncJumpWidth - 1U) << FDCAN_NBTP_NSJW_Pos) | \
 8000b7e:	6821      	ldr	r1, [r4, #0]
                            (((uint32_t)hfdcan->Init.NominalTimeSeg2 - 1U) << FDCAN_NBTP_NTSEG2_Pos)    | \
 8000b80:	ea43 4302 	orr.w	r3, r3, r2, lsl #16
  hfdcan->Instance->NBTP = ((((uint32_t)hfdcan->Init.NominalSyncJumpWidth - 1U) << FDCAN_NBTP_NSJW_Pos) | \
 8000b84:	61cb      	str	r3, [r1, #28]
  if (hfdcan->Init.FrameFormat == FDCAN_FRAME_FD_BRS)
 8000b86:	68a3      	ldr	r3, [r4, #8]
 8000b88:	f5b3 7f40 	cmp.w	r3, #768	@ 0x300
 8000b8c:	d062      	beq.n	8000c54 <HAL_FDCAN_Init+0x258>
  if (hfdcan->Init.TxFifoQueueElmtsNbr > 0U)
 8000b8e:	6e23      	ldr	r3, [r4, #96]	@ 0x60
 8000b90:	b133      	cbz	r3, 8000ba0 <HAL_FDCAN_Init+0x1a4>
    SET_BIT(hfdcan->Instance->TXBC, hfdcan->Init.TxFifoQueueMode);
 8000b92:	6822      	ldr	r2, [r4, #0]
 8000b94:	f8d2 30c0 	ldr.w	r3, [r2, #192]	@ 0xc0
 8000b98:	6e61      	ldr	r1, [r4, #100]	@ 0x64
 8000b9a:	430b      	orrs	r3, r1
 8000b9c:	f8c2 30c0 	str.w	r3, [r2, #192]	@ 0xc0
  if ((hfdcan->Init.TxBuffersNbr + hfdcan->Init.TxFifoQueueElmtsNbr) > 0U)
 8000ba0:	6de3      	ldr	r3, [r4, #92]	@ 0x5c
 8000ba2:	6e22      	ldr	r2, [r4, #96]	@ 0x60
 8000ba4:	42d3      	cmn	r3, r2
 8000ba6:	d00d      	beq.n	8000bc4 <HAL_FDCAN_Init+0x1c8>
    MODIFY_REG(hfdcan->Instance->TXESC, FDCAN_TXESC_TBDS, CvtEltSize[hfdcan->Init.TxElmtSize]);
 8000ba8:	6821      	ldr	r1, [r4, #0]
 8000baa:	f8d1 30c8 	ldr.w	r3, [r1, #200]	@ 0xc8
 8000bae:	f023 0307 	bic.w	r3, r3, #7
 8000bb2:	6ea2      	ldr	r2, [r4, #104]	@ 0x68
 8000bb4:	a814      	add	r0, sp, #80	@ 0x50
 8000bb6:	eb00 0282 	add.w	r2, r0, r2, lsl #2
 8000bba:	f852 2c4c 	ldr.w	r2, [r2, #-76]
 8000bbe:	4313      	orrs	r3, r2
 8000bc0:	f8c1 30c8 	str.w	r3, [r1, #200]	@ 0xc8
  if (hfdcan->Init.RxFifo0ElmtsNbr > 0U)
 8000bc4:	6c23      	ldr	r3, [r4, #64]	@ 0x40
 8000bc6:	b16b      	cbz	r3, 8000be4 <HAL_FDCAN_Init+0x1e8>
    MODIFY_REG(hfdcan->Instance->RXESC, FDCAN_RXESC_F0DS,
 8000bc8:	6821      	ldr	r1, [r4, #0]
 8000bca:	f8d1 30bc 	ldr.w	r3, [r1, #188]	@ 0xbc
 8000bce:	f023 0307 	bic.w	r3, r3, #7
 8000bd2:	6c62      	ldr	r2, [r4, #68]	@ 0x44
 8000bd4:	a814      	add	r0, sp, #80	@ 0x50
 8000bd6:	eb00 0282 	add.w	r2, r0, r2, lsl #2
 8000bda:	f852 2c4c 	ldr.w	r2, [r2, #-76]
 8000bde:	4313      	orrs	r3, r2
 8000be0:	f8c1 30bc 	str.w	r3, [r1, #188]	@ 0xbc
  if (hfdcan->Init.RxFifo1ElmtsNbr > 0U)
 8000be4:	6ca3      	ldr	r3, [r4, #72]	@ 0x48
 8000be6:	b173      	cbz	r3, 8000c06 <HAL_FDCAN_Init+0x20a>
    MODIFY_REG(hfdcan->Instance->RXESC, FDCAN_RXESC_F1DS,
 8000be8:	6821      	ldr	r1, [r4, #0]
 8000bea:	f8d1 30bc 	ldr.w	r3, [r1, #188]	@ 0xbc
 8000bee:	f023 0370 	bic.w	r3, r3, #112	@ 0x70
 8000bf2:	6ce2      	ldr	r2, [r4, #76]	@ 0x4c
 8000bf4:	a814      	add	r0, sp, #80	@ 0x50
 8000bf6:	eb00 0282 	add.w	r2, r0, r2, lsl #2
 8000bfa:	f852 2c4c 	ldr.w	r2, [r2, #-76]
 8000bfe:	ea43 1302 	orr.w	r3, r3, r2, lsl #4
 8000c02:	f8c1 30bc 	str.w	r3, [r1, #188]	@ 0xbc
  if (hfdcan->Init.RxBuffersNbr > 0U)
 8000c06:	6d23      	ldr	r3, [r4, #80]	@ 0x50
 8000c08:	b173      	cbz	r3, 8000c28 <HAL_FDCAN_Init+0x22c>
    MODIFY_REG(hfdcan->Instance->RXESC, FDCAN_RXESC_RBDS,
 8000c0a:	6821      	ldr	r1, [r4, #0]
 8000c0c:	f8d1 30bc 	ldr.w	r3, [r1, #188]	@ 0xbc
 8000c10:	f423 63e0 	bic.w	r3, r3, #1792	@ 0x700
 8000c14:	6d62      	ldr	r2, [r4, #84]	@ 0x54
 8000c16:	a814      	add	r0, sp, #80	@ 0x50
 8000c18:	eb00 0282 	add.w	r2, r0, r2, lsl #2
 8000c1c:	f852 2c4c 	ldr.w	r2, [r2, #-76]
 8000c20:	ea43 2302 	orr.w	r3, r3, r2, lsl #8
 8000c24:	f8c1 30bc 	str.w	r3, [r1, #188]	@ 0xbc
  if (hfdcan->Instance == FDCAN1)
 8000c28:	6822      	ldr	r2, [r4, #0]
 8000c2a:	4b18      	ldr	r3, [pc, #96]	@ (8000c8c <HAL_FDCAN_Init+0x290>)
 8000c2c:	429a      	cmp	r2, r3
 8000c2e:	d022      	beq.n	8000c76 <HAL_FDCAN_Init+0x27a>
  hfdcan->LatestTxFifoQRequest = 0U;
 8000c30:	2300      	movs	r3, #0
 8000c32:	f8c4 3094 	str.w	r3, [r4, #148]	@ 0x94
  hfdcan->ErrorCode = HAL_FDCAN_ERROR_NONE;
 8000c36:	f8c4 309c 	str.w	r3, [r4, #156]	@ 0x9c
  hfdcan->State = HAL_FDCAN_STATE_READY;
 8000c3a:	2301      	movs	r3, #1
 8000c3c:	f884 3098 	strb.w	r3, [r4, #152]	@ 0x98
  status = FDCAN_CalcultateRamBlockAddresses(hfdcan);
 8000c40:	4620      	mov	r0, r4
 8000c42:	f7ff fdf1 	bl	8000828 <FDCAN_CalcultateRamBlockAddresses>
  return status;
 8000c46:	e707      	b.n	8000a58 <HAL_FDCAN_Init+0x5c>
      SET_BIT(hfdcan->Instance->CCCR, FDCAN_CCCR_MON);
 8000c48:	6822      	ldr	r2, [r4, #0]
 8000c4a:	6993      	ldr	r3, [r2, #24]
 8000c4c:	f043 0320 	orr.w	r3, r3, #32
 8000c50:	6193      	str	r3, [r2, #24]
 8000c52:	e788      	b.n	8000b66 <HAL_FDCAN_Init+0x16a>
    hfdcan->Instance->DBTP = ((((uint32_t)hfdcan->Init.DataSyncJumpWidth - 1U) << FDCAN_DBTP_DSJW_Pos)  | \
 8000c54:	6aa3      	ldr	r3, [r4, #40]	@ 0x28
 8000c56:	3b01      	subs	r3, #1
                              (((uint32_t)hfdcan->Init.DataTimeSeg1 - 1U) << FDCAN_DBTP_DTSEG1_Pos)     | \
 8000c58:	6ae2      	ldr	r2, [r4, #44]	@ 0x2c
 8000c5a:	3a01      	subs	r2, #1
    hfdcan->Instance->DBTP = ((((uint32_t)hfdcan->Init.DataSyncJumpWidth - 1U) << FDCAN_DBTP_DSJW_Pos)  | \
 8000c5c:	ea43 2302 	orr.w	r3, r3, r2, lsl #8
                              (((uint32_t)hfdcan->Init.DataTimeSeg2 - 1U) << FDCAN_DBTP_DTSEG2_Pos)     | \
 8000c60:	6b22      	ldr	r2, [r4, #48]	@ 0x30
 8000c62:	3a01      	subs	r2, #1
                              (((uint32_t)hfdcan->Init.DataTimeSeg1 - 1U) << FDCAN_DBTP_DTSEG1_Pos)     | \
 8000c64:	ea43 1302 	orr.w	r3, r3, r2, lsl #4
                              (((uint32_t)hfdcan->Init.DataPrescaler - 1U) << FDCAN_DBTP_DBRP_Pos));
 8000c68:	6a62      	ldr	r2, [r4, #36]	@ 0x24
 8000c6a:	3a01      	subs	r2, #1
    hfdcan->Instance->DBTP = ((((uint32_t)hfdcan->Init.DataSyncJumpWidth - 1U) << FDCAN_DBTP_DSJW_Pos)  | \
 8000c6c:	6821      	ldr	r1, [r4, #0]
                              (((uint32_t)hfdcan->Init.DataTimeSeg2 - 1U) << FDCAN_DBTP_DTSEG2_Pos)     | \
 8000c6e:	ea43 4302 	orr.w	r3, r3, r2, lsl #16
    hfdcan->Instance->DBTP = ((((uint32_t)hfdcan->Init.DataSyncJumpWidth - 1U) << FDCAN_DBTP_DSJW_Pos)  | \
 8000c72:	60cb      	str	r3, [r1, #12]
 8000c74:	e78b      	b.n	8000b8e <HAL_FDCAN_Init+0x192>
    CLEAR_BIT(hfdcan->ttcan->TTOCF, FDCAN_TTOCF_OM);
 8000c76:	6862      	ldr	r2, [r4, #4]
 8000c78:	6893      	ldr	r3, [r2, #8]
 8000c7a:	f023 0303 	bic.w	r3, r3, #3
 8000c7e:	6093      	str	r3, [r2, #8]
 8000c80:	e7d6      	b.n	8000c30 <HAL_FDCAN_Init+0x234>
    return HAL_ERROR;
 8000c82:	2001      	movs	r0, #1
 8000c84:	e6e8      	b.n	8000a58 <HAL_FDCAN_Init+0x5c>
 8000c86:	bf00      	nop
 8000c88:	080060e8 	.word	0x080060e8
 8000c8c:	4000a000 	.word	0x4000a000

08000c90 <HAL_GPIO_Init>:
  * @param  GPIO_Init: pointer to a GPIO_InitTypeDef structure that contains
  *         the configuration information for the specified GPIO peripheral.
  * @retval None
  */
void HAL_GPIO_Init(GPIO_TypeDef  *GPIOx, const GPIO_InitTypeDef *GPIO_Init)
{
 8000c90:	b5f0      	push	{r4, r5, r6, r7, lr}
 8000c92:	b083      	sub	sp, #12
  uint32_t position = 0x00U;
 8000c94:	2300      	movs	r3, #0
  assert_param(IS_GPIO_ALL_INSTANCE(GPIOx));
  assert_param(IS_GPIO_PIN(GPIO_Init->Pin));
  assert_param(IS_GPIO_MODE(GPIO_Init->Mode));

  /* Configure the port pins */
  while (((GPIO_Init->Pin) >> position) != 0x00U)
 8000c96:	e06b      	b.n	8000d70 <HAL_GPIO_Init+0xe0>
      {
        /* Check the Speed parameter */
        assert_param(IS_GPIO_SPEED(GPIO_Init->Speed));

        /* Configure the IO Speed */
        temp = GPIOx->OSPEEDR;
 8000c98:	6885      	ldr	r5, [r0, #8]
        temp &= ~(GPIO_OSPEEDR_OSPEED0 << (position * 2U));
 8000c9a:	005e      	lsls	r6, r3, #1
 8000c9c:	2403      	movs	r4, #3
 8000c9e:	40b4      	lsls	r4, r6
 8000ca0:	ea25 0504 	bic.w	r5, r5, r4
        temp |= (GPIO_Init->Speed << (position * 2U));
 8000ca4:	68cc      	ldr	r4, [r1, #12]
 8000ca6:	40b4      	lsls	r4, r6
 8000ca8:	432c      	orrs	r4, r5
        GPIOx->OSPEEDR = temp;
 8000caa:	6084      	str	r4, [r0, #8]

        /* Configure the IO Output Type */
        temp = GPIOx->OTYPER;
 8000cac:	6845      	ldr	r5, [r0, #4]
        temp &= ~(GPIO_OTYPER_OT0 << position) ;
 8000cae:	ea25 050c 	bic.w	r5, r5, ip
        temp |= (((GPIO_Init->Mode & OUTPUT_TYPE) >> OUTPUT_TYPE_Pos) << position);
 8000cb2:	684c      	ldr	r4, [r1, #4]
 8000cb4:	f3c4 1400 	ubfx	r4, r4, #4, #1
 8000cb8:	409c      	lsls	r4, r3
 8000cba:	432c      	orrs	r4, r5
        GPIOx->OTYPER = temp;
 8000cbc:	6044      	str	r4, [r0, #4]
 8000cbe:	e069      	b.n	8000d94 <HAL_GPIO_Init+0x104>
        /* Check the Alternate function parameters */
        assert_param(IS_GPIO_AF_INSTANCE(GPIOx));
        assert_param(IS_GPIO_AF(GPIO_Init->Alternate));

        /* Configure Alternate function mapped with the current IO */
        temp = GPIOx->AFR[position >> 3U];
 8000cc0:	08dd      	lsrs	r5, r3, #3
 8000cc2:	3508      	adds	r5, #8
 8000cc4:	f850 4025 	ldr.w	r4, [r0, r5, lsl #2]
        temp &= ~(0xFU << ((position & 0x07U) * 4U));
 8000cc8:	f003 0c07 	and.w	ip, r3, #7
 8000ccc:	ea4f 0c8c 	mov.w	ip, ip, lsl #2
 8000cd0:	f04f 0e0f 	mov.w	lr, #15
 8000cd4:	fa0e fe0c 	lsl.w	lr, lr, ip
 8000cd8:	ea24 0e0e 	bic.w	lr, r4, lr
        temp |= ((GPIO_Init->Alternate) << ((position & 0x07U) * 4U));
 8000cdc:	690c      	ldr	r4, [r1, #16]
 8000cde:	fa04 f40c 	lsl.w	r4, r4, ip
 8000ce2:	ea44 040e 	orr.w	r4, r4, lr
        GPIOx->AFR[position >> 3U] = temp;
 8000ce6:	f840 4025 	str.w	r4, [r0, r5, lsl #2]
 8000cea:	e06b      	b.n	8000dc4 <HAL_GPIO_Init+0x134>
        /* Enable SYSCFG Clock */
        __HAL_RCC_SYSCFG_CLK_ENABLE();

        temp = SYSCFG->EXTICR[position >> 2U];
        temp &= ~(0x0FUL << (4U * (position & 0x03U)));
        temp |= (GPIO_GET_INDEX(GPIOx) << (4U * (position & 0x03U)));
 8000cec:	2409      	movs	r4, #9
 8000cee:	e000      	b.n	8000cf2 <HAL_GPIO_Init+0x62>
 8000cf0:	2400      	movs	r4, #0
 8000cf2:	fa04 f40e 	lsl.w	r4, r4, lr
 8000cf6:	432c      	orrs	r4, r5
        SYSCFG->EXTICR[position >> 2U] = temp;
 8000cf8:	f10c 0c02 	add.w	ip, ip, #2
 8000cfc:	4d69      	ldr	r5, [pc, #420]	@ (8000ea4 <HAL_GPIO_Init+0x214>)
 8000cfe:	f845 402c 	str.w	r4, [r5, ip, lsl #2]

        /* Clear Rising Falling edge configuration */
        temp = EXTI->RTSR1;
 8000d02:	f04f 44b0 	mov.w	r4, #1476395008	@ 0x58000000
 8000d06:	6825      	ldr	r5, [r4, #0]
        temp &= ~(iocurrent);
 8000d08:	43d4      	mvns	r4, r2
 8000d0a:	ea25 0602 	bic.w	r6, r5, r2
        if ((GPIO_Init->Mode & TRIGGER_RISING) != 0x00U)
 8000d0e:	684f      	ldr	r7, [r1, #4]
 8000d10:	f417 1f80 	tst.w	r7, #1048576	@ 0x100000
 8000d14:	d001      	beq.n	8000d1a <HAL_GPIO_Init+0x8a>
        {
          temp |= iocurrent;
 8000d16:	ea42 0605 	orr.w	r6, r2, r5
        }
        EXTI->RTSR1 = temp;
 8000d1a:	f04f 45b0 	mov.w	r5, #1476395008	@ 0x58000000
 8000d1e:	602e      	str	r6, [r5, #0]

        temp = EXTI->FTSR1;
 8000d20:	686d      	ldr	r5, [r5, #4]
        temp &= ~(iocurrent);
 8000d22:	ea04 0605 	and.w	r6, r4, r5
        if ((GPIO_Init->Mode & TRIGGER_FALLING) != 0x00U)
 8000d26:	684f      	ldr	r7, [r1, #4]
 8000d28:	f417 1f00 	tst.w	r7, #2097152	@ 0x200000
 8000d2c:	d001      	beq.n	8000d32 <HAL_GPIO_Init+0xa2>
        {
          temp |= iocurrent;
 8000d2e:	ea42 0605 	orr.w	r6, r2, r5
        }
        EXTI->FTSR1 = temp;
 8000d32:	f04f 45b0 	mov.w	r5, #1476395008	@ 0x58000000
 8000d36:	606e      	str	r6, [r5, #4]

        temp = EXTI_CurrentCPU->EMR1;
 8000d38:	f8d5 5084 	ldr.w	r5, [r5, #132]	@ 0x84
        temp &= ~(iocurrent);
 8000d3c:	ea04 0605 	and.w	r6, r4, r5
        if ((GPIO_Init->Mode & EXTI_EVT) != 0x00U)
 8000d40:	684f      	ldr	r7, [r1, #4]
 8000d42:	f417 3f00 	tst.w	r7, #131072	@ 0x20000
 8000d46:	d001      	beq.n	8000d4c <HAL_GPIO_Init+0xbc>
        {
          temp |= iocurrent;
 8000d48:	ea42 0605 	orr.w	r6, r2, r5
        }
        EXTI_CurrentCPU->EMR1 = temp;
 8000d4c:	f04f 45b0 	mov.w	r5, #1476395008	@ 0x58000000
 8000d50:	f8c5 6084 	str.w	r6, [r5, #132]	@ 0x84

        /* Clear EXTI line configuration */
        temp = EXTI_CurrentCPU->IMR1;
 8000d54:	f8d5 5080 	ldr.w	r5, [r5, #128]	@ 0x80
        temp &= ~(iocurrent);
 8000d58:	402c      	ands	r4, r5
        if ((GPIO_Init->Mode & EXTI_IT) != 0x00U)
 8000d5a:	684e      	ldr	r6, [r1, #4]
 8000d5c:	f416 3f80 	tst.w	r6, #65536	@ 0x10000
 8000d60:	d001      	beq.n	8000d66 <HAL_GPIO_Init+0xd6>
        {
          temp |= iocurrent;
 8000d62:	ea42 0405 	orr.w	r4, r2, r5
        }
        EXTI_CurrentCPU->IMR1 = temp;
 8000d66:	f04f 42b0 	mov.w	r2, #1476395008	@ 0x58000000
 8000d6a:	f8c2 4080 	str.w	r4, [r2, #128]	@ 0x80
      }
    }

    position++;
 8000d6e:	3301      	adds	r3, #1
  while (((GPIO_Init->Pin) >> position) != 0x00U)
 8000d70:	680a      	ldr	r2, [r1, #0]
 8000d72:	fa32 f403 	lsrs.w	r4, r2, r3
 8000d76:	f000 8092 	beq.w	8000e9e <HAL_GPIO_Init+0x20e>
    iocurrent = (GPIO_Init->Pin) & (1UL << position);
 8000d7a:	f04f 0c01 	mov.w	ip, #1
 8000d7e:	fa0c fc03 	lsl.w	ip, ip, r3
    if (iocurrent != 0x00U)
 8000d82:	ea1c 0202 	ands.w	r2, ip, r2
 8000d86:	d0f2      	beq.n	8000d6e <HAL_GPIO_Init+0xde>
      if (((GPIO_Init->Mode & GPIO_MODE) == MODE_OUTPUT) || ((GPIO_Init->Mode & GPIO_MODE) == MODE_AF))
 8000d88:	684c      	ldr	r4, [r1, #4]
 8000d8a:	f004 0403 	and.w	r4, r4, #3
 8000d8e:	3c01      	subs	r4, #1
 8000d90:	2c01      	cmp	r4, #1
 8000d92:	d981      	bls.n	8000c98 <HAL_GPIO_Init+0x8>
      if ((GPIO_Init->Mode & GPIO_MODE) != MODE_ANALOG)
 8000d94:	684c      	ldr	r4, [r1, #4]
 8000d96:	f004 0403 	and.w	r4, r4, #3
 8000d9a:	2c03      	cmp	r4, #3
 8000d9c:	d00c      	beq.n	8000db8 <HAL_GPIO_Init+0x128>
      temp = GPIOx->PUPDR;
 8000d9e:	68c4      	ldr	r4, [r0, #12]
      temp &= ~(GPIO_PUPDR_PUPD0 << (position * 2U));
 8000da0:	005d      	lsls	r5, r3, #1
 8000da2:	f04f 0c03 	mov.w	ip, #3
 8000da6:	fa0c fc05 	lsl.w	ip, ip, r5
 8000daa:	ea24 0c0c 	bic.w	ip, r4, ip
      temp |= ((GPIO_Init->Pull) << (position * 2U));
 8000dae:	688c      	ldr	r4, [r1, #8]
 8000db0:	40ac      	lsls	r4, r5
 8000db2:	ea44 040c 	orr.w	r4, r4, ip
      GPIOx->PUPDR = temp;
 8000db6:	60c4      	str	r4, [r0, #12]
      if ((GPIO_Init->Mode & GPIO_MODE) == MODE_AF)
 8000db8:	684c      	ldr	r4, [r1, #4]
 8000dba:	f004 0403 	and.w	r4, r4, #3
 8000dbe:	2c02      	cmp	r4, #2
 8000dc0:	f43f af7e 	beq.w	8000cc0 <HAL_GPIO_Init+0x30>
      temp = GPIOx->MODER;
 8000dc4:	6804      	ldr	r4, [r0, #0]
      temp &= ~(GPIO_MODER_MODE0 << (position * 2U));
 8000dc6:	ea4f 0e43 	mov.w	lr, r3, lsl #1
 8000dca:	f04f 0c03 	mov.w	ip, #3
 8000dce:	fa0c fc0e 	lsl.w	ip, ip, lr
 8000dd2:	ea24 0c0c 	bic.w	ip, r4, ip
      temp |= ((GPIO_Init->Mode & GPIO_MODE) << (position * 2U));
 8000dd6:	684c      	ldr	r4, [r1, #4]
 8000dd8:	f004 0403 	and.w	r4, r4, #3
 8000ddc:	fa04 f40e 	lsl.w	r4, r4, lr
 8000de0:	ea44 040c 	orr.w	r4, r4, ip
      GPIOx->MODER = temp;
 8000de4:	6004      	str	r4, [r0, #0]
      if ((GPIO_Init->Mode & EXTI_MODE) != 0x00U)
 8000de6:	684c      	ldr	r4, [r1, #4]
 8000de8:	f414 3f40 	tst.w	r4, #196608	@ 0x30000
 8000dec:	d0bf      	beq.n	8000d6e <HAL_GPIO_Init+0xde>
        __HAL_RCC_SYSCFG_CLK_ENABLE();
 8000dee:	4c2e      	ldr	r4, [pc, #184]	@ (8000ea8 <HAL_GPIO_Init+0x218>)
 8000df0:	f8d4 50f4 	ldr.w	r5, [r4, #244]	@ 0xf4
 8000df4:	f045 0502 	orr.w	r5, r5, #2
 8000df8:	f8c4 50f4 	str.w	r5, [r4, #244]	@ 0xf4
 8000dfc:	f8d4 40f4 	ldr.w	r4, [r4, #244]	@ 0xf4
 8000e00:	f004 0402 	and.w	r4, r4, #2
 8000e04:	9401      	str	r4, [sp, #4]
 8000e06:	9c01      	ldr	r4, [sp, #4]
        temp = SYSCFG->EXTICR[position >> 2U];
 8000e08:	ea4f 0c93 	mov.w	ip, r3, lsr #2
 8000e0c:	f10c 0502 	add.w	r5, ip, #2
 8000e10:	4c24      	ldr	r4, [pc, #144]	@ (8000ea4 <HAL_GPIO_Init+0x214>)
 8000e12:	f854 5025 	ldr.w	r5, [r4, r5, lsl #2]
        temp &= ~(0x0FUL << (4U * (position & 0x03U)));
 8000e16:	f003 0e03 	and.w	lr, r3, #3
 8000e1a:	ea4f 0e8e 	mov.w	lr, lr, lsl #2
 8000e1e:	240f      	movs	r4, #15
 8000e20:	fa04 f40e 	lsl.w	r4, r4, lr
 8000e24:	ea25 0504 	bic.w	r5, r5, r4
        temp |= (GPIO_GET_INDEX(GPIOx) << (4U * (position & 0x03U)));
 8000e28:	4c20      	ldr	r4, [pc, #128]	@ (8000eac <HAL_GPIO_Init+0x21c>)
 8000e2a:	42a0      	cmp	r0, r4
 8000e2c:	f43f af60 	beq.w	8000cf0 <HAL_GPIO_Init+0x60>
 8000e30:	f504 6480 	add.w	r4, r4, #1024	@ 0x400
 8000e34:	42a0      	cmp	r0, r4
 8000e36:	d022      	beq.n	8000e7e <HAL_GPIO_Init+0x1ee>
 8000e38:	f504 6480 	add.w	r4, r4, #1024	@ 0x400
 8000e3c:	42a0      	cmp	r0, r4
 8000e3e:	d020      	beq.n	8000e82 <HAL_GPIO_Init+0x1f2>
 8000e40:	f504 6480 	add.w	r4, r4, #1024	@ 0x400
 8000e44:	42a0      	cmp	r0, r4
 8000e46:	d01e      	beq.n	8000e86 <HAL_GPIO_Init+0x1f6>
 8000e48:	f504 6480 	add.w	r4, r4, #1024	@ 0x400
 8000e4c:	42a0      	cmp	r0, r4
 8000e4e:	d01c      	beq.n	8000e8a <HAL_GPIO_Init+0x1fa>
 8000e50:	f504 6480 	add.w	r4, r4, #1024	@ 0x400
 8000e54:	42a0      	cmp	r0, r4
 8000e56:	d01a      	beq.n	8000e8e <HAL_GPIO_Init+0x1fe>
 8000e58:	f504 6480 	add.w	r4, r4, #1024	@ 0x400
 8000e5c:	42a0      	cmp	r0, r4
 8000e5e:	d018      	beq.n	8000e92 <HAL_GPIO_Init+0x202>
 8000e60:	f504 6480 	add.w	r4, r4, #1024	@ 0x400
 8000e64:	42a0      	cmp	r0, r4
 8000e66:	d016      	beq.n	8000e96 <HAL_GPIO_Init+0x206>
 8000e68:	f504 6480 	add.w	r4, r4, #1024	@ 0x400
 8000e6c:	42a0      	cmp	r0, r4
 8000e6e:	d014      	beq.n	8000e9a <HAL_GPIO_Init+0x20a>
 8000e70:	f504 6480 	add.w	r4, r4, #1024	@ 0x400
 8000e74:	42a0      	cmp	r0, r4
 8000e76:	f43f af39 	beq.w	8000cec <HAL_GPIO_Init+0x5c>
 8000e7a:	240a      	movs	r4, #10
 8000e7c:	e739      	b.n	8000cf2 <HAL_GPIO_Init+0x62>
 8000e7e:	2401      	movs	r4, #1
 8000e80:	e737      	b.n	8000cf2 <HAL_GPIO_Init+0x62>
 8000e82:	2402      	movs	r4, #2
 8000e84:	e735      	b.n	8000cf2 <HAL_GPIO_Init+0x62>
 8000e86:	2403      	movs	r4, #3
 8000e88:	e733      	b.n	8000cf2 <HAL_GPIO_Init+0x62>
 8000e8a:	2404      	movs	r4, #4
 8000e8c:	e731      	b.n	8000cf2 <HAL_GPIO_Init+0x62>
 8000e8e:	2405      	movs	r4, #5
 8000e90:	e72f      	b.n	8000cf2 <HAL_GPIO_Init+0x62>
 8000e92:	2406      	movs	r4, #6
 8000e94:	e72d      	b.n	8000cf2 <HAL_GPIO_Init+0x62>
 8000e96:	2407      	movs	r4, #7
 8000e98:	e72b      	b.n	8000cf2 <HAL_GPIO_Init+0x62>
 8000e9a:	2408      	movs	r4, #8
 8000e9c:	e729      	b.n	8000cf2 <HAL_GPIO_Init+0x62>
  }
}
 8000e9e:	b003      	add	sp, #12
 8000ea0:	bdf0      	pop	{r4, r5, r6, r7, pc}
 8000ea2:	bf00      	nop
 8000ea4:	58000400 	.word	0x58000400
 8000ea8:	58024400 	.word	0x58024400
 8000eac:	58020000 	.word	0x58020000

08000eb0 <HAL_MspInit>:
void HAL_TIM_MspPostInit(TIM_HandleTypeDef *htim);
                    /**
  * Initializes the Global MSP.
  */
void HAL_MspInit(void)
{
 8000eb0:	b082      	sub	sp, #8

  /* USER CODE BEGIN MspInit 0 */

  /* USER CODE END MspInit 0 */

  __HAL_RCC_SYSCFG_CLK_ENABLE();
 8000eb2:	4b07      	ldr	r3, [pc, #28]	@ (8000ed0 <HAL_MspInit+0x20>)
 8000eb4:	f8d3 20f4 	ldr.w	r2, [r3, #244]	@ 0xf4
 8000eb8:	f042 0202 	orr.w	r2, r2, #2
 8000ebc:	f8c3 20f4 	str.w	r2, [r3, #244]	@ 0xf4
 8000ec0:	f8d3 30f4 	ldr.w	r3, [r3, #244]	@ 0xf4
 8000ec4:	f003 0302 	and.w	r3, r3, #2
 8000ec8:	9301      	str	r3, [sp, #4]
 8000eca:	9b01      	ldr	r3, [sp, #4]
  /* System interrupt init*/

  /* USER CODE BEGIN MspInit 1 */

  /* USER CODE END MspInit 1 */
}
 8000ecc:	b002      	add	sp, #8
 8000ece:	4770      	bx	lr
 8000ed0:	58024400 	.word	0x58024400

08000ed4 <HAL_FDCAN_MspInit>:
  * This function configures the hardware resources used in this example
  * @param hfdcan: FDCAN handle pointer
  * @retval None
  */
void HAL_FDCAN_MspInit(FDCAN_HandleTypeDef* hfdcan)
{
 8000ed4:	b510      	push	{r4, lr}
 8000ed6:	b0b8      	sub	sp, #224	@ 0xe0
 8000ed8:	4604      	mov	r4, r0
  GPIO_InitTypeDef GPIO_InitStruct = {0};
 8000eda:	2100      	movs	r1, #0
 8000edc:	9133      	str	r1, [sp, #204]	@ 0xcc
 8000ede:	9134      	str	r1, [sp, #208]	@ 0xd0
 8000ee0:	9135      	str	r1, [sp, #212]	@ 0xd4
 8000ee2:	9136      	str	r1, [sp, #216]	@ 0xd8
 8000ee4:	9137      	str	r1, [sp, #220]	@ 0xdc
  RCC_PeriphCLKInitTypeDef PeriphClkInitStruct = {0};
 8000ee6:	22c0      	movs	r2, #192	@ 0xc0
 8000ee8:	a802      	add	r0, sp, #8
 8000eea:	f005 f8b6 	bl	800605a <memset>
  if(hfdcan->Instance==FDCAN1)
 8000eee:	6822      	ldr	r2, [r4, #0]
 8000ef0:	4b23      	ldr	r3, [pc, #140]	@ (8000f80 <HAL_FDCAN_MspInit+0xac>)
 8000ef2:	429a      	cmp	r2, r3
 8000ef4:	d001      	beq.n	8000efa <HAL_FDCAN_MspInit+0x26>

    /* USER CODE END FDCAN1_MspInit 1 */

  }

}
 8000ef6:	b038      	add	sp, #224	@ 0xe0
 8000ef8:	bd10      	pop	{r4, pc}
    PeriphClkInitStruct.PeriphClockSelection = RCC_PERIPHCLK_FDCAN;
 8000efa:	f44f 4200 	mov.w	r2, #32768	@ 0x8000
 8000efe:	2300      	movs	r3, #0
 8000f00:	e9cd 2302 	strd	r2, r3, [sp, #8]
    PeriphClkInitStruct.PLL2.PLL2M = 2;
 8000f04:	2302      	movs	r3, #2
 8000f06:	9304      	str	r3, [sp, #16]
    PeriphClkInitStruct.PLL2.PLL2N = 12;
 8000f08:	220c      	movs	r2, #12
 8000f0a:	9205      	str	r2, [sp, #20]
    PeriphClkInitStruct.PLL2.PLL2P = 2;
 8000f0c:	9306      	str	r3, [sp, #24]
    PeriphClkInitStruct.PLL2.PLL2Q = 3;
 8000f0e:	2203      	movs	r2, #3
 8000f10:	9207      	str	r2, [sp, #28]
    PeriphClkInitStruct.PLL2.PLL2R = 2;
 8000f12:	9308      	str	r3, [sp, #32]
    PeriphClkInitStruct.PLL2.PLL2RGE = RCC_PLL2VCIRANGE_3;
 8000f14:	23c0      	movs	r3, #192	@ 0xc0
 8000f16:	9309      	str	r3, [sp, #36]	@ 0x24
    PeriphClkInitStruct.PLL2.PLL2VCOSEL = RCC_PLL2VCOMEDIUM;
 8000f18:	2320      	movs	r3, #32
 8000f1a:	930a      	str	r3, [sp, #40]	@ 0x28
    PeriphClkInitStruct.FdcanClockSelection = RCC_FDCANCLKSOURCE_PLL2;
 8000f1c:	f04f 5300 	mov.w	r3, #536870912	@ 0x20000000
 8000f20:	931e      	str	r3, [sp, #120]	@ 0x78
    if (HAL_RCCEx_PeriphCLKConfig(&PeriphClkInitStruct) != HAL_OK)
 8000f22:	a802      	add	r0, sp, #8
 8000f24:	f001 fde2 	bl	8002aec <HAL_RCCEx_PeriphCLKConfig>
 8000f28:	bb30      	cbnz	r0, 8000f78 <HAL_FDCAN_MspInit+0xa4>
    __HAL_RCC_FDCAN_CLK_ENABLE();
 8000f2a:	4b16      	ldr	r3, [pc, #88]	@ (8000f84 <HAL_FDCAN_MspInit+0xb0>)
 8000f2c:	f8d3 20ec 	ldr.w	r2, [r3, #236]	@ 0xec
 8000f30:	f442 7280 	orr.w	r2, r2, #256	@ 0x100
 8000f34:	f8c3 20ec 	str.w	r2, [r3, #236]	@ 0xec
 8000f38:	f8d3 20ec 	ldr.w	r2, [r3, #236]	@ 0xec
 8000f3c:	f402 7280 	and.w	r2, r2, #256	@ 0x100
 8000f40:	9200      	str	r2, [sp, #0]
 8000f42:	9a00      	ldr	r2, [sp, #0]
    __HAL_RCC_GPIOD_CLK_ENABLE();
 8000f44:	f8d3 20e0 	ldr.w	r2, [r3, #224]	@ 0xe0
 8000f48:	f042 0208 	orr.w	r2, r2, #8
 8000f4c:	f8c3 20e0 	str.w	r2, [r3, #224]	@ 0xe0
 8000f50:	f8d3 30e0 	ldr.w	r3, [r3, #224]	@ 0xe0
 8000f54:	f003 0308 	and.w	r3, r3, #8
 8000f58:	9301      	str	r3, [sp, #4]
 8000f5a:	9b01      	ldr	r3, [sp, #4]
    GPIO_InitStruct.Pin = GPIO_PIN_0|GPIO_PIN_1;
 8000f5c:	2303      	movs	r3, #3
 8000f5e:	9333      	str	r3, [sp, #204]	@ 0xcc
    GPIO_InitStruct.Mode = GPIO_MODE_AF_PP;
 8000f60:	2302      	movs	r3, #2
 8000f62:	9334      	str	r3, [sp, #208]	@ 0xd0
    GPIO_InitStruct.Pull = GPIO_NOPULL;
 8000f64:	2300      	movs	r3, #0
 8000f66:	9335      	str	r3, [sp, #212]	@ 0xd4
    GPIO_InitStruct.Speed = GPIO_SPEED_FREQ_LOW;
 8000f68:	9336      	str	r3, [sp, #216]	@ 0xd8
    GPIO_InitStruct.Alternate = GPIO_AF9_FDCAN1;
 8000f6a:	2309      	movs	r3, #9
 8000f6c:	9337      	str	r3, [sp, #220]	@ 0xdc
    HAL_GPIO_Init(GPIOD, &GPIO_InitStruct);
 8000f6e:	a933      	add	r1, sp, #204	@ 0xcc
 8000f70:	4805      	ldr	r0, [pc, #20]	@ (8000f88 <HAL_FDCAN_MspInit+0xb4>)
 8000f72:	f7ff fe8d 	bl	8000c90 <HAL_GPIO_Init>
}
 8000f76:	e7be      	b.n	8000ef6 <HAL_FDCAN_MspInit+0x22>
      Error_Handler();
 8000f78:	f7ff fa01 	bl	800037e <Error_Handler>
 8000f7c:	e7d5      	b.n	8000f2a <HAL_FDCAN_MspInit+0x56>
 8000f7e:	bf00      	nop
 8000f80:	4000a000 	.word	0x4000a000
 8000f84:	58024400 	.word	0x58024400
 8000f88:	58020c00 	.word	0x58020c00

08000f8c <HAL_TIM_PWM_MspInit>:
  * @param htim_pwm: TIM_PWM handle pointer
  * @retval None
  */
void HAL_TIM_PWM_MspInit(TIM_HandleTypeDef* htim_pwm)
{
  if(htim_pwm->Instance==TIM2)
 8000f8c:	6803      	ldr	r3, [r0, #0]
 8000f8e:	f1b3 4f80 	cmp.w	r3, #1073741824	@ 0x40000000
 8000f92:	d000      	beq.n	8000f96 <HAL_TIM_PWM_MspInit+0xa>
 8000f94:	4770      	bx	lr
{
 8000f96:	b082      	sub	sp, #8
  {
    /* USER CODE BEGIN TIM2_MspInit 0 */

    /* USER CODE END TIM2_MspInit 0 */
    /* Peripheral clock enable */
    __HAL_RCC_TIM2_CLK_ENABLE();
 8000f98:	4b07      	ldr	r3, [pc, #28]	@ (8000fb8 <HAL_TIM_PWM_MspInit+0x2c>)
 8000f9a:	f8d3 20e8 	ldr.w	r2, [r3, #232]	@ 0xe8
 8000f9e:	f042 0201 	orr.w	r2, r2, #1
 8000fa2:	f8c3 20e8 	str.w	r2, [r3, #232]	@ 0xe8
 8000fa6:	f8d3 30e8 	ldr.w	r3, [r3, #232]	@ 0xe8
 8000faa:	f003 0301 	and.w	r3, r3, #1
 8000fae:	9301      	str	r3, [sp, #4]
 8000fb0:	9b01      	ldr	r3, [sp, #4]

    /* USER CODE END TIM2_MspInit 1 */

  }

}
 8000fb2:	b002      	add	sp, #8
 8000fb4:	4770      	bx	lr
 8000fb6:	bf00      	nop
 8000fb8:	58024400 	.word	0x58024400

08000fbc <HAL_TIM_MspPostInit>:

void HAL_TIM_MspPostInit(TIM_HandleTypeDef* htim)
{
 8000fbc:	b500      	push	{lr}
 8000fbe:	b087      	sub	sp, #28
  GPIO_InitTypeDef GPIO_InitStruct = {0};
 8000fc0:	2300      	movs	r3, #0
 8000fc2:	9301      	str	r3, [sp, #4]
 8000fc4:	9302      	str	r3, [sp, #8]
 8000fc6:	9303      	str	r3, [sp, #12]
 8000fc8:	9304      	str	r3, [sp, #16]
 8000fca:	9305      	str	r3, [sp, #20]
  if(htim->Instance==TIM2)
 8000fcc:	6803      	ldr	r3, [r0, #0]
 8000fce:	f1b3 4f80 	cmp.w	r3, #1073741824	@ 0x40000000
 8000fd2:	d002      	beq.n	8000fda <HAL_TIM_MspPostInit+0x1e>
    /* USER CODE BEGIN TIM2_MspPostInit 1 */

    /* USER CODE END TIM2_MspPostInit 1 */
  }

}
 8000fd4:	b007      	add	sp, #28
 8000fd6:	f85d fb04 	ldr.w	pc, [sp], #4
    __HAL_RCC_GPIOA_CLK_ENABLE();
 8000fda:	4b0c      	ldr	r3, [pc, #48]	@ (800100c <HAL_TIM_MspPostInit+0x50>)
 8000fdc:	f8d3 20e0 	ldr.w	r2, [r3, #224]	@ 0xe0
 8000fe0:	f042 0201 	orr.w	r2, r2, #1
 8000fe4:	f8c3 20e0 	str.w	r2, [r3, #224]	@ 0xe0
 8000fe8:	f8d3 30e0 	ldr.w	r3, [r3, #224]	@ 0xe0
 8000fec:	f003 0301 	and.w	r3, r3, #1
 8000ff0:	9300      	str	r3, [sp, #0]
 8000ff2:	9b00      	ldr	r3, [sp, #0]
    GPIO_InitStruct.Pin = GPIO_PIN_3;
 8000ff4:	2308      	movs	r3, #8
 8000ff6:	9301      	str	r3, [sp, #4]
    GPIO_InitStruct.Mode = GPIO_MODE_AF_PP;
 8000ff8:	2302      	movs	r3, #2
 8000ffa:	9302      	str	r3, [sp, #8]
    GPIO_InitStruct.Alternate = GPIO_AF1_TIM2;
 8000ffc:	2301      	movs	r3, #1
 8000ffe:	9305      	str	r3, [sp, #20]
    HAL_GPIO_Init(GPIOA, &GPIO_InitStruct);
 8001000:	a901      	add	r1, sp, #4
 8001002:	4803      	ldr	r0, [pc, #12]	@ (8001010 <HAL_TIM_MspPostInit+0x54>)
 8001004:	f7ff fe44 	bl	8000c90 <HAL_GPIO_Init>
}
 8001008:	e7e4      	b.n	8000fd4 <HAL_TIM_MspPostInit+0x18>
 800100a:	bf00      	nop
 800100c:	58024400 	.word	0x58024400
 8001010:	58020000 	.word	0x58020000

08001014 <PCD_WriteEmptyTxFifo>:
  * @param  hpcd PCD handle
  * @param  epnum endpoint number
  * @retval HAL status
  */
static HAL_StatusTypeDef PCD_WriteEmptyTxFifo(PCD_HandleTypeDef *hpcd, uint32_t epnum)
{
 8001014:	e92d 43f0 	stmdb	sp!, {r4, r5, r6, r7, r8, r9, lr}
 8001018:	b083      	sub	sp, #12
  USB_OTG_GlobalTypeDef *USBx = hpcd->Instance;
 800101a:	f8d0 8000 	ldr.w	r8, [r0]
  uint32_t len32b;
  uint32_t fifoemptymsk;

  ep = &hpcd->IN_ep[epnum];

  if (ep->xfer_count > ep->xfer_len)
 800101e:	eb01 03c1 	add.w	r3, r1, r1, lsl #3
 8001022:	eb00 0383 	add.w	r3, r0, r3, lsl #2
 8001026:	6a9a      	ldr	r2, [r3, #40]	@ 0x28
 8001028:	6a5b      	ldr	r3, [r3, #36]	@ 0x24
 800102a:	429a      	cmp	r2, r3
 800102c:	d854      	bhi.n	80010d8 <PCD_WriteEmptyTxFifo+0xc4>
 800102e:	4607      	mov	r7, r0
 8001030:	460c      	mov	r4, r1
  {
    return HAL_ERROR;
  }

  len = ep->xfer_len - ep->xfer_count;
 8001032:	1a9b      	subs	r3, r3, r2

  if (len > ep->maxpacket)
 8001034:	eb01 02c1 	add.w	r2, r1, r1, lsl #3
 8001038:	eb00 0282 	add.w	r2, r0, r2, lsl #2
 800103c:	69d2      	ldr	r2, [r2, #28]
 800103e:	429a      	cmp	r2, r3
 8001040:	d300      	bcc.n	8001044 <PCD_WriteEmptyTxFifo+0x30>
  len = ep->xfer_len - ep->xfer_count;
 8001042:	461a      	mov	r2, r3
  {
    len = ep->maxpacket;
  }

  len32b = (len + 3U) / 4U;
 8001044:	f102 0903 	add.w	r9, r2, #3
 8001048:	ea4f 0999 	mov.w	r9, r9, lsr #2

  while (((USBx_INEP(epnum)->DTXFSTS & USB_OTG_DTXFSTS_INEPTFSAV) >= len32b) &&
 800104c:	e015      	b.n	800107a <PCD_WriteEmptyTxFifo+0x66>

    if (len > ep->maxpacket)
    {
      len = ep->maxpacket;
    }
    len32b = (len + 3U) / 4U;
 800104e:	f106 0903 	add.w	r9, r6, #3
 8001052:	ea4f 0999 	mov.w	r9, r9, lsr #2

    (void)USB_WritePacket(USBx, ep->xfer_buff, (uint8_t)epnum, (uint16_t)len,
                          (uint8_t)hpcd->Init.dma_enable);
 8001056:	79bb      	ldrb	r3, [r7, #6]
    (void)USB_WritePacket(USBx, ep->xfer_buff, (uint8_t)epnum, (uint16_t)len,
 8001058:	eb04 05c4 	add.w	r5, r4, r4, lsl #3
 800105c:	eb07 0585 	add.w	r5, r7, r5, lsl #2
 8001060:	6a29      	ldr	r1, [r5, #32]
 8001062:	9300      	str	r3, [sp, #0]
 8001064:	b2b3      	uxth	r3, r6
 8001066:	b2e2      	uxtb	r2, r4
 8001068:	4640      	mov	r0, r8
 800106a:	f003 f9dc 	bl	8004426 <USB_WritePacket>

    ep->xfer_buff  += len;
 800106e:	6a2b      	ldr	r3, [r5, #32]
 8001070:	4433      	add	r3, r6
 8001072:	622b      	str	r3, [r5, #32]
    ep->xfer_count += len;
 8001074:	6aab      	ldr	r3, [r5, #40]	@ 0x28
 8001076:	4433      	add	r3, r6
 8001078:	62ab      	str	r3, [r5, #40]	@ 0x28
  while (((USBx_INEP(epnum)->DTXFSTS & USB_OTG_DTXFSTS_INEPTFSAV) >= len32b) &&
 800107a:	eb08 1344 	add.w	r3, r8, r4, lsl #5
 800107e:	f503 6310 	add.w	r3, r3, #2304	@ 0x900
 8001082:	699b      	ldr	r3, [r3, #24]
 8001084:	b29b      	uxth	r3, r3
         (ep->xfer_count < ep->xfer_len) && (ep->xfer_len != 0U))
 8001086:	454b      	cmp	r3, r9
 8001088:	d312      	bcc.n	80010b0 <PCD_WriteEmptyTxFifo+0x9c>
 800108a:	eb04 03c4 	add.w	r3, r4, r4, lsl #3
 800108e:	eb07 0383 	add.w	r3, r7, r3, lsl #2
 8001092:	6a9a      	ldr	r2, [r3, #40]	@ 0x28
 8001094:	6a5b      	ldr	r3, [r3, #36]	@ 0x24
  while (((USBx_INEP(epnum)->DTXFSTS & USB_OTG_DTXFSTS_INEPTFSAV) >= len32b) &&
 8001096:	429a      	cmp	r2, r3
 8001098:	d20a      	bcs.n	80010b0 <PCD_WriteEmptyTxFifo+0x9c>
         (ep->xfer_count < ep->xfer_len) && (ep->xfer_len != 0U))
 800109a:	b14b      	cbz	r3, 80010b0 <PCD_WriteEmptyTxFifo+0x9c>
    len = ep->xfer_len - ep->xfer_count;
 800109c:	1a9b      	subs	r3, r3, r2
    if (len > ep->maxpacket)
 800109e:	eb04 02c4 	add.w	r2, r4, r4, lsl #3
 80010a2:	eb07 0282 	add.w	r2, r7, r2, lsl #2
 80010a6:	69d6      	ldr	r6, [r2, #28]
 80010a8:	429e      	cmp	r6, r3
 80010aa:	d3d0      	bcc.n	800104e <PCD_WriteEmptyTxFifo+0x3a>
    len = ep->xfer_len - ep->xfer_count;
 80010ac:	461e      	mov	r6, r3
 80010ae:	e7ce      	b.n	800104e <PCD_WriteEmptyTxFifo+0x3a>
  }

  if (ep->xfer_len <= ep->xfer_count)
 80010b0:	eb04 03c4 	add.w	r3, r4, r4, lsl #3
 80010b4:	eb07 0783 	add.w	r7, r7, r3, lsl #2
 80010b8:	6a7a      	ldr	r2, [r7, #36]	@ 0x24
 80010ba:	6abb      	ldr	r3, [r7, #40]	@ 0x28
 80010bc:	429a      	cmp	r2, r3
 80010be:	d80f      	bhi.n	80010e0 <PCD_WriteEmptyTxFifo+0xcc>
  {
    fifoemptymsk = (uint32_t)(0x1UL << (epnum & EP_ADDR_MSK));
 80010c0:	f004 040f 	and.w	r4, r4, #15
 80010c4:	2201      	movs	r2, #1
 80010c6:	40a2      	lsls	r2, r4
    USBx_DEVICE->DIEPEMPMSK &= ~fifoemptymsk;
 80010c8:	f8d8 3834 	ldr.w	r3, [r8, #2100]	@ 0x834
 80010cc:	ea23 0302 	bic.w	r3, r3, r2
 80010d0:	f8c8 3834 	str.w	r3, [r8, #2100]	@ 0x834
  }

  return HAL_OK;
 80010d4:	2000      	movs	r0, #0
 80010d6:	e000      	b.n	80010da <PCD_WriteEmptyTxFifo+0xc6>
    return HAL_ERROR;
 80010d8:	2001      	movs	r0, #1
}
 80010da:	b003      	add	sp, #12
 80010dc:	e8bd 83f0 	ldmia.w	sp!, {r4, r5, r6, r7, r8, r9, pc}
  return HAL_OK;
 80010e0:	2000      	movs	r0, #0
 80010e2:	e7fa      	b.n	80010da <PCD_WriteEmptyTxFifo+0xc6>

080010e4 <HAL_PCD_Init>:
{
 80010e4:	b530      	push	{r4, r5, lr}
 80010e6:	b083      	sub	sp, #12
  if (hpcd == NULL)
 80010e8:	2800      	cmp	r0, #0
 80010ea:	d07a      	beq.n	80011e2 <HAL_PCD_Init+0xfe>
 80010ec:	4604      	mov	r4, r0
  if (hpcd->State == HAL_PCD_STATE_RESET)
 80010ee:	f890 3495 	ldrb.w	r3, [r0, #1173]	@ 0x495
 80010f2:	b1ab      	cbz	r3, 8001120 <HAL_PCD_Init+0x3c>
  hpcd->State = HAL_PCD_STATE_BUSY;
 80010f4:	2303      	movs	r3, #3
 80010f6:	f884 3495 	strb.w	r3, [r4, #1173]	@ 0x495
  __HAL_PCD_DISABLE(hpcd);
 80010fa:	6820      	ldr	r0, [r4, #0]
 80010fc:	f002 ff48 	bl	8003f90 <USB_DisableGlobalInt>
  if (USB_CoreInit(hpcd->Instance, hpcd->Init) != HAL_OK)
 8001100:	7c23      	ldrb	r3, [r4, #16]
 8001102:	f88d 3000 	strb.w	r3, [sp]
 8001106:	1d23      	adds	r3, r4, #4
 8001108:	cb0e      	ldmia	r3, {r1, r2, r3}
 800110a:	6820      	ldr	r0, [r4, #0]
 800110c:	f002 fe76 	bl	8003dfc <USB_CoreInit>
 8001110:	b158      	cbz	r0, 800112a <HAL_PCD_Init+0x46>
    hpcd->State = HAL_PCD_STATE_ERROR;
 8001112:	2302      	movs	r3, #2
 8001114:	f884 3495 	strb.w	r3, [r4, #1173]	@ 0x495
    return HAL_ERROR;
 8001118:	2501      	movs	r5, #1
}
 800111a:	4628      	mov	r0, r5
 800111c:	b003      	add	sp, #12
 800111e:	bd30      	pop	{r4, r5, pc}
    hpcd->Lock = HAL_UNLOCKED;
 8001120:	f880 3494 	strb.w	r3, [r0, #1172]	@ 0x494
    HAL_PCD_MspInit(hpcd);
 8001124:	f003 ff70 	bl	8005008 <HAL_PCD_MspInit>
 8001128:	e7e4      	b.n	80010f4 <HAL_PCD_Init+0x10>
  if (USB_SetCurrentMode(hpcd->Instance, USB_DEVICE_MODE) != HAL_OK)
 800112a:	2100      	movs	r1, #0
 800112c:	6820      	ldr	r0, [r4, #0]
 800112e:	f003 fb90 	bl	8004852 <USB_SetCurrentMode>
 8001132:	4602      	mov	r2, r0
 8001134:	b9b8      	cbnz	r0, 8001166 <HAL_PCD_Init+0x82>
  for (i = 0U; i < hpcd->Init.dev_endpoints; i++)
 8001136:	4603      	mov	r3, r0
 8001138:	7920      	ldrb	r0, [r4, #4]
 800113a:	4298      	cmp	r0, r3
 800113c:	d918      	bls.n	8001170 <HAL_PCD_Init+0x8c>
    hpcd->IN_ep[i].is_in = 1U;
 800113e:	eb03 01c3 	add.w	r1, r3, r3, lsl #3
 8001142:	eb04 0181 	add.w	r1, r4, r1, lsl #2
 8001146:	2001      	movs	r0, #1
 8001148:	7548      	strb	r0, [r1, #21]
    hpcd->IN_ep[i].num = i;
 800114a:	750b      	strb	r3, [r1, #20]
    hpcd->IN_ep[i].tx_fifo_num = i;
 800114c:	85cb      	strh	r3, [r1, #46]	@ 0x2e
    hpcd->IN_ep[i].type = EP_TYPE_CTRL;
 800114e:	2000      	movs	r0, #0
 8001150:	7608      	strb	r0, [r1, #24]
    hpcd->IN_ep[i].maxpacket = 0U;
 8001152:	61c8      	str	r0, [r1, #28]
    hpcd->IN_ep[i].xfer_buff = 0U;
 8001154:	6208      	str	r0, [r1, #32]
    hpcd->IN_ep[i].xfer_len = 0U;
 8001156:	eb03 01c3 	add.w	r1, r3, r3, lsl #3
 800115a:	eb04 0181 	add.w	r1, r4, r1, lsl #2
 800115e:	6248      	str	r0, [r1, #36]	@ 0x24
  for (i = 0U; i < hpcd->Init.dev_endpoints; i++)
 8001160:	3301      	adds	r3, #1
 8001162:	b2db      	uxtb	r3, r3
 8001164:	e7e8      	b.n	8001138 <HAL_PCD_Init+0x54>
    hpcd->State = HAL_PCD_STATE_ERROR;
 8001166:	2302      	movs	r3, #2
 8001168:	f884 3495 	strb.w	r3, [r4, #1173]	@ 0x495
    return HAL_ERROR;
 800116c:	2501      	movs	r5, #1
 800116e:	e7d4      	b.n	800111a <HAL_PCD_Init+0x36>
  for (i = 0U; i < hpcd->Init.dev_endpoints; i++)
 8001170:	4290      	cmp	r0, r2
 8001172:	d917      	bls.n	80011a4 <HAL_PCD_Init+0xc0>
    hpcd->OUT_ep[i].is_in = 0U;
 8001174:	eb02 03c2 	add.w	r3, r2, r2, lsl #3
 8001178:	eb04 0383 	add.w	r3, r4, r3, lsl #2
 800117c:	2100      	movs	r1, #0
 800117e:	f883 1255 	strb.w	r1, [r3, #597]	@ 0x255
    hpcd->OUT_ep[i].num = i;
 8001182:	f883 2254 	strb.w	r2, [r3, #596]	@ 0x254
    hpcd->OUT_ep[i].type = EP_TYPE_CTRL;
 8001186:	f883 1258 	strb.w	r1, [r3, #600]	@ 0x258
    hpcd->OUT_ep[i].maxpacket = 0U;
 800118a:	f8c3 125c 	str.w	r1, [r3, #604]	@ 0x25c
    hpcd->OUT_ep[i].xfer_buff = 0U;
 800118e:	f8c3 1260 	str.w	r1, [r3, #608]	@ 0x260
    hpcd->OUT_ep[i].xfer_len = 0U;
 8001192:	eb02 03c2 	add.w	r3, r2, r2, lsl #3
 8001196:	eb04 0383 	add.w	r3, r4, r3, lsl #2
 800119a:	f8c3 1264 	str.w	r1, [r3, #612]	@ 0x264
  for (i = 0U; i < hpcd->Init.dev_endpoints; i++)
 800119e:	3201      	adds	r2, #1
 80011a0:	b2d2      	uxtb	r2, r2
 80011a2:	e7e5      	b.n	8001170 <HAL_PCD_Init+0x8c>
  if (USB_DevInit(hpcd->Instance, hpcd->Init) != HAL_OK)
 80011a4:	7c23      	ldrb	r3, [r4, #16]
 80011a6:	f88d 3000 	strb.w	r3, [sp]
 80011aa:	1d23      	adds	r3, r4, #4
 80011ac:	cb0e      	ldmia	r3, {r1, r2, r3}
 80011ae:	6820      	ldr	r0, [r4, #0]
 80011b0:	f002 ff44 	bl	800403c <USB_DevInit>
 80011b4:	4605      	mov	r5, r0
 80011b6:	b958      	cbnz	r0, 80011d0 <HAL_PCD_Init+0xec>
  hpcd->USB_Address = 0U;
 80011b8:	2300      	movs	r3, #0
 80011ba:	7463      	strb	r3, [r4, #17]
  hpcd->State = HAL_PCD_STATE_READY;
 80011bc:	2301      	movs	r3, #1
 80011be:	f884 3495 	strb.w	r3, [r4, #1173]	@ 0x495
  if (hpcd->Init.lpm_enable == 1U)
 80011c2:	7b23      	ldrb	r3, [r4, #12]
 80011c4:	2b01      	cmp	r3, #1
 80011c6:	d008      	beq.n	80011da <HAL_PCD_Init+0xf6>
  (void)USB_DevDisconnect(hpcd->Instance);
 80011c8:	6820      	ldr	r0, [r4, #0]
 80011ca:	f003 fb01 	bl	80047d0 <USB_DevDisconnect>
  return HAL_OK;
 80011ce:	e7a4      	b.n	800111a <HAL_PCD_Init+0x36>
    hpcd->State = HAL_PCD_STATE_ERROR;
 80011d0:	2302      	movs	r3, #2
 80011d2:	f884 3495 	strb.w	r3, [r4, #1173]	@ 0x495
    return HAL_ERROR;
 80011d6:	2501      	movs	r5, #1
 80011d8:	e79f      	b.n	800111a <HAL_PCD_Init+0x36>
    (void)HAL_PCDEx_ActivateLPM(hpcd);
 80011da:	4620      	mov	r0, r4
 80011dc:	f000 fd76 	bl	8001ccc <HAL_PCDEx_ActivateLPM>
 80011e0:	e7f2      	b.n	80011c8 <HAL_PCD_Init+0xe4>
    return HAL_ERROR;
 80011e2:	2501      	movs	r5, #1
 80011e4:	e799      	b.n	800111a <HAL_PCD_Init+0x36>

080011e6 <HAL_PCD_Start>:
  USB_OTG_GlobalTypeDef *USBx = hpcd->Instance;
 80011e6:	6803      	ldr	r3, [r0, #0]
  __HAL_LOCK(hpcd);
 80011e8:	f890 2494 	ldrb.w	r2, [r0, #1172]	@ 0x494
 80011ec:	2a01      	cmp	r2, #1
 80011ee:	d01a      	beq.n	8001226 <HAL_PCD_Start+0x40>
{
 80011f0:	b510      	push	{r4, lr}
 80011f2:	4604      	mov	r4, r0
  __HAL_LOCK(hpcd);
 80011f4:	2201      	movs	r2, #1
 80011f6:	f880 2494 	strb.w	r2, [r0, #1172]	@ 0x494
  if (((USBx->GUSBCFG & USB_OTG_GUSBCFG_PHYSEL) != 0U) &&
 80011fa:	68da      	ldr	r2, [r3, #12]
 80011fc:	f012 0f40 	tst.w	r2, #64	@ 0x40
 8001200:	d002      	beq.n	8001208 <HAL_PCD_Start+0x22>
      (hpcd->Init.battery_charging_enable == 1U))
 8001202:	7b42      	ldrb	r2, [r0, #13]
  if (((USBx->GUSBCFG & USB_OTG_GUSBCFG_PHYSEL) != 0U) &&
 8001204:	2a01      	cmp	r2, #1
 8001206:	d009      	beq.n	800121c <HAL_PCD_Start+0x36>
  __HAL_PCD_ENABLE(hpcd);
 8001208:	6820      	ldr	r0, [r4, #0]
 800120a:	f002 febb 	bl	8003f84 <USB_EnableGlobalInt>
  (void)USB_DevConnect(hpcd->Instance);
 800120e:	6820      	ldr	r0, [r4, #0]
 8001210:	f003 fad0 	bl	80047b4 <USB_DevConnect>
  __HAL_UNLOCK(hpcd);
 8001214:	2000      	movs	r0, #0
 8001216:	f884 0494 	strb.w	r0, [r4, #1172]	@ 0x494
}
 800121a:	bd10      	pop	{r4, pc}
    USBx->GCCFG |= USB_OTG_GCCFG_PWRDWN;
 800121c:	6b9a      	ldr	r2, [r3, #56]	@ 0x38
 800121e:	f442 3280 	orr.w	r2, r2, #65536	@ 0x10000
 8001222:	639a      	str	r2, [r3, #56]	@ 0x38
 8001224:	e7f0      	b.n	8001208 <HAL_PCD_Start+0x22>
  __HAL_LOCK(hpcd);
 8001226:	2002      	movs	r0, #2
}
 8001228:	4770      	bx	lr
	...

0800122c <PCD_EP_OutXfrComplete_int>:
  * @param  hpcd PCD handle
  * @param  epnum endpoint number
  * @retval HAL status
  */
static HAL_StatusTypeDef PCD_EP_OutXfrComplete_int(PCD_HandleTypeDef *hpcd, uint32_t epnum)
{
 800122c:	b570      	push	{r4, r5, r6, lr}
 800122e:	4604      	mov	r4, r0
 8001230:	460d      	mov	r5, r1
  USB_OTG_EPTypeDef *ep;
  const USB_OTG_GlobalTypeDef *USBx = hpcd->Instance;
 8001232:	6800      	ldr	r0, [r0, #0]
  uint32_t USBx_BASE = (uint32_t)USBx;
  uint32_t gSNPSiD = *(__IO const uint32_t *)(&USBx->CID + 0x1U);
 8001234:	6c06      	ldr	r6, [r0, #64]	@ 0x40
  uint32_t DoepintReg = USBx_OUTEP(epnum)->DOEPINT;
 8001236:	eb00 1341 	add.w	r3, r0, r1, lsl #5
 800123a:	f503 6330 	add.w	r3, r3, #2816	@ 0xb00
 800123e:	689a      	ldr	r2, [r3, #8]

  if (hpcd->Init.dma_enable == 1U)
 8001240:	79a1      	ldrb	r1, [r4, #6]
 8001242:	2901      	cmp	r1, #1
 8001244:	d011      	beq.n	800126a <PCD_EP_OutXfrComplete_int+0x3e>
      /* ... */
    }
  }
  else
  {
    if (gSNPSiD == USB_OTG_CORE_ID_310A)
 8001246:	4938      	ldr	r1, [pc, #224]	@ (8001328 <PCD_EP_OutXfrComplete_int+0xfc>)
 8001248:	428e      	cmp	r6, r1
 800124a:	d056      	beq.n	80012fa <PCD_EP_OutXfrComplete_int+0xce>
#endif /* USE_HAL_PCD_REGISTER_CALLBACKS */
      }
    }
    else
    {
      if ((epnum == 0U) && (hpcd->OUT_ep[epnum].xfer_len == 0U))
 800124c:	b93d      	cbnz	r5, 800125e <PCD_EP_OutXfrComplete_int+0x32>
 800124e:	eb05 03c5 	add.w	r3, r5, r5, lsl #3
 8001252:	eb04 0383 	add.w	r3, r4, r3, lsl #2
 8001256:	f8d3 3264 	ldr.w	r3, [r3, #612]	@ 0x264
 800125a:	2b00      	cmp	r3, #0
 800125c:	d05e      	beq.n	800131c <PCD_EP_OutXfrComplete_int+0xf0>
      }

#if (USE_HAL_PCD_REGISTER_CALLBACKS == 1U)
      hpcd->DataOutStageCallback(hpcd, (uint8_t)epnum);
#else
      HAL_PCD_DataOutStageCallback(hpcd, (uint8_t)epnum);
 800125e:	b2e9      	uxtb	r1, r5
 8001260:	4620      	mov	r0, r4
 8001262:	f003 ff33 	bl	80050cc <HAL_PCD_DataOutStageCallback>
#endif /* USE_HAL_PCD_REGISTER_CALLBACKS */
    }
  }

  return HAL_OK;
}
 8001266:	2000      	movs	r0, #0
 8001268:	bd70      	pop	{r4, r5, r6, pc}
    if ((DoepintReg & USB_OTG_DOEPINT_STUP) == USB_OTG_DOEPINT_STUP) /* Class C */
 800126a:	f012 0f08 	tst.w	r2, #8
 800126e:	d009      	beq.n	8001284 <PCD_EP_OutXfrComplete_int+0x58>
      if ((gSNPSiD > USB_OTG_CORE_ID_300A) &&
 8001270:	492e      	ldr	r1, [pc, #184]	@ (800132c <PCD_EP_OutXfrComplete_int+0x100>)
 8001272:	428e      	cmp	r6, r1
 8001274:	d9f7      	bls.n	8001266 <PCD_EP_OutXfrComplete_int+0x3a>
 8001276:	f412 4f00 	tst.w	r2, #32768	@ 0x8000
 800127a:	d0f4      	beq.n	8001266 <PCD_EP_OutXfrComplete_int+0x3a>
        CLEAR_OUT_EP_INTR(epnum, USB_OTG_DOEPINT_STPKTRX);
 800127c:	f44f 4200 	mov.w	r2, #32768	@ 0x8000
 8001280:	609a      	str	r2, [r3, #8]
 8001282:	e7f0      	b.n	8001266 <PCD_EP_OutXfrComplete_int+0x3a>
    else if ((DoepintReg & USB_OTG_DOEPINT_OTEPSPR) == USB_OTG_DOEPINT_OTEPSPR) /* Class E */
 8001284:	f012 0f20 	tst.w	r2, #32
 8001288:	d002      	beq.n	8001290 <PCD_EP_OutXfrComplete_int+0x64>
      CLEAR_OUT_EP_INTR(epnum, USB_OTG_DOEPINT_OTEPSPR);
 800128a:	2220      	movs	r2, #32
 800128c:	609a      	str	r2, [r3, #8]
 800128e:	e7ea      	b.n	8001266 <PCD_EP_OutXfrComplete_int+0x3a>
    else if ((DoepintReg & (USB_OTG_DOEPINT_STUP | USB_OTG_DOEPINT_OTEPSPR)) == 0U)
 8001290:	f012 0f28 	tst.w	r2, #40	@ 0x28
 8001294:	d1e7      	bne.n	8001266 <PCD_EP_OutXfrComplete_int+0x3a>
      if ((gSNPSiD > USB_OTG_CORE_ID_300A) &&
 8001296:	4925      	ldr	r1, [pc, #148]	@ (800132c <PCD_EP_OutXfrComplete_int+0x100>)
 8001298:	428e      	cmp	r6, r1
 800129a:	d906      	bls.n	80012aa <PCD_EP_OutXfrComplete_int+0x7e>
 800129c:	f412 4f00 	tst.w	r2, #32768	@ 0x8000
 80012a0:	d003      	beq.n	80012aa <PCD_EP_OutXfrComplete_int+0x7e>
        CLEAR_OUT_EP_INTR(epnum, USB_OTG_DOEPINT_STPKTRX);
 80012a2:	f44f 4200 	mov.w	r2, #32768	@ 0x8000
 80012a6:	609a      	str	r2, [r3, #8]
 80012a8:	e7dd      	b.n	8001266 <PCD_EP_OutXfrComplete_int+0x3a>
        ep->xfer_count = ep->xfer_size - (USBx_OUTEP(epnum)->DOEPTSIZ & USB_OTG_DOEPTSIZ_XFRSIZ);
 80012aa:	eb05 02c5 	add.w	r2, r5, r5, lsl #3
 80012ae:	eb04 0282 	add.w	r2, r4, r2, lsl #2
 80012b2:	f8d2 1274 	ldr.w	r1, [r2, #628]	@ 0x274
 80012b6:	691b      	ldr	r3, [r3, #16]
 80012b8:	f3c3 0312 	ubfx	r3, r3, #0, #19
 80012bc:	1acb      	subs	r3, r1, r3
 80012be:	f8c2 3268 	str.w	r3, [r2, #616]	@ 0x268
        if (epnum == 0U)
 80012c2:	b97d      	cbnz	r5, 80012e4 <PCD_EP_OutXfrComplete_int+0xb8>
          if (ep->xfer_len == 0U)
 80012c4:	eb05 02c5 	add.w	r2, r5, r5, lsl #3
 80012c8:	eb04 0282 	add.w	r2, r4, r2, lsl #2
 80012cc:	f8d2 2264 	ldr.w	r2, [r2, #612]	@ 0x264
 80012d0:	b16a      	cbz	r2, 80012ee <PCD_EP_OutXfrComplete_int+0xc2>
            ep->xfer_buff += ep->xfer_count;
 80012d2:	eb05 02c5 	add.w	r2, r5, r5, lsl #3
 80012d6:	eb04 0282 	add.w	r2, r4, r2, lsl #2
 80012da:	f8d2 1260 	ldr.w	r1, [r2, #608]	@ 0x260
 80012de:	4419      	add	r1, r3
 80012e0:	f8c2 1260 	str.w	r1, [r2, #608]	@ 0x260
        HAL_PCD_DataOutStageCallback(hpcd, (uint8_t)epnum);
 80012e4:	b2e9      	uxtb	r1, r5
 80012e6:	4620      	mov	r0, r4
 80012e8:	f003 fef0 	bl	80050cc <HAL_PCD_DataOutStageCallback>
 80012ec:	e7bb      	b.n	8001266 <PCD_EP_OutXfrComplete_int+0x3a>
            (void)USB_EP0_OutStart(hpcd->Instance, 1U, (uint8_t *)hpcd->Setup);
 80012ee:	f204 429c 	addw	r2, r4, #1180	@ 0x49c
 80012f2:	2101      	movs	r1, #1
 80012f4:	f003 faec 	bl	80048d0 <USB_EP0_OutStart>
 80012f8:	e7f4      	b.n	80012e4 <PCD_EP_OutXfrComplete_int+0xb8>
      if ((DoepintReg & USB_OTG_DOEPINT_STPKTRX) == USB_OTG_DOEPINT_STPKTRX)
 80012fa:	f412 4f00 	tst.w	r2, #32768	@ 0x8000
 80012fe:	d003      	beq.n	8001308 <PCD_EP_OutXfrComplete_int+0xdc>
        CLEAR_OUT_EP_INTR(epnum, USB_OTG_DOEPINT_STPKTRX);
 8001300:	f44f 4200 	mov.w	r2, #32768	@ 0x8000
 8001304:	609a      	str	r2, [r3, #8]
 8001306:	e7ae      	b.n	8001266 <PCD_EP_OutXfrComplete_int+0x3a>
        if ((DoepintReg & USB_OTG_DOEPINT_OTEPSPR) == USB_OTG_DOEPINT_OTEPSPR)
 8001308:	f012 0f20 	tst.w	r2, #32
 800130c:	d001      	beq.n	8001312 <PCD_EP_OutXfrComplete_int+0xe6>
          CLEAR_OUT_EP_INTR(epnum, USB_OTG_DOEPINT_OTEPSPR);
 800130e:	2220      	movs	r2, #32
 8001310:	609a      	str	r2, [r3, #8]
        HAL_PCD_DataOutStageCallback(hpcd, (uint8_t)epnum);
 8001312:	b2e9      	uxtb	r1, r5
 8001314:	4620      	mov	r0, r4
 8001316:	f003 fed9 	bl	80050cc <HAL_PCD_DataOutStageCallback>
 800131a:	e7a4      	b.n	8001266 <PCD_EP_OutXfrComplete_int+0x3a>
        (void)USB_EP0_OutStart(hpcd->Instance, 0U, (uint8_t *)hpcd->Setup);
 800131c:	f204 429c 	addw	r2, r4, #1180	@ 0x49c
 8001320:	2100      	movs	r1, #0
 8001322:	f003 fad5 	bl	80048d0 <USB_EP0_OutStart>
 8001326:	e79a      	b.n	800125e <PCD_EP_OutXfrComplete_int+0x32>
 8001328:	4f54310a 	.word	0x4f54310a
 800132c:	4f54300a 	.word	0x4f54300a

08001330 <PCD_EP_OutSetupPacket_int>:
  * @param  hpcd PCD handle
  * @param  epnum endpoint number
  * @retval HAL status
  */
static HAL_StatusTypeDef PCD_EP_OutSetupPacket_int(PCD_HandleTypeDef *hpcd, uint32_t epnum)
{
 8001330:	b538      	push	{r3, r4, r5, lr}
 8001332:	4604      	mov	r4, r0
  const USB_OTG_GlobalTypeDef *USBx = hpcd->Instance;
 8001334:	6803      	ldr	r3, [r0, #0]
  uint32_t USBx_BASE = (uint32_t)USBx;
  uint32_t gSNPSiD = *(__IO const uint32_t *)(&USBx->CID + 0x1U);
 8001336:	6c1d      	ldr	r5, [r3, #64]	@ 0x40
  uint32_t DoepintReg = USBx_OUTEP(epnum)->DOEPINT;
 8001338:	eb03 1341 	add.w	r3, r3, r1, lsl #5
 800133c:	f8d3 1b08 	ldr.w	r1, [r3, #2824]	@ 0xb08

  if ((gSNPSiD > USB_OTG_CORE_ID_300A) &&
 8001340:	4a0e      	ldr	r2, [pc, #56]	@ (800137c <PCD_EP_OutSetupPacket_int+0x4c>)
 8001342:	4295      	cmp	r5, r2
 8001344:	d907      	bls.n	8001356 <PCD_EP_OutSetupPacket_int+0x26>
 8001346:	f503 6330 	add.w	r3, r3, #2816	@ 0xb00
 800134a:	f411 4f00 	tst.w	r1, #32768	@ 0x8000
 800134e:	d002      	beq.n	8001356 <PCD_EP_OutSetupPacket_int+0x26>
      ((DoepintReg & USB_OTG_DOEPINT_STPKTRX) == USB_OTG_DOEPINT_STPKTRX))
  {
    CLEAR_OUT_EP_INTR(epnum, USB_OTG_DOEPINT_STPKTRX);
 8001350:	f44f 4200 	mov.w	r2, #32768	@ 0x8000
 8001354:	609a      	str	r2, [r3, #8]

  /* Inform the upper layer that a setup packet is available */
#if (USE_HAL_PCD_REGISTER_CALLBACKS == 1U)
  hpcd->SetupStageCallback(hpcd);
#else
  HAL_PCD_SetupStageCallback(hpcd);
 8001356:	4620      	mov	r0, r4
 8001358:	f003 feb0 	bl	80050bc <HAL_PCD_SetupStageCallback>
#endif /* USE_HAL_PCD_REGISTER_CALLBACKS */

  if ((gSNPSiD > USB_OTG_CORE_ID_300A) && (hpcd->Init.dma_enable == 1U))
 800135c:	4b07      	ldr	r3, [pc, #28]	@ (800137c <PCD_EP_OutSetupPacket_int+0x4c>)
 800135e:	429d      	cmp	r5, r3
 8001360:	d902      	bls.n	8001368 <PCD_EP_OutSetupPacket_int+0x38>
 8001362:	79a3      	ldrb	r3, [r4, #6]
 8001364:	2b01      	cmp	r3, #1
 8001366:	d001      	beq.n	800136c <PCD_EP_OutSetupPacket_int+0x3c>
  {
    (void)USB_EP0_OutStart(hpcd->Instance, 1U, (uint8_t *)hpcd->Setup);
  }

  return HAL_OK;
}
 8001368:	2000      	movs	r0, #0
 800136a:	bd38      	pop	{r3, r4, r5, pc}
    (void)USB_EP0_OutStart(hpcd->Instance, 1U, (uint8_t *)hpcd->Setup);
 800136c:	f204 429c 	addw	r2, r4, #1180	@ 0x49c
 8001370:	2101      	movs	r1, #1
 8001372:	6820      	ldr	r0, [r4, #0]
 8001374:	f003 faac 	bl	80048d0 <USB_EP0_OutStart>
 8001378:	e7f6      	b.n	8001368 <PCD_EP_OutSetupPacket_int+0x38>
 800137a:	bf00      	nop
 800137c:	4f54300a 	.word	0x4f54300a

08001380 <HAL_PCD_SetAddress>:
  __HAL_LOCK(hpcd);
 8001380:	f890 3494 	ldrb.w	r3, [r0, #1172]	@ 0x494
 8001384:	2b01      	cmp	r3, #1
 8001386:	d00c      	beq.n	80013a2 <HAL_PCD_SetAddress+0x22>
{
 8001388:	b510      	push	{r4, lr}
 800138a:	4604      	mov	r4, r0
  __HAL_LOCK(hpcd);
 800138c:	2301      	movs	r3, #1
 800138e:	f880 3494 	strb.w	r3, [r0, #1172]	@ 0x494
  hpcd->USB_Address = address;
 8001392:	7441      	strb	r1, [r0, #17]
  (void)USB_SetDevAddress(hpcd->Instance, address);
 8001394:	6800      	ldr	r0, [r0, #0]
 8001396:	f003 f9fd 	bl	8004794 <USB_SetDevAddress>
  __HAL_UNLOCK(hpcd);
 800139a:	2000      	movs	r0, #0
 800139c:	f884 0494 	strb.w	r0, [r4, #1172]	@ 0x494
}
 80013a0:	bd10      	pop	{r4, pc}
  __HAL_LOCK(hpcd);
 80013a2:	2002      	movs	r0, #2
}
 80013a4:	4770      	bx	lr

080013a6 <HAL_PCD_EP_Open>:
{
 80013a6:	b538      	push	{r3, r4, r5, lr}
 80013a8:	4605      	mov	r5, r0
 80013aa:	468c      	mov	ip, r1
  if ((ep_addr & 0x80U) == 0x80U)
 80013ac:	f011 0f80 	tst.w	r1, #128	@ 0x80
 80013b0:	d12b      	bne.n	800140a <HAL_PCD_EP_Open+0x64>
    ep = &hpcd->OUT_ep[ep_addr & EP_ADDR_MSK];
 80013b2:	f001 0e0f 	and.w	lr, r1, #15
 80013b6:	eb0e 04ce 	add.w	r4, lr, lr, lsl #3
 80013ba:	00a4      	lsls	r4, r4, #2
 80013bc:	f504 7414 	add.w	r4, r4, #592	@ 0x250
 80013c0:	4404      	add	r4, r0
 80013c2:	1d21      	adds	r1, r4, #4
    ep->is_in = 0U;
 80013c4:	eb0e 0ece 	add.w	lr, lr, lr, lsl #3
 80013c8:	eb00 0e8e 	add.w	lr, r0, lr, lsl #2
 80013cc:	2000      	movs	r0, #0
 80013ce:	f88e 0255 	strb.w	r0, [lr, #597]	@ 0x255
  ep->num = ep_addr & EP_ADDR_MSK;
 80013d2:	f00c 0c0f 	and.w	ip, ip, #15
 80013d6:	f881 c000 	strb.w	ip, [r1]
  ep->maxpacket = (uint32_t)ep_mps & 0x7FFU;
 80013da:	f3c2 020a 	ubfx	r2, r2, #0, #11
 80013de:	608a      	str	r2, [r1, #8]
  ep->type = ep_type;
 80013e0:	710b      	strb	r3, [r1, #4]
  if (ep->is_in != 0U)
 80013e2:	784a      	ldrb	r2, [r1, #1]
 80013e4:	b10a      	cbz	r2, 80013ea <HAL_PCD_EP_Open+0x44>
    ep->tx_fifo_num = ep->num;
 80013e6:	f8a1 c01a 	strh.w	ip, [r1, #26]
  if (ep_type == EP_TYPE_BULK)
 80013ea:	2b02      	cmp	r3, #2
 80013ec:	d01c      	beq.n	8001428 <HAL_PCD_EP_Open+0x82>
  __HAL_LOCK(hpcd);
 80013ee:	f895 3494 	ldrb.w	r3, [r5, #1172]	@ 0x494
 80013f2:	2b01      	cmp	r3, #1
 80013f4:	d01b      	beq.n	800142e <HAL_PCD_EP_Open+0x88>
 80013f6:	2301      	movs	r3, #1
 80013f8:	f885 3494 	strb.w	r3, [r5, #1172]	@ 0x494
  (void)USB_ActivateEndpoint(hpcd->Instance, ep);
 80013fc:	6828      	ldr	r0, [r5, #0]
 80013fe:	f002 fef7 	bl	80041f0 <USB_ActivateEndpoint>
  __HAL_UNLOCK(hpcd);
 8001402:	2000      	movs	r0, #0
 8001404:	f885 0494 	strb.w	r0, [r5, #1172]	@ 0x494
}
 8001408:	bd38      	pop	{r3, r4, r5, pc}
    ep = &hpcd->IN_ep[ep_addr & EP_ADDR_MSK];
 800140a:	f001 000f 	and.w	r0, r1, #15
 800140e:	eb00 01c0 	add.w	r1, r0, r0, lsl #3
 8001412:	0089      	lsls	r1, r1, #2
 8001414:	3110      	adds	r1, #16
 8001416:	4429      	add	r1, r5
 8001418:	3104      	adds	r1, #4
    ep->is_in = 1U;
 800141a:	eb00 00c0 	add.w	r0, r0, r0, lsl #3
 800141e:	eb05 0080 	add.w	r0, r5, r0, lsl #2
 8001422:	2401      	movs	r4, #1
 8001424:	7544      	strb	r4, [r0, #21]
 8001426:	e7d4      	b.n	80013d2 <HAL_PCD_EP_Open+0x2c>
    ep->data_pid_start = 0U;
 8001428:	2300      	movs	r3, #0
 800142a:	714b      	strb	r3, [r1, #5]
 800142c:	e7df      	b.n	80013ee <HAL_PCD_EP_Open+0x48>
  __HAL_LOCK(hpcd);
 800142e:	2002      	movs	r0, #2
 8001430:	e7ea      	b.n	8001408 <HAL_PCD_EP_Open+0x62>

08001432 <HAL_PCD_EP_Close>:
{
 8001432:	b510      	push	{r4, lr}
 8001434:	4604      	mov	r4, r0
 8001436:	460a      	mov	r2, r1
  if ((ep_addr & 0x80U) == 0x80U)
 8001438:	f011 0f80 	tst.w	r1, #128	@ 0x80
 800143c:	d120      	bne.n	8001480 <HAL_PCD_EP_Close+0x4e>
    ep = &hpcd->OUT_ep[ep_addr & EP_ADDR_MSK];
 800143e:	f001 000f 	and.w	r0, r1, #15
 8001442:	eb00 03c0 	add.w	r3, r0, r0, lsl #3
 8001446:	009b      	lsls	r3, r3, #2
 8001448:	f503 7314 	add.w	r3, r3, #592	@ 0x250
 800144c:	4423      	add	r3, r4
 800144e:	1d19      	adds	r1, r3, #4
    ep->is_in = 0U;
 8001450:	eb00 00c0 	add.w	r0, r0, r0, lsl #3
 8001454:	eb04 0080 	add.w	r0, r4, r0, lsl #2
 8001458:	2300      	movs	r3, #0
 800145a:	f880 3255 	strb.w	r3, [r0, #597]	@ 0x255
  ep->num = ep_addr & EP_ADDR_MSK;
 800145e:	f002 020f 	and.w	r2, r2, #15
 8001462:	700a      	strb	r2, [r1, #0]
  __HAL_LOCK(hpcd);
 8001464:	f894 3494 	ldrb.w	r3, [r4, #1172]	@ 0x494
 8001468:	2b01      	cmp	r3, #1
 800146a:	d018      	beq.n	800149e <HAL_PCD_EP_Close+0x6c>
 800146c:	2301      	movs	r3, #1
 800146e:	f884 3494 	strb.w	r3, [r4, #1172]	@ 0x494
  (void)USB_DeactivateEndpoint(hpcd->Instance, ep);
 8001472:	6820      	ldr	r0, [r4, #0]
 8001474:	f002 ff08 	bl	8004288 <USB_DeactivateEndpoint>
  __HAL_UNLOCK(hpcd);
 8001478:	2000      	movs	r0, #0
 800147a:	f884 0494 	strb.w	r0, [r4, #1172]	@ 0x494
}
 800147e:	bd10      	pop	{r4, pc}
    ep = &hpcd->IN_ep[ep_addr & EP_ADDR_MSK];
 8001480:	f001 000f 	and.w	r0, r1, #15
 8001484:	eb00 03c0 	add.w	r3, r0, r0, lsl #3
 8001488:	009b      	lsls	r3, r3, #2
 800148a:	3310      	adds	r3, #16
 800148c:	4423      	add	r3, r4
 800148e:	1d19      	adds	r1, r3, #4
    ep->is_in = 1U;
 8001490:	eb00 00c0 	add.w	r0, r0, r0, lsl #3
 8001494:	eb04 0080 	add.w	r0, r4, r0, lsl #2
 8001498:	2301      	movs	r3, #1
 800149a:	7543      	strb	r3, [r0, #21]
 800149c:	e7df      	b.n	800145e <HAL_PCD_EP_Close+0x2c>
  __HAL_LOCK(hpcd);
 800149e:	2002      	movs	r0, #2
 80014a0:	e7ed      	b.n	800147e <HAL_PCD_EP_Close+0x4c>

080014a2 <HAL_PCD_EP_Receive>:
{
 80014a2:	b510      	push	{r4, lr}
 80014a4:	4614      	mov	r4, r2
  ep = &hpcd->OUT_ep[ep_addr & EP_ADDR_MSK];
 80014a6:	f001 0c0f 	and.w	ip, r1, #15
 80014aa:	eb0c 01cc 	add.w	r1, ip, ip, lsl #3
 80014ae:	0089      	lsls	r1, r1, #2
 80014b0:	f501 7114 	add.w	r1, r1, #592	@ 0x250
 80014b4:	4401      	add	r1, r0
 80014b6:	3104      	adds	r1, #4
  ep->xfer_buff = pBuf;
 80014b8:	eb0c 0ecc 	add.w	lr, ip, ip, lsl #3
 80014bc:	eb00 0e8e 	add.w	lr, r0, lr, lsl #2
 80014c0:	f8ce 2260 	str.w	r2, [lr, #608]	@ 0x260
  ep->xfer_len = len;
 80014c4:	f8ce 3264 	str.w	r3, [lr, #612]	@ 0x264
  ep->xfer_count = 0U;
 80014c8:	2300      	movs	r3, #0
 80014ca:	f8ce 3268 	str.w	r3, [lr, #616]	@ 0x268
  ep->is_in = 0U;
 80014ce:	f88e 3255 	strb.w	r3, [lr, #597]	@ 0x255
  ep->num = ep_addr & EP_ADDR_MSK;
 80014d2:	f88e c254 	strb.w	ip, [lr, #596]	@ 0x254
  if (hpcd->Init.dma_enable == 1U)
 80014d6:	7982      	ldrb	r2, [r0, #6]
 80014d8:	2a01      	cmp	r2, #1
 80014da:	d004      	beq.n	80014e6 <HAL_PCD_EP_Receive+0x44>
  (void)USB_EPStartXfer(hpcd->Instance, ep, (uint8_t)hpcd->Init.dma_enable);
 80014dc:	6800      	ldr	r0, [r0, #0]
 80014de:	f002 ffb9 	bl	8004454 <USB_EPStartXfer>
}
 80014e2:	2000      	movs	r0, #0
 80014e4:	bd10      	pop	{r4, pc}
    ep->dma_addr = (uint32_t)pBuf;
 80014e6:	f8ce 4270 	str.w	r4, [lr, #624]	@ 0x270
 80014ea:	e7f7      	b.n	80014dc <HAL_PCD_EP_Receive+0x3a>

080014ec <HAL_PCD_EP_GetRxCount>:
  return hpcd->OUT_ep[ep_addr & EP_ADDR_MSK].xfer_count;
 80014ec:	f001 010f 	and.w	r1, r1, #15
 80014f0:	eb01 01c1 	add.w	r1, r1, r1, lsl #3
 80014f4:	eb00 0081 	add.w	r0, r0, r1, lsl #2
}
 80014f8:	f8d0 0268 	ldr.w	r0, [r0, #616]	@ 0x268
 80014fc:	4770      	bx	lr

080014fe <HAL_PCD_EP_Transmit>:
{
 80014fe:	b510      	push	{r4, lr}
 8001500:	4614      	mov	r4, r2
  ep = &hpcd->IN_ep[ep_addr & EP_ADDR_MSK];
 8001502:	f001 0c0f 	and.w	ip, r1, #15
 8001506:	eb0c 01cc 	add.w	r1, ip, ip, lsl #3
 800150a:	0089      	lsls	r1, r1, #2
 800150c:	3110      	adds	r1, #16
 800150e:	4401      	add	r1, r0
 8001510:	3104      	adds	r1, #4
  ep->xfer_buff = pBuf;
 8001512:	eb0c 0ecc 	add.w	lr, ip, ip, lsl #3
 8001516:	eb00 0e8e 	add.w	lr, r0, lr, lsl #2
 800151a:	f8ce 2020 	str.w	r2, [lr, #32]
  ep->xfer_len = len;
 800151e:	f8ce 3024 	str.w	r3, [lr, #36]	@ 0x24
  ep->xfer_count = 0U;
 8001522:	2300      	movs	r3, #0
 8001524:	f8ce 3028 	str.w	r3, [lr, #40]	@ 0x28
  ep->is_in = 1U;
 8001528:	2301      	movs	r3, #1
 800152a:	f88e 3015 	strb.w	r3, [lr, #21]
  ep->num = ep_addr & EP_ADDR_MSK;
 800152e:	f88e c014 	strb.w	ip, [lr, #20]
  if (hpcd->Init.dma_enable == 1U)
 8001532:	7982      	ldrb	r2, [r0, #6]
 8001534:	429a      	cmp	r2, r3
 8001536:	d004      	beq.n	8001542 <HAL_PCD_EP_Transmit+0x44>
  (void)USB_EPStartXfer(hpcd->Instance, ep, (uint8_t)hpcd->Init.dma_enable);
 8001538:	6800      	ldr	r0, [r0, #0]
 800153a:	f002 ff8b 	bl	8004454 <USB_EPStartXfer>
}
 800153e:	2000      	movs	r0, #0
 8001540:	bd10      	pop	{r4, pc}
    ep->dma_addr = (uint32_t)pBuf;
 8001542:	f8ce 4030 	str.w	r4, [lr, #48]	@ 0x30
 8001546:	e7f7      	b.n	8001538 <HAL_PCD_EP_Transmit+0x3a>

08001548 <HAL_PCD_EP_SetStall>:
{
 8001548:	b538      	push	{r3, r4, r5, lr}
  if (((uint32_t)ep_addr & EP_ADDR_MSK) > hpcd->Init.dev_endpoints)
 800154a:	f001 050f 	and.w	r5, r1, #15
 800154e:	7902      	ldrb	r2, [r0, #4]
 8001550:	42aa      	cmp	r2, r5
 8001552:	d338      	bcc.n	80015c6 <HAL_PCD_EP_SetStall+0x7e>
 8001554:	4604      	mov	r4, r0
 8001556:	460b      	mov	r3, r1
  if ((0x80U & ep_addr) == 0x80U)
 8001558:	f011 0f80 	tst.w	r1, #128	@ 0x80
 800155c:	d11f      	bne.n	800159e <HAL_PCD_EP_SetStall+0x56>
    ep = &hpcd->OUT_ep[ep_addr];
 800155e:	eb01 01c1 	add.w	r1, r1, r1, lsl #3
 8001562:	0089      	lsls	r1, r1, #2
 8001564:	f501 7114 	add.w	r1, r1, #592	@ 0x250
 8001568:	4401      	add	r1, r0
 800156a:	3104      	adds	r1, #4
    ep->is_in = 0U;
 800156c:	eb03 03c3 	add.w	r3, r3, r3, lsl #3
 8001570:	eb00 0383 	add.w	r3, r0, r3, lsl #2
 8001574:	2200      	movs	r2, #0
 8001576:	f883 2255 	strb.w	r2, [r3, #597]	@ 0x255
  ep->is_stall = 1U;
 800157a:	2301      	movs	r3, #1
 800157c:	708b      	strb	r3, [r1, #2]
  ep->num = ep_addr & EP_ADDR_MSK;
 800157e:	700d      	strb	r5, [r1, #0]
  __HAL_LOCK(hpcd);
 8001580:	f894 3494 	ldrb.w	r3, [r4, #1172]	@ 0x494
 8001584:	2b01      	cmp	r3, #1
 8001586:	d020      	beq.n	80015ca <HAL_PCD_EP_SetStall+0x82>
 8001588:	2301      	movs	r3, #1
 800158a:	f884 3494 	strb.w	r3, [r4, #1172]	@ 0x494
  (void)USB_EPSetStall(hpcd->Instance, ep);
 800158e:	6820      	ldr	r0, [r4, #0]
 8001590:	f003 f8a5 	bl	80046de <USB_EPSetStall>
  if ((ep_addr & EP_ADDR_MSK) == 0U)
 8001594:	b185      	cbz	r5, 80015b8 <HAL_PCD_EP_SetStall+0x70>
  __HAL_UNLOCK(hpcd);
 8001596:	2000      	movs	r0, #0
 8001598:	f884 0494 	strb.w	r0, [r4, #1172]	@ 0x494
}
 800159c:	bd38      	pop	{r3, r4, r5, pc}
    ep = &hpcd->IN_ep[ep_addr & EP_ADDR_MSK];
 800159e:	eb05 01c5 	add.w	r1, r5, r5, lsl #3
 80015a2:	0089      	lsls	r1, r1, #2
 80015a4:	3110      	adds	r1, #16
 80015a6:	4401      	add	r1, r0
 80015a8:	3104      	adds	r1, #4
    ep->is_in = 1U;
 80015aa:	eb05 03c5 	add.w	r3, r5, r5, lsl #3
 80015ae:	eb00 0383 	add.w	r3, r0, r3, lsl #2
 80015b2:	2201      	movs	r2, #1
 80015b4:	755a      	strb	r2, [r3, #21]
 80015b6:	e7e0      	b.n	800157a <HAL_PCD_EP_SetStall+0x32>
    (void)USB_EP0_OutStart(hpcd->Instance, (uint8_t)hpcd->Init.dma_enable, (uint8_t *)hpcd->Setup);
 80015b8:	f204 429c 	addw	r2, r4, #1180	@ 0x49c
 80015bc:	79a1      	ldrb	r1, [r4, #6]
 80015be:	6820      	ldr	r0, [r4, #0]
 80015c0:	f003 f986 	bl	80048d0 <USB_EP0_OutStart>
 80015c4:	e7e7      	b.n	8001596 <HAL_PCD_EP_SetStall+0x4e>
    return HAL_ERROR;
 80015c6:	2001      	movs	r0, #1
 80015c8:	e7e8      	b.n	800159c <HAL_PCD_EP_SetStall+0x54>
  __HAL_LOCK(hpcd);
 80015ca:	2002      	movs	r0, #2
 80015cc:	e7e6      	b.n	800159c <HAL_PCD_EP_SetStall+0x54>

080015ce <HAL_PCD_EP_ClrStall>:
  if (((uint32_t)ep_addr & 0x0FU) > hpcd->Init.dev_endpoints)
 80015ce:	f001 030f 	and.w	r3, r1, #15
 80015d2:	7902      	ldrb	r2, [r0, #4]
 80015d4:	429a      	cmp	r2, r3
 80015d6:	d330      	bcc.n	800163a <HAL_PCD_EP_ClrStall+0x6c>
{
 80015d8:	b510      	push	{r4, lr}
 80015da:	4604      	mov	r4, r0
  if ((0x80U & ep_addr) == 0x80U)
 80015dc:	f011 0f80 	tst.w	r1, #128	@ 0x80
 80015e0:	d11e      	bne.n	8001620 <HAL_PCD_EP_ClrStall+0x52>
    ep = &hpcd->OUT_ep[ep_addr & EP_ADDR_MSK];
 80015e2:	eb03 01c3 	add.w	r1, r3, r3, lsl #3
 80015e6:	0089      	lsls	r1, r1, #2
 80015e8:	f501 7114 	add.w	r1, r1, #592	@ 0x250
 80015ec:	4401      	add	r1, r0
 80015ee:	3104      	adds	r1, #4
    ep->is_in = 0U;
 80015f0:	eb03 02c3 	add.w	r2, r3, r3, lsl #3
 80015f4:	eb00 0282 	add.w	r2, r0, r2, lsl #2
 80015f8:	2000      	movs	r0, #0
 80015fa:	f882 0255 	strb.w	r0, [r2, #597]	@ 0x255
  ep->is_stall = 0U;
 80015fe:	2200      	movs	r2, #0
 8001600:	708a      	strb	r2, [r1, #2]
  ep->num = ep_addr & EP_ADDR_MSK;
 8001602:	700b      	strb	r3, [r1, #0]
  __HAL_LOCK(hpcd);
 8001604:	f894 3494 	ldrb.w	r3, [r4, #1172]	@ 0x494
 8001608:	2b01      	cmp	r3, #1
 800160a:	d018      	beq.n	800163e <HAL_PCD_EP_ClrStall+0x70>
 800160c:	2301      	movs	r3, #1
 800160e:	f884 3494 	strb.w	r3, [r4, #1172]	@ 0x494
  (void)USB_EPClearStall(hpcd->Instance, ep);
 8001612:	6820      	ldr	r0, [r4, #0]
 8001614:	f003 f890 	bl	8004738 <USB_EPClearStall>
  __HAL_UNLOCK(hpcd);
 8001618:	2000      	movs	r0, #0
 800161a:	f884 0494 	strb.w	r0, [r4, #1172]	@ 0x494
}
 800161e:	bd10      	pop	{r4, pc}
    ep = &hpcd->IN_ep[ep_addr & EP_ADDR_MSK];
 8001620:	eb03 01c3 	add.w	r1, r3, r3, lsl #3
 8001624:	0089      	lsls	r1, r1, #2
 8001626:	3110      	adds	r1, #16
 8001628:	4401      	add	r1, r0
 800162a:	3104      	adds	r1, #4
    ep->is_in = 1U;
 800162c:	eb03 02c3 	add.w	r2, r3, r3, lsl #3
 8001630:	eb00 0282 	add.w	r2, r0, r2, lsl #2
 8001634:	2001      	movs	r0, #1
 8001636:	7550      	strb	r0, [r2, #21]
 8001638:	e7e1      	b.n	80015fe <HAL_PCD_EP_ClrStall+0x30>
    return HAL_ERROR;
 800163a:	2001      	movs	r0, #1
}
 800163c:	4770      	bx	lr
  __HAL_LOCK(hpcd);
 800163e:	2002      	movs	r0, #2
 8001640:	e7ed      	b.n	800161e <HAL_PCD_EP_ClrStall+0x50>

08001642 <HAL_PCD_EP_Abort>:
{
 8001642:	b508      	push	{r3, lr}
  if ((0x80U & ep_addr) == 0x80U)
 8001644:	f011 0f80 	tst.w	r1, #128	@ 0x80
 8001648:	d10c      	bne.n	8001664 <HAL_PCD_EP_Abort+0x22>
    ep = &hpcd->OUT_ep[ep_addr & EP_ADDR_MSK];
 800164a:	f001 010f 	and.w	r1, r1, #15
 800164e:	eb01 01c1 	add.w	r1, r1, r1, lsl #3
 8001652:	0089      	lsls	r1, r1, #2
 8001654:	f501 7114 	add.w	r1, r1, #592	@ 0x250
 8001658:	4401      	add	r1, r0
 800165a:	3104      	adds	r1, #4
  ret = USB_EPStopXfer(hpcd->Instance, ep);
 800165c:	6800      	ldr	r0, [r0, #0]
 800165e:	f002 fe83 	bl	8004368 <USB_EPStopXfer>
}
 8001662:	bd08      	pop	{r3, pc}
    ep = &hpcd->IN_ep[ep_addr & EP_ADDR_MSK];
 8001664:	f001 010f 	and.w	r1, r1, #15
 8001668:	eb01 01c1 	add.w	r1, r1, r1, lsl #3
 800166c:	0089      	lsls	r1, r1, #2
 800166e:	3110      	adds	r1, #16
 8001670:	4401      	add	r1, r0
 8001672:	3104      	adds	r1, #4
 8001674:	e7f2      	b.n	800165c <HAL_PCD_EP_Abort+0x1a>

08001676 <HAL_PCD_IRQHandler>:
{
 8001676:	e92d 4ff0 	stmdb	sp!, {r4, r5, r6, r7, r8, r9, sl, fp, lr}
 800167a:	b083      	sub	sp, #12
 800167c:	4604      	mov	r4, r0
  USB_OTG_GlobalTypeDef *USBx = hpcd->Instance;
 800167e:	6805      	ldr	r5, [r0, #0]
  if (USB_GetMode(hpcd->Instance) == USB_OTG_MODE_DEVICE)
 8001680:	4628      	mov	r0, r5
 8001682:	f003 f8e2 	bl	800484a <USB_GetMode>
 8001686:	b110      	cbz	r0, 800168e <HAL_PCD_IRQHandler+0x18>
}
 8001688:	b003      	add	sp, #12
 800168a:	e8bd 8ff0 	ldmia.w	sp!, {r4, r5, r6, r7, r8, r9, sl, fp, pc}
 800168e:	4606      	mov	r6, r0
    if (__HAL_PCD_IS_INVALID_INTERRUPT(hpcd))
 8001690:	6820      	ldr	r0, [r4, #0]
 8001692:	f003 f8ab 	bl	80047ec <USB_ReadInterrupts>
 8001696:	2800      	cmp	r0, #0
 8001698:	d0f6      	beq.n	8001688 <HAL_PCD_IRQHandler+0x12>
    hpcd->FrameNumber = (USBx_DEVICE->DSTS & USB_OTG_DSTS_FNSOF_Msk) >> USB_OTG_DSTS_FNSOF_Pos;
 800169a:	f505 6700 	add.w	r7, r5, #2048	@ 0x800
 800169e:	68bb      	ldr	r3, [r7, #8]
 80016a0:	f3c3 230d 	ubfx	r3, r3, #8, #14
 80016a4:	f8c4 34d4 	str.w	r3, [r4, #1236]	@ 0x4d4
    if (__HAL_PCD_GET_FLAG(hpcd, USB_OTG_GINTSTS_MMIS))
 80016a8:	6820      	ldr	r0, [r4, #0]
 80016aa:	f003 f89f 	bl	80047ec <USB_ReadInterrupts>
 80016ae:	f010 0f02 	tst.w	r0, #2
 80016b2:	d004      	beq.n	80016be <HAL_PCD_IRQHandler+0x48>
      __HAL_PCD_CLEAR_FLAG(hpcd, USB_OTG_GINTSTS_MMIS);
 80016b4:	6822      	ldr	r2, [r4, #0]
 80016b6:	6953      	ldr	r3, [r2, #20]
 80016b8:	f003 0302 	and.w	r3, r3, #2
 80016bc:	6153      	str	r3, [r2, #20]
    if (__HAL_PCD_GET_FLAG(hpcd, USB_OTG_GINTSTS_RXFLVL))
 80016be:	6820      	ldr	r0, [r4, #0]
 80016c0:	f003 f894 	bl	80047ec <USB_ReadInterrupts>
 80016c4:	f010 0f10 	tst.w	r0, #16
 80016c8:	d016      	beq.n	80016f8 <HAL_PCD_IRQHandler+0x82>
      USB_MASK_INTERRUPT(hpcd->Instance, USB_OTG_GINTSTS_RXFLVL);
 80016ca:	6822      	ldr	r2, [r4, #0]
 80016cc:	6993      	ldr	r3, [r2, #24]
 80016ce:	f023 0310 	bic.w	r3, r3, #16
 80016d2:	6193      	str	r3, [r2, #24]
      RegVal = USBx->GRXSTSP;
 80016d4:	f8d5 8020 	ldr.w	r8, [r5, #32]
      ep = &hpcd->OUT_ep[RegVal & USB_OTG_GRXSTSP_EPNUM];
 80016d8:	f008 090f 	and.w	r9, r8, #15
      if (((RegVal & USB_OTG_GRXSTSP_PKTSTS) >> 17) ==  STS_DATA_UPDT)
 80016dc:	f408 13f0 	and.w	r3, r8, #1966080	@ 0x1e0000
 80016e0:	f5b3 2f80 	cmp.w	r3, #262144	@ 0x40000
 80016e4:	d06a      	beq.n	80017bc <HAL_PCD_IRQHandler+0x146>
      else if (((RegVal & USB_OTG_GRXSTSP_PKTSTS) >> 17) == STS_SETUP_UPDT)
 80016e6:	f5b3 2f40 	cmp.w	r3, #786432	@ 0xc0000
 80016ea:	f000 808d 	beq.w	8001808 <HAL_PCD_IRQHandler+0x192>
      USB_UNMASK_INTERRUPT(hpcd->Instance, USB_OTG_GINTSTS_RXFLVL);
 80016ee:	6822      	ldr	r2, [r4, #0]
 80016f0:	6993      	ldr	r3, [r2, #24]
 80016f2:	f043 0310 	orr.w	r3, r3, #16
 80016f6:	6193      	str	r3, [r2, #24]
    if (__HAL_PCD_GET_FLAG(hpcd, USB_OTG_GINTSTS_OEPINT))
 80016f8:	6820      	ldr	r0, [r4, #0]
 80016fa:	f003 f877 	bl	80047ec <USB_ReadInterrupts>
 80016fe:	f410 2f00 	tst.w	r0, #524288	@ 0x80000
 8001702:	f040 8093 	bne.w	800182c <HAL_PCD_IRQHandler+0x1b6>
    if (__HAL_PCD_GET_FLAG(hpcd, USB_OTG_GINTSTS_IEPINT))
 8001706:	6820      	ldr	r0, [r4, #0]
 8001708:	f003 f870 	bl	80047ec <USB_ReadInterrupts>
 800170c:	f410 2f80 	tst.w	r0, #262144	@ 0x40000
 8001710:	f040 80fc 	bne.w	800190c <HAL_PCD_IRQHandler+0x296>
    if (__HAL_PCD_GET_FLAG(hpcd, USB_OTG_GINTSTS_WKUINT))
 8001714:	6820      	ldr	r0, [r4, #0]
 8001716:	f003 f869 	bl	80047ec <USB_ReadInterrupts>
 800171a:	2800      	cmp	r0, #0
 800171c:	f2c0 817d 	blt.w	8001a1a <HAL_PCD_IRQHandler+0x3a4>
    if (__HAL_PCD_GET_FLAG(hpcd, USB_OTG_GINTSTS_USBSUSP))
 8001720:	6820      	ldr	r0, [r4, #0]
 8001722:	f003 f863 	bl	80047ec <USB_ReadInterrupts>
 8001726:	f410 6f00 	tst.w	r0, #2048	@ 0x800
 800172a:	d009      	beq.n	8001740 <HAL_PCD_IRQHandler+0xca>
      if ((USBx_DEVICE->DSTS & USB_OTG_DSTS_SUSPSTS) == USB_OTG_DSTS_SUSPSTS)
 800172c:	68bb      	ldr	r3, [r7, #8]
 800172e:	f013 0f01 	tst.w	r3, #1
 8001732:	f040 818a 	bne.w	8001a4a <HAL_PCD_IRQHandler+0x3d4>
      __HAL_PCD_CLEAR_FLAG(hpcd, USB_OTG_GINTSTS_USBSUSP);
 8001736:	6822      	ldr	r2, [r4, #0]
 8001738:	6953      	ldr	r3, [r2, #20]
 800173a:	f403 6300 	and.w	r3, r3, #2048	@ 0x800
 800173e:	6153      	str	r3, [r2, #20]
    if (__HAL_PCD_GET_FLAG(hpcd, USB_OTG_GINTSTS_LPMINT))
 8001740:	6820      	ldr	r0, [r4, #0]
 8001742:	f003 f853 	bl	80047ec <USB_ReadInterrupts>
 8001746:	f010 6f00 	tst.w	r0, #134217728	@ 0x8000000
 800174a:	d015      	beq.n	8001778 <HAL_PCD_IRQHandler+0x102>
      __HAL_PCD_CLEAR_FLAG(hpcd, USB_OTG_GINTSTS_LPMINT);
 800174c:	6822      	ldr	r2, [r4, #0]
 800174e:	6953      	ldr	r3, [r2, #20]
 8001750:	f003 6300 	and.w	r3, r3, #134217728	@ 0x8000000
 8001754:	6153      	str	r3, [r2, #20]
      if (hpcd->LPM_State == LPM_L0)
 8001756:	f894 34cc 	ldrb.w	r3, [r4, #1228]	@ 0x4cc
 800175a:	2b00      	cmp	r3, #0
 800175c:	f040 8179 	bne.w	8001a52 <HAL_PCD_IRQHandler+0x3dc>
        hpcd->LPM_State = LPM_L1;
 8001760:	2101      	movs	r1, #1
 8001762:	f884 14cc 	strb.w	r1, [r4, #1228]	@ 0x4cc
        hpcd->BESL = (hpcd->Instance->GLPMCFG & USB_OTG_GLPMCFG_BESL) >> 2U;
 8001766:	6823      	ldr	r3, [r4, #0]
 8001768:	6d5b      	ldr	r3, [r3, #84]	@ 0x54
 800176a:	f3c3 0383 	ubfx	r3, r3, #2, #4
 800176e:	f8c4 34d0 	str.w	r3, [r4, #1232]	@ 0x4d0
        HAL_PCDEx_LPM_Callback(hpcd, PCD_LPM_L1_ACTIVE);
 8001772:	4620      	mov	r0, r4
 8001774:	f000 fabe 	bl	8001cf4 <HAL_PCDEx_LPM_Callback>
    if (__HAL_PCD_GET_FLAG(hpcd, USB_OTG_GINTSTS_USBRST))
 8001778:	6820      	ldr	r0, [r4, #0]
 800177a:	f003 f837 	bl	80047ec <USB_ReadInterrupts>
 800177e:	f410 5f80 	tst.w	r0, #4096	@ 0x1000
 8001782:	f040 816a 	bne.w	8001a5a <HAL_PCD_IRQHandler+0x3e4>
    if (__HAL_PCD_GET_FLAG(hpcd, USB_OTG_GINTSTS_ENUMDNE))
 8001786:	6820      	ldr	r0, [r4, #0]
 8001788:	f003 f830 	bl	80047ec <USB_ReadInterrupts>
 800178c:	f410 5f00 	tst.w	r0, #8192	@ 0x2000
 8001790:	f040 81b6 	bne.w	8001b00 <HAL_PCD_IRQHandler+0x48a>
    if (__HAL_PCD_GET_FLAG(hpcd, USB_OTG_GINTSTS_SOF))
 8001794:	6820      	ldr	r0, [r4, #0]
 8001796:	f003 f829 	bl	80047ec <USB_ReadInterrupts>
 800179a:	f010 0f08 	tst.w	r0, #8
 800179e:	f040 81c7 	bne.w	8001b30 <HAL_PCD_IRQHandler+0x4ba>
    if (__HAL_PCD_GET_FLAG(hpcd, USB_OTG_GINTSTS_BOUTNAKEFF))
 80017a2:	6820      	ldr	r0, [r4, #0]
 80017a4:	f003 f822 	bl	80047ec <USB_ReadInterrupts>
 80017a8:	f010 0f80 	tst.w	r0, #128	@ 0x80
 80017ac:	f000 81da 	beq.w	8001b64 <HAL_PCD_IRQHandler+0x4ee>
      USBx->GINTMSK &= ~USB_OTG_GINTMSK_GONAKEFFM;
 80017b0:	69ab      	ldr	r3, [r5, #24]
 80017b2:	f023 0380 	bic.w	r3, r3, #128	@ 0x80
 80017b6:	61ab      	str	r3, [r5, #24]
      for (epnum = 1U; epnum < hpcd->Init.dev_endpoints; epnum++)
 80017b8:	2601      	movs	r6, #1
 80017ba:	e1c3      	b.n	8001b44 <HAL_PCD_IRQHandler+0x4ce>
        if ((RegVal & USB_OTG_GRXSTSP_BCNT) != 0U)
 80017bc:	f647 73f0 	movw	r3, #32752	@ 0x7ff0
 80017c0:	ea18 0f03 	tst.w	r8, r3
 80017c4:	d093      	beq.n	80016ee <HAL_PCD_IRQHandler+0x78>
                               (uint16_t)((RegVal & USB_OTG_GRXSTSP_BCNT) >> 4));
 80017c6:	ea4f 1a18 	mov.w	sl, r8, lsr #4
          (void)USB_ReadPacket(USBx, ep->xfer_buff,
 80017ca:	ea4f 03c9 	mov.w	r3, r9, lsl #3
 80017ce:	9301      	str	r3, [sp, #4]
 80017d0:	eb09 0bc9 	add.w	fp, r9, r9, lsl #3
 80017d4:	eb04 0b8b 	add.w	fp, r4, fp, lsl #2
 80017d8:	f3c8 120a 	ubfx	r2, r8, #4, #11
 80017dc:	f8db 1260 	ldr.w	r1, [fp, #608]	@ 0x260
 80017e0:	4628      	mov	r0, r5
 80017e2:	f002 ff59 	bl	8004698 <USB_ReadPacket>
          ep->xfer_buff += (RegVal & USB_OTG_GRXSTSP_BCNT) >> 4;
 80017e6:	f8db 3260 	ldr.w	r3, [fp, #608]	@ 0x260
 80017ea:	f3ca 0a0a 	ubfx	sl, sl, #0, #11
 80017ee:	4453      	add	r3, sl
 80017f0:	f8cb 3260 	str.w	r3, [fp, #608]	@ 0x260
          ep->xfer_count += (RegVal & USB_OTG_GRXSTSP_BCNT) >> 4;
 80017f4:	f8db 3268 	ldr.w	r3, [fp, #616]	@ 0x268
 80017f8:	9a01      	ldr	r2, [sp, #4]
 80017fa:	444a      	add	r2, r9
 80017fc:	eb04 0282 	add.w	r2, r4, r2, lsl #2
 8001800:	4453      	add	r3, sl
 8001802:	f8c2 3268 	str.w	r3, [r2, #616]	@ 0x268
 8001806:	e772      	b.n	80016ee <HAL_PCD_IRQHandler+0x78>
        (void)USB_ReadPacket(USBx, (uint8_t *)hpcd->Setup, 8U);
 8001808:	2208      	movs	r2, #8
 800180a:	f204 419c 	addw	r1, r4, #1180	@ 0x49c
 800180e:	4628      	mov	r0, r5
 8001810:	f002 ff42 	bl	8004698 <USB_ReadPacket>
        ep->xfer_count += (RegVal & USB_OTG_GRXSTSP_BCNT) >> 4;
 8001814:	eb09 03c9 	add.w	r3, r9, r9, lsl #3
 8001818:	eb04 0383 	add.w	r3, r4, r3, lsl #2
 800181c:	f8d3 2268 	ldr.w	r2, [r3, #616]	@ 0x268
 8001820:	f3c8 180a 	ubfx	r8, r8, #4, #11
 8001824:	4442      	add	r2, r8
 8001826:	f8c3 2268 	str.w	r2, [r3, #616]	@ 0x268
 800182a:	e760      	b.n	80016ee <HAL_PCD_IRQHandler+0x78>
      ep_intr = USB_ReadDevAllOutEpInterrupt(hpcd->Instance);
 800182c:	6820      	ldr	r0, [r4, #0]
 800182e:	f002 ffe1 	bl	80047f4 <USB_ReadDevAllOutEpInterrupt>
 8001832:	4680      	mov	r8, r0
      epnum = 0U;
 8001834:	46b1      	mov	r9, r6
      while (ep_intr != 0U)
 8001836:	e035      	b.n	80018a4 <HAL_PCD_IRQHandler+0x22e>
            CLEAR_OUT_EP_INTR(epnum, USB_OTG_DOEPINT_XFRC);
 8001838:	eb05 1349 	add.w	r3, r5, r9, lsl #5
 800183c:	2201      	movs	r2, #1
 800183e:	f8c3 2b08 	str.w	r2, [r3, #2824]	@ 0xb08
            (void)PCD_EP_OutXfrComplete_int(hpcd, epnum);
 8001842:	4649      	mov	r1, r9
 8001844:	4620      	mov	r0, r4
 8001846:	f7ff fcf1 	bl	800122c <PCD_EP_OutXfrComplete_int>
 800184a:	e03c      	b.n	80018c6 <HAL_PCD_IRQHandler+0x250>
            CLEAR_OUT_EP_INTR(epnum, USB_OTG_DOEPINT_STUP);
 800184c:	eb05 1349 	add.w	r3, r5, r9, lsl #5
 8001850:	2208      	movs	r2, #8
 8001852:	f8c3 2b08 	str.w	r2, [r3, #2824]	@ 0xb08
            (void)PCD_EP_OutSetupPacket_int(hpcd, epnum);
 8001856:	4649      	mov	r1, r9
 8001858:	4620      	mov	r0, r4
 800185a:	f7ff fd69 	bl	8001330 <PCD_EP_OutSetupPacket_int>
 800185e:	e035      	b.n	80018cc <HAL_PCD_IRQHandler+0x256>
            if (ep->is_iso_incomplete == 1U)
 8001860:	eb09 03c9 	add.w	r3, r9, r9, lsl #3
 8001864:	eb04 0383 	add.w	r3, r4, r3, lsl #2
 8001868:	f893 3257 	ldrb.w	r3, [r3, #599]	@ 0x257
 800186c:	2b01      	cmp	r3, #1
 800186e:	d041      	beq.n	80018f4 <HAL_PCD_IRQHandler+0x27e>
            CLEAR_OUT_EP_INTR(epnum, USB_OTG_DOEPINT_EPDISD);
 8001870:	eb05 1349 	add.w	r3, r5, r9, lsl #5
 8001874:	2202      	movs	r2, #2
 8001876:	f8c3 2b08 	str.w	r2, [r3, #2824]	@ 0xb08
          if ((epint & USB_OTG_DOEPINT_OTEPSPR) == USB_OTG_DOEPINT_OTEPSPR)
 800187a:	f01a 0f20 	tst.w	sl, #32
 800187e:	d004      	beq.n	800188a <HAL_PCD_IRQHandler+0x214>
            CLEAR_OUT_EP_INTR(epnum, USB_OTG_DOEPINT_OTEPSPR);
 8001880:	eb05 1349 	add.w	r3, r5, r9, lsl #5
 8001884:	2220      	movs	r2, #32
 8001886:	f8c3 2b08 	str.w	r2, [r3, #2824]	@ 0xb08
          if ((epint & USB_OTG_DOEPINT_NAK) == USB_OTG_DOEPINT_NAK)
 800188a:	f41a 5f00 	tst.w	sl, #8192	@ 0x2000
 800188e:	d005      	beq.n	800189c <HAL_PCD_IRQHandler+0x226>
            CLEAR_OUT_EP_INTR(epnum, USB_OTG_DOEPINT_NAK);
 8001890:	eb05 1349 	add.w	r3, r5, r9, lsl #5
 8001894:	f44f 5200 	mov.w	r2, #8192	@ 0x2000
 8001898:	f8c3 2b08 	str.w	r2, [r3, #2824]	@ 0xb08
        epnum++;
 800189c:	f109 0901 	add.w	r9, r9, #1
        ep_intr >>= 1U;
 80018a0:	ea4f 0858 	mov.w	r8, r8, lsr #1
      while (ep_intr != 0U)
 80018a4:	f1b8 0f00 	cmp.w	r8, #0
 80018a8:	f43f af2d 	beq.w	8001706 <HAL_PCD_IRQHandler+0x90>
        if ((ep_intr & 0x1U) != 0U)
 80018ac:	f018 0f01 	tst.w	r8, #1
 80018b0:	d0f4      	beq.n	800189c <HAL_PCD_IRQHandler+0x226>
          epint = USB_ReadDevOutEPInterrupt(hpcd->Instance, (uint8_t)epnum);
 80018b2:	fa5f fb89 	uxtb.w	fp, r9
 80018b6:	4659      	mov	r1, fp
 80018b8:	6820      	ldr	r0, [r4, #0]
 80018ba:	f002 ffab 	bl	8004814 <USB_ReadDevOutEPInterrupt>
 80018be:	4682      	mov	sl, r0
          if ((epint & USB_OTG_DOEPINT_XFRC) == USB_OTG_DOEPINT_XFRC)
 80018c0:	f010 0f01 	tst.w	r0, #1
 80018c4:	d1b8      	bne.n	8001838 <HAL_PCD_IRQHandler+0x1c2>
          if ((epint & USB_OTG_DOEPINT_STUP) == USB_OTG_DOEPINT_STUP)
 80018c6:	f01a 0f08 	tst.w	sl, #8
 80018ca:	d1bf      	bne.n	800184c <HAL_PCD_IRQHandler+0x1d6>
          if ((epint & USB_OTG_DOEPINT_OTEPDIS) == USB_OTG_DOEPINT_OTEPDIS)
 80018cc:	f01a 0f10 	tst.w	sl, #16
 80018d0:	d004      	beq.n	80018dc <HAL_PCD_IRQHandler+0x266>
            CLEAR_OUT_EP_INTR(epnum, USB_OTG_DOEPINT_OTEPDIS);
 80018d2:	eb05 1349 	add.w	r3, r5, r9, lsl #5
 80018d6:	2210      	movs	r2, #16
 80018d8:	f8c3 2b08 	str.w	r2, [r3, #2824]	@ 0xb08
          if ((epint & USB_OTG_DOEPINT_EPDISD) == USB_OTG_DOEPINT_EPDISD)
 80018dc:	f01a 0f02 	tst.w	sl, #2
 80018e0:	d0cb      	beq.n	800187a <HAL_PCD_IRQHandler+0x204>
            if ((USBx->GINTSTS & USB_OTG_GINTSTS_BOUTNAKEFF) == USB_OTG_GINTSTS_BOUTNAKEFF)
 80018e2:	696b      	ldr	r3, [r5, #20]
 80018e4:	f013 0f80 	tst.w	r3, #128	@ 0x80
 80018e8:	d0ba      	beq.n	8001860 <HAL_PCD_IRQHandler+0x1ea>
              USBx_DEVICE->DCTL |= USB_OTG_DCTL_CGONAK;
 80018ea:	687b      	ldr	r3, [r7, #4]
 80018ec:	f443 6380 	orr.w	r3, r3, #1024	@ 0x400
 80018f0:	607b      	str	r3, [r7, #4]
 80018f2:	e7b5      	b.n	8001860 <HAL_PCD_IRQHandler+0x1ea>
              ep->is_iso_incomplete = 0U;
 80018f4:	eb09 03c9 	add.w	r3, r9, r9, lsl #3
 80018f8:	eb04 0383 	add.w	r3, r4, r3, lsl #2
 80018fc:	2200      	movs	r2, #0
 80018fe:	f883 2257 	strb.w	r2, [r3, #599]	@ 0x257
              HAL_PCD_ISOOUTIncompleteCallback(hpcd, (uint8_t)epnum);
 8001902:	4659      	mov	r1, fp
 8001904:	4620      	mov	r0, r4
 8001906:	f003 fc31 	bl	800516c <HAL_PCD_ISOOUTIncompleteCallback>
 800190a:	e7b1      	b.n	8001870 <HAL_PCD_IRQHandler+0x1fa>
      ep_intr = USB_ReadDevAllInEpInterrupt(hpcd->Instance);
 800190c:	6820      	ldr	r0, [r4, #0]
 800190e:	f002 ff79 	bl	8004804 <USB_ReadDevAllInEpInterrupt>
 8001912:	4680      	mov	r8, r0
      epnum = 0U;
 8001914:	46b1      	mov	r9, r6
      while (ep_intr != 0U)
 8001916:	e025      	b.n	8001964 <HAL_PCD_IRQHandler+0x2ee>
            HAL_PCD_DataInStageCallback(hpcd, (uint8_t)epnum);
 8001918:	4659      	mov	r1, fp
 800191a:	4620      	mov	r0, r4
 800191c:	f003 fbe2 	bl	80050e4 <HAL_PCD_DataInStageCallback>
          if ((epint & USB_OTG_DIEPINT_TOC) == USB_OTG_DIEPINT_TOC)
 8001920:	f01a 0f08 	tst.w	sl, #8
 8001924:	d004      	beq.n	8001930 <HAL_PCD_IRQHandler+0x2ba>
            CLEAR_IN_EP_INTR(epnum, USB_OTG_DIEPINT_TOC);
 8001926:	eb05 1349 	add.w	r3, r5, r9, lsl #5
 800192a:	2208      	movs	r2, #8
 800192c:	f8c3 2908 	str.w	r2, [r3, #2312]	@ 0x908
          if ((epint & USB_OTG_DIEPINT_ITTXFE) == USB_OTG_DIEPINT_ITTXFE)
 8001930:	f01a 0f10 	tst.w	sl, #16
 8001934:	d004      	beq.n	8001940 <HAL_PCD_IRQHandler+0x2ca>
            CLEAR_IN_EP_INTR(epnum, USB_OTG_DIEPINT_ITTXFE);
 8001936:	eb05 1349 	add.w	r3, r5, r9, lsl #5
 800193a:	2210      	movs	r2, #16
 800193c:	f8c3 2908 	str.w	r2, [r3, #2312]	@ 0x908
          if ((epint & USB_OTG_DIEPINT_INEPNE) == USB_OTG_DIEPINT_INEPNE)
 8001940:	f01a 0f40 	tst.w	sl, #64	@ 0x40
 8001944:	d004      	beq.n	8001950 <HAL_PCD_IRQHandler+0x2da>
            CLEAR_IN_EP_INTR(epnum, USB_OTG_DIEPINT_INEPNE);
 8001946:	eb05 1349 	add.w	r3, r5, r9, lsl #5
 800194a:	2240      	movs	r2, #64	@ 0x40
 800194c:	f8c3 2908 	str.w	r2, [r3, #2312]	@ 0x908
          if ((epint & USB_OTG_DIEPINT_EPDISD) == USB_OTG_DIEPINT_EPDISD)
 8001950:	f01a 0f02 	tst.w	sl, #2
 8001954:	d140      	bne.n	80019d8 <HAL_PCD_IRQHandler+0x362>
          if ((epint & USB_OTG_DIEPINT_TXFE) == USB_OTG_DIEPINT_TXFE)
 8001956:	f01a 0f80 	tst.w	sl, #128	@ 0x80
 800195a:	d159      	bne.n	8001a10 <HAL_PCD_IRQHandler+0x39a>
        epnum++;
 800195c:	f109 0901 	add.w	r9, r9, #1
        ep_intr >>= 1U;
 8001960:	ea4f 0858 	mov.w	r8, r8, lsr #1
      while (ep_intr != 0U)
 8001964:	f1b8 0f00 	cmp.w	r8, #0
 8001968:	f43f aed4 	beq.w	8001714 <HAL_PCD_IRQHandler+0x9e>
        if ((ep_intr & 0x1U) != 0U) /* In ITR */
 800196c:	f018 0f01 	tst.w	r8, #1
 8001970:	d0f4      	beq.n	800195c <HAL_PCD_IRQHandler+0x2e6>
          epint = USB_ReadDevInEPInterrupt(hpcd->Instance, (uint8_t)epnum);
 8001972:	fa5f fb89 	uxtb.w	fp, r9
 8001976:	4659      	mov	r1, fp
 8001978:	6820      	ldr	r0, [r4, #0]
 800197a:	f002 ff54 	bl	8004826 <USB_ReadDevInEPInterrupt>
 800197e:	4682      	mov	sl, r0
          if ((epint & USB_OTG_DIEPINT_XFRC) == USB_OTG_DIEPINT_XFRC)
 8001980:	f010 0f01 	tst.w	r0, #1
 8001984:	d0cc      	beq.n	8001920 <HAL_PCD_IRQHandler+0x2aa>
            fifoemptymsk = (uint32_t)(0x1UL << (epnum & EP_ADDR_MSK));
 8001986:	f009 020f 	and.w	r2, r9, #15
 800198a:	2101      	movs	r1, #1
 800198c:	fa01 f202 	lsl.w	r2, r1, r2
            USBx_DEVICE->DIEPEMPMSK &= ~fifoemptymsk;
 8001990:	6b7b      	ldr	r3, [r7, #52]	@ 0x34
 8001992:	ea23 0302 	bic.w	r3, r3, r2
 8001996:	637b      	str	r3, [r7, #52]	@ 0x34
            CLEAR_IN_EP_INTR(epnum, USB_OTG_DIEPINT_XFRC);
 8001998:	eb05 1349 	add.w	r3, r5, r9, lsl #5
 800199c:	f8c3 1908 	str.w	r1, [r3, #2312]	@ 0x908
            if (hpcd->Init.dma_enable == 1U)
 80019a0:	79a3      	ldrb	r3, [r4, #6]
 80019a2:	428b      	cmp	r3, r1
 80019a4:	d1b8      	bne.n	8001918 <HAL_PCD_IRQHandler+0x2a2>
              hpcd->IN_ep[epnum].xfer_buff += hpcd->IN_ep[epnum].maxpacket;
 80019a6:	eb09 03c9 	add.w	r3, r9, r9, lsl #3
 80019aa:	eb04 0383 	add.w	r3, r4, r3, lsl #2
 80019ae:	6a1a      	ldr	r2, [r3, #32]
 80019b0:	69d9      	ldr	r1, [r3, #28]
 80019b2:	440a      	add	r2, r1
 80019b4:	621a      	str	r2, [r3, #32]
              if ((epnum == 0U) && (hpcd->IN_ep[epnum].xfer_len == 0U))
 80019b6:	f1b9 0f00 	cmp.w	r9, #0
 80019ba:	d1ad      	bne.n	8001918 <HAL_PCD_IRQHandler+0x2a2>
 80019bc:	eb09 03c9 	add.w	r3, r9, r9, lsl #3
 80019c0:	eb04 0383 	add.w	r3, r4, r3, lsl #2
 80019c4:	6a5b      	ldr	r3, [r3, #36]	@ 0x24
 80019c6:	2b00      	cmp	r3, #0
 80019c8:	d1a6      	bne.n	8001918 <HAL_PCD_IRQHandler+0x2a2>
                (void)USB_EP0_OutStart(hpcd->Instance, 1U, (uint8_t *)hpcd->Setup);
 80019ca:	f204 429c 	addw	r2, r4, #1180	@ 0x49c
 80019ce:	2101      	movs	r1, #1
 80019d0:	6820      	ldr	r0, [r4, #0]
 80019d2:	f002 ff7d 	bl	80048d0 <USB_EP0_OutStart>
 80019d6:	e79f      	b.n	8001918 <HAL_PCD_IRQHandler+0x2a2>
            (void)USB_FlushTxFifo(USBx, epnum);
 80019d8:	4649      	mov	r1, r9
 80019da:	4628      	mov	r0, r5
 80019dc:	f002 fade 	bl	8003f9c <USB_FlushTxFifo>
            if (ep->is_iso_incomplete == 1U)
 80019e0:	eb09 03c9 	add.w	r3, r9, r9, lsl #3
 80019e4:	eb04 0383 	add.w	r3, r4, r3, lsl #2
 80019e8:	7ddb      	ldrb	r3, [r3, #23]
 80019ea:	2b01      	cmp	r3, #1
 80019ec:	d005      	beq.n	80019fa <HAL_PCD_IRQHandler+0x384>
            CLEAR_IN_EP_INTR(epnum, USB_OTG_DIEPINT_EPDISD);
 80019ee:	eb05 1349 	add.w	r3, r5, r9, lsl #5
 80019f2:	2202      	movs	r2, #2
 80019f4:	f8c3 2908 	str.w	r2, [r3, #2312]	@ 0x908
 80019f8:	e7ad      	b.n	8001956 <HAL_PCD_IRQHandler+0x2e0>
              ep->is_iso_incomplete = 0U;
 80019fa:	eb09 03c9 	add.w	r3, r9, r9, lsl #3
 80019fe:	eb04 0383 	add.w	r3, r4, r3, lsl #2
 8001a02:	2200      	movs	r2, #0
 8001a04:	75da      	strb	r2, [r3, #23]
              HAL_PCD_ISOINIncompleteCallback(hpcd, (uint8_t)epnum);
 8001a06:	4659      	mov	r1, fp
 8001a08:	4620      	mov	r0, r4
 8001a0a:	f003 fbb5 	bl	8005178 <HAL_PCD_ISOINIncompleteCallback>
 8001a0e:	e7ee      	b.n	80019ee <HAL_PCD_IRQHandler+0x378>
            (void)PCD_WriteEmptyTxFifo(hpcd, epnum);
 8001a10:	4649      	mov	r1, r9
 8001a12:	4620      	mov	r0, r4
 8001a14:	f7ff fafe 	bl	8001014 <PCD_WriteEmptyTxFifo>
 8001a18:	e7a0      	b.n	800195c <HAL_PCD_IRQHandler+0x2e6>
      USBx_DEVICE->DCTL &= ~USB_OTG_DCTL_RWUSIG;
 8001a1a:	687b      	ldr	r3, [r7, #4]
 8001a1c:	f023 0301 	bic.w	r3, r3, #1
 8001a20:	607b      	str	r3, [r7, #4]
      if (hpcd->LPM_State == LPM_L1)
 8001a22:	f894 34cc 	ldrb.w	r3, [r4, #1228]	@ 0x4cc
 8001a26:	2b01      	cmp	r3, #1
 8001a28:	d008      	beq.n	8001a3c <HAL_PCD_IRQHandler+0x3c6>
        HAL_PCD_ResumeCallback(hpcd);
 8001a2a:	4620      	mov	r0, r4
 8001a2c:	f003 fb98 	bl	8005160 <HAL_PCD_ResumeCallback>
      __HAL_PCD_CLEAR_FLAG(hpcd, USB_OTG_GINTSTS_WKUINT);
 8001a30:	6822      	ldr	r2, [r4, #0]
 8001a32:	6953      	ldr	r3, [r2, #20]
 8001a34:	f003 4300 	and.w	r3, r3, #2147483648	@ 0x80000000
 8001a38:	6153      	str	r3, [r2, #20]
 8001a3a:	e671      	b.n	8001720 <HAL_PCD_IRQHandler+0xaa>
        hpcd->LPM_State = LPM_L0;
 8001a3c:	2100      	movs	r1, #0
 8001a3e:	f884 14cc 	strb.w	r1, [r4, #1228]	@ 0x4cc
        HAL_PCDEx_LPM_Callback(hpcd, PCD_LPM_L0_ACTIVE);
 8001a42:	4620      	mov	r0, r4
 8001a44:	f000 f956 	bl	8001cf4 <HAL_PCDEx_LPM_Callback>
 8001a48:	e7f2      	b.n	8001a30 <HAL_PCD_IRQHandler+0x3ba>
        HAL_PCD_SuspendCallback(hpcd);
 8001a4a:	4620      	mov	r0, r4
 8001a4c:	f003 fb70 	bl	8005130 <HAL_PCD_SuspendCallback>
 8001a50:	e671      	b.n	8001736 <HAL_PCD_IRQHandler+0xc0>
        HAL_PCD_SuspendCallback(hpcd);
 8001a52:	4620      	mov	r0, r4
 8001a54:	f003 fb6c 	bl	8005130 <HAL_PCD_SuspendCallback>
 8001a58:	e68e      	b.n	8001778 <HAL_PCD_IRQHandler+0x102>
      USBx_DEVICE->DCTL &= ~USB_OTG_DCTL_RWUSIG;
 8001a5a:	687b      	ldr	r3, [r7, #4]
 8001a5c:	f023 0301 	bic.w	r3, r3, #1
 8001a60:	607b      	str	r3, [r7, #4]
      (void)USB_FlushTxFifo(hpcd->Instance, 0x10U);
 8001a62:	2110      	movs	r1, #16
 8001a64:	6820      	ldr	r0, [r4, #0]
 8001a66:	f002 fa99 	bl	8003f9c <USB_FlushTxFifo>
      for (i = 0U; i < hpcd->Init.dev_endpoints; i++)
 8001a6a:	e01a      	b.n	8001aa2 <HAL_PCD_IRQHandler+0x42c>
        USBx_INEP(i)->DIEPINT = 0xFB7FU;
 8001a6c:	eb05 1346 	add.w	r3, r5, r6, lsl #5
 8001a70:	f64f 317f 	movw	r1, #64383	@ 0xfb7f
 8001a74:	f8c3 1908 	str.w	r1, [r3, #2312]	@ 0x908
        USBx_INEP(i)->DIEPCTL &= ~USB_OTG_DIEPCTL_STALL;
 8001a78:	f8d3 2900 	ldr.w	r2, [r3, #2304]	@ 0x900
 8001a7c:	f422 1200 	bic.w	r2, r2, #2097152	@ 0x200000
 8001a80:	f8c3 2900 	str.w	r2, [r3, #2304]	@ 0x900
        USBx_OUTEP(i)->DOEPINT = 0xFB7FU;
 8001a84:	f8c3 1b08 	str.w	r1, [r3, #2824]	@ 0xb08
        USBx_OUTEP(i)->DOEPCTL &= ~USB_OTG_DOEPCTL_STALL;
 8001a88:	f8d3 2b00 	ldr.w	r2, [r3, #2816]	@ 0xb00
 8001a8c:	f422 1200 	bic.w	r2, r2, #2097152	@ 0x200000
 8001a90:	f8c3 2b00 	str.w	r2, [r3, #2816]	@ 0xb00
        USBx_OUTEP(i)->DOEPCTL |= USB_OTG_DOEPCTL_SNAK;
 8001a94:	f8d3 2b00 	ldr.w	r2, [r3, #2816]	@ 0xb00
 8001a98:	f042 6200 	orr.w	r2, r2, #134217728	@ 0x8000000
 8001a9c:	f8c3 2b00 	str.w	r2, [r3, #2816]	@ 0xb00
      for (i = 0U; i < hpcd->Init.dev_endpoints; i++)
 8001aa0:	3601      	adds	r6, #1
 8001aa2:	7923      	ldrb	r3, [r4, #4]
 8001aa4:	42b3      	cmp	r3, r6
 8001aa6:	d8e1      	bhi.n	8001a6c <HAL_PCD_IRQHandler+0x3f6>
      USBx_DEVICE->DAINTMSK |= 0x10001U;
 8001aa8:	69fb      	ldr	r3, [r7, #28]
 8001aaa:	f043 1301 	orr.w	r3, r3, #65537	@ 0x10001
 8001aae:	61fb      	str	r3, [r7, #28]
      if (hpcd->Init.use_dedicated_ep1 != 0U)
 8001ab0:	7be3      	ldrb	r3, [r4, #15]
 8001ab2:	b1db      	cbz	r3, 8001aec <HAL_PCD_IRQHandler+0x476>
        USBx_DEVICE->DOUTEP1MSK |= USB_OTG_DOEPMSK_STUPM |
 8001ab4:	f8d7 3084 	ldr.w	r3, [r7, #132]	@ 0x84
 8001ab8:	f043 030b 	orr.w	r3, r3, #11
 8001abc:	f8c7 3084 	str.w	r3, [r7, #132]	@ 0x84
        USBx_DEVICE->DINEP1MSK |= USB_OTG_DIEPMSK_TOM |
 8001ac0:	6c7b      	ldr	r3, [r7, #68]	@ 0x44
 8001ac2:	f043 030b 	orr.w	r3, r3, #11
 8001ac6:	647b      	str	r3, [r7, #68]	@ 0x44
      USBx_DEVICE->DCFG &= ~USB_OTG_DCFG_DAD;
 8001ac8:	f8d5 3800 	ldr.w	r3, [r5, #2048]	@ 0x800
 8001acc:	f423 63fe 	bic.w	r3, r3, #2032	@ 0x7f0
 8001ad0:	f8c5 3800 	str.w	r3, [r5, #2048]	@ 0x800
      (void)USB_EP0_OutStart(hpcd->Instance, (uint8_t)hpcd->Init.dma_enable,
 8001ad4:	f204 429c 	addw	r2, r4, #1180	@ 0x49c
 8001ad8:	79a1      	ldrb	r1, [r4, #6]
 8001ada:	6820      	ldr	r0, [r4, #0]
 8001adc:	f002 fef8 	bl	80048d0 <USB_EP0_OutStart>
      __HAL_PCD_CLEAR_FLAG(hpcd, USB_OTG_GINTSTS_USBRST);
 8001ae0:	6822      	ldr	r2, [r4, #0]
 8001ae2:	6953      	ldr	r3, [r2, #20]
 8001ae4:	f403 5380 	and.w	r3, r3, #4096	@ 0x1000
 8001ae8:	6153      	str	r3, [r2, #20]
 8001aea:	e64c      	b.n	8001786 <HAL_PCD_IRQHandler+0x110>
        USBx_DEVICE->DOEPMSK |= USB_OTG_DOEPMSK_STUPM |
 8001aec:	697a      	ldr	r2, [r7, #20]
 8001aee:	f242 032b 	movw	r3, #8235	@ 0x202b
 8001af2:	4313      	orrs	r3, r2
 8001af4:	617b      	str	r3, [r7, #20]
        USBx_DEVICE->DIEPMSK |= USB_OTG_DIEPMSK_TOM |
 8001af6:	693b      	ldr	r3, [r7, #16]
 8001af8:	f043 030b 	orr.w	r3, r3, #11
 8001afc:	613b      	str	r3, [r7, #16]
 8001afe:	e7e3      	b.n	8001ac8 <HAL_PCD_IRQHandler+0x452>
      (void)USB_ActivateSetup(hpcd->Instance);
 8001b00:	6820      	ldr	r0, [r4, #0]
 8001b02:	f002 fed7 	bl	80048b4 <USB_ActivateSetup>
      hpcd->Init.speed = USB_GetDevSpeed(hpcd->Instance);
 8001b06:	6820      	ldr	r0, [r4, #0]
 8001b08:	f002 fb60 	bl	80041cc <USB_GetDevSpeed>
 8001b0c:	71e0      	strb	r0, [r4, #7]
      (void)USB_SetTurnaroundTime(hpcd->Instance,
 8001b0e:	6826      	ldr	r6, [r4, #0]
 8001b10:	f000 fec2 	bl	8002898 <HAL_RCC_GetHCLKFreq>
 8001b14:	4601      	mov	r1, r0
 8001b16:	79e2      	ldrb	r2, [r4, #7]
 8001b18:	4630      	mov	r0, r6
 8001b1a:	f002 f9c1 	bl	8003ea0 <USB_SetTurnaroundTime>
      HAL_PCD_ResetCallback(hpcd);
 8001b1e:	4620      	mov	r0, r4
 8001b20:	f003 faf1 	bl	8005106 <HAL_PCD_ResetCallback>
      __HAL_PCD_CLEAR_FLAG(hpcd, USB_OTG_GINTSTS_ENUMDNE);
 8001b24:	6822      	ldr	r2, [r4, #0]
 8001b26:	6953      	ldr	r3, [r2, #20]
 8001b28:	f403 5300 	and.w	r3, r3, #8192	@ 0x2000
 8001b2c:	6153      	str	r3, [r2, #20]
 8001b2e:	e631      	b.n	8001794 <HAL_PCD_IRQHandler+0x11e>
      HAL_PCD_SOFCallback(hpcd);
 8001b30:	4620      	mov	r0, r4
 8001b32:	f003 fae2 	bl	80050fa <HAL_PCD_SOFCallback>
      __HAL_PCD_CLEAR_FLAG(hpcd, USB_OTG_GINTSTS_SOF);
 8001b36:	6822      	ldr	r2, [r4, #0]
 8001b38:	6953      	ldr	r3, [r2, #20]
 8001b3a:	f003 0308 	and.w	r3, r3, #8
 8001b3e:	6153      	str	r3, [r2, #20]
 8001b40:	e62f      	b.n	80017a2 <HAL_PCD_IRQHandler+0x12c>
      for (epnum = 1U; epnum < hpcd->Init.dev_endpoints; epnum++)
 8001b42:	3601      	adds	r6, #1
 8001b44:	7923      	ldrb	r3, [r4, #4]
 8001b46:	42b3      	cmp	r3, r6
 8001b48:	d90c      	bls.n	8001b64 <HAL_PCD_IRQHandler+0x4ee>
        if (hpcd->OUT_ep[epnum].is_iso_incomplete == 1U)
 8001b4a:	eb06 03c6 	add.w	r3, r6, r6, lsl #3
 8001b4e:	eb04 0383 	add.w	r3, r4, r3, lsl #2
 8001b52:	f893 3257 	ldrb.w	r3, [r3, #599]	@ 0x257
 8001b56:	2b01      	cmp	r3, #1
 8001b58:	d1f3      	bne.n	8001b42 <HAL_PCD_IRQHandler+0x4cc>
          (void)HAL_PCD_EP_Abort(hpcd, (uint8_t)epnum);
 8001b5a:	b2f1      	uxtb	r1, r6
 8001b5c:	4620      	mov	r0, r4
 8001b5e:	f7ff fd70 	bl	8001642 <HAL_PCD_EP_Abort>
 8001b62:	e7ee      	b.n	8001b42 <HAL_PCD_IRQHandler+0x4cc>
    if (__HAL_PCD_GET_FLAG(hpcd, USB_OTG_GINTSTS_IISOIXFR))
 8001b64:	6820      	ldr	r0, [r4, #0]
 8001b66:	f002 fe41 	bl	80047ec <USB_ReadInterrupts>
 8001b6a:	f410 1f80 	tst.w	r0, #1048576	@ 0x100000
 8001b6e:	d125      	bne.n	8001bbc <HAL_PCD_IRQHandler+0x546>
    if (__HAL_PCD_GET_FLAG(hpcd, USB_OTG_GINTSTS_PXFR_INCOMPISOOUT))
 8001b70:	6820      	ldr	r0, [r4, #0]
 8001b72:	f002 fe3b 	bl	80047ec <USB_ReadInterrupts>
 8001b76:	f410 1f00 	tst.w	r0, #2097152	@ 0x200000
 8001b7a:	d058      	beq.n	8001c2e <HAL_PCD_IRQHandler+0x5b8>
      for (epnum = 1U; epnum < hpcd->Init.dev_endpoints; epnum++)
 8001b7c:	2301      	movs	r3, #1
 8001b7e:	e026      	b.n	8001bce <HAL_PCD_IRQHandler+0x558>
      for (epnum = 1U; epnum < hpcd->Init.dev_endpoints; epnum++)
 8001b80:	3601      	adds	r6, #1
 8001b82:	7923      	ldrb	r3, [r4, #4]
 8001b84:	42b3      	cmp	r3, r6
 8001b86:	d91b      	bls.n	8001bc0 <HAL_PCD_IRQHandler+0x54a>
        RegVal = USBx_INEP(epnum)->DIEPCTL;
 8001b88:	eb05 1346 	add.w	r3, r5, r6, lsl #5
 8001b8c:	f8d3 2900 	ldr.w	r2, [r3, #2304]	@ 0x900
        if ((hpcd->IN_ep[epnum].type == EP_TYPE_ISOC) &&
 8001b90:	eb06 03c6 	add.w	r3, r6, r6, lsl #3
 8001b94:	eb04 0383 	add.w	r3, r4, r3, lsl #2
 8001b98:	7e1b      	ldrb	r3, [r3, #24]
 8001b9a:	2b01      	cmp	r3, #1
 8001b9c:	d1f0      	bne.n	8001b80 <HAL_PCD_IRQHandler+0x50a>
 8001b9e:	2a00      	cmp	r2, #0
 8001ba0:	daee      	bge.n	8001b80 <HAL_PCD_IRQHandler+0x50a>
          hpcd->IN_ep[epnum].is_iso_incomplete = 1U;
 8001ba2:	eb06 03c6 	add.w	r3, r6, r6, lsl #3
 8001ba6:	eb04 0383 	add.w	r3, r4, r3, lsl #2
 8001baa:	2201      	movs	r2, #1
 8001bac:	75da      	strb	r2, [r3, #23]
          (void)HAL_PCD_EP_Abort(hpcd, (uint8_t)(epnum | 0x80U));
 8001bae:	f066 017f 	orn	r1, r6, #127	@ 0x7f
 8001bb2:	b2c9      	uxtb	r1, r1
 8001bb4:	4620      	mov	r0, r4
 8001bb6:	f7ff fd44 	bl	8001642 <HAL_PCD_EP_Abort>
 8001bba:	e7e1      	b.n	8001b80 <HAL_PCD_IRQHandler+0x50a>
      for (epnum = 1U; epnum < hpcd->Init.dev_endpoints; epnum++)
 8001bbc:	2601      	movs	r6, #1
 8001bbe:	e7e0      	b.n	8001b82 <HAL_PCD_IRQHandler+0x50c>
      __HAL_PCD_CLEAR_FLAG(hpcd, USB_OTG_GINTSTS_IISOIXFR);
 8001bc0:	6822      	ldr	r2, [r4, #0]
 8001bc2:	6953      	ldr	r3, [r2, #20]
 8001bc4:	f403 1380 	and.w	r3, r3, #1048576	@ 0x100000
 8001bc8:	6153      	str	r3, [r2, #20]
 8001bca:	e7d1      	b.n	8001b70 <HAL_PCD_IRQHandler+0x4fa>
      for (epnum = 1U; epnum < hpcd->Init.dev_endpoints; epnum++)
 8001bcc:	3301      	adds	r3, #1
 8001bce:	7922      	ldrb	r2, [r4, #4]
 8001bd0:	429a      	cmp	r2, r3
 8001bd2:	d927      	bls.n	8001c24 <HAL_PCD_IRQHandler+0x5ae>
        RegVal = USBx_OUTEP(epnum)->DOEPCTL;
 8001bd4:	eb05 1243 	add.w	r2, r5, r3, lsl #5
 8001bd8:	f8d2 1b00 	ldr.w	r1, [r2, #2816]	@ 0xb00
        if ((hpcd->OUT_ep[epnum].type == EP_TYPE_ISOC) &&
 8001bdc:	eb03 02c3 	add.w	r2, r3, r3, lsl #3
 8001be0:	eb04 0282 	add.w	r2, r4, r2, lsl #2
 8001be4:	f892 2258 	ldrb.w	r2, [r2, #600]	@ 0x258
 8001be8:	2a01      	cmp	r2, #1
 8001bea:	d1ef      	bne.n	8001bcc <HAL_PCD_IRQHandler+0x556>
 8001bec:	2900      	cmp	r1, #0
 8001bee:	daed      	bge.n	8001bcc <HAL_PCD_IRQHandler+0x556>
            (((RegVal & (0x1U << 16)) >> 16U) == (hpcd->FrameNumber & 0x1U)))
 8001bf0:	f8d4 24d4 	ldr.w	r2, [r4, #1236]	@ 0x4d4
 8001bf4:	ea82 4211 	eor.w	r2, r2, r1, lsr #16
            ((RegVal & USB_OTG_DOEPCTL_EPENA) == USB_OTG_DOEPCTL_EPENA) &&
 8001bf8:	f012 0f01 	tst.w	r2, #1
 8001bfc:	d1e6      	bne.n	8001bcc <HAL_PCD_IRQHandler+0x556>
          hpcd->OUT_ep[epnum].is_iso_incomplete = 1U;
 8001bfe:	eb03 02c3 	add.w	r2, r3, r3, lsl #3
 8001c02:	eb04 0282 	add.w	r2, r4, r2, lsl #2
 8001c06:	2101      	movs	r1, #1
 8001c08:	f882 1257 	strb.w	r1, [r2, #599]	@ 0x257
          USBx->GINTMSK |= USB_OTG_GINTMSK_GONAKEFFM;
 8001c0c:	69aa      	ldr	r2, [r5, #24]
 8001c0e:	f042 0280 	orr.w	r2, r2, #128	@ 0x80
 8001c12:	61aa      	str	r2, [r5, #24]
          if ((USBx->GINTSTS & USB_OTG_GINTSTS_BOUTNAKEFF) == 0U)
 8001c14:	696a      	ldr	r2, [r5, #20]
 8001c16:	f012 0f80 	tst.w	r2, #128	@ 0x80
 8001c1a:	d1d7      	bne.n	8001bcc <HAL_PCD_IRQHandler+0x556>
            USBx_DEVICE->DCTL |= USB_OTG_DCTL_SGONAK;
 8001c1c:	687b      	ldr	r3, [r7, #4]
 8001c1e:	f443 7300 	orr.w	r3, r3, #512	@ 0x200
 8001c22:	607b      	str	r3, [r7, #4]
      __HAL_PCD_CLEAR_FLAG(hpcd, USB_OTG_GINTSTS_PXFR_INCOMPISOOUT);
 8001c24:	6822      	ldr	r2, [r4, #0]
 8001c26:	6953      	ldr	r3, [r2, #20]
 8001c28:	f403 1300 	and.w	r3, r3, #2097152	@ 0x200000
 8001c2c:	6153      	str	r3, [r2, #20]
    if (__HAL_PCD_GET_FLAG(hpcd, USB_OTG_GINTSTS_SRQINT))
 8001c2e:	6820      	ldr	r0, [r4, #0]
 8001c30:	f002 fddc 	bl	80047ec <USB_ReadInterrupts>
 8001c34:	f010 4f80 	tst.w	r0, #1073741824	@ 0x40000000
 8001c38:	d110      	bne.n	8001c5c <HAL_PCD_IRQHandler+0x5e6>
    if (__HAL_PCD_GET_FLAG(hpcd, USB_OTG_GINTSTS_OTGINT))
 8001c3a:	6820      	ldr	r0, [r4, #0]
 8001c3c:	f002 fdd6 	bl	80047ec <USB_ReadInterrupts>
 8001c40:	f010 0f04 	tst.w	r0, #4
 8001c44:	f43f ad20 	beq.w	8001688 <HAL_PCD_IRQHandler+0x12>
      RegVal = hpcd->Instance->GOTGINT;
 8001c48:	6823      	ldr	r3, [r4, #0]
 8001c4a:	685d      	ldr	r5, [r3, #4]
      if ((RegVal & USB_OTG_GOTGINT_SEDET) == USB_OTG_GOTGINT_SEDET)
 8001c4c:	f015 0f04 	tst.w	r5, #4
 8001c50:	d10d      	bne.n	8001c6e <HAL_PCD_IRQHandler+0x5f8>
      hpcd->Instance->GOTGINT |= RegVal;
 8001c52:	6822      	ldr	r2, [r4, #0]
 8001c54:	6853      	ldr	r3, [r2, #4]
 8001c56:	432b      	orrs	r3, r5
 8001c58:	6053      	str	r3, [r2, #4]
 8001c5a:	e515      	b.n	8001688 <HAL_PCD_IRQHandler+0x12>
      HAL_PCD_ConnectCallback(hpcd);
 8001c5c:	4620      	mov	r0, r4
 8001c5e:	f003 fa91 	bl	8005184 <HAL_PCD_ConnectCallback>
      __HAL_PCD_CLEAR_FLAG(hpcd, USB_OTG_GINTSTS_SRQINT);
 8001c62:	6822      	ldr	r2, [r4, #0]
 8001c64:	6953      	ldr	r3, [r2, #20]
 8001c66:	f003 4380 	and.w	r3, r3, #1073741824	@ 0x40000000
 8001c6a:	6153      	str	r3, [r2, #20]
 8001c6c:	e7e5      	b.n	8001c3a <HAL_PCD_IRQHandler+0x5c4>
        HAL_PCD_DisconnectCallback(hpcd);
 8001c6e:	4620      	mov	r0, r4
 8001c70:	f003 fa8e 	bl	8005190 <HAL_PCD_DisconnectCallback>
 8001c74:	e7ed      	b.n	8001c52 <HAL_PCD_IRQHandler+0x5dc>

08001c76 <HAL_PCDEx_SetTxFiFo>:
  * @param  fifo The number of Tx fifo
  * @param  size Fifo size
  * @retval HAL status
  */
HAL_StatusTypeDef HAL_PCDEx_SetTxFiFo(PCD_HandleTypeDef *hpcd, uint8_t fifo, uint16_t size)
{
 8001c76:	b410      	push	{r4}
         --> Txn should be configured with the minimum space of 16 words
     The FIFO is used optimally when used TxFIFOs are allocated in the top
         of the FIFO.Ex: use EP1 and EP2 as IN instead of EP1 and EP3 as IN ones.
     When DMA is used 3n * FIFO locations should be reserved for internal DMA registers */

  Tx_Offset = hpcd->Instance->GRXFSIZ;
 8001c78:	6804      	ldr	r4, [r0, #0]
 8001c7a:	6a60      	ldr	r0, [r4, #36]	@ 0x24

  if (fifo == 0U)
 8001c7c:	b931      	cbnz	r1, 8001c8c <HAL_PCDEx_SetTxFiFo+0x16>
  {
    hpcd->Instance->DIEPTXF0_HNPTXFSIZ = ((uint32_t)size << 16) | Tx_Offset;
 8001c7e:	ea40 4002 	orr.w	r0, r0, r2, lsl #16
 8001c82:	62a0      	str	r0, [r4, #40]	@ 0x28
    /* Multiply Tx_Size by 2 to get higher performance */
    hpcd->Instance->DIEPTXF[fifo - 1U] = ((uint32_t)size << 16) | Tx_Offset;
  }

  return HAL_OK;
}
 8001c84:	2000      	movs	r0, #0
 8001c86:	f85d 4b04 	ldr.w	r4, [sp], #4
 8001c8a:	4770      	bx	lr
 8001c8c:	468c      	mov	ip, r1
    Tx_Offset += (hpcd->Instance->DIEPTXF0_HNPTXFSIZ) >> 16;
 8001c8e:	6aa3      	ldr	r3, [r4, #40]	@ 0x28
 8001c90:	eb00 4013 	add.w	r0, r0, r3, lsr #16
    for (i = 0U; i < (fifo - 1U); i++)
 8001c94:	2300      	movs	r3, #0
 8001c96:	e008      	b.n	8001caa <HAL_PCDEx_SetTxFiFo+0x34>
      Tx_Offset += (hpcd->Instance->DIEPTXF[i] >> 16);
 8001c98:	f103 0140 	add.w	r1, r3, #64	@ 0x40
 8001c9c:	eb04 0181 	add.w	r1, r4, r1, lsl #2
 8001ca0:	6849      	ldr	r1, [r1, #4]
 8001ca2:	eb00 4011 	add.w	r0, r0, r1, lsr #16
    for (i = 0U; i < (fifo - 1U); i++)
 8001ca6:	3301      	adds	r3, #1
 8001ca8:	b2db      	uxtb	r3, r3
 8001caa:	f10c 31ff 	add.w	r1, ip, #4294967295
 8001cae:	428b      	cmp	r3, r1
 8001cb0:	d3f2      	bcc.n	8001c98 <HAL_PCDEx_SetTxFiFo+0x22>
    hpcd->Instance->DIEPTXF[fifo - 1U] = ((uint32_t)size << 16) | Tx_Offset;
 8001cb2:	ea40 4002 	orr.w	r0, r0, r2, lsl #16
 8001cb6:	f10c 013f 	add.w	r1, ip, #63	@ 0x3f
 8001cba:	eb04 0481 	add.w	r4, r4, r1, lsl #2
 8001cbe:	6060      	str	r0, [r4, #4]
 8001cc0:	e7e0      	b.n	8001c84 <HAL_PCDEx_SetTxFiFo+0xe>

08001cc2 <HAL_PCDEx_SetRxFiFo>:
  * @param  size Size of Rx fifo
  * @retval HAL status
  */
HAL_StatusTypeDef HAL_PCDEx_SetRxFiFo(PCD_HandleTypeDef *hpcd, uint16_t size)
{
  hpcd->Instance->GRXFSIZ = size;
 8001cc2:	6803      	ldr	r3, [r0, #0]
 8001cc4:	6259      	str	r1, [r3, #36]	@ 0x24

  return HAL_OK;
}
 8001cc6:	2000      	movs	r0, #0
 8001cc8:	4770      	bx	lr
	...

08001ccc <HAL_PCDEx_ActivateLPM>:
  * @brief  Activate LPM feature.
  * @param  hpcd PCD handle
  * @retval HAL status
  */
HAL_StatusTypeDef HAL_PCDEx_ActivateLPM(PCD_HandleTypeDef *hpcd)
{
 8001ccc:	4603      	mov	r3, r0
  USB_OTG_GlobalTypeDef *USBx = hpcd->Instance;
 8001cce:	6802      	ldr	r2, [r0, #0]

  hpcd->lpm_active = 1U;
 8001cd0:	2101      	movs	r1, #1
 8001cd2:	f8c0 14d8 	str.w	r1, [r0, #1240]	@ 0x4d8
  hpcd->LPM_State = LPM_L0;
 8001cd6:	2000      	movs	r0, #0
 8001cd8:	f883 04cc 	strb.w	r0, [r3, #1228]	@ 0x4cc
  USBx->GINTMSK |= USB_OTG_GINTMSK_LPMINTM;
 8001cdc:	6993      	ldr	r3, [r2, #24]
 8001cde:	f043 6300 	orr.w	r3, r3, #134217728	@ 0x8000000
 8001ce2:	6193      	str	r3, [r2, #24]
  USBx->GLPMCFG |= (USB_OTG_GLPMCFG_LPMEN | USB_OTG_GLPMCFG_LPMACK | USB_OTG_GLPMCFG_ENBESL);
 8001ce4:	6d51      	ldr	r1, [r2, #84]	@ 0x54
 8001ce6:	4b02      	ldr	r3, [pc, #8]	@ (8001cf0 <HAL_PCDEx_ActivateLPM+0x24>)
 8001ce8:	430b      	orrs	r3, r1
 8001cea:	6553      	str	r3, [r2, #84]	@ 0x54

  return HAL_OK;
}
 8001cec:	4770      	bx	lr
 8001cee:	bf00      	nop
 8001cf0:	10000003 	.word	0x10000003

08001cf4 <HAL_PCDEx_LPM_Callback>:
  UNUSED(msg);

  /* NOTE : This function should not be modified, when the callback is needed,
            the HAL_PCDEx_LPM_Callback could be implemented in the user file
   */
}
 8001cf4:	4770      	bx	lr
	...

08001cf8 <HAL_PWREx_ConfigSupply>:
  /* Check the parameters */
  assert_param (IS_PWR_SUPPLY (SupplySource));

  /* Check if supply source was configured */
#if defined (PWR_FLAG_SCUEN)
  if (__HAL_PWR_GET_FLAG (PWR_FLAG_SCUEN) == 0U)
 8001cf8:	4b13      	ldr	r3, [pc, #76]	@ (8001d48 <HAL_PWREx_ConfigSupply+0x50>)
 8001cfa:	68db      	ldr	r3, [r3, #12]
 8001cfc:	f013 0f04 	tst.w	r3, #4
 8001d00:	d107      	bne.n	8001d12 <HAL_PWREx_ConfigSupply+0x1a>
#else
  if ((PWR->CR3 & (PWR_CR3_SMPSEN | PWR_CR3_LDOEN | PWR_CR3_BYPASS)) != (PWR_CR3_SMPSEN | PWR_CR3_LDOEN))
#endif /* defined (PWR_FLAG_SCUEN) */
  {
    /* Check supply configuration */
    if ((PWR->CR3 & PWR_SUPPLY_CONFIG_MASK) != SupplySource)
 8001d02:	4b11      	ldr	r3, [pc, #68]	@ (8001d48 <HAL_PWREx_ConfigSupply+0x50>)
 8001d04:	68db      	ldr	r3, [r3, #12]
 8001d06:	f003 0307 	and.w	r3, r3, #7
 8001d0a:	4283      	cmp	r3, r0
 8001d0c:	d01a      	beq.n	8001d44 <HAL_PWREx_ConfigSupply+0x4c>
    {
      /* Supply configuration update locked, can't apply a new supply config */
      return HAL_ERROR;
 8001d0e:	2001      	movs	r0, #1
 8001d10:	4770      	bx	lr
{
 8001d12:	b510      	push	{r4, lr}
      return HAL_OK;
    }
  }

  /* Set the power supply configuration */
  MODIFY_REG (PWR->CR3, PWR_SUPPLY_CONFIG_MASK, SupplySource);
 8001d14:	4a0c      	ldr	r2, [pc, #48]	@ (8001d48 <HAL_PWREx_ConfigSupply+0x50>)
 8001d16:	68d3      	ldr	r3, [r2, #12]
 8001d18:	f023 0307 	bic.w	r3, r3, #7
 8001d1c:	4303      	orrs	r3, r0
 8001d1e:	60d3      	str	r3, [r2, #12]

  /* Get tick */
  tickstart = HAL_GetTick ();
 8001d20:	f7fe fc9e 	bl	8000660 <HAL_GetTick>
 8001d24:	4604      	mov	r4, r0

  /* Wait till voltage level flag is set */
  while (__HAL_PWR_GET_FLAG (PWR_FLAG_ACTVOSRDY) == 0U)
 8001d26:	4b08      	ldr	r3, [pc, #32]	@ (8001d48 <HAL_PWREx_ConfigSupply+0x50>)
 8001d28:	685b      	ldr	r3, [r3, #4]
 8001d2a:	f413 5f00 	tst.w	r3, #8192	@ 0x2000
 8001d2e:	d107      	bne.n	8001d40 <HAL_PWREx_ConfigSupply+0x48>
  {
    if ((HAL_GetTick () - tickstart) > PWR_FLAG_SETTING_DELAY)
 8001d30:	f7fe fc96 	bl	8000660 <HAL_GetTick>
 8001d34:	1b00      	subs	r0, r0, r4
 8001d36:	f5b0 7f7a 	cmp.w	r0, #1000	@ 0x3e8
 8001d3a:	d9f4      	bls.n	8001d26 <HAL_PWREx_ConfigSupply+0x2e>
    {
      return HAL_ERROR;
 8001d3c:	2001      	movs	r0, #1
 8001d3e:	e000      	b.n	8001d42 <HAL_PWREx_ConfigSupply+0x4a>
      }
    }
  }
#endif /* defined (SMPS) */

  return HAL_OK;
 8001d40:	2000      	movs	r0, #0
}
 8001d42:	bd10      	pop	{r4, pc}
      return HAL_OK;
 8001d44:	2000      	movs	r0, #0
}
 8001d46:	4770      	bx	lr
 8001d48:	58024800 	.word	0x58024800

08001d4c <HAL_PWREx_EnableUSBVoltageDetector>:
  * @retval None.
  */
void HAL_PWREx_EnableUSBVoltageDetector (void)
{
  /* Enable the USB voltage detector */
  SET_BIT (PWR->CR3, PWR_CR3_USB33DEN);
 8001d4c:	4a02      	ldr	r2, [pc, #8]	@ (8001d58 <HAL_PWREx_EnableUSBVoltageDetector+0xc>)
 8001d4e:	68d3      	ldr	r3, [r2, #12]
 8001d50:	f043 7380 	orr.w	r3, r3, #16777216	@ 0x1000000
 8001d54:	60d3      	str	r3, [r2, #12]
}
 8001d56:	4770      	bx	lr
 8001d58:	58024800 	.word	0x58024800

08001d5c <HAL_RCC_OscConfig>:
{
  uint32_t tickstart;
  uint32_t temp1_pllckcfg, temp2_pllckcfg;

  /* Check Null pointer */
  if (RCC_OscInitStruct == NULL)
 8001d5c:	2800      	cmp	r0, #0
 8001d5e:	f000 8339 	beq.w	80023d4 <HAL_RCC_OscConfig+0x678>
{
 8001d62:	b538      	push	{r3, r4, r5, lr}
 8001d64:	4604      	mov	r4, r0
  }

  /* Check the parameters */
  assert_param(IS_RCC_OSCILLATORTYPE(RCC_OscInitStruct->OscillatorType));
  /*------------------------------- HSE Configuration ------------------------*/
  if (((RCC_OscInitStruct->OscillatorType) & RCC_OSCILLATORTYPE_HSE) == RCC_OSCILLATORTYPE_HSE)
 8001d66:	6803      	ldr	r3, [r0, #0]
 8001d68:	f013 0f01 	tst.w	r3, #1
 8001d6c:	d025      	beq.n	8001dba <HAL_RCC_OscConfig+0x5e>
  {
    /* Check the parameters */
    assert_param(IS_RCC_HSE(RCC_OscInitStruct->HSEState));

    const uint32_t temp_sysclksrc = __HAL_RCC_GET_SYSCLK_SOURCE();
 8001d6e:	4a94      	ldr	r2, [pc, #592]	@ (8001fc0 <HAL_RCC_OscConfig+0x264>)
 8001d70:	6913      	ldr	r3, [r2, #16]
 8001d72:	f003 0338 	and.w	r3, r3, #56	@ 0x38
    const uint32_t temp_pllckselr = RCC->PLLCKSELR;
 8001d76:	6a92      	ldr	r2, [r2, #40]	@ 0x28
    /* When the HSE is used as system clock or clock source for PLL in these cases HSE will not disabled */
    if ((temp_sysclksrc == RCC_CFGR_SWS_HSE) || ((temp_sysclksrc == RCC_CFGR_SWS_PLL1) && ((temp_pllckselr & RCC_PLLCKSELR_PLLSRC) == RCC_PLLCKSELR_PLLSRC_HSE)))
 8001d78:	2b10      	cmp	r3, #16
 8001d7a:	d015      	beq.n	8001da8 <HAL_RCC_OscConfig+0x4c>
 8001d7c:	2b18      	cmp	r3, #24
 8001d7e:	d00f      	beq.n	8001da0 <HAL_RCC_OscConfig+0x44>
      }
    }
    else
    {
      /* Set the new HSE configuration ---------------------------------------*/
      __HAL_RCC_HSE_CONFIG(RCC_OscInitStruct->HSEState);
 8001d80:	6863      	ldr	r3, [r4, #4]
 8001d82:	f5b3 3f80 	cmp.w	r3, #65536	@ 0x10000
 8001d86:	d03f      	beq.n	8001e08 <HAL_RCC_OscConfig+0xac>
 8001d88:	2b00      	cmp	r3, #0
 8001d8a:	d153      	bne.n	8001e34 <HAL_RCC_OscConfig+0xd8>
 8001d8c:	4b8c      	ldr	r3, [pc, #560]	@ (8001fc0 <HAL_RCC_OscConfig+0x264>)
 8001d8e:	681a      	ldr	r2, [r3, #0]
 8001d90:	f422 3280 	bic.w	r2, r2, #65536	@ 0x10000
 8001d94:	601a      	str	r2, [r3, #0]
 8001d96:	681a      	ldr	r2, [r3, #0]
 8001d98:	f422 2280 	bic.w	r2, r2, #262144	@ 0x40000
 8001d9c:	601a      	str	r2, [r3, #0]
 8001d9e:	e038      	b.n	8001e12 <HAL_RCC_OscConfig+0xb6>
    if ((temp_sysclksrc == RCC_CFGR_SWS_HSE) || ((temp_sysclksrc == RCC_CFGR_SWS_PLL1) && ((temp_pllckselr & RCC_PLLCKSELR_PLLSRC) == RCC_PLLCKSELR_PLLSRC_HSE)))
 8001da0:	f002 0203 	and.w	r2, r2, #3
 8001da4:	2a02      	cmp	r2, #2
 8001da6:	d1eb      	bne.n	8001d80 <HAL_RCC_OscConfig+0x24>
      if ((__HAL_RCC_GET_FLAG(RCC_FLAG_HSERDY) != 0U) && (RCC_OscInitStruct->HSEState == RCC_HSE_OFF))
 8001da8:	4b85      	ldr	r3, [pc, #532]	@ (8001fc0 <HAL_RCC_OscConfig+0x264>)
 8001daa:	681b      	ldr	r3, [r3, #0]
 8001dac:	f413 3f00 	tst.w	r3, #131072	@ 0x20000
 8001db0:	d003      	beq.n	8001dba <HAL_RCC_OscConfig+0x5e>
 8001db2:	6863      	ldr	r3, [r4, #4]
 8001db4:	2b00      	cmp	r3, #0
 8001db6:	f000 830f 	beq.w	80023d8 <HAL_RCC_OscConfig+0x67c>
        }
      }
    }
  }
  /*----------------------------- HSI Configuration --------------------------*/
  if (((RCC_OscInitStruct->OscillatorType) & RCC_OSCILLATORTYPE_HSI) == RCC_OSCILLATORTYPE_HSI)
 8001dba:	6823      	ldr	r3, [r4, #0]
 8001dbc:	f013 0f02 	tst.w	r3, #2
 8001dc0:	f000 80a1 	beq.w	8001f06 <HAL_RCC_OscConfig+0x1aa>
    /* Check the parameters */
    assert_param(IS_RCC_HSI(RCC_OscInitStruct->HSIState));
    assert_param(IS_RCC_HSICALIBRATION_VALUE(RCC_OscInitStruct->HSICalibrationValue));

    /* When the HSI is used as system clock it will not be disabled */
    const uint32_t temp_sysclksrc = __HAL_RCC_GET_SYSCLK_SOURCE();
 8001dc4:	4a7e      	ldr	r2, [pc, #504]	@ (8001fc0 <HAL_RCC_OscConfig+0x264>)
 8001dc6:	6913      	ldr	r3, [r2, #16]
    const uint32_t temp_pllckselr = RCC->PLLCKSELR;
 8001dc8:	6a92      	ldr	r2, [r2, #40]	@ 0x28
    if ((temp_sysclksrc == RCC_CFGR_SWS_HSI) || ((temp_sysclksrc == RCC_CFGR_SWS_PLL1) && ((temp_pllckselr & RCC_PLLCKSELR_PLLSRC) == RCC_PLLCKSELR_PLLSRC_HSI)))
 8001dca:	f013 0338 	ands.w	r3, r3, #56	@ 0x38
 8001dce:	d05a      	beq.n	8001e86 <HAL_RCC_OscConfig+0x12a>
 8001dd0:	2b18      	cmp	r3, #24
 8001dd2:	d055      	beq.n	8001e80 <HAL_RCC_OscConfig+0x124>
    }

    else
    {
      /* Check the HSI State */
      if ((RCC_OscInitStruct->HSIState) != RCC_HSI_OFF)
 8001dd4:	68e3      	ldr	r3, [r4, #12]
 8001dd6:	2b00      	cmp	r3, #0
 8001dd8:	f000 80de 	beq.w	8001f98 <HAL_RCC_OscConfig+0x23c>
      {
        /* Enable the Internal High Speed oscillator (HSI, HSIDIV2,HSIDIV4, or HSIDIV8) */
        __HAL_RCC_HSI_CONFIG(RCC_OscInitStruct->HSIState);
 8001ddc:	4978      	ldr	r1, [pc, #480]	@ (8001fc0 <HAL_RCC_OscConfig+0x264>)
 8001dde:	680a      	ldr	r2, [r1, #0]
 8001de0:	f022 0219 	bic.w	r2, r2, #25
 8001de4:	4313      	orrs	r3, r2
 8001de6:	600b      	str	r3, [r1, #0]

        /* Get Start Tick*/
        tickstart = HAL_GetTick();
 8001de8:	f7fe fc3a 	bl	8000660 <HAL_GetTick>
 8001dec:	4605      	mov	r5, r0

        /* Wait till HSI is ready */
        while (__HAL_RCC_GET_FLAG(RCC_FLAG_HSIRDY) == 0U)
 8001dee:	4b74      	ldr	r3, [pc, #464]	@ (8001fc0 <HAL_RCC_OscConfig+0x264>)
 8001df0:	681b      	ldr	r3, [r3, #0]
 8001df2:	f013 0f04 	tst.w	r3, #4
 8001df6:	f040 80ad 	bne.w	8001f54 <HAL_RCC_OscConfig+0x1f8>
        {
          if ((HAL_GetTick() - tickstart) > HSI_TIMEOUT_VALUE)
 8001dfa:	f7fe fc31 	bl	8000660 <HAL_GetTick>
 8001dfe:	1b40      	subs	r0, r0, r5
 8001e00:	2802      	cmp	r0, #2
 8001e02:	d9f4      	bls.n	8001dee <HAL_RCC_OscConfig+0x92>
          {
            return HAL_TIMEOUT;
 8001e04:	2003      	movs	r0, #3
 8001e06:	e2ee      	b.n	80023e6 <HAL_RCC_OscConfig+0x68a>
      __HAL_RCC_HSE_CONFIG(RCC_OscInitStruct->HSEState);
 8001e08:	4a6d      	ldr	r2, [pc, #436]	@ (8001fc0 <HAL_RCC_OscConfig+0x264>)
 8001e0a:	6813      	ldr	r3, [r2, #0]
 8001e0c:	f443 3380 	orr.w	r3, r3, #65536	@ 0x10000
 8001e10:	6013      	str	r3, [r2, #0]
      if (RCC_OscInitStruct->HSEState != RCC_HSE_OFF)
 8001e12:	6863      	ldr	r3, [r4, #4]
 8001e14:	b32b      	cbz	r3, 8001e62 <HAL_RCC_OscConfig+0x106>
        tickstart = HAL_GetTick();
 8001e16:	f7fe fc23 	bl	8000660 <HAL_GetTick>
 8001e1a:	4605      	mov	r5, r0
        while (__HAL_RCC_GET_FLAG(RCC_FLAG_HSERDY) == 0U)
 8001e1c:	4b68      	ldr	r3, [pc, #416]	@ (8001fc0 <HAL_RCC_OscConfig+0x264>)
 8001e1e:	681b      	ldr	r3, [r3, #0]
 8001e20:	f413 3f00 	tst.w	r3, #131072	@ 0x20000
 8001e24:	d1c9      	bne.n	8001dba <HAL_RCC_OscConfig+0x5e>
          if ((uint32_t)(HAL_GetTick() - tickstart) > HSE_TIMEOUT_VALUE)
 8001e26:	f7fe fc1b 	bl	8000660 <HAL_GetTick>
 8001e2a:	1b40      	subs	r0, r0, r5
 8001e2c:	2864      	cmp	r0, #100	@ 0x64
 8001e2e:	d9f5      	bls.n	8001e1c <HAL_RCC_OscConfig+0xc0>
            return HAL_TIMEOUT;
 8001e30:	2003      	movs	r0, #3
 8001e32:	e2d8      	b.n	80023e6 <HAL_RCC_OscConfig+0x68a>
      __HAL_RCC_HSE_CONFIG(RCC_OscInitStruct->HSEState);
 8001e34:	f5b3 2fa0 	cmp.w	r3, #327680	@ 0x50000
 8001e38:	d009      	beq.n	8001e4e <HAL_RCC_OscConfig+0xf2>
 8001e3a:	4b61      	ldr	r3, [pc, #388]	@ (8001fc0 <HAL_RCC_OscConfig+0x264>)
 8001e3c:	681a      	ldr	r2, [r3, #0]
 8001e3e:	f422 3280 	bic.w	r2, r2, #65536	@ 0x10000
 8001e42:	601a      	str	r2, [r3, #0]
 8001e44:	681a      	ldr	r2, [r3, #0]
 8001e46:	f422 2280 	bic.w	r2, r2, #262144	@ 0x40000
 8001e4a:	601a      	str	r2, [r3, #0]
 8001e4c:	e7e1      	b.n	8001e12 <HAL_RCC_OscConfig+0xb6>
 8001e4e:	4b5c      	ldr	r3, [pc, #368]	@ (8001fc0 <HAL_RCC_OscConfig+0x264>)
 8001e50:	681a      	ldr	r2, [r3, #0]
 8001e52:	f442 2280 	orr.w	r2, r2, #262144	@ 0x40000
 8001e56:	601a      	str	r2, [r3, #0]
 8001e58:	681a      	ldr	r2, [r3, #0]
 8001e5a:	f442 3280 	orr.w	r2, r2, #65536	@ 0x10000
 8001e5e:	601a      	str	r2, [r3, #0]
 8001e60:	e7d7      	b.n	8001e12 <HAL_RCC_OscConfig+0xb6>
        tickstart = HAL_GetTick();
 8001e62:	f7fe fbfd 	bl	8000660 <HAL_GetTick>
 8001e66:	4605      	mov	r5, r0
        while (__HAL_RCC_GET_FLAG(RCC_FLAG_HSERDY) != 0U)
 8001e68:	4b55      	ldr	r3, [pc, #340]	@ (8001fc0 <HAL_RCC_OscConfig+0x264>)
 8001e6a:	681b      	ldr	r3, [r3, #0]
 8001e6c:	f413 3f00 	tst.w	r3, #131072	@ 0x20000
 8001e70:	d0a3      	beq.n	8001dba <HAL_RCC_OscConfig+0x5e>
          if ((uint32_t)(HAL_GetTick() - tickstart) > HSE_TIMEOUT_VALUE)
 8001e72:	f7fe fbf5 	bl	8000660 <HAL_GetTick>
 8001e76:	1b40      	subs	r0, r0, r5
 8001e78:	2864      	cmp	r0, #100	@ 0x64
 8001e7a:	d9f5      	bls.n	8001e68 <HAL_RCC_OscConfig+0x10c>
            return HAL_TIMEOUT;
 8001e7c:	2003      	movs	r0, #3
 8001e7e:	e2b2      	b.n	80023e6 <HAL_RCC_OscConfig+0x68a>
    if ((temp_sysclksrc == RCC_CFGR_SWS_HSI) || ((temp_sysclksrc == RCC_CFGR_SWS_PLL1) && ((temp_pllckselr & RCC_PLLCKSELR_PLLSRC) == RCC_PLLCKSELR_PLLSRC_HSI)))
 8001e80:	f012 0f03 	tst.w	r2, #3
 8001e84:	d1a6      	bne.n	8001dd4 <HAL_RCC_OscConfig+0x78>
      if ((__HAL_RCC_GET_FLAG(RCC_FLAG_HSIRDY) != 0U) && (RCC_OscInitStruct->HSIState == RCC_HSI_OFF))
 8001e86:	4b4e      	ldr	r3, [pc, #312]	@ (8001fc0 <HAL_RCC_OscConfig+0x264>)
 8001e88:	681b      	ldr	r3, [r3, #0]
 8001e8a:	f013 0f04 	tst.w	r3, #4
 8001e8e:	d003      	beq.n	8001e98 <HAL_RCC_OscConfig+0x13c>
 8001e90:	68e3      	ldr	r3, [r4, #12]
 8001e92:	2b00      	cmp	r3, #0
 8001e94:	f000 82a2 	beq.w	80023dc <HAL_RCC_OscConfig+0x680>
        __HAL_RCC_HSI_CONFIG(RCC_OscInitStruct->HSIState);
 8001e98:	4a49      	ldr	r2, [pc, #292]	@ (8001fc0 <HAL_RCC_OscConfig+0x264>)
 8001e9a:	6813      	ldr	r3, [r2, #0]
 8001e9c:	f023 0319 	bic.w	r3, r3, #25
 8001ea0:	68e1      	ldr	r1, [r4, #12]
 8001ea2:	430b      	orrs	r3, r1
 8001ea4:	6013      	str	r3, [r2, #0]
        tickstart = HAL_GetTick();
 8001ea6:	f7fe fbdb 	bl	8000660 <HAL_GetTick>
 8001eaa:	4605      	mov	r5, r0
        while (__HAL_RCC_GET_FLAG(RCC_FLAG_HSIRDY) == 0U)
 8001eac:	4b44      	ldr	r3, [pc, #272]	@ (8001fc0 <HAL_RCC_OscConfig+0x264>)
 8001eae:	681b      	ldr	r3, [r3, #0]
 8001eb0:	f013 0f04 	tst.w	r3, #4
 8001eb4:	d106      	bne.n	8001ec4 <HAL_RCC_OscConfig+0x168>
          if ((uint32_t)(HAL_GetTick() - tickstart) > HSI_TIMEOUT_VALUE)
 8001eb6:	f7fe fbd3 	bl	8000660 <HAL_GetTick>
 8001eba:	1b40      	subs	r0, r0, r5
 8001ebc:	2802      	cmp	r0, #2
 8001ebe:	d9f5      	bls.n	8001eac <HAL_RCC_OscConfig+0x150>
            return HAL_TIMEOUT;
 8001ec0:	2003      	movs	r0, #3
 8001ec2:	e290      	b.n	80023e6 <HAL_RCC_OscConfig+0x68a>
        __HAL_RCC_HSI_CALIBRATIONVALUE_ADJUST(RCC_OscInitStruct->HSICalibrationValue);
 8001ec4:	f7fe fbe6 	bl	8000694 <HAL_GetREVID>
 8001ec8:	f241 0303 	movw	r3, #4099	@ 0x1003
 8001ecc:	4298      	cmp	r0, r3
 8001ece:	d812      	bhi.n	8001ef6 <HAL_RCC_OscConfig+0x19a>
 8001ed0:	6922      	ldr	r2, [r4, #16]
 8001ed2:	2a40      	cmp	r2, #64	@ 0x40
 8001ed4:	d007      	beq.n	8001ee6 <HAL_RCC_OscConfig+0x18a>
 8001ed6:	493a      	ldr	r1, [pc, #232]	@ (8001fc0 <HAL_RCC_OscConfig+0x264>)
 8001ed8:	684b      	ldr	r3, [r1, #4]
 8001eda:	f423 337c 	bic.w	r3, r3, #258048	@ 0x3f000
 8001ede:	ea43 3302 	orr.w	r3, r3, r2, lsl #12
 8001ee2:	604b      	str	r3, [r1, #4]
 8001ee4:	e00f      	b.n	8001f06 <HAL_RCC_OscConfig+0x1aa>
 8001ee6:	4a36      	ldr	r2, [pc, #216]	@ (8001fc0 <HAL_RCC_OscConfig+0x264>)
 8001ee8:	6853      	ldr	r3, [r2, #4]
 8001eea:	f423 337c 	bic.w	r3, r3, #258048	@ 0x3f000
 8001eee:	f443 3300 	orr.w	r3, r3, #131072	@ 0x20000
 8001ef2:	6053      	str	r3, [r2, #4]
 8001ef4:	e007      	b.n	8001f06 <HAL_RCC_OscConfig+0x1aa>
 8001ef6:	4a32      	ldr	r2, [pc, #200]	@ (8001fc0 <HAL_RCC_OscConfig+0x264>)
 8001ef8:	6853      	ldr	r3, [r2, #4]
 8001efa:	f023 43fe 	bic.w	r3, r3, #2130706432	@ 0x7f000000
 8001efe:	6921      	ldr	r1, [r4, #16]
 8001f00:	ea43 6301 	orr.w	r3, r3, r1, lsl #24
 8001f04:	6053      	str	r3, [r2, #4]
        }
      }
    }
  }
  /*----------------------------- CSI Configuration --------------------------*/
  if (((RCC_OscInitStruct->OscillatorType) & RCC_OSCILLATORTYPE_CSI) == RCC_OSCILLATORTYPE_CSI)
 8001f06:	6823      	ldr	r3, [r4, #0]
 8001f08:	f013 0f10 	tst.w	r3, #16
 8001f0c:	f000 8088 	beq.w	8002020 <HAL_RCC_OscConfig+0x2c4>
    /* Check the parameters */
    assert_param(IS_RCC_CSI(RCC_OscInitStruct->CSIState));
    assert_param(IS_RCC_CSICALIBRATION_VALUE(RCC_OscInitStruct->CSICalibrationValue));

    /* When the CSI is used as system clock it will not disabled */
    const uint32_t temp_sysclksrc = __HAL_RCC_GET_SYSCLK_SOURCE();
 8001f10:	4a2b      	ldr	r2, [pc, #172]	@ (8001fc0 <HAL_RCC_OscConfig+0x264>)
 8001f12:	6913      	ldr	r3, [r2, #16]
 8001f14:	f003 0338 	and.w	r3, r3, #56	@ 0x38
    const uint32_t temp_pllckselr = RCC->PLLCKSELR;
 8001f18:	6a92      	ldr	r2, [r2, #40]	@ 0x28
    if ((temp_sysclksrc == RCC_CFGR_SWS_CSI) || ((temp_sysclksrc == RCC_CFGR_SWS_PLL1) && ((temp_pllckselr & RCC_PLLCKSELR_PLLSRC) == RCC_PLLCKSELR_PLLSRC_CSI)))
 8001f1a:	2b08      	cmp	r3, #8
 8001f1c:	d056      	beq.n	8001fcc <HAL_RCC_OscConfig+0x270>
 8001f1e:	2b18      	cmp	r3, #24
 8001f20:	d050      	beq.n	8001fc4 <HAL_RCC_OscConfig+0x268>
      }
    }
    else
    {
      /* Check the CSI State */
      if ((RCC_OscInitStruct->CSIState) != RCC_CSI_OFF)
 8001f22:	69e3      	ldr	r3, [r4, #28]
 8001f24:	2b00      	cmp	r3, #0
 8001f26:	f000 80b8 	beq.w	800209a <HAL_RCC_OscConfig+0x33e>
      {
        /* Enable the Internal High Speed oscillator (CSI). */
        __HAL_RCC_CSI_ENABLE();
 8001f2a:	4a25      	ldr	r2, [pc, #148]	@ (8001fc0 <HAL_RCC_OscConfig+0x264>)
 8001f2c:	6813      	ldr	r3, [r2, #0]
 8001f2e:	f043 0380 	orr.w	r3, r3, #128	@ 0x80
 8001f32:	6013      	str	r3, [r2, #0]

        /* Get Start Tick*/
        tickstart = HAL_GetTick();
 8001f34:	f7fe fb94 	bl	8000660 <HAL_GetTick>
 8001f38:	4605      	mov	r5, r0

        /* Wait till CSI is ready */
        while (__HAL_RCC_GET_FLAG(RCC_FLAG_CSIRDY) == 0U)
 8001f3a:	4b21      	ldr	r3, [pc, #132]	@ (8001fc0 <HAL_RCC_OscConfig+0x264>)
 8001f3c:	681b      	ldr	r3, [r3, #0]
 8001f3e:	f413 7f80 	tst.w	r3, #256	@ 0x100
 8001f42:	f040 8088 	bne.w	8002056 <HAL_RCC_OscConfig+0x2fa>
        {
          if ((HAL_GetTick() - tickstart) > CSI_TIMEOUT_VALUE)
 8001f46:	f7fe fb8b 	bl	8000660 <HAL_GetTick>
 8001f4a:	1b40      	subs	r0, r0, r5
 8001f4c:	2802      	cmp	r0, #2
 8001f4e:	d9f4      	bls.n	8001f3a <HAL_RCC_OscConfig+0x1de>
          {
            return HAL_TIMEOUT;
 8001f50:	2003      	movs	r0, #3
 8001f52:	e248      	b.n	80023e6 <HAL_RCC_OscConfig+0x68a>
        __HAL_RCC_HSI_CALIBRATIONVALUE_ADJUST(RCC_OscInitStruct->HSICalibrationValue);
 8001f54:	f7fe fb9e 	bl	8000694 <HAL_GetREVID>
 8001f58:	f241 0303 	movw	r3, #4099	@ 0x1003
 8001f5c:	4298      	cmp	r0, r3
 8001f5e:	d812      	bhi.n	8001f86 <HAL_RCC_OscConfig+0x22a>
 8001f60:	6922      	ldr	r2, [r4, #16]
 8001f62:	2a40      	cmp	r2, #64	@ 0x40
 8001f64:	d007      	beq.n	8001f76 <HAL_RCC_OscConfig+0x21a>
 8001f66:	4916      	ldr	r1, [pc, #88]	@ (8001fc0 <HAL_RCC_OscConfig+0x264>)
 8001f68:	684b      	ldr	r3, [r1, #4]
 8001f6a:	f423 337c 	bic.w	r3, r3, #258048	@ 0x3f000
 8001f6e:	ea43 3302 	orr.w	r3, r3, r2, lsl #12
 8001f72:	604b      	str	r3, [r1, #4]
 8001f74:	e7c7      	b.n	8001f06 <HAL_RCC_OscConfig+0x1aa>
 8001f76:	4a12      	ldr	r2, [pc, #72]	@ (8001fc0 <HAL_RCC_OscConfig+0x264>)
 8001f78:	6853      	ldr	r3, [r2, #4]
 8001f7a:	f423 337c 	bic.w	r3, r3, #258048	@ 0x3f000
 8001f7e:	f443 3300 	orr.w	r3, r3, #131072	@ 0x20000
 8001f82:	6053      	str	r3, [r2, #4]
 8001f84:	e7bf      	b.n	8001f06 <HAL_RCC_OscConfig+0x1aa>
 8001f86:	4a0e      	ldr	r2, [pc, #56]	@ (8001fc0 <HAL_RCC_OscConfig+0x264>)
 8001f88:	6853      	ldr	r3, [r2, #4]
 8001f8a:	f023 43fe 	bic.w	r3, r3, #2130706432	@ 0x7f000000
 8001f8e:	6921      	ldr	r1, [r4, #16]
 8001f90:	ea43 6301 	orr.w	r3, r3, r1, lsl #24
 8001f94:	6053      	str	r3, [r2, #4]
 8001f96:	e7b6      	b.n	8001f06 <HAL_RCC_OscConfig+0x1aa>
        __HAL_RCC_HSI_DISABLE();
 8001f98:	4a09      	ldr	r2, [pc, #36]	@ (8001fc0 <HAL_RCC_OscConfig+0x264>)
 8001f9a:	6813      	ldr	r3, [r2, #0]
 8001f9c:	f023 0301 	bic.w	r3, r3, #1
 8001fa0:	6013      	str	r3, [r2, #0]
        tickstart = HAL_GetTick();
 8001fa2:	f7fe fb5d 	bl	8000660 <HAL_GetTick>
 8001fa6:	4605      	mov	r5, r0
        while (__HAL_RCC_GET_FLAG(RCC_FLAG_HSIRDY) != 0U)
 8001fa8:	4b05      	ldr	r3, [pc, #20]	@ (8001fc0 <HAL_RCC_OscConfig+0x264>)
 8001faa:	681b      	ldr	r3, [r3, #0]
 8001fac:	f013 0f04 	tst.w	r3, #4
 8001fb0:	d0a9      	beq.n	8001f06 <HAL_RCC_OscConfig+0x1aa>
          if ((HAL_GetTick() - tickstart) > HSI_TIMEOUT_VALUE)
 8001fb2:	f7fe fb55 	bl	8000660 <HAL_GetTick>
 8001fb6:	1b40      	subs	r0, r0, r5
 8001fb8:	2802      	cmp	r0, #2
 8001fba:	d9f5      	bls.n	8001fa8 <HAL_RCC_OscConfig+0x24c>
            return HAL_TIMEOUT;
 8001fbc:	2003      	movs	r0, #3
 8001fbe:	e212      	b.n	80023e6 <HAL_RCC_OscConfig+0x68a>
 8001fc0:	58024400 	.word	0x58024400
    if ((temp_sysclksrc == RCC_CFGR_SWS_CSI) || ((temp_sysclksrc == RCC_CFGR_SWS_PLL1) && ((temp_pllckselr & RCC_PLLCKSELR_PLLSRC) == RCC_PLLCKSELR_PLLSRC_CSI)))
 8001fc4:	f002 0203 	and.w	r2, r2, #3
 8001fc8:	2a01      	cmp	r2, #1
 8001fca:	d1aa      	bne.n	8001f22 <HAL_RCC_OscConfig+0x1c6>
      if ((__HAL_RCC_GET_FLAG(RCC_FLAG_CSIRDY) != 0U) && (RCC_OscInitStruct->CSIState != RCC_CSI_ON))
 8001fcc:	4ba1      	ldr	r3, [pc, #644]	@ (8002254 <HAL_RCC_OscConfig+0x4f8>)
 8001fce:	681b      	ldr	r3, [r3, #0]
 8001fd0:	f413 7f80 	tst.w	r3, #256	@ 0x100
 8001fd4:	d003      	beq.n	8001fde <HAL_RCC_OscConfig+0x282>
 8001fd6:	69e3      	ldr	r3, [r4, #28]
 8001fd8:	2b80      	cmp	r3, #128	@ 0x80
 8001fda:	f040 8201 	bne.w	80023e0 <HAL_RCC_OscConfig+0x684>
        __HAL_RCC_CSI_CALIBRATIONVALUE_ADJUST(RCC_OscInitStruct->CSICalibrationValue);
 8001fde:	f7fe fb59 	bl	8000694 <HAL_GetREVID>
 8001fe2:	f241 0303 	movw	r3, #4099	@ 0x1003
 8001fe6:	4298      	cmp	r0, r3
 8001fe8:	d812      	bhi.n	8002010 <HAL_RCC_OscConfig+0x2b4>
 8001fea:	6a22      	ldr	r2, [r4, #32]
 8001fec:	2a20      	cmp	r2, #32
 8001fee:	d007      	beq.n	8002000 <HAL_RCC_OscConfig+0x2a4>
 8001ff0:	4998      	ldr	r1, [pc, #608]	@ (8002254 <HAL_RCC_OscConfig+0x4f8>)
 8001ff2:	684b      	ldr	r3, [r1, #4]
 8001ff4:	f023 43f8 	bic.w	r3, r3, #2080374784	@ 0x7c000000
 8001ff8:	ea43 6382 	orr.w	r3, r3, r2, lsl #26
 8001ffc:	604b      	str	r3, [r1, #4]
 8001ffe:	e00f      	b.n	8002020 <HAL_RCC_OscConfig+0x2c4>
 8002000:	4a94      	ldr	r2, [pc, #592]	@ (8002254 <HAL_RCC_OscConfig+0x4f8>)
 8002002:	6853      	ldr	r3, [r2, #4]
 8002004:	f023 43f8 	bic.w	r3, r3, #2080374784	@ 0x7c000000
 8002008:	f043 4380 	orr.w	r3, r3, #1073741824	@ 0x40000000
 800200c:	6053      	str	r3, [r2, #4]
 800200e:	e007      	b.n	8002020 <HAL_RCC_OscConfig+0x2c4>
 8002010:	4a90      	ldr	r2, [pc, #576]	@ (8002254 <HAL_RCC_OscConfig+0x4f8>)
 8002012:	68d3      	ldr	r3, [r2, #12]
 8002014:	f023 537c 	bic.w	r3, r3, #1056964608	@ 0x3f000000
 8002018:	6a21      	ldr	r1, [r4, #32]
 800201a:	ea43 6301 	orr.w	r3, r3, r1, lsl #24
 800201e:	60d3      	str	r3, [r2, #12]
        }
      }
    }
  }
  /*------------------------------ LSI Configuration -------------------------*/
  if (((RCC_OscInitStruct->OscillatorType) & RCC_OSCILLATORTYPE_LSI) == RCC_OSCILLATORTYPE_LSI)
 8002020:	6823      	ldr	r3, [r4, #0]
 8002022:	f013 0f08 	tst.w	r3, #8
 8002026:	d060      	beq.n	80020ea <HAL_RCC_OscConfig+0x38e>
  {
    /* Check the parameters */
    assert_param(IS_RCC_LSI(RCC_OscInitStruct->LSIState));

    /* Check the LSI State */
    if ((RCC_OscInitStruct->LSIState) != RCC_LSI_OFF)
 8002028:	6963      	ldr	r3, [r4, #20]
 800202a:	2b00      	cmp	r3, #0
 800202c:	d049      	beq.n	80020c2 <HAL_RCC_OscConfig+0x366>
    {
      /* Enable the Internal Low Speed oscillator (LSI). */
      __HAL_RCC_LSI_ENABLE();
 800202e:	4a89      	ldr	r2, [pc, #548]	@ (8002254 <HAL_RCC_OscConfig+0x4f8>)
 8002030:	6f53      	ldr	r3, [r2, #116]	@ 0x74
 8002032:	f043 0301 	orr.w	r3, r3, #1
 8002036:	6753      	str	r3, [r2, #116]	@ 0x74

      /* Get Start Tick*/
      tickstart = HAL_GetTick();
 8002038:	f7fe fb12 	bl	8000660 <HAL_GetTick>
 800203c:	4605      	mov	r5, r0

      /* Wait till LSI is ready */
      while (__HAL_RCC_GET_FLAG(RCC_FLAG_LSIRDY) == 0U)
 800203e:	4b85      	ldr	r3, [pc, #532]	@ (8002254 <HAL_RCC_OscConfig+0x4f8>)
 8002040:	6f5b      	ldr	r3, [r3, #116]	@ 0x74
 8002042:	f013 0f02 	tst.w	r3, #2
 8002046:	d150      	bne.n	80020ea <HAL_RCC_OscConfig+0x38e>
      {
        if ((HAL_GetTick() - tickstart) > LSI_TIMEOUT_VALUE)
 8002048:	f7fe fb0a 	bl	8000660 <HAL_GetTick>
 800204c:	1b40      	subs	r0, r0, r5
 800204e:	2802      	cmp	r0, #2
 8002050:	d9f5      	bls.n	800203e <HAL_RCC_OscConfig+0x2e2>
        {
          return HAL_TIMEOUT;
 8002052:	2003      	movs	r0, #3
 8002054:	e1c7      	b.n	80023e6 <HAL_RCC_OscConfig+0x68a>
        __HAL_RCC_CSI_CALIBRATIONVALUE_ADJUST(RCC_OscInitStruct->CSICalibrationValue);
 8002056:	f7fe fb1d 	bl	8000694 <HAL_GetREVID>
 800205a:	f241 0303 	movw	r3, #4099	@ 0x1003
 800205e:	4298      	cmp	r0, r3
 8002060:	d812      	bhi.n	8002088 <HAL_RCC_OscConfig+0x32c>
 8002062:	6a22      	ldr	r2, [r4, #32]
 8002064:	2a20      	cmp	r2, #32
 8002066:	d007      	beq.n	8002078 <HAL_RCC_OscConfig+0x31c>
 8002068:	497a      	ldr	r1, [pc, #488]	@ (8002254 <HAL_RCC_OscConfig+0x4f8>)
 800206a:	684b      	ldr	r3, [r1, #4]
 800206c:	f023 43f8 	bic.w	r3, r3, #2080374784	@ 0x7c000000
 8002070:	ea43 6382 	orr.w	r3, r3, r2, lsl #26
 8002074:	604b      	str	r3, [r1, #4]
 8002076:	e7d3      	b.n	8002020 <HAL_RCC_OscConfig+0x2c4>
 8002078:	4a76      	ldr	r2, [pc, #472]	@ (8002254 <HAL_RCC_OscConfig+0x4f8>)
 800207a:	6853      	ldr	r3, [r2, #4]
 800207c:	f023 43f8 	bic.w	r3, r3, #2080374784	@ 0x7c000000
 8002080:	f043 4380 	orr.w	r3, r3, #1073741824	@ 0x40000000
 8002084:	6053      	str	r3, [r2, #4]
 8002086:	e7cb      	b.n	8002020 <HAL_RCC_OscConfig+0x2c4>
 8002088:	4a72      	ldr	r2, [pc, #456]	@ (8002254 <HAL_RCC_OscConfig+0x4f8>)
 800208a:	68d3      	ldr	r3, [r2, #12]
 800208c:	f023 537c 	bic.w	r3, r3, #1056964608	@ 0x3f000000
 8002090:	6a21      	ldr	r1, [r4, #32]
 8002092:	ea43 6301 	orr.w	r3, r3, r1, lsl #24
 8002096:	60d3      	str	r3, [r2, #12]
 8002098:	e7c2      	b.n	8002020 <HAL_RCC_OscConfig+0x2c4>
        __HAL_RCC_CSI_DISABLE();
 800209a:	4a6e      	ldr	r2, [pc, #440]	@ (8002254 <HAL_RCC_OscConfig+0x4f8>)
 800209c:	6813      	ldr	r3, [r2, #0]
 800209e:	f023 0380 	bic.w	r3, r3, #128	@ 0x80
 80020a2:	6013      	str	r3, [r2, #0]
        tickstart = HAL_GetTick();
 80020a4:	f7fe fadc 	bl	8000660 <HAL_GetTick>
 80020a8:	4605      	mov	r5, r0
        while (__HAL_RCC_GET_FLAG(RCC_FLAG_CSIRDY) != 0U)
 80020aa:	4b6a      	ldr	r3, [pc, #424]	@ (8002254 <HAL_RCC_OscConfig+0x4f8>)
 80020ac:	681b      	ldr	r3, [r3, #0]
 80020ae:	f413 7f80 	tst.w	r3, #256	@ 0x100
 80020b2:	d0b5      	beq.n	8002020 <HAL_RCC_OscConfig+0x2c4>
          if ((HAL_GetTick() - tickstart) > CSI_TIMEOUT_VALUE)
 80020b4:	f7fe fad4 	bl	8000660 <HAL_GetTick>
 80020b8:	1b40      	subs	r0, r0, r5
 80020ba:	2802      	cmp	r0, #2
 80020bc:	d9f5      	bls.n	80020aa <HAL_RCC_OscConfig+0x34e>
            return HAL_TIMEOUT;
 80020be:	2003      	movs	r0, #3
 80020c0:	e191      	b.n	80023e6 <HAL_RCC_OscConfig+0x68a>
      }
    }
    else
    {
      /* Disable the Internal Low Speed oscillator (LSI). */
      __HAL_RCC_LSI_DISABLE();
 80020c2:	4a64      	ldr	r2, [pc, #400]	@ (8002254 <HAL_RCC_OscConfig+0x4f8>)
 80020c4:	6f53      	ldr	r3, [r2, #116]	@ 0x74
 80020c6:	f023 0301 	bic.w	r3, r3, #1
 80020ca:	6753      	str	r3, [r2, #116]	@ 0x74

      /* Get Start Tick*/
      tickstart = HAL_GetTick();
 80020cc:	f7fe fac8 	bl	8000660 <HAL_GetTick>
 80020d0:	4605      	mov	r5, r0

      /* Wait till LSI is ready */
      while (__HAL_RCC_GET_FLAG(RCC_FLAG_LSIRDY) != 0U)
 80020d2:	4b60      	ldr	r3, [pc, #384]	@ (8002254 <HAL_RCC_OscConfig+0x4f8>)
 80020d4:	6f5b      	ldr	r3, [r3, #116]	@ 0x74
 80020d6:	f013 0f02 	tst.w	r3, #2
 80020da:	d006      	beq.n	80020ea <HAL_RCC_OscConfig+0x38e>
      {
        if ((HAL_GetTick() - tickstart) > LSI_TIMEOUT_VALUE)
 80020dc:	f7fe fac0 	bl	8000660 <HAL_GetTick>
 80020e0:	1b40      	subs	r0, r0, r5
 80020e2:	2802      	cmp	r0, #2
 80020e4:	d9f5      	bls.n	80020d2 <HAL_RCC_OscConfig+0x376>
        {
          return HAL_TIMEOUT;
 80020e6:	2003      	movs	r0, #3
 80020e8:	e17d      	b.n	80023e6 <HAL_RCC_OscConfig+0x68a>
      }
    }
  }

  /*------------------------------ HSI48 Configuration -------------------------*/
  if (((RCC_OscInitStruct->OscillatorType) & RCC_OSCILLATORTYPE_HSI48) == RCC_OSCILLATORTYPE_HSI48)
 80020ea:	6823      	ldr	r3, [r4, #0]
 80020ec:	f013 0f20 	tst.w	r3, #32
 80020f0:	d029      	beq.n	8002146 <HAL_RCC_OscConfig+0x3ea>
  {
    /* Check the parameters */
    assert_param(IS_RCC_HSI48(RCC_OscInitStruct->HSI48State));

    /* Check the HSI48 State */
    if ((RCC_OscInitStruct->HSI48State) != RCC_HSI48_OFF)
 80020f2:	69a3      	ldr	r3, [r4, #24]
 80020f4:	b19b      	cbz	r3, 800211e <HAL_RCC_OscConfig+0x3c2>
    {
      /* Enable the Internal Low Speed oscillator (HSI48). */
      __HAL_RCC_HSI48_ENABLE();
 80020f6:	4a57      	ldr	r2, [pc, #348]	@ (8002254 <HAL_RCC_OscConfig+0x4f8>)
 80020f8:	6813      	ldr	r3, [r2, #0]
 80020fa:	f443 5380 	orr.w	r3, r3, #4096	@ 0x1000
 80020fe:	6013      	str	r3, [r2, #0]

      /* Get time-out */
      tickstart = HAL_GetTick();
 8002100:	f7fe faae 	bl	8000660 <HAL_GetTick>
 8002104:	4605      	mov	r5, r0

      /* Wait till HSI48 is ready */
      while (__HAL_RCC_GET_FLAG(RCC_FLAG_HSI48RDY) == 0U)
 8002106:	4b53      	ldr	r3, [pc, #332]	@ (8002254 <HAL_RCC_OscConfig+0x4f8>)
 8002108:	681b      	ldr	r3, [r3, #0]
 800210a:	f413 5f00 	tst.w	r3, #8192	@ 0x2000
 800210e:	d11a      	bne.n	8002146 <HAL_RCC_OscConfig+0x3ea>
      {
        if ((HAL_GetTick() - tickstart) > HSI48_TIMEOUT_VALUE)
 8002110:	f7fe faa6 	bl	8000660 <HAL_GetTick>
 8002114:	1b40      	subs	r0, r0, r5
 8002116:	2802      	cmp	r0, #2
 8002118:	d9f5      	bls.n	8002106 <HAL_RCC_OscConfig+0x3aa>
        {
          return HAL_TIMEOUT;
 800211a:	2003      	movs	r0, #3
 800211c:	e163      	b.n	80023e6 <HAL_RCC_OscConfig+0x68a>
      }
    }
    else
    {
      /* Disable the Internal Low Speed oscillator (HSI48). */
      __HAL_RCC_HSI48_DISABLE();
 800211e:	4a4d      	ldr	r2, [pc, #308]	@ (8002254 <HAL_RCC_OscConfig+0x4f8>)
 8002120:	6813      	ldr	r3, [r2, #0]
 8002122:	f423 5380 	bic.w	r3, r3, #4096	@ 0x1000
 8002126:	6013      	str	r3, [r2, #0]

      /* Get time-out */
      tickstart = HAL_GetTick();
 8002128:	f7fe fa9a 	bl	8000660 <HAL_GetTick>
 800212c:	4605      	mov	r5, r0

      /* Wait till HSI48 is ready */
      while (__HAL_RCC_GET_FLAG(RCC_FLAG_HSI48RDY) != 0U)
 800212e:	4b49      	ldr	r3, [pc, #292]	@ (8002254 <HAL_RCC_OscConfig+0x4f8>)
 8002130:	681b      	ldr	r3, [r3, #0]
 8002132:	f413 5f00 	tst.w	r3, #8192	@ 0x2000
 8002136:	d006      	beq.n	8002146 <HAL_RCC_OscConfig+0x3ea>
      {
        if ((HAL_GetTick() - tickstart) > HSI48_TIMEOUT_VALUE)
 8002138:	f7fe fa92 	bl	8000660 <HAL_GetTick>
 800213c:	1b40      	subs	r0, r0, r5
 800213e:	2802      	cmp	r0, #2
 8002140:	d9f5      	bls.n	800212e <HAL_RCC_OscConfig+0x3d2>
        {
          return HAL_TIMEOUT;
 8002142:	2003      	movs	r0, #3
 8002144:	e14f      	b.n	80023e6 <HAL_RCC_OscConfig+0x68a>
        }
      }
    }
  }
  /*------------------------------ LSE Configuration -------------------------*/
  if (((RCC_OscInitStruct->OscillatorType) & RCC_OSCILLATORTYPE_LSE) == RCC_OSCILLATORTYPE_LSE)
 8002146:	6823      	ldr	r3, [r4, #0]
 8002148:	f013 0f04 	tst.w	r3, #4
 800214c:	d121      	bne.n	8002192 <HAL_RCC_OscConfig+0x436>
    }
  }
  /*-------------------------------- PLL Configuration -----------------------*/
  /* Check the parameters */
  assert_param(IS_RCC_PLL(RCC_OscInitStruct->PLL.PLLState));
  if ((RCC_OscInitStruct->PLL.PLLState) != RCC_PLL_NONE)
 800214e:	6a63      	ldr	r3, [r4, #36]	@ 0x24
 8002150:	2b00      	cmp	r3, #0
 8002152:	f000 8147 	beq.w	80023e4 <HAL_RCC_OscConfig+0x688>
  {
    /* Check if the PLL is used as system clock or not */
    if (__HAL_RCC_GET_SYSCLK_SOURCE() != RCC_CFGR_SWS_PLL1)
 8002156:	4a3f      	ldr	r2, [pc, #252]	@ (8002254 <HAL_RCC_OscConfig+0x4f8>)
 8002158:	6912      	ldr	r2, [r2, #16]
 800215a:	f002 0238 	and.w	r2, r2, #56	@ 0x38
 800215e:	2a18      	cmp	r2, #24
 8002160:	f000 80ee 	beq.w	8002340 <HAL_RCC_OscConfig+0x5e4>
    {
      if ((RCC_OscInitStruct->PLL.PLLState) == RCC_PLL_ON)
 8002164:	2b02      	cmp	r3, #2
 8002166:	d079      	beq.n	800225c <HAL_RCC_OscConfig+0x500>
        }
      }
      else
      {
        /* Disable the main PLL. */
        __HAL_RCC_PLL_DISABLE();
 8002168:	4a3a      	ldr	r2, [pc, #232]	@ (8002254 <HAL_RCC_OscConfig+0x4f8>)
 800216a:	6813      	ldr	r3, [r2, #0]
 800216c:	f023 7380 	bic.w	r3, r3, #16777216	@ 0x1000000
 8002170:	6013      	str	r3, [r2, #0]

        /* Get Start Tick*/
        tickstart = HAL_GetTick();
 8002172:	f7fe fa75 	bl	8000660 <HAL_GetTick>
 8002176:	4604      	mov	r4, r0

        /* Wait till PLL is disabled */
        while (__HAL_RCC_GET_FLAG(RCC_FLAG_PLLRDY) != 0U)
 8002178:	4b36      	ldr	r3, [pc, #216]	@ (8002254 <HAL_RCC_OscConfig+0x4f8>)
 800217a:	681b      	ldr	r3, [r3, #0]
 800217c:	f013 7f00 	tst.w	r3, #33554432	@ 0x2000000
 8002180:	f000 80dc 	beq.w	800233c <HAL_RCC_OscConfig+0x5e0>
        {
          if ((HAL_GetTick() - tickstart) > PLL_TIMEOUT_VALUE)
 8002184:	f7fe fa6c 	bl	8000660 <HAL_GetTick>
 8002188:	1b00      	subs	r0, r0, r4
 800218a:	2802      	cmp	r0, #2
 800218c:	d9f4      	bls.n	8002178 <HAL_RCC_OscConfig+0x41c>
          {
            return HAL_TIMEOUT;
 800218e:	2003      	movs	r0, #3
 8002190:	e129      	b.n	80023e6 <HAL_RCC_OscConfig+0x68a>
    PWR->CR1 |= PWR_CR1_DBP;
 8002192:	4a31      	ldr	r2, [pc, #196]	@ (8002258 <HAL_RCC_OscConfig+0x4fc>)
 8002194:	6813      	ldr	r3, [r2, #0]
 8002196:	f443 7380 	orr.w	r3, r3, #256	@ 0x100
 800219a:	6013      	str	r3, [r2, #0]
    tickstart = HAL_GetTick();
 800219c:	f7fe fa60 	bl	8000660 <HAL_GetTick>
 80021a0:	4605      	mov	r5, r0
    while ((PWR->CR1 & PWR_CR1_DBP) == 0U)
 80021a2:	4b2d      	ldr	r3, [pc, #180]	@ (8002258 <HAL_RCC_OscConfig+0x4fc>)
 80021a4:	681b      	ldr	r3, [r3, #0]
 80021a6:	f413 7f80 	tst.w	r3, #256	@ 0x100
 80021aa:	d106      	bne.n	80021ba <HAL_RCC_OscConfig+0x45e>
      if ((HAL_GetTick() - tickstart) > RCC_DBP_TIMEOUT_VALUE)
 80021ac:	f7fe fa58 	bl	8000660 <HAL_GetTick>
 80021b0:	1b40      	subs	r0, r0, r5
 80021b2:	2864      	cmp	r0, #100	@ 0x64
 80021b4:	d9f5      	bls.n	80021a2 <HAL_RCC_OscConfig+0x446>
        return HAL_TIMEOUT;
 80021b6:	2003      	movs	r0, #3
 80021b8:	e115      	b.n	80023e6 <HAL_RCC_OscConfig+0x68a>
    __HAL_RCC_LSE_CONFIG(RCC_OscInitStruct->LSEState);
 80021ba:	68a3      	ldr	r3, [r4, #8]
 80021bc:	2b01      	cmp	r3, #1
 80021be:	d00a      	beq.n	80021d6 <HAL_RCC_OscConfig+0x47a>
 80021c0:	bb0b      	cbnz	r3, 8002206 <HAL_RCC_OscConfig+0x4aa>
 80021c2:	4b24      	ldr	r3, [pc, #144]	@ (8002254 <HAL_RCC_OscConfig+0x4f8>)
 80021c4:	6f1a      	ldr	r2, [r3, #112]	@ 0x70
 80021c6:	f022 0201 	bic.w	r2, r2, #1
 80021ca:	671a      	str	r2, [r3, #112]	@ 0x70
 80021cc:	6f1a      	ldr	r2, [r3, #112]	@ 0x70
 80021ce:	f022 0204 	bic.w	r2, r2, #4
 80021d2:	671a      	str	r2, [r3, #112]	@ 0x70
 80021d4:	e004      	b.n	80021e0 <HAL_RCC_OscConfig+0x484>
 80021d6:	4a1f      	ldr	r2, [pc, #124]	@ (8002254 <HAL_RCC_OscConfig+0x4f8>)
 80021d8:	6f13      	ldr	r3, [r2, #112]	@ 0x70
 80021da:	f043 0301 	orr.w	r3, r3, #1
 80021de:	6713      	str	r3, [r2, #112]	@ 0x70
    if ((RCC_OscInitStruct->LSEState) != RCC_LSE_OFF)
 80021e0:	68a3      	ldr	r3, [r4, #8]
 80021e2:	b333      	cbz	r3, 8002232 <HAL_RCC_OscConfig+0x4d6>
      tickstart = HAL_GetTick();
 80021e4:	f7fe fa3c 	bl	8000660 <HAL_GetTick>
 80021e8:	4605      	mov	r5, r0
      while (__HAL_RCC_GET_FLAG(RCC_FLAG_LSERDY) == 0U)
 80021ea:	4b1a      	ldr	r3, [pc, #104]	@ (8002254 <HAL_RCC_OscConfig+0x4f8>)
 80021ec:	6f1b      	ldr	r3, [r3, #112]	@ 0x70
 80021ee:	f013 0f02 	tst.w	r3, #2
 80021f2:	d1ac      	bne.n	800214e <HAL_RCC_OscConfig+0x3f2>
        if ((HAL_GetTick() - tickstart) > RCC_LSE_TIMEOUT_VALUE)
 80021f4:	f7fe fa34 	bl	8000660 <HAL_GetTick>
 80021f8:	1b40      	subs	r0, r0, r5
 80021fa:	f241 3388 	movw	r3, #5000	@ 0x1388
 80021fe:	4298      	cmp	r0, r3
 8002200:	d9f3      	bls.n	80021ea <HAL_RCC_OscConfig+0x48e>
          return HAL_TIMEOUT;
 8002202:	2003      	movs	r0, #3
 8002204:	e0ef      	b.n	80023e6 <HAL_RCC_OscConfig+0x68a>
    __HAL_RCC_LSE_CONFIG(RCC_OscInitStruct->LSEState);
 8002206:	2b05      	cmp	r3, #5
 8002208:	d009      	beq.n	800221e <HAL_RCC_OscConfig+0x4c2>
 800220a:	4b12      	ldr	r3, [pc, #72]	@ (8002254 <HAL_RCC_OscConfig+0x4f8>)
 800220c:	6f1a      	ldr	r2, [r3, #112]	@ 0x70
 800220e:	f022 0201 	bic.w	r2, r2, #1
 8002212:	671a      	str	r2, [r3, #112]	@ 0x70
 8002214:	6f1a      	ldr	r2, [r3, #112]	@ 0x70
 8002216:	f022 0204 	bic.w	r2, r2, #4
 800221a:	671a      	str	r2, [r3, #112]	@ 0x70
 800221c:	e7e0      	b.n	80021e0 <HAL_RCC_OscConfig+0x484>
 800221e:	4b0d      	ldr	r3, [pc, #52]	@ (8002254 <HAL_RCC_OscConfig+0x4f8>)
 8002220:	6f1a      	ldr	r2, [r3, #112]	@ 0x70
 8002222:	f042 0204 	orr.w	r2, r2, #4
 8002226:	671a      	str	r2, [r3, #112]	@ 0x70
 8002228:	6f1a      	ldr	r2, [r3, #112]	@ 0x70
 800222a:	f042 0201 	orr.w	r2, r2, #1
 800222e:	671a      	str	r2, [r3, #112]	@ 0x70
 8002230:	e7d6      	b.n	80021e0 <HAL_RCC_OscConfig+0x484>
      tickstart = HAL_GetTick();
 8002232:	f7fe fa15 	bl	8000660 <HAL_GetTick>
 8002236:	4605      	mov	r5, r0
      while (__HAL_RCC_GET_FLAG(RCC_FLAG_LSERDY) != 0U)
 8002238:	4b06      	ldr	r3, [pc, #24]	@ (8002254 <HAL_RCC_OscConfig+0x4f8>)
 800223a:	6f1b      	ldr	r3, [r3, #112]	@ 0x70
 800223c:	f013 0f02 	tst.w	r3, #2
 8002240:	d085      	beq.n	800214e <HAL_RCC_OscConfig+0x3f2>
        if ((HAL_GetTick() - tickstart) > RCC_LSE_TIMEOUT_VALUE)
 8002242:	f7fe fa0d 	bl	8000660 <HAL_GetTick>
 8002246:	1b40      	subs	r0, r0, r5
 8002248:	f241 3388 	movw	r3, #5000	@ 0x1388
 800224c:	4298      	cmp	r0, r3
 800224e:	d9f3      	bls.n	8002238 <HAL_RCC_OscConfig+0x4dc>
          return HAL_TIMEOUT;
 8002250:	2003      	movs	r0, #3
 8002252:	e0c8      	b.n	80023e6 <HAL_RCC_OscConfig+0x68a>
 8002254:	58024400 	.word	0x58024400
 8002258:	58024800 	.word	0x58024800
        __HAL_RCC_PLL_DISABLE();
 800225c:	4a69      	ldr	r2, [pc, #420]	@ (8002404 <HAL_RCC_OscConfig+0x6a8>)
 800225e:	6813      	ldr	r3, [r2, #0]
 8002260:	f023 7380 	bic.w	r3, r3, #16777216	@ 0x1000000
 8002264:	6013      	str	r3, [r2, #0]
        tickstart = HAL_GetTick();
 8002266:	f7fe f9fb 	bl	8000660 <HAL_GetTick>
 800226a:	4605      	mov	r5, r0
        while (__HAL_RCC_GET_FLAG(RCC_FLAG_PLLRDY) != 0U)
 800226c:	4b65      	ldr	r3, [pc, #404]	@ (8002404 <HAL_RCC_OscConfig+0x6a8>)
 800226e:	681b      	ldr	r3, [r3, #0]
 8002270:	f013 7f00 	tst.w	r3, #33554432	@ 0x2000000
 8002274:	d006      	beq.n	8002284 <HAL_RCC_OscConfig+0x528>
          if ((HAL_GetTick() - tickstart) > PLL_TIMEOUT_VALUE)
 8002276:	f7fe f9f3 	bl	8000660 <HAL_GetTick>
 800227a:	1b40      	subs	r0, r0, r5
 800227c:	2802      	cmp	r0, #2
 800227e:	d9f5      	bls.n	800226c <HAL_RCC_OscConfig+0x510>
            return HAL_TIMEOUT;
 8002280:	2003      	movs	r0, #3
 8002282:	e0b0      	b.n	80023e6 <HAL_RCC_OscConfig+0x68a>
        __HAL_RCC_PLL_CONFIG(RCC_OscInitStruct->PLL.PLLSource,
 8002284:	4b5f      	ldr	r3, [pc, #380]	@ (8002404 <HAL_RCC_OscConfig+0x6a8>)
 8002286:	6a99      	ldr	r1, [r3, #40]	@ 0x28
 8002288:	4a5f      	ldr	r2, [pc, #380]	@ (8002408 <HAL_RCC_OscConfig+0x6ac>)
 800228a:	400a      	ands	r2, r1
 800228c:	6aa1      	ldr	r1, [r4, #40]	@ 0x28
 800228e:	6ae0      	ldr	r0, [r4, #44]	@ 0x2c
 8002290:	ea41 1100 	orr.w	r1, r1, r0, lsl #4
 8002294:	430a      	orrs	r2, r1
 8002296:	629a      	str	r2, [r3, #40]	@ 0x28
 8002298:	6b22      	ldr	r2, [r4, #48]	@ 0x30
 800229a:	3a01      	subs	r2, #1
 800229c:	f3c2 0208 	ubfx	r2, r2, #0, #9
 80022a0:	6b61      	ldr	r1, [r4, #52]	@ 0x34
 80022a2:	3901      	subs	r1, #1
 80022a4:	0249      	lsls	r1, r1, #9
 80022a6:	b289      	uxth	r1, r1
 80022a8:	430a      	orrs	r2, r1
 80022aa:	6ba1      	ldr	r1, [r4, #56]	@ 0x38
 80022ac:	3901      	subs	r1, #1
 80022ae:	0409      	lsls	r1, r1, #16
 80022b0:	f401 01fe 	and.w	r1, r1, #8323072	@ 0x7f0000
 80022b4:	430a      	orrs	r2, r1
 80022b6:	6be1      	ldr	r1, [r4, #60]	@ 0x3c
 80022b8:	3901      	subs	r1, #1
 80022ba:	0609      	lsls	r1, r1, #24
 80022bc:	f001 41fe 	and.w	r1, r1, #2130706432	@ 0x7f000000
 80022c0:	430a      	orrs	r2, r1
 80022c2:	631a      	str	r2, [r3, #48]	@ 0x30
        __HAL_RCC_PLLFRACN_DISABLE();
 80022c4:	6ada      	ldr	r2, [r3, #44]	@ 0x2c
 80022c6:	f022 0201 	bic.w	r2, r2, #1
 80022ca:	62da      	str	r2, [r3, #44]	@ 0x2c
        __HAL_RCC_PLLFRACN_CONFIG(RCC_OscInitStruct->PLL.PLLFRACN);
 80022cc:	6b5a      	ldr	r2, [r3, #52]	@ 0x34
 80022ce:	f36f 02cf 	bfc	r2, #3, #13
 80022d2:	6ca1      	ldr	r1, [r4, #72]	@ 0x48
 80022d4:	ea42 02c1 	orr.w	r2, r2, r1, lsl #3
 80022d8:	635a      	str	r2, [r3, #52]	@ 0x34
        __HAL_RCC_PLL_VCIRANGE(RCC_OscInitStruct->PLL.PLLRGE) ;
 80022da:	6ada      	ldr	r2, [r3, #44]	@ 0x2c
 80022dc:	f022 020c 	bic.w	r2, r2, #12
 80022e0:	6c21      	ldr	r1, [r4, #64]	@ 0x40
 80022e2:	430a      	orrs	r2, r1
 80022e4:	62da      	str	r2, [r3, #44]	@ 0x2c
        __HAL_RCC_PLL_VCORANGE(RCC_OscInitStruct->PLL.PLLVCOSEL) ;
 80022e6:	6ada      	ldr	r2, [r3, #44]	@ 0x2c
 80022e8:	f022 0202 	bic.w	r2, r2, #2
 80022ec:	6c61      	ldr	r1, [r4, #68]	@ 0x44
 80022ee:	430a      	orrs	r2, r1
 80022f0:	62da      	str	r2, [r3, #44]	@ 0x2c
        __HAL_RCC_PLLCLKOUT_ENABLE(RCC_PLL1_DIVP);
 80022f2:	6ada      	ldr	r2, [r3, #44]	@ 0x2c
 80022f4:	f442 3280 	orr.w	r2, r2, #65536	@ 0x10000
 80022f8:	62da      	str	r2, [r3, #44]	@ 0x2c
        __HAL_RCC_PLLCLKOUT_ENABLE(RCC_PLL1_DIVQ);
 80022fa:	6ada      	ldr	r2, [r3, #44]	@ 0x2c
 80022fc:	f442 3200 	orr.w	r2, r2, #131072	@ 0x20000
 8002300:	62da      	str	r2, [r3, #44]	@ 0x2c
        __HAL_RCC_PLLCLKOUT_ENABLE(RCC_PLL1_DIVR);
 8002302:	6ada      	ldr	r2, [r3, #44]	@ 0x2c
 8002304:	f442 2280 	orr.w	r2, r2, #262144	@ 0x40000
 8002308:	62da      	str	r2, [r3, #44]	@ 0x2c
        __HAL_RCC_PLLFRACN_ENABLE();
 800230a:	6ada      	ldr	r2, [r3, #44]	@ 0x2c
 800230c:	f042 0201 	orr.w	r2, r2, #1
 8002310:	62da      	str	r2, [r3, #44]	@ 0x2c
        __HAL_RCC_PLL_ENABLE();
 8002312:	681a      	ldr	r2, [r3, #0]
 8002314:	f042 7280 	orr.w	r2, r2, #16777216	@ 0x1000000
 8002318:	601a      	str	r2, [r3, #0]
        tickstart = HAL_GetTick();
 800231a:	f7fe f9a1 	bl	8000660 <HAL_GetTick>
 800231e:	4604      	mov	r4, r0
        while (__HAL_RCC_GET_FLAG(RCC_FLAG_PLLRDY) == 0U)
 8002320:	4b38      	ldr	r3, [pc, #224]	@ (8002404 <HAL_RCC_OscConfig+0x6a8>)
 8002322:	681b      	ldr	r3, [r3, #0]
 8002324:	f013 7f00 	tst.w	r3, #33554432	@ 0x2000000
 8002328:	d106      	bne.n	8002338 <HAL_RCC_OscConfig+0x5dc>
          if ((HAL_GetTick() - tickstart) > PLL_TIMEOUT_VALUE)
 800232a:	f7fe f999 	bl	8000660 <HAL_GetTick>
 800232e:	1b00      	subs	r0, r0, r4
 8002330:	2802      	cmp	r0, #2
 8002332:	d9f5      	bls.n	8002320 <HAL_RCC_OscConfig+0x5c4>
            return HAL_TIMEOUT;
 8002334:	2003      	movs	r0, #3
 8002336:	e056      	b.n	80023e6 <HAL_RCC_OscConfig+0x68a>
          __HAL_RCC_PLLFRACN_ENABLE();
        }
      }
    }
  }
  return HAL_OK;
 8002338:	2000      	movs	r0, #0
 800233a:	e054      	b.n	80023e6 <HAL_RCC_OscConfig+0x68a>
 800233c:	2000      	movs	r0, #0
 800233e:	e052      	b.n	80023e6 <HAL_RCC_OscConfig+0x68a>
      temp1_pllckcfg = RCC->PLLCKSELR;
 8002340:	4a30      	ldr	r2, [pc, #192]	@ (8002404 <HAL_RCC_OscConfig+0x6a8>)
 8002342:	6a91      	ldr	r1, [r2, #40]	@ 0x28
      temp2_pllckcfg = RCC->PLL1DIVR;
 8002344:	6b10      	ldr	r0, [r2, #48]	@ 0x30
      if (((RCC_OscInitStruct->PLL.PLLState) == RCC_PLL_OFF) ||
 8002346:	2b01      	cmp	r3, #1
 8002348:	d04e      	beq.n	80023e8 <HAL_RCC_OscConfig+0x68c>
          (READ_BIT(temp1_pllckcfg, RCC_PLLCKSELR_PLLSRC) != RCC_OscInitStruct->PLL.PLLSource) ||
 800234a:	f001 0303 	and.w	r3, r1, #3
 800234e:	6aa2      	ldr	r2, [r4, #40]	@ 0x28
      if (((RCC_OscInitStruct->PLL.PLLState) == RCC_PLL_OFF) ||
 8002350:	4293      	cmp	r3, r2
 8002352:	d14b      	bne.n	80023ec <HAL_RCC_OscConfig+0x690>
          ((READ_BIT(temp1_pllckcfg, RCC_PLLCKSELR_DIVM1) >> RCC_PLLCKSELR_DIVM1_Pos) != RCC_OscInitStruct->PLL.PLLM) ||
 8002354:	f3c1 1105 	ubfx	r1, r1, #4, #6
 8002358:	6ae3      	ldr	r3, [r4, #44]	@ 0x2c
          (READ_BIT(temp1_pllckcfg, RCC_PLLCKSELR_PLLSRC) != RCC_OscInitStruct->PLL.PLLSource) ||
 800235a:	4299      	cmp	r1, r3
 800235c:	d148      	bne.n	80023f0 <HAL_RCC_OscConfig+0x694>
          (READ_BIT(temp2_pllckcfg, RCC_PLL1DIVR_N1) != (RCC_OscInitStruct->PLL.PLLN - 1U)) ||
 800235e:	f3c0 0208 	ubfx	r2, r0, #0, #9
 8002362:	6b23      	ldr	r3, [r4, #48]	@ 0x30
 8002364:	3b01      	subs	r3, #1
          ((READ_BIT(temp1_pllckcfg, RCC_PLLCKSELR_DIVM1) >> RCC_PLLCKSELR_DIVM1_Pos) != RCC_OscInitStruct->PLL.PLLM) ||
 8002366:	429a      	cmp	r2, r3
 8002368:	d144      	bne.n	80023f4 <HAL_RCC_OscConfig+0x698>
          ((READ_BIT(temp2_pllckcfg, RCC_PLL1DIVR_P1) >> RCC_PLL1DIVR_P1_Pos) != (RCC_OscInitStruct->PLL.PLLP - 1U)) ||
 800236a:	f3c0 2246 	ubfx	r2, r0, #9, #7
 800236e:	6b63      	ldr	r3, [r4, #52]	@ 0x34
 8002370:	3b01      	subs	r3, #1
          (READ_BIT(temp2_pllckcfg, RCC_PLL1DIVR_N1) != (RCC_OscInitStruct->PLL.PLLN - 1U)) ||
 8002372:	429a      	cmp	r2, r3
 8002374:	d140      	bne.n	80023f8 <HAL_RCC_OscConfig+0x69c>
          ((READ_BIT(temp2_pllckcfg, RCC_PLL1DIVR_Q1) >> RCC_PLL1DIVR_Q1_Pos) != (RCC_OscInitStruct->PLL.PLLQ - 1U)) ||
 8002376:	f3c0 4206 	ubfx	r2, r0, #16, #7
 800237a:	6ba3      	ldr	r3, [r4, #56]	@ 0x38
 800237c:	3b01      	subs	r3, #1
          ((READ_BIT(temp2_pllckcfg, RCC_PLL1DIVR_P1) >> RCC_PLL1DIVR_P1_Pos) != (RCC_OscInitStruct->PLL.PLLP - 1U)) ||
 800237e:	429a      	cmp	r2, r3
 8002380:	d13c      	bne.n	80023fc <HAL_RCC_OscConfig+0x6a0>
          ((READ_BIT(temp2_pllckcfg, RCC_PLL1DIVR_R1) >> RCC_PLL1DIVR_R1_Pos) != (RCC_OscInitStruct->PLL.PLLR - 1U)))
 8002382:	f3c0 6006 	ubfx	r0, r0, #24, #7
 8002386:	6be3      	ldr	r3, [r4, #60]	@ 0x3c
 8002388:	3b01      	subs	r3, #1
          ((READ_BIT(temp2_pllckcfg, RCC_PLL1DIVR_Q1) >> RCC_PLL1DIVR_Q1_Pos) != (RCC_OscInitStruct->PLL.PLLQ - 1U)) ||
 800238a:	4298      	cmp	r0, r3
 800238c:	d138      	bne.n	8002400 <HAL_RCC_OscConfig+0x6a4>
        temp1_pllckcfg = ((RCC->PLL1FRACR & RCC_PLL1FRACR_FRACN1) >> RCC_PLL1FRACR_FRACN1_Pos);
 800238e:	4b1d      	ldr	r3, [pc, #116]	@ (8002404 <HAL_RCC_OscConfig+0x6a8>)
 8002390:	6b5b      	ldr	r3, [r3, #52]	@ 0x34
 8002392:	f3c3 03cc 	ubfx	r3, r3, #3, #13
        if (RCC_OscInitStruct->PLL.PLLFRACN != temp1_pllckcfg)
 8002396:	6ca2      	ldr	r2, [r4, #72]	@ 0x48
 8002398:	429a      	cmp	r2, r3
 800239a:	d101      	bne.n	80023a0 <HAL_RCC_OscConfig+0x644>
  return HAL_OK;
 800239c:	2000      	movs	r0, #0
 800239e:	e022      	b.n	80023e6 <HAL_RCC_OscConfig+0x68a>
          __HAL_RCC_PLLFRACN_DISABLE();
 80023a0:	4a18      	ldr	r2, [pc, #96]	@ (8002404 <HAL_RCC_OscConfig+0x6a8>)
 80023a2:	6ad3      	ldr	r3, [r2, #44]	@ 0x2c
 80023a4:	f023 0301 	bic.w	r3, r3, #1
 80023a8:	62d3      	str	r3, [r2, #44]	@ 0x2c
          tickstart = HAL_GetTick();
 80023aa:	f7fe f959 	bl	8000660 <HAL_GetTick>
 80023ae:	4605      	mov	r5, r0
          while ((HAL_GetTick() - tickstart) < PLL_FRAC_TIMEOUT_VALUE)
 80023b0:	f7fe f956 	bl	8000660 <HAL_GetTick>
 80023b4:	42a8      	cmp	r0, r5
 80023b6:	d0fb      	beq.n	80023b0 <HAL_RCC_OscConfig+0x654>
          __HAL_RCC_PLLFRACN_CONFIG(RCC_OscInitStruct->PLL.PLLFRACN);
 80023b8:	4a12      	ldr	r2, [pc, #72]	@ (8002404 <HAL_RCC_OscConfig+0x6a8>)
 80023ba:	6b53      	ldr	r3, [r2, #52]	@ 0x34
 80023bc:	f36f 03cf 	bfc	r3, #3, #13
 80023c0:	6ca1      	ldr	r1, [r4, #72]	@ 0x48
 80023c2:	ea43 03c1 	orr.w	r3, r3, r1, lsl #3
 80023c6:	6353      	str	r3, [r2, #52]	@ 0x34
          __HAL_RCC_PLLFRACN_ENABLE();
 80023c8:	6ad3      	ldr	r3, [r2, #44]	@ 0x2c
 80023ca:	f043 0301 	orr.w	r3, r3, #1
 80023ce:	62d3      	str	r3, [r2, #44]	@ 0x2c
  return HAL_OK;
 80023d0:	2000      	movs	r0, #0
 80023d2:	e008      	b.n	80023e6 <HAL_RCC_OscConfig+0x68a>
    return HAL_ERROR;
 80023d4:	2001      	movs	r0, #1
}
 80023d6:	4770      	bx	lr
        return HAL_ERROR;
 80023d8:	2001      	movs	r0, #1
 80023da:	e004      	b.n	80023e6 <HAL_RCC_OscConfig+0x68a>
        return HAL_ERROR;
 80023dc:	2001      	movs	r0, #1
 80023de:	e002      	b.n	80023e6 <HAL_RCC_OscConfig+0x68a>
        return HAL_ERROR;
 80023e0:	2001      	movs	r0, #1
 80023e2:	e000      	b.n	80023e6 <HAL_RCC_OscConfig+0x68a>
  return HAL_OK;
 80023e4:	2000      	movs	r0, #0
}
 80023e6:	bd38      	pop	{r3, r4, r5, pc}
        return HAL_ERROR;
 80023e8:	2001      	movs	r0, #1
 80023ea:	e7fc      	b.n	80023e6 <HAL_RCC_OscConfig+0x68a>
 80023ec:	2001      	movs	r0, #1
 80023ee:	e7fa      	b.n	80023e6 <HAL_RCC_OscConfig+0x68a>
 80023f0:	2001      	movs	r0, #1
 80023f2:	e7f8      	b.n	80023e6 <HAL_RCC_OscConfig+0x68a>
 80023f4:	2001      	movs	r0, #1
 80023f6:	e7f6      	b.n	80023e6 <HAL_RCC_OscConfig+0x68a>
 80023f8:	2001      	movs	r0, #1
 80023fa:	e7f4      	b.n	80023e6 <HAL_RCC_OscConfig+0x68a>
 80023fc:	2001      	movs	r0, #1
 80023fe:	e7f2      	b.n	80023e6 <HAL_RCC_OscConfig+0x68a>
 8002400:	2001      	movs	r0, #1
 8002402:	e7f0      	b.n	80023e6 <HAL_RCC_OscConfig+0x68a>
 8002404:	58024400 	.word	0x58024400
 8002408:	fffffc0c 	.word	0xfffffc0c

0800240c <HAL_RCC_GetSysClockFreq>:
  float_t fracn1, pllvco;
  uint32_t sysclockfreq;

  /* Get SYSCLK source -------------------------------------------------------*/

  switch (RCC->CFGR & RCC_CFGR_SWS)
 800240c:	4b75      	ldr	r3, [pc, #468]	@ (80025e4 <HAL_RCC_GetSysClockFreq+0x1d8>)
 800240e:	691b      	ldr	r3, [r3, #16]
 8002410:	f003 0338 	and.w	r3, r3, #56	@ 0x38
 8002414:	2b10      	cmp	r3, #16
 8002416:	f000 80de 	beq.w	80025d6 <HAL_RCC_GetSysClockFreq+0x1ca>
 800241a:	2b18      	cmp	r3, #24
 800241c:	d00f      	beq.n	800243e <HAL_RCC_GetSysClockFreq+0x32>
 800241e:	2b00      	cmp	r3, #0
 8002420:	f040 80db 	bne.w	80025da <HAL_RCC_GetSysClockFreq+0x1ce>
  {
    case RCC_CFGR_SWS_HSI:  /* HSI used as system clock source */

      if (__HAL_RCC_GET_FLAG(RCC_FLAG_HSIDIV) != 0U)
 8002424:	4b6f      	ldr	r3, [pc, #444]	@ (80025e4 <HAL_RCC_GetSysClockFreq+0x1d8>)
 8002426:	681b      	ldr	r3, [r3, #0]
 8002428:	f013 0f20 	tst.w	r3, #32
 800242c:	f000 80d7 	beq.w	80025de <HAL_RCC_GetSysClockFreq+0x1d2>
      {
        sysclockfreq = (uint32_t)(HSI_VALUE >> (__HAL_RCC_GET_HSI_DIVIDER() >> 3));
 8002430:	4b6c      	ldr	r3, [pc, #432]	@ (80025e4 <HAL_RCC_GetSysClockFreq+0x1d8>)
 8002432:	681b      	ldr	r3, [r3, #0]
 8002434:	f3c3 03c1 	ubfx	r3, r3, #3, #2
 8002438:	486b      	ldr	r0, [pc, #428]	@ (80025e8 <HAL_RCC_GetSysClockFreq+0x1dc>)
 800243a:	40d8      	lsrs	r0, r3
 800243c:	4770      	bx	lr
{
 800243e:	b410      	push	{r4}
    case RCC_CFGR_SWS_PLL1:  /* PLL1 used as system clock  source */

      /* PLL_VCO = (HSE_VALUE or HSI_VALUE or CSI_VALUE/ PLLM) * PLLN
      SYSCLK = PLL_VCO / PLLR
      */
      pllsource = (RCC->PLLCKSELR & RCC_PLLCKSELR_PLLSRC);
 8002440:	4b68      	ldr	r3, [pc, #416]	@ (80025e4 <HAL_RCC_GetSysClockFreq+0x1d8>)
 8002442:	6a9a      	ldr	r2, [r3, #40]	@ 0x28
 8002444:	f002 0203 	and.w	r2, r2, #3
      pllm = ((RCC->PLLCKSELR & RCC_PLLCKSELR_DIVM1) >> 4)  ;
 8002448:	6a9c      	ldr	r4, [r3, #40]	@ 0x28
 800244a:	f3c4 1005 	ubfx	r0, r4, #4, #6
      pllfracen = ((RCC-> PLLCFGR & RCC_PLLCFGR_PLL1FRACEN) >> RCC_PLLCFGR_PLL1FRACEN_Pos);
 800244e:	6ad9      	ldr	r1, [r3, #44]	@ 0x2c
 8002450:	f001 0101 	and.w	r1, r1, #1
      fracn1 = (float_t)(uint32_t)(pllfracen * ((RCC->PLL1FRACR & RCC_PLL1FRACR_FRACN1) >> 3));
 8002454:	6b5b      	ldr	r3, [r3, #52]	@ 0x34
 8002456:	f3c3 03cc 	ubfx	r3, r3, #3, #13
 800245a:	fb01 f303 	mul.w	r3, r1, r3
 800245e:	ee07 3a90 	vmov	s15, r3
 8002462:	eef8 7a67 	vcvt.f32.u32	s15, s15

      if (pllm != 0U)
 8002466:	f414 7f7c 	tst.w	r4, #1008	@ 0x3f0
 800246a:	d077      	beq.n	800255c <HAL_RCC_GetSysClockFreq+0x150>
      {
        switch (pllsource)
 800246c:	2a01      	cmp	r2, #1
 800246e:	d04a      	beq.n	8002506 <HAL_RCC_GetSysClockFreq+0xfa>
 8002470:	2a02      	cmp	r2, #2
 8002472:	d076      	beq.n	8002562 <HAL_RCC_GetSysClockFreq+0x156>
 8002474:	2a00      	cmp	r2, #0
 8002476:	f040 8091 	bne.w	800259c <HAL_RCC_GetSysClockFreq+0x190>
        {
          case RCC_PLLSOURCE_HSI:  /* HSI used as PLL clock source */

            if (__HAL_RCC_GET_FLAG(RCC_FLAG_HSIDIV) != 0U)
 800247a:	4b5a      	ldr	r3, [pc, #360]	@ (80025e4 <HAL_RCC_GetSysClockFreq+0x1d8>)
 800247c:	681b      	ldr	r3, [r3, #0]
 800247e:	f013 0f20 	tst.w	r3, #32
 8002482:	d023      	beq.n	80024cc <HAL_RCC_GetSysClockFreq+0xc0>
            {
              hsivalue = (HSI_VALUE >> (__HAL_RCC_GET_HSI_DIVIDER() >> 3));
 8002484:	4957      	ldr	r1, [pc, #348]	@ (80025e4 <HAL_RCC_GetSysClockFreq+0x1d8>)
 8002486:	680a      	ldr	r2, [r1, #0]
 8002488:	f3c2 02c1 	ubfx	r2, r2, #3, #2
 800248c:	4b56      	ldr	r3, [pc, #344]	@ (80025e8 <HAL_RCC_GetSysClockFreq+0x1dc>)
 800248e:	40d3      	lsrs	r3, r2
              pllvco = ((float_t)hsivalue / (float_t)pllm) * ((float_t)(uint32_t)(RCC->PLL1DIVR & RCC_PLL1DIVR_N1) + (fracn1 / (float_t)0x2000) + (float_t)1);
 8002490:	ee07 3a10 	vmov	s14, r3
 8002494:	eef8 6a47 	vcvt.f32.u32	s13, s14
 8002498:	ee07 0a10 	vmov	s14, r0
 800249c:	eeb8 6a47 	vcvt.f32.u32	s12, s14
 80024a0:	ee86 7a86 	vdiv.f32	s14, s13, s12
 80024a4:	6b0b      	ldr	r3, [r1, #48]	@ 0x30
 80024a6:	f3c3 0308 	ubfx	r3, r3, #0, #9
 80024aa:	ee06 3a90 	vmov	s13, r3
 80024ae:	eef8 6a66 	vcvt.f32.u32	s13, s13
 80024b2:	ed9f 6a4e 	vldr	s12, [pc, #312]	@ 80025ec <HAL_RCC_GetSysClockFreq+0x1e0>
 80024b6:	ee67 7a86 	vmul.f32	s15, s15, s12
 80024ba:	ee76 7aa7 	vadd.f32	s15, s13, s15
 80024be:	eef7 6a00 	vmov.f32	s13, #112	@ 0x3f800000  1.0
 80024c2:	ee77 7aa6 	vadd.f32	s15, s15, s13
 80024c6:	ee27 7a27 	vmul.f32	s14, s14, s15
 80024ca:	e038      	b.n	800253e <HAL_RCC_GetSysClockFreq+0x132>
            }
            else
            {
              pllvco = ((float_t)HSI_VALUE / (float_t)pllm) * ((float_t)(uint32_t)(RCC->PLL1DIVR & RCC_PLL1DIVR_N1) + (fracn1 / (float_t)0x2000) + (float_t)1);
 80024cc:	ee07 0a10 	vmov	s14, r0
 80024d0:	eef8 6a47 	vcvt.f32.u32	s13, s14
 80024d4:	ed9f 6a46 	vldr	s12, [pc, #280]	@ 80025f0 <HAL_RCC_GetSysClockFreq+0x1e4>
 80024d8:	ee86 7a26 	vdiv.f32	s14, s12, s13
 80024dc:	4b41      	ldr	r3, [pc, #260]	@ (80025e4 <HAL_RCC_GetSysClockFreq+0x1d8>)
 80024de:	6b1b      	ldr	r3, [r3, #48]	@ 0x30
 80024e0:	f3c3 0308 	ubfx	r3, r3, #0, #9
 80024e4:	ee06 3a90 	vmov	s13, r3
 80024e8:	eef8 6a66 	vcvt.f32.u32	s13, s13
 80024ec:	ed9f 6a3f 	vldr	s12, [pc, #252]	@ 80025ec <HAL_RCC_GetSysClockFreq+0x1e0>
 80024f0:	ee67 7a86 	vmul.f32	s15, s15, s12
 80024f4:	ee76 7aa7 	vadd.f32	s15, s13, s15
 80024f8:	eef7 6a00 	vmov.f32	s13, #112	@ 0x3f800000  1.0
 80024fc:	ee77 7aa6 	vadd.f32	s15, s15, s13
 8002500:	ee27 7a27 	vmul.f32	s14, s14, s15
 8002504:	e01b      	b.n	800253e <HAL_RCC_GetSysClockFreq+0x132>
            }
            break;

          case RCC_PLLSOURCE_CSI:  /* CSI used as PLL clock source */
            pllvco = ((float_t)CSI_VALUE / (float_t)pllm) * ((float_t)(uint32_t)(RCC->PLL1DIVR & RCC_PLL1DIVR_N1) + (fracn1 / (float_t)0x2000) + (float_t)1);
 8002506:	ee07 0a10 	vmov	s14, r0
 800250a:	eef8 6a47 	vcvt.f32.u32	s13, s14
 800250e:	ed9f 6a39 	vldr	s12, [pc, #228]	@ 80025f4 <HAL_RCC_GetSysClockFreq+0x1e8>
 8002512:	ee86 7a26 	vdiv.f32	s14, s12, s13
 8002516:	4b33      	ldr	r3, [pc, #204]	@ (80025e4 <HAL_RCC_GetSysClockFreq+0x1d8>)
 8002518:	6b1b      	ldr	r3, [r3, #48]	@ 0x30
 800251a:	f3c3 0308 	ubfx	r3, r3, #0, #9
 800251e:	ee06 3a90 	vmov	s13, r3
 8002522:	eef8 6a66 	vcvt.f32.u32	s13, s13
 8002526:	ed9f 6a31 	vldr	s12, [pc, #196]	@ 80025ec <HAL_RCC_GetSysClockFreq+0x1e0>
 800252a:	ee67 7a86 	vmul.f32	s15, s15, s12
 800252e:	ee76 7aa7 	vadd.f32	s15, s13, s15
 8002532:	eef7 6a00 	vmov.f32	s13, #112	@ 0x3f800000  1.0
 8002536:	ee77 7aa6 	vadd.f32	s15, s15, s13
 800253a:	ee27 7a27 	vmul.f32	s14, s14, s15

          default:
            pllvco = ((float_t)CSI_VALUE / (float_t)pllm) * ((float_t)(uint32_t)(RCC->PLL1DIVR & RCC_PLL1DIVR_N1) + (fracn1 / (float_t)0x2000) + (float_t)1);
            break;
        }
        pllp = (((RCC->PLL1DIVR & RCC_PLL1DIVR_P1) >> 9) + 1U) ;
 800253e:	4b29      	ldr	r3, [pc, #164]	@ (80025e4 <HAL_RCC_GetSysClockFreq+0x1d8>)
 8002540:	6b1b      	ldr	r3, [r3, #48]	@ 0x30
 8002542:	f3c3 2346 	ubfx	r3, r3, #9, #7
 8002546:	3301      	adds	r3, #1
        sysclockfreq = (uint32_t)(float_t)(pllvco / (float_t)pllp);
 8002548:	ee07 3a90 	vmov	s15, r3
 800254c:	eef8 7a67 	vcvt.f32.u32	s15, s15
 8002550:	eec7 6a27 	vdiv.f32	s13, s14, s15
 8002554:	eefc 7ae6 	vcvt.u32.f32	s15, s13
 8002558:	ee17 0a90 	vmov	r0, s15
      sysclockfreq = CSI_VALUE;
      break;
  }

  return sysclockfreq;
}
 800255c:	f85d 4b04 	ldr.w	r4, [sp], #4
 8002560:	4770      	bx	lr
            pllvco = ((float_t)HSE_VALUE / (float_t)pllm) * ((float_t)(uint32_t)(RCC->PLL1DIVR & RCC_PLL1DIVR_N1) + (fracn1 / (float_t)0x2000) + (float_t)1);
 8002562:	ee07 0a10 	vmov	s14, r0
 8002566:	eef8 6a47 	vcvt.f32.u32	s13, s14
 800256a:	ed9f 6a23 	vldr	s12, [pc, #140]	@ 80025f8 <HAL_RCC_GetSysClockFreq+0x1ec>
 800256e:	ee86 7a26 	vdiv.f32	s14, s12, s13
 8002572:	4b1c      	ldr	r3, [pc, #112]	@ (80025e4 <HAL_RCC_GetSysClockFreq+0x1d8>)
 8002574:	6b1b      	ldr	r3, [r3, #48]	@ 0x30
 8002576:	f3c3 0308 	ubfx	r3, r3, #0, #9
 800257a:	ee06 3a90 	vmov	s13, r3
 800257e:	eef8 6a66 	vcvt.f32.u32	s13, s13
 8002582:	ed9f 6a1a 	vldr	s12, [pc, #104]	@ 80025ec <HAL_RCC_GetSysClockFreq+0x1e0>
 8002586:	ee67 7a86 	vmul.f32	s15, s15, s12
 800258a:	ee76 7aa7 	vadd.f32	s15, s13, s15
 800258e:	eef7 6a00 	vmov.f32	s13, #112	@ 0x3f800000  1.0
 8002592:	ee77 7aa6 	vadd.f32	s15, s15, s13
 8002596:	ee27 7a27 	vmul.f32	s14, s14, s15
            break;
 800259a:	e7d0      	b.n	800253e <HAL_RCC_GetSysClockFreq+0x132>
            pllvco = ((float_t)CSI_VALUE / (float_t)pllm) * ((float_t)(uint32_t)(RCC->PLL1DIVR & RCC_PLL1DIVR_N1) + (fracn1 / (float_t)0x2000) + (float_t)1);
 800259c:	ee07 0a10 	vmov	s14, r0
 80025a0:	eef8 6a47 	vcvt.f32.u32	s13, s14
 80025a4:	ed9f 6a13 	vldr	s12, [pc, #76]	@ 80025f4 <HAL_RCC_GetSysClockFreq+0x1e8>
 80025a8:	ee86 7a26 	vdiv.f32	s14, s12, s13
 80025ac:	4b0d      	ldr	r3, [pc, #52]	@ (80025e4 <HAL_RCC_GetSysClockFreq+0x1d8>)
 80025ae:	6b1b      	ldr	r3, [r3, #48]	@ 0x30
 80025b0:	f3c3 0308 	ubfx	r3, r3, #0, #9
 80025b4:	ee06 3a90 	vmov	s13, r3
 80025b8:	eef8 6a66 	vcvt.f32.u32	s13, s13
 80025bc:	ed9f 6a0b 	vldr	s12, [pc, #44]	@ 80025ec <HAL_RCC_GetSysClockFreq+0x1e0>
 80025c0:	ee67 7a86 	vmul.f32	s15, s15, s12
 80025c4:	ee76 7aa7 	vadd.f32	s15, s13, s15
 80025c8:	eef7 6a00 	vmov.f32	s13, #112	@ 0x3f800000  1.0
 80025cc:	ee77 7aa6 	vadd.f32	s15, s15, s13
 80025d0:	ee27 7a27 	vmul.f32	s14, s14, s15
            break;
 80025d4:	e7b3      	b.n	800253e <HAL_RCC_GetSysClockFreq+0x132>
      sysclockfreq = HSE_VALUE;
 80025d6:	4809      	ldr	r0, [pc, #36]	@ (80025fc <HAL_RCC_GetSysClockFreq+0x1f0>)
 80025d8:	4770      	bx	lr
  switch (RCC->CFGR & RCC_CFGR_SWS)
 80025da:	4809      	ldr	r0, [pc, #36]	@ (8002600 <HAL_RCC_GetSysClockFreq+0x1f4>)
 80025dc:	4770      	bx	lr
        sysclockfreq = (uint32_t) HSI_VALUE;
 80025de:	4802      	ldr	r0, [pc, #8]	@ (80025e8 <HAL_RCC_GetSysClockFreq+0x1dc>)
}
 80025e0:	4770      	bx	lr
 80025e2:	bf00      	nop
 80025e4:	58024400 	.word	0x58024400
 80025e8:	03d09000 	.word	0x03d09000
 80025ec:	39000000 	.word	0x39000000
 80025f0:	4c742400 	.word	0x4c742400
 80025f4:	4a742400 	.word	0x4a742400
 80025f8:	4bbebc20 	.word	0x4bbebc20
 80025fc:	017d7840 	.word	0x017d7840
 8002600:	003d0900 	.word	0x003d0900

08002604 <HAL_RCC_ClockConfig>:
  if (RCC_ClkInitStruct == NULL)
 8002604:	2800      	cmp	r0, #0
 8002606:	f000 8132 	beq.w	800286e <HAL_RCC_ClockConfig+0x26a>
{
 800260a:	b570      	push	{r4, r5, r6, lr}
 800260c:	460d      	mov	r5, r1
 800260e:	4604      	mov	r4, r0
  if (FLatency > __HAL_FLASH_GET_LATENCY())
 8002610:	4b9b      	ldr	r3, [pc, #620]	@ (8002880 <HAL_RCC_ClockConfig+0x27c>)
 8002612:	681b      	ldr	r3, [r3, #0]
 8002614:	f003 030f 	and.w	r3, r3, #15
 8002618:	428b      	cmp	r3, r1
 800261a:	d20b      	bcs.n	8002634 <HAL_RCC_ClockConfig+0x30>
    __HAL_FLASH_SET_LATENCY(FLatency);
 800261c:	4a98      	ldr	r2, [pc, #608]	@ (8002880 <HAL_RCC_ClockConfig+0x27c>)
 800261e:	6813      	ldr	r3, [r2, #0]
 8002620:	f023 030f 	bic.w	r3, r3, #15
 8002624:	430b      	orrs	r3, r1
 8002626:	6013      	str	r3, [r2, #0]
    if (__HAL_FLASH_GET_LATENCY() != FLatency)
 8002628:	6813      	ldr	r3, [r2, #0]
 800262a:	f003 030f 	and.w	r3, r3, #15
 800262e:	428b      	cmp	r3, r1
 8002630:	f040 811f 	bne.w	8002872 <HAL_RCC_ClockConfig+0x26e>
  if (((RCC_ClkInitStruct->ClockType) & RCC_CLOCKTYPE_D1PCLK1) == RCC_CLOCKTYPE_D1PCLK1)
 8002634:	6823      	ldr	r3, [r4, #0]
 8002636:	f013 0f04 	tst.w	r3, #4
 800263a:	d00c      	beq.n	8002656 <HAL_RCC_ClockConfig+0x52>
    if ((RCC_ClkInitStruct->APB3CLKDivider) > (RCC->D1CFGR & RCC_D1CFGR_D1PPRE))
 800263c:	6922      	ldr	r2, [r4, #16]
 800263e:	4b91      	ldr	r3, [pc, #580]	@ (8002884 <HAL_RCC_ClockConfig+0x280>)
 8002640:	699b      	ldr	r3, [r3, #24]
 8002642:	f003 0370 	and.w	r3, r3, #112	@ 0x70
 8002646:	429a      	cmp	r2, r3
 8002648:	d905      	bls.n	8002656 <HAL_RCC_ClockConfig+0x52>
      MODIFY_REG(RCC->D1CFGR, RCC_D1CFGR_D1PPRE, RCC_ClkInitStruct->APB3CLKDivider);
 800264a:	498e      	ldr	r1, [pc, #568]	@ (8002884 <HAL_RCC_ClockConfig+0x280>)
 800264c:	698b      	ldr	r3, [r1, #24]
 800264e:	f023 0370 	bic.w	r3, r3, #112	@ 0x70
 8002652:	431a      	orrs	r2, r3
 8002654:	618a      	str	r2, [r1, #24]
  if (((RCC_ClkInitStruct->ClockType) & RCC_CLOCKTYPE_PCLK1) == RCC_CLOCKTYPE_PCLK1)
 8002656:	6823      	ldr	r3, [r4, #0]
 8002658:	f013 0f08 	tst.w	r3, #8
 800265c:	d00c      	beq.n	8002678 <HAL_RCC_ClockConfig+0x74>
    if ((RCC_ClkInitStruct->APB1CLKDivider) > (RCC->D2CFGR & RCC_D2CFGR_D2PPRE1))
 800265e:	6962      	ldr	r2, [r4, #20]
 8002660:	4b88      	ldr	r3, [pc, #544]	@ (8002884 <HAL_RCC_ClockConfig+0x280>)
 8002662:	69db      	ldr	r3, [r3, #28]
 8002664:	f003 0370 	and.w	r3, r3, #112	@ 0x70
 8002668:	429a      	cmp	r2, r3
 800266a:	d905      	bls.n	8002678 <HAL_RCC_ClockConfig+0x74>
      MODIFY_REG(RCC->D2CFGR, RCC_D2CFGR_D2PPRE1, (RCC_ClkInitStruct->APB1CLKDivider));
 800266c:	4985      	ldr	r1, [pc, #532]	@ (8002884 <HAL_RCC_ClockConfig+0x280>)
 800266e:	69cb      	ldr	r3, [r1, #28]
 8002670:	f023 0370 	bic.w	r3, r3, #112	@ 0x70
 8002674:	431a      	orrs	r2, r3
 8002676:	61ca      	str	r2, [r1, #28]
  if (((RCC_ClkInitStruct->ClockType) & RCC_CLOCKTYPE_PCLK2) == RCC_CLOCKTYPE_PCLK2)
 8002678:	6823      	ldr	r3, [r4, #0]
 800267a:	f013 0f10 	tst.w	r3, #16
 800267e:	d00c      	beq.n	800269a <HAL_RCC_ClockConfig+0x96>
    if ((RCC_ClkInitStruct->APB2CLKDivider) > (RCC->D2CFGR & RCC_D2CFGR_D2PPRE2))
 8002680:	69a2      	ldr	r2, [r4, #24]
 8002682:	4b80      	ldr	r3, [pc, #512]	@ (8002884 <HAL_RCC_ClockConfig+0x280>)
 8002684:	69db      	ldr	r3, [r3, #28]
 8002686:	f403 63e0 	and.w	r3, r3, #1792	@ 0x700
 800268a:	429a      	cmp	r2, r3
 800268c:	d905      	bls.n	800269a <HAL_RCC_ClockConfig+0x96>
      MODIFY_REG(RCC->D2CFGR, RCC_D2CFGR_D2PPRE2, (RCC_ClkInitStruct->APB2CLKDivider));
 800268e:	497d      	ldr	r1, [pc, #500]	@ (8002884 <HAL_RCC_ClockConfig+0x280>)
 8002690:	69cb      	ldr	r3, [r1, #28]
 8002692:	f423 63e0 	bic.w	r3, r3, #1792	@ 0x700
 8002696:	431a      	orrs	r2, r3
 8002698:	61ca      	str	r2, [r1, #28]
  if (((RCC_ClkInitStruct->ClockType) & RCC_CLOCKTYPE_D3PCLK1) == RCC_CLOCKTYPE_D3PCLK1)
 800269a:	6823      	ldr	r3, [r4, #0]
 800269c:	f013 0f20 	tst.w	r3, #32
 80026a0:	d00c      	beq.n	80026bc <HAL_RCC_ClockConfig+0xb8>
    if ((RCC_ClkInitStruct->APB4CLKDivider) > (RCC->D3CFGR & RCC_D3CFGR_D3PPRE))
 80026a2:	69e2      	ldr	r2, [r4, #28]
 80026a4:	4b77      	ldr	r3, [pc, #476]	@ (8002884 <HAL_RCC_ClockConfig+0x280>)
 80026a6:	6a1b      	ldr	r3, [r3, #32]
 80026a8:	f003 0370 	and.w	r3, r3, #112	@ 0x70
 80026ac:	429a      	cmp	r2, r3
 80026ae:	d905      	bls.n	80026bc <HAL_RCC_ClockConfig+0xb8>
      MODIFY_REG(RCC->D3CFGR, RCC_D3CFGR_D3PPRE, (RCC_ClkInitStruct->APB4CLKDivider));
 80026b0:	4974      	ldr	r1, [pc, #464]	@ (8002884 <HAL_RCC_ClockConfig+0x280>)
 80026b2:	6a0b      	ldr	r3, [r1, #32]
 80026b4:	f023 0370 	bic.w	r3, r3, #112	@ 0x70
 80026b8:	431a      	orrs	r2, r3
 80026ba:	620a      	str	r2, [r1, #32]
  if (((RCC_ClkInitStruct->ClockType) & RCC_CLOCKTYPE_HCLK) == RCC_CLOCKTYPE_HCLK)
 80026bc:	6823      	ldr	r3, [r4, #0]
 80026be:	f013 0f02 	tst.w	r3, #2
 80026c2:	d00c      	beq.n	80026de <HAL_RCC_ClockConfig+0xda>
    if ((RCC_ClkInitStruct->AHBCLKDivider) > (RCC->D1CFGR & RCC_D1CFGR_HPRE))
 80026c4:	68e2      	ldr	r2, [r4, #12]
 80026c6:	4b6f      	ldr	r3, [pc, #444]	@ (8002884 <HAL_RCC_ClockConfig+0x280>)
 80026c8:	699b      	ldr	r3, [r3, #24]
 80026ca:	f003 030f 	and.w	r3, r3, #15
 80026ce:	429a      	cmp	r2, r3
 80026d0:	d905      	bls.n	80026de <HAL_RCC_ClockConfig+0xda>
      MODIFY_REG(RCC->D1CFGR, RCC_D1CFGR_HPRE, RCC_ClkInitStruct->AHBCLKDivider);
 80026d2:	496c      	ldr	r1, [pc, #432]	@ (8002884 <HAL_RCC_ClockConfig+0x280>)
 80026d4:	698b      	ldr	r3, [r1, #24]
 80026d6:	f023 030f 	bic.w	r3, r3, #15
 80026da:	431a      	orrs	r2, r3
 80026dc:	618a      	str	r2, [r1, #24]
  if (((RCC_ClkInitStruct->ClockType) & RCC_CLOCKTYPE_SYSCLK) == RCC_CLOCKTYPE_SYSCLK)
 80026de:	6823      	ldr	r3, [r4, #0]
 80026e0:	f013 0f01 	tst.w	r3, #1
 80026e4:	d041      	beq.n	800276a <HAL_RCC_ClockConfig+0x166>
    MODIFY_REG(RCC->D1CFGR, RCC_D1CFGR_D1CPRE, RCC_ClkInitStruct->SYSCLKDivider);
 80026e6:	4a67      	ldr	r2, [pc, #412]	@ (8002884 <HAL_RCC_ClockConfig+0x280>)
 80026e8:	6993      	ldr	r3, [r2, #24]
 80026ea:	f423 6370 	bic.w	r3, r3, #3840	@ 0xf00
 80026ee:	68a1      	ldr	r1, [r4, #8]
 80026f0:	430b      	orrs	r3, r1
 80026f2:	6193      	str	r3, [r2, #24]
    if (RCC_ClkInitStruct->SYSCLKSource == RCC_SYSCLKSOURCE_HSE)
 80026f4:	6863      	ldr	r3, [r4, #4]
 80026f6:	2b02      	cmp	r3, #2
 80026f8:	d00a      	beq.n	8002710 <HAL_RCC_ClockConfig+0x10c>
    else if (RCC_ClkInitStruct->SYSCLKSource == RCC_SYSCLKSOURCE_PLLCLK)
 80026fa:	2b03      	cmp	r3, #3
 80026fc:	d027      	beq.n	800274e <HAL_RCC_ClockConfig+0x14a>
    else if (RCC_ClkInitStruct->SYSCLKSource == RCC_SYSCLKSOURCE_CSI)
 80026fe:	2b01      	cmp	r3, #1
 8002700:	d02c      	beq.n	800275c <HAL_RCC_ClockConfig+0x158>
      if (__HAL_RCC_GET_FLAG(RCC_FLAG_HSIRDY) == 0U)
 8002702:	4a60      	ldr	r2, [pc, #384]	@ (8002884 <HAL_RCC_ClockConfig+0x280>)
 8002704:	6812      	ldr	r2, [r2, #0]
 8002706:	f012 0f04 	tst.w	r2, #4
 800270a:	d106      	bne.n	800271a <HAL_RCC_ClockConfig+0x116>
        return HAL_ERROR;
 800270c:	2001      	movs	r0, #1
 800270e:	e0ad      	b.n	800286c <HAL_RCC_ClockConfig+0x268>
      if (__HAL_RCC_GET_FLAG(RCC_FLAG_HSERDY) == 0U)
 8002710:	6812      	ldr	r2, [r2, #0]
 8002712:	f412 3f00 	tst.w	r2, #131072	@ 0x20000
 8002716:	f000 80ae 	beq.w	8002876 <HAL_RCC_ClockConfig+0x272>
    MODIFY_REG(RCC->CFGR, RCC_CFGR_SW, RCC_ClkInitStruct->SYSCLKSource);
 800271a:	495a      	ldr	r1, [pc, #360]	@ (8002884 <HAL_RCC_ClockConfig+0x280>)
 800271c:	690a      	ldr	r2, [r1, #16]
 800271e:	f022 0207 	bic.w	r2, r2, #7
 8002722:	4313      	orrs	r3, r2
 8002724:	610b      	str	r3, [r1, #16]
    tickstart = HAL_GetTick();
 8002726:	f7fd ff9b 	bl	8000660 <HAL_GetTick>
 800272a:	4606      	mov	r6, r0
    while (__HAL_RCC_GET_SYSCLK_SOURCE() != (RCC_ClkInitStruct->SYSCLKSource << RCC_CFGR_SWS_Pos))
 800272c:	4b55      	ldr	r3, [pc, #340]	@ (8002884 <HAL_RCC_ClockConfig+0x280>)
 800272e:	691b      	ldr	r3, [r3, #16]
 8002730:	f003 0338 	and.w	r3, r3, #56	@ 0x38
 8002734:	6862      	ldr	r2, [r4, #4]
 8002736:	ebb3 0fc2 	cmp.w	r3, r2, lsl #3
 800273a:	d016      	beq.n	800276a <HAL_RCC_ClockConfig+0x166>
      if ((HAL_GetTick() - tickstart) > CLOCKSWITCH_TIMEOUT_VALUE)
 800273c:	f7fd ff90 	bl	8000660 <HAL_GetTick>
 8002740:	1b80      	subs	r0, r0, r6
 8002742:	f241 3388 	movw	r3, #5000	@ 0x1388
 8002746:	4298      	cmp	r0, r3
 8002748:	d9f0      	bls.n	800272c <HAL_RCC_ClockConfig+0x128>
        return HAL_TIMEOUT;
 800274a:	2003      	movs	r0, #3
 800274c:	e08e      	b.n	800286c <HAL_RCC_ClockConfig+0x268>
      if (__HAL_RCC_GET_FLAG(RCC_FLAG_PLLRDY) == 0U)
 800274e:	4a4d      	ldr	r2, [pc, #308]	@ (8002884 <HAL_RCC_ClockConfig+0x280>)
 8002750:	6812      	ldr	r2, [r2, #0]
 8002752:	f012 7f00 	tst.w	r2, #33554432	@ 0x2000000
 8002756:	d1e0      	bne.n	800271a <HAL_RCC_ClockConfig+0x116>
        return HAL_ERROR;
 8002758:	2001      	movs	r0, #1
 800275a:	e087      	b.n	800286c <HAL_RCC_ClockConfig+0x268>
      if (__HAL_RCC_GET_FLAG(RCC_FLAG_CSIRDY) == 0U)
 800275c:	4a49      	ldr	r2, [pc, #292]	@ (8002884 <HAL_RCC_ClockConfig+0x280>)
 800275e:	6812      	ldr	r2, [r2, #0]
 8002760:	f412 7f80 	tst.w	r2, #256	@ 0x100
 8002764:	d1d9      	bne.n	800271a <HAL_RCC_ClockConfig+0x116>
        return HAL_ERROR;
 8002766:	2001      	movs	r0, #1
 8002768:	e080      	b.n	800286c <HAL_RCC_ClockConfig+0x268>
  if (((RCC_ClkInitStruct->ClockType) & RCC_CLOCKTYPE_HCLK) == RCC_CLOCKTYPE_HCLK)
 800276a:	6823      	ldr	r3, [r4, #0]
 800276c:	f013 0f02 	tst.w	r3, #2
 8002770:	d00c      	beq.n	800278c <HAL_RCC_ClockConfig+0x188>
    if ((RCC_ClkInitStruct->AHBCLKDivider) < (RCC->D1CFGR & RCC_D1CFGR_HPRE))
 8002772:	68e2      	ldr	r2, [r4, #12]
 8002774:	4b43      	ldr	r3, [pc, #268]	@ (8002884 <HAL_RCC_ClockConfig+0x280>)
 8002776:	699b      	ldr	r3, [r3, #24]
 8002778:	f003 030f 	and.w	r3, r3, #15
 800277c:	429a      	cmp	r2, r3
 800277e:	d205      	bcs.n	800278c <HAL_RCC_ClockConfig+0x188>
      MODIFY_REG(RCC->D1CFGR, RCC_D1CFGR_HPRE, RCC_ClkInitStruct->AHBCLKDivider);
 8002780:	4940      	ldr	r1, [pc, #256]	@ (8002884 <HAL_RCC_ClockConfig+0x280>)
 8002782:	698b      	ldr	r3, [r1, #24]
 8002784:	f023 030f 	bic.w	r3, r3, #15
 8002788:	431a      	orrs	r2, r3
 800278a:	618a      	str	r2, [r1, #24]
  if (FLatency < __HAL_FLASH_GET_LATENCY())
 800278c:	4b3c      	ldr	r3, [pc, #240]	@ (8002880 <HAL_RCC_ClockConfig+0x27c>)
 800278e:	681b      	ldr	r3, [r3, #0]
 8002790:	f003 030f 	and.w	r3, r3, #15
 8002794:	42ab      	cmp	r3, r5
 8002796:	d90a      	bls.n	80027ae <HAL_RCC_ClockConfig+0x1aa>
    __HAL_FLASH_SET_LATENCY(FLatency);
 8002798:	4a39      	ldr	r2, [pc, #228]	@ (8002880 <HAL_RCC_ClockConfig+0x27c>)
 800279a:	6813      	ldr	r3, [r2, #0]
 800279c:	f023 030f 	bic.w	r3, r3, #15
 80027a0:	432b      	orrs	r3, r5
 80027a2:	6013      	str	r3, [r2, #0]
    if (__HAL_FLASH_GET_LATENCY() != FLatency)
 80027a4:	6813      	ldr	r3, [r2, #0]
 80027a6:	f003 030f 	and.w	r3, r3, #15
 80027aa:	42ab      	cmp	r3, r5
 80027ac:	d165      	bne.n	800287a <HAL_RCC_ClockConfig+0x276>
  if (((RCC_ClkInitStruct->ClockType) & RCC_CLOCKTYPE_D1PCLK1) == RCC_CLOCKTYPE_D1PCLK1)
 80027ae:	6823      	ldr	r3, [r4, #0]
 80027b0:	f013 0f04 	tst.w	r3, #4
 80027b4:	d00c      	beq.n	80027d0 <HAL_RCC_ClockConfig+0x1cc>
    if ((RCC_ClkInitStruct->APB3CLKDivider) < (RCC->D1CFGR & RCC_D1CFGR_D1PPRE))
 80027b6:	6922      	ldr	r2, [r4, #16]
 80027b8:	4b32      	ldr	r3, [pc, #200]	@ (8002884 <HAL_RCC_ClockConfig+0x280>)
 80027ba:	699b      	ldr	r3, [r3, #24]
 80027bc:	f003 0370 	and.w	r3, r3, #112	@ 0x70
 80027c0:	429a      	cmp	r2, r3
 80027c2:	d205      	bcs.n	80027d0 <HAL_RCC_ClockConfig+0x1cc>
      MODIFY_REG(RCC->D1CFGR, RCC_D1CFGR_D1PPRE, RCC_ClkInitStruct->APB3CLKDivider);
 80027c4:	492f      	ldr	r1, [pc, #188]	@ (8002884 <HAL_RCC_ClockConfig+0x280>)
 80027c6:	698b      	ldr	r3, [r1, #24]
 80027c8:	f023 0370 	bic.w	r3, r3, #112	@ 0x70
 80027cc:	431a      	orrs	r2, r3
 80027ce:	618a      	str	r2, [r1, #24]
  if (((RCC_ClkInitStruct->ClockType) & RCC_CLOCKTYPE_PCLK1) == RCC_CLOCKTYPE_PCLK1)
 80027d0:	6823      	ldr	r3, [r4, #0]
 80027d2:	f013 0f08 	tst.w	r3, #8
 80027d6:	d00c      	beq.n	80027f2 <HAL_RCC_ClockConfig+0x1ee>
    if ((RCC_ClkInitStruct->APB1CLKDivider) < (RCC->D2CFGR & RCC_D2CFGR_D2PPRE1))
 80027d8:	6962      	ldr	r2, [r4, #20]
 80027da:	4b2a      	ldr	r3, [pc, #168]	@ (8002884 <HAL_RCC_ClockConfig+0x280>)
 80027dc:	69db      	ldr	r3, [r3, #28]
 80027de:	f003 0370 	and.w	r3, r3, #112	@ 0x70
 80027e2:	429a      	cmp	r2, r3
 80027e4:	d205      	bcs.n	80027f2 <HAL_RCC_ClockConfig+0x1ee>
      MODIFY_REG(RCC->D2CFGR, RCC_D2CFGR_D2PPRE1, (RCC_ClkInitStruct->APB1CLKDivider));
 80027e6:	4927      	ldr	r1, [pc, #156]	@ (8002884 <HAL_RCC_ClockConfig+0x280>)
 80027e8:	69cb      	ldr	r3, [r1, #28]
 80027ea:	f023 0370 	bic.w	r3, r3, #112	@ 0x70
 80027ee:	431a      	orrs	r2, r3
 80027f0:	61ca      	str	r2, [r1, #28]
  if (((RCC_ClkInitStruct->ClockType) & RCC_CLOCKTYPE_PCLK2) == RCC_CLOCKTYPE_PCLK2)
 80027f2:	6823      	ldr	r3, [r4, #0]
 80027f4:	f013 0f10 	tst.w	r3, #16
 80027f8:	d00c      	beq.n	8002814 <HAL_RCC_ClockConfig+0x210>
    if ((RCC_ClkInitStruct->APB2CLKDivider) < (RCC->D2CFGR & RCC_D2CFGR_D2PPRE2))
 80027fa:	69a2      	ldr	r2, [r4, #24]
 80027fc:	4b21      	ldr	r3, [pc, #132]	@ (8002884 <HAL_RCC_ClockConfig+0x280>)
 80027fe:	69db      	ldr	r3, [r3, #28]
 8002800:	f403 63e0 	and.w	r3, r3, #1792	@ 0x700
 8002804:	429a      	cmp	r2, r3
 8002806:	d205      	bcs.n	8002814 <HAL_RCC_ClockConfig+0x210>
      MODIFY_REG(RCC->D2CFGR, RCC_D2CFGR_D2PPRE2, (RCC_ClkInitStruct->APB2CLKDivider));
 8002808:	491e      	ldr	r1, [pc, #120]	@ (8002884 <HAL_RCC_ClockConfig+0x280>)
 800280a:	69cb      	ldr	r3, [r1, #28]
 800280c:	f423 63e0 	bic.w	r3, r3, #1792	@ 0x700
 8002810:	431a      	orrs	r2, r3
 8002812:	61ca      	str	r2, [r1, #28]
  if (((RCC_ClkInitStruct->ClockType) & RCC_CLOCKTYPE_D3PCLK1) == RCC_CLOCKTYPE_D3PCLK1)
 8002814:	6823      	ldr	r3, [r4, #0]
 8002816:	f013 0f20 	tst.w	r3, #32
 800281a:	d00c      	beq.n	8002836 <HAL_RCC_ClockConfig+0x232>
    if ((RCC_ClkInitStruct->APB4CLKDivider) < (RCC->D3CFGR & RCC_D3CFGR_D3PPRE))
 800281c:	69e2      	ldr	r2, [r4, #28]
 800281e:	4b19      	ldr	r3, [pc, #100]	@ (8002884 <HAL_RCC_ClockConfig+0x280>)
 8002820:	6a1b      	ldr	r3, [r3, #32]
 8002822:	f003 0370 	and.w	r3, r3, #112	@ 0x70
 8002826:	429a      	cmp	r2, r3
 8002828:	d205      	bcs.n	8002836 <HAL_RCC_ClockConfig+0x232>
      MODIFY_REG(RCC->D3CFGR, RCC_D3CFGR_D3PPRE, (RCC_ClkInitStruct->APB4CLKDivider));
 800282a:	4916      	ldr	r1, [pc, #88]	@ (8002884 <HAL_RCC_ClockConfig+0x280>)
 800282c:	6a0b      	ldr	r3, [r1, #32]
 800282e:	f023 0370 	bic.w	r3, r3, #112	@ 0x70
 8002832:	431a      	orrs	r2, r3
 8002834:	620a      	str	r2, [r1, #32]
  common_system_clock = HAL_RCC_GetSysClockFreq() >> ((D1CorePrescTable[(RCC->D1CFGR & RCC_D1CFGR_D1CPRE) >> RCC_D1CFGR_D1CPRE_Pos]) & 0x1FU);
 8002836:	f7ff fde9 	bl	800240c <HAL_RCC_GetSysClockFreq>
 800283a:	4912      	ldr	r1, [pc, #72]	@ (8002884 <HAL_RCC_ClockConfig+0x280>)
 800283c:	698b      	ldr	r3, [r1, #24]
 800283e:	f3c3 2303 	ubfx	r3, r3, #8, #4
 8002842:	4a11      	ldr	r2, [pc, #68]	@ (8002888 <HAL_RCC_ClockConfig+0x284>)
 8002844:	5cd3      	ldrb	r3, [r2, r3]
 8002846:	f003 031f 	and.w	r3, r3, #31
 800284a:	40d8      	lsrs	r0, r3
  SystemD2Clock = (common_system_clock >> ((D1CorePrescTable[(RCC->D1CFGR & RCC_D1CFGR_HPRE) >> RCC_D1CFGR_HPRE_Pos]) & 0x1FU));
 800284c:	698b      	ldr	r3, [r1, #24]
 800284e:	f003 030f 	and.w	r3, r3, #15
 8002852:	5cd3      	ldrb	r3, [r2, r3]
 8002854:	f003 031f 	and.w	r3, r3, #31
 8002858:	fa20 f303 	lsr.w	r3, r0, r3
 800285c:	4a0b      	ldr	r2, [pc, #44]	@ (800288c <HAL_RCC_ClockConfig+0x288>)
 800285e:	6013      	str	r3, [r2, #0]
  SystemCoreClock = common_system_clock;
 8002860:	4b0b      	ldr	r3, [pc, #44]	@ (8002890 <HAL_RCC_ClockConfig+0x28c>)
 8002862:	6018      	str	r0, [r3, #0]
  halstatus = HAL_InitTick(uwTickPrio);
 8002864:	4b0b      	ldr	r3, [pc, #44]	@ (8002894 <HAL_RCC_ClockConfig+0x290>)
 8002866:	6818      	ldr	r0, [r3, #0]
 8002868:	f7fd fe98 	bl	800059c <HAL_InitTick>
}
 800286c:	bd70      	pop	{r4, r5, r6, pc}
    return HAL_ERROR;
 800286e:	2001      	movs	r0, #1
}
 8002870:	4770      	bx	lr
      return HAL_ERROR;
 8002872:	2001      	movs	r0, #1
 8002874:	e7fa      	b.n	800286c <HAL_RCC_ClockConfig+0x268>
        return HAL_ERROR;
 8002876:	2001      	movs	r0, #1
 8002878:	e7f8      	b.n	800286c <HAL_RCC_ClockConfig+0x268>
      return HAL_ERROR;
 800287a:	2001      	movs	r0, #1
 800287c:	e7f6      	b.n	800286c <HAL_RCC_ClockConfig+0x268>
 800287e:	bf00      	nop
 8002880:	52002000 	.word	0x52002000
 8002884:	58024400 	.word	0x58024400
 8002888:	0800618c 	.word	0x0800618c
 800288c:	20000008 	.word	0x20000008
 8002890:	2000000c 	.word	0x2000000c
 8002894:	20000004 	.word	0x20000004

08002898 <HAL_RCC_GetHCLKFreq>:
  * @note   The SystemD2Clock CMSIS variable is used to store System domain2 Clock Frequency
  *         and updated within this function
  * @retval HCLK frequency
  */
uint32_t HAL_RCC_GetHCLKFreq(void)
{
 8002898:	b508      	push	{r3, lr}
  uint32_t common_system_clock;

#if defined(RCC_D1CFGR_D1CPRE)
  common_system_clock = HAL_RCC_GetSysClockFreq() >> (D1CorePrescTable[(RCC->D1CFGR & RCC_D1CFGR_D1CPRE) >> RCC_D1CFGR_D1CPRE_Pos] & 0x1FU);
 800289a:	f7ff fdb7 	bl	800240c <HAL_RCC_GetSysClockFreq>
 800289e:	4a0b      	ldr	r2, [pc, #44]	@ (80028cc <HAL_RCC_GetHCLKFreq+0x34>)
 80028a0:	6993      	ldr	r3, [r2, #24]
 80028a2:	f3c3 2303 	ubfx	r3, r3, #8, #4
 80028a6:	490a      	ldr	r1, [pc, #40]	@ (80028d0 <HAL_RCC_GetHCLKFreq+0x38>)
 80028a8:	5ccb      	ldrb	r3, [r1, r3]
 80028aa:	f003 031f 	and.w	r3, r3, #31
 80028ae:	fa20 f303 	lsr.w	r3, r0, r3
#else
  common_system_clock = HAL_RCC_GetSysClockFreq() >> (D1CorePrescTable[(RCC->CDCFGR1 & RCC_CDCFGR1_CDCPRE) >> RCC_CDCFGR1_CDCPRE_Pos] & 0x1FU);
#endif

#if defined(RCC_D1CFGR_HPRE)
  SystemD2Clock = (common_system_clock >> ((D1CorePrescTable[(RCC->D1CFGR & RCC_D1CFGR_HPRE) >> RCC_D1CFGR_HPRE_Pos]) & 0x1FU));
 80028b2:	6992      	ldr	r2, [r2, #24]
 80028b4:	f002 020f 	and.w	r2, r2, #15
 80028b8:	5c88      	ldrb	r0, [r1, r2]
 80028ba:	f000 001f 	and.w	r0, r0, #31
 80028be:	fa23 f000 	lsr.w	r0, r3, r0
 80028c2:	4a04      	ldr	r2, [pc, #16]	@ (80028d4 <HAL_RCC_GetHCLKFreq+0x3c>)
 80028c4:	6010      	str	r0, [r2, #0]
#endif

#if defined(DUAL_CORE) && defined(CORE_CM4)
  SystemCoreClock = SystemD2Clock;
#else
  SystemCoreClock = common_system_clock;
 80028c6:	4a04      	ldr	r2, [pc, #16]	@ (80028d8 <HAL_RCC_GetHCLKFreq+0x40>)
 80028c8:	6013      	str	r3, [r2, #0]
#endif /* DUAL_CORE && CORE_CM4 */

  return SystemD2Clock;
}
 80028ca:	bd08      	pop	{r3, pc}
 80028cc:	58024400 	.word	0x58024400
 80028d0:	0800618c 	.word	0x0800618c
 80028d4:	20000008 	.word	0x20000008
 80028d8:	2000000c 	.word	0x2000000c

080028dc <RCCEx_PLL2_Config>:
  assert_param(IS_RCC_PLL2RGE_VALUE(pll2->PLL2RGE));
  assert_param(IS_RCC_PLL2VCO_VALUE(pll2->PLL2VCOSEL));
  assert_param(IS_RCC_PLLFRACN_VALUE(pll2->PLL2FRACN));

  /* Check that PLL2 OSC clock source is already set */
  if (__HAL_RCC_GET_PLL_OSCSOURCE() == RCC_PLLSOURCE_NONE)
 80028dc:	4b40      	ldr	r3, [pc, #256]	@ (80029e0 <RCCEx_PLL2_Config+0x104>)
 80028de:	6a9b      	ldr	r3, [r3, #40]	@ 0x28
 80028e0:	f003 0303 	and.w	r3, r3, #3
 80028e4:	2b03      	cmp	r3, #3
 80028e6:	d079      	beq.n	80029dc <RCCEx_PLL2_Config+0x100>
{
 80028e8:	b570      	push	{r4, r5, r6, lr}
 80028ea:	4605      	mov	r5, r0
 80028ec:	460e      	mov	r6, r1


  else
  {
    /* Disable  PLL2. */
    __HAL_RCC_PLL2_DISABLE();
 80028ee:	4a3c      	ldr	r2, [pc, #240]	@ (80029e0 <RCCEx_PLL2_Config+0x104>)
 80028f0:	6813      	ldr	r3, [r2, #0]
 80028f2:	f023 6380 	bic.w	r3, r3, #67108864	@ 0x4000000
 80028f6:	6013      	str	r3, [r2, #0]

    /* Get Start Tick*/
    tickstart = HAL_GetTick();
 80028f8:	f7fd feb2 	bl	8000660 <HAL_GetTick>
 80028fc:	4604      	mov	r4, r0

    /* Wait till PLL is disabled */
    while (__HAL_RCC_GET_FLAG(RCC_FLAG_PLL2RDY) != 0U)
 80028fe:	4b38      	ldr	r3, [pc, #224]	@ (80029e0 <RCCEx_PLL2_Config+0x104>)
 8002900:	681b      	ldr	r3, [r3, #0]
 8002902:	f013 6f00 	tst.w	r3, #134217728	@ 0x8000000
 8002906:	d006      	beq.n	8002916 <RCCEx_PLL2_Config+0x3a>
    {
      if ((HAL_GetTick() - tickstart) > PLL2_TIMEOUT_VALUE)
 8002908:	f7fd feaa 	bl	8000660 <HAL_GetTick>
 800290c:	1b03      	subs	r3, r0, r4
 800290e:	2b02      	cmp	r3, #2
 8002910:	d9f5      	bls.n	80028fe <RCCEx_PLL2_Config+0x22>
      {
        return HAL_TIMEOUT;
 8002912:	2003      	movs	r0, #3

  }


  return status;
}
 8002914:	bd70      	pop	{r4, r5, r6, pc}
    __HAL_RCC_PLL2_CONFIG(pll2->PLL2M,
 8002916:	4b32      	ldr	r3, [pc, #200]	@ (80029e0 <RCCEx_PLL2_Config+0x104>)
 8002918:	6a9a      	ldr	r2, [r3, #40]	@ 0x28
 800291a:	f422 327c 	bic.w	r2, r2, #258048	@ 0x3f000
 800291e:	6829      	ldr	r1, [r5, #0]
 8002920:	ea42 3201 	orr.w	r2, r2, r1, lsl #12
 8002924:	629a      	str	r2, [r3, #40]	@ 0x28
 8002926:	686a      	ldr	r2, [r5, #4]
 8002928:	3a01      	subs	r2, #1
 800292a:	f3c2 0208 	ubfx	r2, r2, #0, #9
 800292e:	68a9      	ldr	r1, [r5, #8]
 8002930:	3901      	subs	r1, #1
 8002932:	0249      	lsls	r1, r1, #9
 8002934:	b289      	uxth	r1, r1
 8002936:	430a      	orrs	r2, r1
 8002938:	68e9      	ldr	r1, [r5, #12]
 800293a:	3901      	subs	r1, #1
 800293c:	0409      	lsls	r1, r1, #16
 800293e:	f401 01fe 	and.w	r1, r1, #8323072	@ 0x7f0000
 8002942:	430a      	orrs	r2, r1
 8002944:	6929      	ldr	r1, [r5, #16]
 8002946:	3901      	subs	r1, #1
 8002948:	0609      	lsls	r1, r1, #24
 800294a:	f001 41fe 	and.w	r1, r1, #2130706432	@ 0x7f000000
 800294e:	430a      	orrs	r2, r1
 8002950:	639a      	str	r2, [r3, #56]	@ 0x38
    __HAL_RCC_PLL2_VCIRANGE(pll2->PLL2RGE) ;
 8002952:	6ada      	ldr	r2, [r3, #44]	@ 0x2c
 8002954:	f022 02c0 	bic.w	r2, r2, #192	@ 0xc0
 8002958:	6969      	ldr	r1, [r5, #20]
 800295a:	430a      	orrs	r2, r1
 800295c:	62da      	str	r2, [r3, #44]	@ 0x2c
    __HAL_RCC_PLL2_VCORANGE(pll2->PLL2VCOSEL) ;
 800295e:	6ada      	ldr	r2, [r3, #44]	@ 0x2c
 8002960:	f022 0220 	bic.w	r2, r2, #32
 8002964:	69a9      	ldr	r1, [r5, #24]
 8002966:	430a      	orrs	r2, r1
 8002968:	62da      	str	r2, [r3, #44]	@ 0x2c
    __HAL_RCC_PLL2FRACN_DISABLE();
 800296a:	6ada      	ldr	r2, [r3, #44]	@ 0x2c
 800296c:	f022 0210 	bic.w	r2, r2, #16
 8002970:	62da      	str	r2, [r3, #44]	@ 0x2c
    __HAL_RCC_PLL2FRACN_CONFIG(pll2->PLL2FRACN);
 8002972:	6bda      	ldr	r2, [r3, #60]	@ 0x3c
 8002974:	f36f 02cf 	bfc	r2, #3, #13
 8002978:	69e9      	ldr	r1, [r5, #28]
 800297a:	ea42 02c1 	orr.w	r2, r2, r1, lsl #3
 800297e:	63da      	str	r2, [r3, #60]	@ 0x3c
    __HAL_RCC_PLL2FRACN_ENABLE();
 8002980:	6ada      	ldr	r2, [r3, #44]	@ 0x2c
 8002982:	f042 0210 	orr.w	r2, r2, #16
 8002986:	62da      	str	r2, [r3, #44]	@ 0x2c
    if (Divider == DIVIDER_P_UPDATE)
 8002988:	b9c6      	cbnz	r6, 80029bc <RCCEx_PLL2_Config+0xe0>
      __HAL_RCC_PLL2CLKOUT_ENABLE(RCC_PLL2_DIVP);
 800298a:	461a      	mov	r2, r3
 800298c:	6adb      	ldr	r3, [r3, #44]	@ 0x2c
 800298e:	f443 2300 	orr.w	r3, r3, #524288	@ 0x80000
 8002992:	62d3      	str	r3, [r2, #44]	@ 0x2c
    __HAL_RCC_PLL2_ENABLE();
 8002994:	4a12      	ldr	r2, [pc, #72]	@ (80029e0 <RCCEx_PLL2_Config+0x104>)
 8002996:	6813      	ldr	r3, [r2, #0]
 8002998:	f043 6380 	orr.w	r3, r3, #67108864	@ 0x4000000
 800299c:	6013      	str	r3, [r2, #0]
    tickstart = HAL_GetTick();
 800299e:	f7fd fe5f 	bl	8000660 <HAL_GetTick>
 80029a2:	4604      	mov	r4, r0
    while (__HAL_RCC_GET_FLAG(RCC_FLAG_PLL2RDY) == 0U)
 80029a4:	4b0e      	ldr	r3, [pc, #56]	@ (80029e0 <RCCEx_PLL2_Config+0x104>)
 80029a6:	681b      	ldr	r3, [r3, #0]
 80029a8:	f013 6f00 	tst.w	r3, #134217728	@ 0x8000000
 80029ac:	d114      	bne.n	80029d8 <RCCEx_PLL2_Config+0xfc>
      if ((HAL_GetTick() - tickstart) > PLL2_TIMEOUT_VALUE)
 80029ae:	f7fd fe57 	bl	8000660 <HAL_GetTick>
 80029b2:	1b00      	subs	r0, r0, r4
 80029b4:	2802      	cmp	r0, #2
 80029b6:	d9f5      	bls.n	80029a4 <RCCEx_PLL2_Config+0xc8>
        return HAL_TIMEOUT;
 80029b8:	2003      	movs	r0, #3
 80029ba:	e7ab      	b.n	8002914 <RCCEx_PLL2_Config+0x38>
    else if (Divider == DIVIDER_Q_UPDATE)
 80029bc:	2e01      	cmp	r6, #1
 80029be:	d005      	beq.n	80029cc <RCCEx_PLL2_Config+0xf0>
      __HAL_RCC_PLL2CLKOUT_ENABLE(RCC_PLL2_DIVR);
 80029c0:	4a07      	ldr	r2, [pc, #28]	@ (80029e0 <RCCEx_PLL2_Config+0x104>)
 80029c2:	6ad3      	ldr	r3, [r2, #44]	@ 0x2c
 80029c4:	f443 1300 	orr.w	r3, r3, #2097152	@ 0x200000
 80029c8:	62d3      	str	r3, [r2, #44]	@ 0x2c
 80029ca:	e7e3      	b.n	8002994 <RCCEx_PLL2_Config+0xb8>
      __HAL_RCC_PLL2CLKOUT_ENABLE(RCC_PLL2_DIVQ);
 80029cc:	4a04      	ldr	r2, [pc, #16]	@ (80029e0 <RCCEx_PLL2_Config+0x104>)
 80029ce:	6ad3      	ldr	r3, [r2, #44]	@ 0x2c
 80029d0:	f443 1380 	orr.w	r3, r3, #1048576	@ 0x100000
 80029d4:	62d3      	str	r3, [r2, #44]	@ 0x2c
 80029d6:	e7dd      	b.n	8002994 <RCCEx_PLL2_Config+0xb8>
  return status;
 80029d8:	2000      	movs	r0, #0
 80029da:	e79b      	b.n	8002914 <RCCEx_PLL2_Config+0x38>
    return HAL_ERROR;
 80029dc:	2001      	movs	r0, #1
}
 80029de:	4770      	bx	lr
 80029e0:	58024400 	.word	0x58024400

080029e4 <RCCEx_PLL3_Config>:
  assert_param(IS_RCC_PLL3RGE_VALUE(pll3->PLL3RGE));
  assert_param(IS_RCC_PLL3VCO_VALUE(pll3->PLL3VCOSEL));
  assert_param(IS_RCC_PLLFRACN_VALUE(pll3->PLL3FRACN));

  /* Check that PLL3 OSC clock source is already set */
  if (__HAL_RCC_GET_PLL_OSCSOURCE() == RCC_PLLSOURCE_NONE)
 80029e4:	4b40      	ldr	r3, [pc, #256]	@ (8002ae8 <RCCEx_PLL3_Config+0x104>)
 80029e6:	6a9b      	ldr	r3, [r3, #40]	@ 0x28
 80029e8:	f003 0303 	and.w	r3, r3, #3
 80029ec:	2b03      	cmp	r3, #3
 80029ee:	d079      	beq.n	8002ae4 <RCCEx_PLL3_Config+0x100>
{
 80029f0:	b570      	push	{r4, r5, r6, lr}
 80029f2:	4605      	mov	r5, r0
 80029f4:	460e      	mov	r6, r1


  else
  {
    /* Disable  PLL3. */
    __HAL_RCC_PLL3_DISABLE();
 80029f6:	4a3c      	ldr	r2, [pc, #240]	@ (8002ae8 <RCCEx_PLL3_Config+0x104>)
 80029f8:	6813      	ldr	r3, [r2, #0]
 80029fa:	f023 5380 	bic.w	r3, r3, #268435456	@ 0x10000000
 80029fe:	6013      	str	r3, [r2, #0]

    /* Get Start Tick*/
    tickstart = HAL_GetTick();
 8002a00:	f7fd fe2e 	bl	8000660 <HAL_GetTick>
 8002a04:	4604      	mov	r4, r0
    /* Wait till PLL3 is ready */
    while (__HAL_RCC_GET_FLAG(RCC_FLAG_PLL3RDY) != 0U)
 8002a06:	4b38      	ldr	r3, [pc, #224]	@ (8002ae8 <RCCEx_PLL3_Config+0x104>)
 8002a08:	681b      	ldr	r3, [r3, #0]
 8002a0a:	f013 5f00 	tst.w	r3, #536870912	@ 0x20000000
 8002a0e:	d006      	beq.n	8002a1e <RCCEx_PLL3_Config+0x3a>
    {
      if ((HAL_GetTick() - tickstart) > PLL3_TIMEOUT_VALUE)
 8002a10:	f7fd fe26 	bl	8000660 <HAL_GetTick>
 8002a14:	1b03      	subs	r3, r0, r4
 8002a16:	2b02      	cmp	r3, #2
 8002a18:	d9f5      	bls.n	8002a06 <RCCEx_PLL3_Config+0x22>
      {
        return HAL_TIMEOUT;
 8002a1a:	2003      	movs	r0, #3

  }


  return status;
}
 8002a1c:	bd70      	pop	{r4, r5, r6, pc}
    __HAL_RCC_PLL3_CONFIG(pll3->PLL3M,
 8002a1e:	4b32      	ldr	r3, [pc, #200]	@ (8002ae8 <RCCEx_PLL3_Config+0x104>)
 8002a20:	6a9a      	ldr	r2, [r3, #40]	@ 0x28
 8002a22:	f022 727c 	bic.w	r2, r2, #66060288	@ 0x3f00000
 8002a26:	6829      	ldr	r1, [r5, #0]
 8002a28:	ea42 5201 	orr.w	r2, r2, r1, lsl #20
 8002a2c:	629a      	str	r2, [r3, #40]	@ 0x28
 8002a2e:	686a      	ldr	r2, [r5, #4]
 8002a30:	3a01      	subs	r2, #1
 8002a32:	f3c2 0208 	ubfx	r2, r2, #0, #9
 8002a36:	68a9      	ldr	r1, [r5, #8]
 8002a38:	3901      	subs	r1, #1
 8002a3a:	0249      	lsls	r1, r1, #9
 8002a3c:	b289      	uxth	r1, r1
 8002a3e:	430a      	orrs	r2, r1
 8002a40:	68e9      	ldr	r1, [r5, #12]
 8002a42:	3901      	subs	r1, #1
 8002a44:	0409      	lsls	r1, r1, #16
 8002a46:	f401 01fe 	and.w	r1, r1, #8323072	@ 0x7f0000
 8002a4a:	430a      	orrs	r2, r1
 8002a4c:	6929      	ldr	r1, [r5, #16]
 8002a4e:	3901      	subs	r1, #1
 8002a50:	0609      	lsls	r1, r1, #24
 8002a52:	f001 41fe 	and.w	r1, r1, #2130706432	@ 0x7f000000
 8002a56:	430a      	orrs	r2, r1
 8002a58:	641a      	str	r2, [r3, #64]	@ 0x40
    __HAL_RCC_PLL3_VCIRANGE(pll3->PLL3RGE) ;
 8002a5a:	6ada      	ldr	r2, [r3, #44]	@ 0x2c
 8002a5c:	f422 6240 	bic.w	r2, r2, #3072	@ 0xc00
 8002a60:	6969      	ldr	r1, [r5, #20]
 8002a62:	430a      	orrs	r2, r1
 8002a64:	62da      	str	r2, [r3, #44]	@ 0x2c
    __HAL_RCC_PLL3_VCORANGE(pll3->PLL3VCOSEL) ;
 8002a66:	6ada      	ldr	r2, [r3, #44]	@ 0x2c
 8002a68:	f422 7200 	bic.w	r2, r2, #512	@ 0x200
 8002a6c:	69a9      	ldr	r1, [r5, #24]
 8002a6e:	430a      	orrs	r2, r1
 8002a70:	62da      	str	r2, [r3, #44]	@ 0x2c
    __HAL_RCC_PLL3FRACN_DISABLE();
 8002a72:	6ada      	ldr	r2, [r3, #44]	@ 0x2c
 8002a74:	f422 7280 	bic.w	r2, r2, #256	@ 0x100
 8002a78:	62da      	str	r2, [r3, #44]	@ 0x2c
    __HAL_RCC_PLL3FRACN_CONFIG(pll3->PLL3FRACN);
 8002a7a:	6c5a      	ldr	r2, [r3, #68]	@ 0x44
 8002a7c:	f36f 02cf 	bfc	r2, #3, #13
 8002a80:	69e9      	ldr	r1, [r5, #28]
 8002a82:	ea42 02c1 	orr.w	r2, r2, r1, lsl #3
 8002a86:	645a      	str	r2, [r3, #68]	@ 0x44
    __HAL_RCC_PLL3FRACN_ENABLE();
 8002a88:	6ada      	ldr	r2, [r3, #44]	@ 0x2c
 8002a8a:	f442 7280 	orr.w	r2, r2, #256	@ 0x100
 8002a8e:	62da      	str	r2, [r3, #44]	@ 0x2c
    if (Divider == DIVIDER_P_UPDATE)
 8002a90:	b9c6      	cbnz	r6, 8002ac4 <RCCEx_PLL3_Config+0xe0>
      __HAL_RCC_PLL3CLKOUT_ENABLE(RCC_PLL3_DIVP);
 8002a92:	461a      	mov	r2, r3
 8002a94:	6adb      	ldr	r3, [r3, #44]	@ 0x2c
 8002a96:	f443 0380 	orr.w	r3, r3, #4194304	@ 0x400000
 8002a9a:	62d3      	str	r3, [r2, #44]	@ 0x2c
    __HAL_RCC_PLL3_ENABLE();
 8002a9c:	4a12      	ldr	r2, [pc, #72]	@ (8002ae8 <RCCEx_PLL3_Config+0x104>)
 8002a9e:	6813      	ldr	r3, [r2, #0]
 8002aa0:	f043 5380 	orr.w	r3, r3, #268435456	@ 0x10000000
 8002aa4:	6013      	str	r3, [r2, #0]
    tickstart = HAL_GetTick();
 8002aa6:	f7fd fddb 	bl	8000660 <HAL_GetTick>
 8002aaa:	4604      	mov	r4, r0
    while (__HAL_RCC_GET_FLAG(RCC_FLAG_PLL3RDY) == 0U)
 8002aac:	4b0e      	ldr	r3, [pc, #56]	@ (8002ae8 <RCCEx_PLL3_Config+0x104>)
 8002aae:	681b      	ldr	r3, [r3, #0]
 8002ab0:	f013 5f00 	tst.w	r3, #536870912	@ 0x20000000
 8002ab4:	d114      	bne.n	8002ae0 <RCCEx_PLL3_Config+0xfc>
      if ((HAL_GetTick() - tickstart) > PLL3_TIMEOUT_VALUE)
 8002ab6:	f7fd fdd3 	bl	8000660 <HAL_GetTick>
 8002aba:	1b00      	subs	r0, r0, r4
 8002abc:	2802      	cmp	r0, #2
 8002abe:	d9f5      	bls.n	8002aac <RCCEx_PLL3_Config+0xc8>
        return HAL_TIMEOUT;
 8002ac0:	2003      	movs	r0, #3
 8002ac2:	e7ab      	b.n	8002a1c <RCCEx_PLL3_Config+0x38>
    else if (Divider == DIVIDER_Q_UPDATE)
 8002ac4:	2e01      	cmp	r6, #1
 8002ac6:	d005      	beq.n	8002ad4 <RCCEx_PLL3_Config+0xf0>
      __HAL_RCC_PLL3CLKOUT_ENABLE(RCC_PLL3_DIVR);
 8002ac8:	4a07      	ldr	r2, [pc, #28]	@ (8002ae8 <RCCEx_PLL3_Config+0x104>)
 8002aca:	6ad3      	ldr	r3, [r2, #44]	@ 0x2c
 8002acc:	f043 7380 	orr.w	r3, r3, #16777216	@ 0x1000000
 8002ad0:	62d3      	str	r3, [r2, #44]	@ 0x2c
 8002ad2:	e7e3      	b.n	8002a9c <RCCEx_PLL3_Config+0xb8>
      __HAL_RCC_PLL3CLKOUT_ENABLE(RCC_PLL3_DIVQ);
 8002ad4:	4a04      	ldr	r2, [pc, #16]	@ (8002ae8 <RCCEx_PLL3_Config+0x104>)
 8002ad6:	6ad3      	ldr	r3, [r2, #44]	@ 0x2c
 8002ad8:	f443 0300 	orr.w	r3, r3, #8388608	@ 0x800000
 8002adc:	62d3      	str	r3, [r2, #44]	@ 0x2c
 8002ade:	e7dd      	b.n	8002a9c <RCCEx_PLL3_Config+0xb8>
  return status;
 8002ae0:	2000      	movs	r0, #0
 8002ae2:	e79b      	b.n	8002a1c <RCCEx_PLL3_Config+0x38>
    return HAL_ERROR;
 8002ae4:	2001      	movs	r0, #1
}
 8002ae6:	4770      	bx	lr
 8002ae8:	58024400 	.word	0x58024400

08002aec <HAL_RCCEx_PeriphCLKConfig>:
{
 8002aec:	b5f8      	push	{r3, r4, r5, r6, r7, lr}
 8002aee:	4604      	mov	r4, r0
  if (((PeriphClkInit->PeriphClockSelection) & RCC_PERIPHCLK_SPDIFRX) == RCC_PERIPHCLK_SPDIFRX)
 8002af0:	6803      	ldr	r3, [r0, #0]
 8002af2:	f013 6f00 	tst.w	r3, #134217728	@ 0x8000000
 8002af6:	d030      	beq.n	8002b5a <HAL_RCCEx_PeriphCLKConfig+0x6e>
    switch (PeriphClkInit->SpdifrxClockSelection)
 8002af8:	6e83      	ldr	r3, [r0, #104]	@ 0x68
 8002afa:	f5b3 1f00 	cmp.w	r3, #2097152	@ 0x200000
 8002afe:	d026      	beq.n	8002b4e <HAL_RCCEx_PeriphCLKConfig+0x62>
 8002b00:	d80e      	bhi.n	8002b20 <HAL_RCCEx_PeriphCLKConfig+0x34>
 8002b02:	b1ab      	cbz	r3, 8002b30 <HAL_RCCEx_PeriphCLKConfig+0x44>
 8002b04:	f5b3 1f80 	cmp.w	r3, #1048576	@ 0x100000
 8002b08:	d107      	bne.n	8002b1a <HAL_RCCEx_PeriphCLKConfig+0x2e>
        ret = RCCEx_PLL2_Config(&(PeriphClkInit->PLL2), DIVIDER_R_UPDATE);
 8002b0a:	2102      	movs	r1, #2
 8002b0c:	3008      	adds	r0, #8
 8002b0e:	f7ff fee5 	bl	80028dc <RCCEx_PLL2_Config>
 8002b12:	4605      	mov	r5, r0
    if (ret == HAL_OK)
 8002b14:	b195      	cbz	r5, 8002b3c <HAL_RCCEx_PeriphCLKConfig+0x50>
      status = ret;
 8002b16:	462e      	mov	r6, r5
 8002b18:	e021      	b.n	8002b5e <HAL_RCCEx_PeriphCLKConfig+0x72>
    switch (PeriphClkInit->SpdifrxClockSelection)
 8002b1a:	2601      	movs	r6, #1
 8002b1c:	4635      	mov	r5, r6
 8002b1e:	e01e      	b.n	8002b5e <HAL_RCCEx_PeriphCLKConfig+0x72>
 8002b20:	f5b3 1f40 	cmp.w	r3, #3145728	@ 0x300000
 8002b24:	d101      	bne.n	8002b2a <HAL_RCCEx_PeriphCLKConfig+0x3e>
 8002b26:	2500      	movs	r5, #0
 8002b28:	e008      	b.n	8002b3c <HAL_RCCEx_PeriphCLKConfig+0x50>
 8002b2a:	2601      	movs	r6, #1
 8002b2c:	4635      	mov	r5, r6
 8002b2e:	e016      	b.n	8002b5e <HAL_RCCEx_PeriphCLKConfig+0x72>
        __HAL_RCC_PLLCLKOUT_ENABLE(RCC_PLL1_DIVQ);
 8002b30:	4a9a      	ldr	r2, [pc, #616]	@ (8002d9c <HAL_RCCEx_PeriphCLKConfig+0x2b0>)
 8002b32:	6ad3      	ldr	r3, [r2, #44]	@ 0x2c
 8002b34:	f443 3300 	orr.w	r3, r3, #131072	@ 0x20000
 8002b38:	62d3      	str	r3, [r2, #44]	@ 0x2c
  HAL_StatusTypeDef ret = HAL_OK;      /* Intermediate status */
 8002b3a:	2500      	movs	r5, #0
      __HAL_RCC_SPDIFRX_CONFIG(PeriphClkInit->SpdifrxClockSelection);
 8002b3c:	4a97      	ldr	r2, [pc, #604]	@ (8002d9c <HAL_RCCEx_PeriphCLKConfig+0x2b0>)
 8002b3e:	6d13      	ldr	r3, [r2, #80]	@ 0x50
 8002b40:	f423 1340 	bic.w	r3, r3, #3145728	@ 0x300000
 8002b44:	6ea1      	ldr	r1, [r4, #104]	@ 0x68
 8002b46:	430b      	orrs	r3, r1
 8002b48:	6513      	str	r3, [r2, #80]	@ 0x50
  HAL_StatusTypeDef status = HAL_OK;   /* Final status */
 8002b4a:	2600      	movs	r6, #0
 8002b4c:	e007      	b.n	8002b5e <HAL_RCCEx_PeriphCLKConfig+0x72>
        ret = RCCEx_PLL3_Config(&(PeriphClkInit->PLL3), DIVIDER_R_UPDATE);
 8002b4e:	2102      	movs	r1, #2
 8002b50:	3028      	adds	r0, #40	@ 0x28
 8002b52:	f7ff ff47 	bl	80029e4 <RCCEx_PLL3_Config>
 8002b56:	4605      	mov	r5, r0
        break;
 8002b58:	e7dc      	b.n	8002b14 <HAL_RCCEx_PeriphCLKConfig+0x28>
  HAL_StatusTypeDef status = HAL_OK;   /* Final status */
 8002b5a:	2600      	movs	r6, #0
  HAL_StatusTypeDef ret = HAL_OK;      /* Intermediate status */
 8002b5c:	4635      	mov	r5, r6
  if (((PeriphClkInit->PeriphClockSelection) & RCC_PERIPHCLK_SAI1) == RCC_PERIPHCLK_SAI1)
 8002b5e:	6823      	ldr	r3, [r4, #0]
 8002b60:	f413 7f80 	tst.w	r3, #256	@ 0x100
 8002b64:	d014      	beq.n	8002b90 <HAL_RCCEx_PeriphCLKConfig+0xa4>
    switch (PeriphClkInit->Sai1ClockSelection)
 8002b66:	6da3      	ldr	r3, [r4, #88]	@ 0x58
 8002b68:	2b04      	cmp	r3, #4
 8002b6a:	d831      	bhi.n	8002bd0 <HAL_RCCEx_PeriphCLKConfig+0xe4>
 8002b6c:	e8df f003 	tbb	[pc, r3]
 8002b70:	08292203 	.word	0x08292203
 8002b74:	08          	.byte	0x08
 8002b75:	00          	.byte	0x00
        __HAL_RCC_PLLCLKOUT_ENABLE(RCC_PLL1_DIVQ);
 8002b76:	4a89      	ldr	r2, [pc, #548]	@ (8002d9c <HAL_RCCEx_PeriphCLKConfig+0x2b0>)
 8002b78:	6ad3      	ldr	r3, [r2, #44]	@ 0x2c
 8002b7a:	f443 3300 	orr.w	r3, r3, #131072	@ 0x20000
 8002b7e:	62d3      	str	r3, [r2, #44]	@ 0x2c
    if (ret == HAL_OK)
 8002b80:	bb4d      	cbnz	r5, 8002bd6 <HAL_RCCEx_PeriphCLKConfig+0xea>
      __HAL_RCC_SAI1_CONFIG(PeriphClkInit->Sai1ClockSelection);
 8002b82:	4a86      	ldr	r2, [pc, #536]	@ (8002d9c <HAL_RCCEx_PeriphCLKConfig+0x2b0>)
 8002b84:	6d13      	ldr	r3, [r2, #80]	@ 0x50
 8002b86:	f023 0307 	bic.w	r3, r3, #7
 8002b8a:	6da1      	ldr	r1, [r4, #88]	@ 0x58
 8002b8c:	430b      	orrs	r3, r1
 8002b8e:	6513      	str	r3, [r2, #80]	@ 0x50
  if (((PeriphClkInit->PeriphClockSelection) & RCC_PERIPHCLK_SAI23) == RCC_PERIPHCLK_SAI23)
 8002b90:	6823      	ldr	r3, [r4, #0]
 8002b92:	f413 7f00 	tst.w	r3, #512	@ 0x200
 8002b96:	d03f      	beq.n	8002c18 <HAL_RCCEx_PeriphCLKConfig+0x12c>
    switch (PeriphClkInit->Sai23ClockSelection)
 8002b98:	6de3      	ldr	r3, [r4, #92]	@ 0x5c
 8002b9a:	2b80      	cmp	r3, #128	@ 0x80
 8002b9c:	d02e      	beq.n	8002bfc <HAL_RCCEx_PeriphCLKConfig+0x110>
 8002b9e:	d81f      	bhi.n	8002be0 <HAL_RCCEx_PeriphCLKConfig+0xf4>
 8002ba0:	b333      	cbz	r3, 8002bf0 <HAL_RCCEx_PeriphCLKConfig+0x104>
 8002ba2:	2b40      	cmp	r3, #64	@ 0x40
 8002ba4:	d119      	bne.n	8002bda <HAL_RCCEx_PeriphCLKConfig+0xee>
        ret = RCCEx_PLL2_Config(&(PeriphClkInit->PLL2), DIVIDER_P_UPDATE);
 8002ba6:	2100      	movs	r1, #0
 8002ba8:	f104 0008 	add.w	r0, r4, #8
 8002bac:	f7ff fe96 	bl	80028dc <RCCEx_PLL2_Config>
 8002bb0:	4605      	mov	r5, r0
        break;
 8002bb2:	e029      	b.n	8002c08 <HAL_RCCEx_PeriphCLKConfig+0x11c>
        ret = RCCEx_PLL2_Config(&(PeriphClkInit->PLL2), DIVIDER_P_UPDATE);
 8002bb4:	2100      	movs	r1, #0
 8002bb6:	f104 0008 	add.w	r0, r4, #8
 8002bba:	f7ff fe8f 	bl	80028dc <RCCEx_PLL2_Config>
 8002bbe:	4605      	mov	r5, r0
        break;
 8002bc0:	e7de      	b.n	8002b80 <HAL_RCCEx_PeriphCLKConfig+0x94>
        ret = RCCEx_PLL3_Config(&(PeriphClkInit->PLL3), DIVIDER_P_UPDATE);
 8002bc2:	2100      	movs	r1, #0
 8002bc4:	f104 0028 	add.w	r0, r4, #40	@ 0x28
 8002bc8:	f7ff ff0c 	bl	80029e4 <RCCEx_PLL3_Config>
 8002bcc:	4605      	mov	r5, r0
        break;
 8002bce:	e7d7      	b.n	8002b80 <HAL_RCCEx_PeriphCLKConfig+0x94>
    switch (PeriphClkInit->Sai1ClockSelection)
 8002bd0:	2601      	movs	r6, #1
 8002bd2:	4635      	mov	r5, r6
 8002bd4:	e7dc      	b.n	8002b90 <HAL_RCCEx_PeriphCLKConfig+0xa4>
      status = ret;
 8002bd6:	462e      	mov	r6, r5
 8002bd8:	e7da      	b.n	8002b90 <HAL_RCCEx_PeriphCLKConfig+0xa4>
    switch (PeriphClkInit->Sai23ClockSelection)
 8002bda:	2601      	movs	r6, #1
 8002bdc:	4635      	mov	r5, r6
 8002bde:	e01b      	b.n	8002c18 <HAL_RCCEx_PeriphCLKConfig+0x12c>
 8002be0:	2bc0      	cmp	r3, #192	@ 0xc0
 8002be2:	d011      	beq.n	8002c08 <HAL_RCCEx_PeriphCLKConfig+0x11c>
 8002be4:	f5b3 7f80 	cmp.w	r3, #256	@ 0x100
 8002be8:	d00e      	beq.n	8002c08 <HAL_RCCEx_PeriphCLKConfig+0x11c>
 8002bea:	2601      	movs	r6, #1
 8002bec:	4635      	mov	r5, r6
 8002bee:	e013      	b.n	8002c18 <HAL_RCCEx_PeriphCLKConfig+0x12c>
        __HAL_RCC_PLLCLKOUT_ENABLE(RCC_PLL1_DIVQ);
 8002bf0:	4a6a      	ldr	r2, [pc, #424]	@ (8002d9c <HAL_RCCEx_PeriphCLKConfig+0x2b0>)
 8002bf2:	6ad3      	ldr	r3, [r2, #44]	@ 0x2c
 8002bf4:	f443 3300 	orr.w	r3, r3, #131072	@ 0x20000
 8002bf8:	62d3      	str	r3, [r2, #44]	@ 0x2c
        break;
 8002bfa:	e005      	b.n	8002c08 <HAL_RCCEx_PeriphCLKConfig+0x11c>
        ret = RCCEx_PLL3_Config(&(PeriphClkInit->PLL3), DIVIDER_P_UPDATE);
 8002bfc:	2100      	movs	r1, #0
 8002bfe:	f104 0028 	add.w	r0, r4, #40	@ 0x28
 8002c02:	f7ff feef 	bl	80029e4 <RCCEx_PLL3_Config>
 8002c06:	4605      	mov	r5, r0
    if (ret == HAL_OK)
 8002c08:	b9dd      	cbnz	r5, 8002c42 <HAL_RCCEx_PeriphCLKConfig+0x156>
      __HAL_RCC_SAI23_CONFIG(PeriphClkInit->Sai23ClockSelection);
 8002c0a:	4a64      	ldr	r2, [pc, #400]	@ (8002d9c <HAL_RCCEx_PeriphCLKConfig+0x2b0>)
 8002c0c:	6d13      	ldr	r3, [r2, #80]	@ 0x50
 8002c0e:	f423 73e0 	bic.w	r3, r3, #448	@ 0x1c0
 8002c12:	6de1      	ldr	r1, [r4, #92]	@ 0x5c
 8002c14:	430b      	orrs	r3, r1
 8002c16:	6513      	str	r3, [r2, #80]	@ 0x50
  if (((PeriphClkInit->PeriphClockSelection) & RCC_PERIPHCLK_SAI4A) == RCC_PERIPHCLK_SAI4A)
 8002c18:	6823      	ldr	r3, [r4, #0]
 8002c1a:	f413 6f80 	tst.w	r3, #1024	@ 0x400
 8002c1e:	d033      	beq.n	8002c88 <HAL_RCCEx_PeriphCLKConfig+0x19c>
    switch (PeriphClkInit->Sai4AClockSelection)
 8002c20:	f8d4 30a8 	ldr.w	r3, [r4, #168]	@ 0xa8
 8002c24:	f5b3 0f80 	cmp.w	r3, #4194304	@ 0x400000
 8002c28:	d01f      	beq.n	8002c6a <HAL_RCCEx_PeriphCLKConfig+0x17e>
 8002c2a:	d80f      	bhi.n	8002c4c <HAL_RCCEx_PeriphCLKConfig+0x160>
 8002c2c:	b1bb      	cbz	r3, 8002c5e <HAL_RCCEx_PeriphCLKConfig+0x172>
 8002c2e:	f5b3 1f00 	cmp.w	r3, #2097152	@ 0x200000
 8002c32:	d108      	bne.n	8002c46 <HAL_RCCEx_PeriphCLKConfig+0x15a>
        ret = RCCEx_PLL2_Config(&(PeriphClkInit->PLL2), DIVIDER_P_UPDATE);
 8002c34:	2100      	movs	r1, #0
 8002c36:	f104 0008 	add.w	r0, r4, #8
 8002c3a:	f7ff fe4f 	bl	80028dc <RCCEx_PLL2_Config>
 8002c3e:	4605      	mov	r5, r0
        break;
 8002c40:	e019      	b.n	8002c76 <HAL_RCCEx_PeriphCLKConfig+0x18a>
      status = ret;
 8002c42:	462e      	mov	r6, r5
 8002c44:	e7e8      	b.n	8002c18 <HAL_RCCEx_PeriphCLKConfig+0x12c>
    switch (PeriphClkInit->Sai4AClockSelection)
 8002c46:	2601      	movs	r6, #1
 8002c48:	4635      	mov	r5, r6
 8002c4a:	e01d      	b.n	8002c88 <HAL_RCCEx_PeriphCLKConfig+0x19c>
 8002c4c:	f5b3 0fc0 	cmp.w	r3, #6291456	@ 0x600000
 8002c50:	d011      	beq.n	8002c76 <HAL_RCCEx_PeriphCLKConfig+0x18a>
 8002c52:	f5b3 0f00 	cmp.w	r3, #8388608	@ 0x800000
 8002c56:	d00e      	beq.n	8002c76 <HAL_RCCEx_PeriphCLKConfig+0x18a>
 8002c58:	2601      	movs	r6, #1
 8002c5a:	4635      	mov	r5, r6
 8002c5c:	e014      	b.n	8002c88 <HAL_RCCEx_PeriphCLKConfig+0x19c>
        __HAL_RCC_PLLCLKOUT_ENABLE(RCC_PLL1_DIVQ);
 8002c5e:	4a4f      	ldr	r2, [pc, #316]	@ (8002d9c <HAL_RCCEx_PeriphCLKConfig+0x2b0>)
 8002c60:	6ad3      	ldr	r3, [r2, #44]	@ 0x2c
 8002c62:	f443 3300 	orr.w	r3, r3, #131072	@ 0x20000
 8002c66:	62d3      	str	r3, [r2, #44]	@ 0x2c
        break;
 8002c68:	e005      	b.n	8002c76 <HAL_RCCEx_PeriphCLKConfig+0x18a>
        ret = RCCEx_PLL3_Config(&(PeriphClkInit->PLL3), DIVIDER_P_UPDATE);
 8002c6a:	2100      	movs	r1, #0
 8002c6c:	f104 0028 	add.w	r0, r4, #40	@ 0x28
 8002c70:	f7ff feb8 	bl	80029e4 <RCCEx_PLL3_Config>
 8002c74:	4605      	mov	r5, r0
    if (ret == HAL_OK)
 8002c76:	b9e5      	cbnz	r5, 8002cb2 <HAL_RCCEx_PeriphCLKConfig+0x1c6>
      __HAL_RCC_SAI4A_CONFIG(PeriphClkInit->Sai4AClockSelection);
 8002c78:	4a48      	ldr	r2, [pc, #288]	@ (8002d9c <HAL_RCCEx_PeriphCLKConfig+0x2b0>)
 8002c7a:	6d93      	ldr	r3, [r2, #88]	@ 0x58
 8002c7c:	f423 0360 	bic.w	r3, r3, #14680064	@ 0xe00000
 8002c80:	f8d4 10a8 	ldr.w	r1, [r4, #168]	@ 0xa8
 8002c84:	430b      	orrs	r3, r1
 8002c86:	6593      	str	r3, [r2, #88]	@ 0x58
  if (((PeriphClkInit->PeriphClockSelection) & RCC_PERIPHCLK_SAI4B) == RCC_PERIPHCLK_SAI4B)
 8002c88:	6823      	ldr	r3, [r4, #0]
 8002c8a:	f413 6f00 	tst.w	r3, #2048	@ 0x800
 8002c8e:	d034      	beq.n	8002cfa <HAL_RCCEx_PeriphCLKConfig+0x20e>
    switch (PeriphClkInit->Sai4BClockSelection)
 8002c90:	f8d4 30ac 	ldr.w	r3, [r4, #172]	@ 0xac
 8002c94:	f1b3 7f00 	cmp.w	r3, #33554432	@ 0x2000000
 8002c98:	d01f      	beq.n	8002cda <HAL_RCCEx_PeriphCLKConfig+0x1ee>
 8002c9a:	d80f      	bhi.n	8002cbc <HAL_RCCEx_PeriphCLKConfig+0x1d0>
 8002c9c:	b1bb      	cbz	r3, 8002cce <HAL_RCCEx_PeriphCLKConfig+0x1e2>
 8002c9e:	f1b3 7f80 	cmp.w	r3, #16777216	@ 0x1000000
 8002ca2:	d108      	bne.n	8002cb6 <HAL_RCCEx_PeriphCLKConfig+0x1ca>
        ret = RCCEx_PLL2_Config(&(PeriphClkInit->PLL2), DIVIDER_P_UPDATE);
 8002ca4:	2100      	movs	r1, #0
 8002ca6:	f104 0008 	add.w	r0, r4, #8
 8002caa:	f7ff fe17 	bl	80028dc <RCCEx_PLL2_Config>
 8002cae:	4605      	mov	r5, r0
        break;
 8002cb0:	e019      	b.n	8002ce6 <HAL_RCCEx_PeriphCLKConfig+0x1fa>
      status = ret;
 8002cb2:	462e      	mov	r6, r5
 8002cb4:	e7e8      	b.n	8002c88 <HAL_RCCEx_PeriphCLKConfig+0x19c>
    switch (PeriphClkInit->Sai4BClockSelection)
 8002cb6:	2601      	movs	r6, #1
 8002cb8:	4635      	mov	r5, r6
 8002cba:	e01e      	b.n	8002cfa <HAL_RCCEx_PeriphCLKConfig+0x20e>
 8002cbc:	f1b3 7f40 	cmp.w	r3, #50331648	@ 0x3000000
 8002cc0:	d011      	beq.n	8002ce6 <HAL_RCCEx_PeriphCLKConfig+0x1fa>
 8002cc2:	f1b3 6f80 	cmp.w	r3, #67108864	@ 0x4000000
 8002cc6:	d00e      	beq.n	8002ce6 <HAL_RCCEx_PeriphCLKConfig+0x1fa>
 8002cc8:	2601      	movs	r6, #1
 8002cca:	4635      	mov	r5, r6
 8002ccc:	e015      	b.n	8002cfa <HAL_RCCEx_PeriphCLKConfig+0x20e>
        __HAL_RCC_PLLCLKOUT_ENABLE(RCC_PLL1_DIVQ);
 8002cce:	4a33      	ldr	r2, [pc, #204]	@ (8002d9c <HAL_RCCEx_PeriphCLKConfig+0x2b0>)
 8002cd0:	6ad3      	ldr	r3, [r2, #44]	@ 0x2c
 8002cd2:	f443 3300 	orr.w	r3, r3, #131072	@ 0x20000
 8002cd6:	62d3      	str	r3, [r2, #44]	@ 0x2c
        break;
 8002cd8:	e005      	b.n	8002ce6 <HAL_RCCEx_PeriphCLKConfig+0x1fa>
        ret = RCCEx_PLL3_Config(&(PeriphClkInit->PLL3), DIVIDER_P_UPDATE);
 8002cda:	2100      	movs	r1, #0
 8002cdc:	f104 0028 	add.w	r0, r4, #40	@ 0x28
 8002ce0:	f7ff fe80 	bl	80029e4 <RCCEx_PLL3_Config>
 8002ce4:	4605      	mov	r5, r0
    if (ret == HAL_OK)
 8002ce6:	2d00      	cmp	r5, #0
 8002ce8:	d133      	bne.n	8002d52 <HAL_RCCEx_PeriphCLKConfig+0x266>
      __HAL_RCC_SAI4B_CONFIG(PeriphClkInit->Sai4BClockSelection);
 8002cea:	4a2c      	ldr	r2, [pc, #176]	@ (8002d9c <HAL_RCCEx_PeriphCLKConfig+0x2b0>)
 8002cec:	6d93      	ldr	r3, [r2, #88]	@ 0x58
 8002cee:	f023 63e0 	bic.w	r3, r3, #117440512	@ 0x7000000
 8002cf2:	f8d4 10ac 	ldr.w	r1, [r4, #172]	@ 0xac
 8002cf6:	430b      	orrs	r3, r1
 8002cf8:	6593      	str	r3, [r2, #88]	@ 0x58
  if (((PeriphClkInit->PeriphClockSelection) & RCC_PERIPHCLK_QSPI) == RCC_PERIPHCLK_QSPI)
 8002cfa:	6823      	ldr	r3, [r4, #0]
 8002cfc:	f013 7f00 	tst.w	r3, #33554432	@ 0x2000000
 8002d00:	d013      	beq.n	8002d2a <HAL_RCCEx_PeriphCLKConfig+0x23e>
    switch (PeriphClkInit->QspiClockSelection)
 8002d02:	6ce3      	ldr	r3, [r4, #76]	@ 0x4c
 8002d04:	2b20      	cmp	r3, #32
 8002d06:	d02e      	beq.n	8002d66 <HAL_RCCEx_PeriphCLKConfig+0x27a>
 8002d08:	d828      	bhi.n	8002d5c <HAL_RCCEx_PeriphCLKConfig+0x270>
 8002d0a:	b133      	cbz	r3, 8002d1a <HAL_RCCEx_PeriphCLKConfig+0x22e>
 8002d0c:	2b10      	cmp	r3, #16
 8002d0e:	d122      	bne.n	8002d56 <HAL_RCCEx_PeriphCLKConfig+0x26a>
        __HAL_RCC_PLLCLKOUT_ENABLE(RCC_PLL1_DIVQ);
 8002d10:	4a22      	ldr	r2, [pc, #136]	@ (8002d9c <HAL_RCCEx_PeriphCLKConfig+0x2b0>)
 8002d12:	6ad3      	ldr	r3, [r2, #44]	@ 0x2c
 8002d14:	f443 3300 	orr.w	r3, r3, #131072	@ 0x20000
 8002d18:	62d3      	str	r3, [r2, #44]	@ 0x2c
    if (ret == HAL_OK)
 8002d1a:	bb5d      	cbnz	r5, 8002d74 <HAL_RCCEx_PeriphCLKConfig+0x288>
      __HAL_RCC_QSPI_CONFIG(PeriphClkInit->QspiClockSelection);
 8002d1c:	4a1f      	ldr	r2, [pc, #124]	@ (8002d9c <HAL_RCCEx_PeriphCLKConfig+0x2b0>)
 8002d1e:	6cd3      	ldr	r3, [r2, #76]	@ 0x4c
 8002d20:	f023 0330 	bic.w	r3, r3, #48	@ 0x30
 8002d24:	6ce1      	ldr	r1, [r4, #76]	@ 0x4c
 8002d26:	430b      	orrs	r3, r1
 8002d28:	64d3      	str	r3, [r2, #76]	@ 0x4c
  if (((PeriphClkInit->PeriphClockSelection) & RCC_PERIPHCLK_SPI123) == RCC_PERIPHCLK_SPI123)
 8002d2a:	6823      	ldr	r3, [r4, #0]
 8002d2c:	f413 5f80 	tst.w	r3, #4096	@ 0x1000
 8002d30:	d046      	beq.n	8002dc0 <HAL_RCCEx_PeriphCLKConfig+0x2d4>
    switch (PeriphClkInit->Spi123ClockSelection)
 8002d32:	6e23      	ldr	r3, [r4, #96]	@ 0x60
 8002d34:	f5b3 5f00 	cmp.w	r3, #8192	@ 0x2000
 8002d38:	d032      	beq.n	8002da0 <HAL_RCCEx_PeriphCLKConfig+0x2b4>
 8002d3a:	d820      	bhi.n	8002d7e <HAL_RCCEx_PeriphCLKConfig+0x292>
 8002d3c:	b343      	cbz	r3, 8002d90 <HAL_RCCEx_PeriphCLKConfig+0x2a4>
 8002d3e:	f5b3 5f80 	cmp.w	r3, #4096	@ 0x1000
 8002d42:	d119      	bne.n	8002d78 <HAL_RCCEx_PeriphCLKConfig+0x28c>
        ret = RCCEx_PLL2_Config(&(PeriphClkInit->PLL2), DIVIDER_P_UPDATE);
 8002d44:	2100      	movs	r1, #0
 8002d46:	f104 0008 	add.w	r0, r4, #8
 8002d4a:	f7ff fdc7 	bl	80028dc <RCCEx_PLL2_Config>
 8002d4e:	4605      	mov	r5, r0
        break;
 8002d50:	e02c      	b.n	8002dac <HAL_RCCEx_PeriphCLKConfig+0x2c0>
      status = ret;
 8002d52:	462e      	mov	r6, r5
 8002d54:	e7d1      	b.n	8002cfa <HAL_RCCEx_PeriphCLKConfig+0x20e>
    switch (PeriphClkInit->QspiClockSelection)
 8002d56:	2601      	movs	r6, #1
 8002d58:	4635      	mov	r5, r6
 8002d5a:	e7e6      	b.n	8002d2a <HAL_RCCEx_PeriphCLKConfig+0x23e>
 8002d5c:	2b30      	cmp	r3, #48	@ 0x30
 8002d5e:	d0dc      	beq.n	8002d1a <HAL_RCCEx_PeriphCLKConfig+0x22e>
 8002d60:	2601      	movs	r6, #1
 8002d62:	4635      	mov	r5, r6
 8002d64:	e7e1      	b.n	8002d2a <HAL_RCCEx_PeriphCLKConfig+0x23e>
        ret = RCCEx_PLL2_Config(&(PeriphClkInit->PLL2), DIVIDER_R_UPDATE);
 8002d66:	2102      	movs	r1, #2
 8002d68:	f104 0008 	add.w	r0, r4, #8
 8002d6c:	f7ff fdb6 	bl	80028dc <RCCEx_PLL2_Config>
 8002d70:	4605      	mov	r5, r0
        break;
 8002d72:	e7d2      	b.n	8002d1a <HAL_RCCEx_PeriphCLKConfig+0x22e>
      status = ret;
 8002d74:	462e      	mov	r6, r5
 8002d76:	e7d8      	b.n	8002d2a <HAL_RCCEx_PeriphCLKConfig+0x23e>
    switch (PeriphClkInit->Spi123ClockSelection)
 8002d78:	2601      	movs	r6, #1
 8002d7a:	4635      	mov	r5, r6
 8002d7c:	e020      	b.n	8002dc0 <HAL_RCCEx_PeriphCLKConfig+0x2d4>
 8002d7e:	f5b3 5f40 	cmp.w	r3, #12288	@ 0x3000
 8002d82:	d013      	beq.n	8002dac <HAL_RCCEx_PeriphCLKConfig+0x2c0>
 8002d84:	f5b3 4f80 	cmp.w	r3, #16384	@ 0x4000
 8002d88:	d010      	beq.n	8002dac <HAL_RCCEx_PeriphCLKConfig+0x2c0>
 8002d8a:	2601      	movs	r6, #1
 8002d8c:	4635      	mov	r5, r6
 8002d8e:	e017      	b.n	8002dc0 <HAL_RCCEx_PeriphCLKConfig+0x2d4>
        __HAL_RCC_PLLCLKOUT_ENABLE(RCC_PLL1_DIVQ);
 8002d90:	4a02      	ldr	r2, [pc, #8]	@ (8002d9c <HAL_RCCEx_PeriphCLKConfig+0x2b0>)
 8002d92:	6ad3      	ldr	r3, [r2, #44]	@ 0x2c
 8002d94:	f443 3300 	orr.w	r3, r3, #131072	@ 0x20000
 8002d98:	62d3      	str	r3, [r2, #44]	@ 0x2c
        break;
 8002d9a:	e007      	b.n	8002dac <HAL_RCCEx_PeriphCLKConfig+0x2c0>
 8002d9c:	58024400 	.word	0x58024400
        ret = RCCEx_PLL3_Config(&(PeriphClkInit->PLL3), DIVIDER_P_UPDATE);
 8002da0:	2100      	movs	r1, #0
 8002da2:	f104 0028 	add.w	r0, r4, #40	@ 0x28
 8002da6:	f7ff fe1d 	bl	80029e4 <RCCEx_PLL3_Config>
 8002daa:	4605      	mov	r5, r0
    if (ret == HAL_OK)
 8002dac:	b93d      	cbnz	r5, 8002dbe <HAL_RCCEx_PeriphCLKConfig+0x2d2>
      __HAL_RCC_SPI123_CONFIG(PeriphClkInit->Spi123ClockSelection);
 8002dae:	4a70      	ldr	r2, [pc, #448]	@ (8002f70 <HAL_RCCEx_PeriphCLKConfig+0x484>)
 8002db0:	6d13      	ldr	r3, [r2, #80]	@ 0x50
 8002db2:	f423 43e0 	bic.w	r3, r3, #28672	@ 0x7000
 8002db6:	6e21      	ldr	r1, [r4, #96]	@ 0x60
 8002db8:	430b      	orrs	r3, r1
 8002dba:	6513      	str	r3, [r2, #80]	@ 0x50
 8002dbc:	e000      	b.n	8002dc0 <HAL_RCCEx_PeriphCLKConfig+0x2d4>
      status = ret;
 8002dbe:	462e      	mov	r6, r5
  if (((PeriphClkInit->PeriphClockSelection) & RCC_PERIPHCLK_SPI45) == RCC_PERIPHCLK_SPI45)
 8002dc0:	6823      	ldr	r3, [r4, #0]
 8002dc2:	f413 5f00 	tst.w	r3, #8192	@ 0x2000
 8002dc6:	d017      	beq.n	8002df8 <HAL_RCCEx_PeriphCLKConfig+0x30c>
    switch (PeriphClkInit->Spi45ClockSelection)
 8002dc8:	6e63      	ldr	r3, [r4, #100]	@ 0x64
 8002dca:	f5b3 3f00 	cmp.w	r3, #131072	@ 0x20000
 8002dce:	d04f      	beq.n	8002e70 <HAL_RCCEx_PeriphCLKConfig+0x384>
 8002dd0:	d842      	bhi.n	8002e58 <HAL_RCCEx_PeriphCLKConfig+0x36c>
 8002dd2:	b143      	cbz	r3, 8002de6 <HAL_RCCEx_PeriphCLKConfig+0x2fa>
 8002dd4:	f5b3 3f80 	cmp.w	r3, #65536	@ 0x10000
 8002dd8:	d13b      	bne.n	8002e52 <HAL_RCCEx_PeriphCLKConfig+0x366>
        ret = RCCEx_PLL2_Config(&(PeriphClkInit->PLL2), DIVIDER_Q_UPDATE);
 8002dda:	2101      	movs	r1, #1
 8002ddc:	f104 0008 	add.w	r0, r4, #8
 8002de0:	f7ff fd7c 	bl	80028dc <RCCEx_PLL2_Config>
 8002de4:	4605      	mov	r5, r0
    if (ret == HAL_OK)
 8002de6:	2d00      	cmp	r5, #0
 8002de8:	d149      	bne.n	8002e7e <HAL_RCCEx_PeriphCLKConfig+0x392>
      __HAL_RCC_SPI45_CONFIG(PeriphClkInit->Spi45ClockSelection);
 8002dea:	4a61      	ldr	r2, [pc, #388]	@ (8002f70 <HAL_RCCEx_PeriphCLKConfig+0x484>)
 8002dec:	6d13      	ldr	r3, [r2, #80]	@ 0x50
 8002dee:	f423 23e0 	bic.w	r3, r3, #458752	@ 0x70000
 8002df2:	6e61      	ldr	r1, [r4, #100]	@ 0x64
 8002df4:	430b      	orrs	r3, r1
 8002df6:	6513      	str	r3, [r2, #80]	@ 0x50
  if (((PeriphClkInit->PeriphClockSelection) & RCC_PERIPHCLK_SPI6) == RCC_PERIPHCLK_SPI6)
 8002df8:	6823      	ldr	r3, [r4, #0]
 8002dfa:	f413 4f80 	tst.w	r3, #16384	@ 0x4000
 8002dfe:	d019      	beq.n	8002e34 <HAL_RCCEx_PeriphCLKConfig+0x348>
    switch (PeriphClkInit->Spi6ClockSelection)
 8002e00:	f8d4 30b0 	ldr.w	r3, [r4, #176]	@ 0xb0
 8002e04:	f1b3 5f00 	cmp.w	r3, #536870912	@ 0x20000000
 8002e08:	d04a      	beq.n	8002ea0 <HAL_RCCEx_PeriphCLKConfig+0x3b4>
 8002e0a:	d83d      	bhi.n	8002e88 <HAL_RCCEx_PeriphCLKConfig+0x39c>
 8002e0c:	b143      	cbz	r3, 8002e20 <HAL_RCCEx_PeriphCLKConfig+0x334>
 8002e0e:	f1b3 5f80 	cmp.w	r3, #268435456	@ 0x10000000
 8002e12:	d136      	bne.n	8002e82 <HAL_RCCEx_PeriphCLKConfig+0x396>
        ret = RCCEx_PLL2_Config(&(PeriphClkInit->PLL2), DIVIDER_Q_UPDATE);
 8002e14:	2101      	movs	r1, #1
 8002e16:	f104 0008 	add.w	r0, r4, #8
 8002e1a:	f7ff fd5f 	bl	80028dc <RCCEx_PLL2_Config>
 8002e1e:	4605      	mov	r5, r0
    if (ret == HAL_OK)
 8002e20:	2d00      	cmp	r5, #0
 8002e22:	d144      	bne.n	8002eae <HAL_RCCEx_PeriphCLKConfig+0x3c2>
      __HAL_RCC_SPI6_CONFIG(PeriphClkInit->Spi6ClockSelection);
 8002e24:	4a52      	ldr	r2, [pc, #328]	@ (8002f70 <HAL_RCCEx_PeriphCLKConfig+0x484>)
 8002e26:	6d93      	ldr	r3, [r2, #88]	@ 0x58
 8002e28:	f023 43e0 	bic.w	r3, r3, #1879048192	@ 0x70000000
 8002e2c:	f8d4 10b0 	ldr.w	r1, [r4, #176]	@ 0xb0
 8002e30:	430b      	orrs	r3, r1
 8002e32:	6593      	str	r3, [r2, #88]	@ 0x58
  if (((PeriphClkInit->PeriphClockSelection) & RCC_PERIPHCLK_FDCAN) == RCC_PERIPHCLK_FDCAN)
 8002e34:	6823      	ldr	r3, [r4, #0]
 8002e36:	f413 4f00 	tst.w	r3, #32768	@ 0x8000
 8002e3a:	d047      	beq.n	8002ecc <HAL_RCCEx_PeriphCLKConfig+0x3e0>
    switch (PeriphClkInit->FdcanClockSelection)
 8002e3c:	6f23      	ldr	r3, [r4, #112]	@ 0x70
 8002e3e:	f1b3 5f80 	cmp.w	r3, #268435456	@ 0x10000000
 8002e42:	d036      	beq.n	8002eb2 <HAL_RCCEx_PeriphCLKConfig+0x3c6>
 8002e44:	f1b3 5f00 	cmp.w	r3, #536870912	@ 0x20000000
 8002e48:	d04b      	beq.n	8002ee2 <HAL_RCCEx_PeriphCLKConfig+0x3f6>
 8002e4a:	b3bb      	cbz	r3, 8002ebc <HAL_RCCEx_PeriphCLKConfig+0x3d0>
 8002e4c:	2601      	movs	r6, #1
 8002e4e:	4635      	mov	r5, r6
 8002e50:	e03c      	b.n	8002ecc <HAL_RCCEx_PeriphCLKConfig+0x3e0>
    switch (PeriphClkInit->Spi45ClockSelection)
 8002e52:	2601      	movs	r6, #1
 8002e54:	4635      	mov	r5, r6
 8002e56:	e7cf      	b.n	8002df8 <HAL_RCCEx_PeriphCLKConfig+0x30c>
 8002e58:	f5b3 2f80 	cmp.w	r3, #262144	@ 0x40000
 8002e5c:	d0c3      	beq.n	8002de6 <HAL_RCCEx_PeriphCLKConfig+0x2fa>
 8002e5e:	f5b3 2fa0 	cmp.w	r3, #327680	@ 0x50000
 8002e62:	d0c0      	beq.n	8002de6 <HAL_RCCEx_PeriphCLKConfig+0x2fa>
 8002e64:	f5b3 3f40 	cmp.w	r3, #196608	@ 0x30000
 8002e68:	d0bd      	beq.n	8002de6 <HAL_RCCEx_PeriphCLKConfig+0x2fa>
 8002e6a:	2601      	movs	r6, #1
 8002e6c:	4635      	mov	r5, r6
 8002e6e:	e7c3      	b.n	8002df8 <HAL_RCCEx_PeriphCLKConfig+0x30c>
        ret = RCCEx_PLL3_Config(&(PeriphClkInit->PLL3), DIVIDER_Q_UPDATE);
 8002e70:	2101      	movs	r1, #1
 8002e72:	f104 0028 	add.w	r0, r4, #40	@ 0x28
 8002e76:	f7ff fdb5 	bl	80029e4 <RCCEx_PLL3_Config>
 8002e7a:	4605      	mov	r5, r0
        break;
 8002e7c:	e7b3      	b.n	8002de6 <HAL_RCCEx_PeriphCLKConfig+0x2fa>
      status = ret;
 8002e7e:	462e      	mov	r6, r5
 8002e80:	e7ba      	b.n	8002df8 <HAL_RCCEx_PeriphCLKConfig+0x30c>
    switch (PeriphClkInit->Spi6ClockSelection)
 8002e82:	2601      	movs	r6, #1
 8002e84:	4635      	mov	r5, r6
 8002e86:	e7d5      	b.n	8002e34 <HAL_RCCEx_PeriphCLKConfig+0x348>
 8002e88:	f1b3 4f80 	cmp.w	r3, #1073741824	@ 0x40000000
 8002e8c:	d0c8      	beq.n	8002e20 <HAL_RCCEx_PeriphCLKConfig+0x334>
 8002e8e:	f1b3 4fa0 	cmp.w	r3, #1342177280	@ 0x50000000
 8002e92:	d0c5      	beq.n	8002e20 <HAL_RCCEx_PeriphCLKConfig+0x334>
 8002e94:	f1b3 5f40 	cmp.w	r3, #805306368	@ 0x30000000
 8002e98:	d0c2      	beq.n	8002e20 <HAL_RCCEx_PeriphCLKConfig+0x334>
 8002e9a:	2601      	movs	r6, #1
 8002e9c:	4635      	mov	r5, r6
 8002e9e:	e7c9      	b.n	8002e34 <HAL_RCCEx_PeriphCLKConfig+0x348>
        ret = RCCEx_PLL3_Config(&(PeriphClkInit->PLL3), DIVIDER_Q_UPDATE);
 8002ea0:	2101      	movs	r1, #1
 8002ea2:	f104 0028 	add.w	r0, r4, #40	@ 0x28
 8002ea6:	f7ff fd9d 	bl	80029e4 <RCCEx_PLL3_Config>
 8002eaa:	4605      	mov	r5, r0
        break;
 8002eac:	e7b8      	b.n	8002e20 <HAL_RCCEx_PeriphCLKConfig+0x334>
      status = ret;
 8002eae:	462e      	mov	r6, r5
 8002eb0:	e7c0      	b.n	8002e34 <HAL_RCCEx_PeriphCLKConfig+0x348>
        __HAL_RCC_PLLCLKOUT_ENABLE(RCC_PLL1_DIVQ);
 8002eb2:	4a2f      	ldr	r2, [pc, #188]	@ (8002f70 <HAL_RCCEx_PeriphCLKConfig+0x484>)
 8002eb4:	6ad3      	ldr	r3, [r2, #44]	@ 0x2c
 8002eb6:	f443 3300 	orr.w	r3, r3, #131072	@ 0x20000
 8002eba:	62d3      	str	r3, [r2, #44]	@ 0x2c
    if (ret == HAL_OK)
 8002ebc:	b9c5      	cbnz	r5, 8002ef0 <HAL_RCCEx_PeriphCLKConfig+0x404>
      __HAL_RCC_FDCAN_CONFIG(PeriphClkInit->FdcanClockSelection);
 8002ebe:	4a2c      	ldr	r2, [pc, #176]	@ (8002f70 <HAL_RCCEx_PeriphCLKConfig+0x484>)
 8002ec0:	6d13      	ldr	r3, [r2, #80]	@ 0x50
 8002ec2:	f023 5340 	bic.w	r3, r3, #805306368	@ 0x30000000
 8002ec6:	6f21      	ldr	r1, [r4, #112]	@ 0x70
 8002ec8:	430b      	orrs	r3, r1
 8002eca:	6513      	str	r3, [r2, #80]	@ 0x50
  if (((PeriphClkInit->PeriphClockSelection) & RCC_PERIPHCLK_FMC) == RCC_PERIPHCLK_FMC)
 8002ecc:	6823      	ldr	r3, [r4, #0]
 8002ece:	f013 7f80 	tst.w	r3, #16777216	@ 0x1000000
 8002ed2:	d01c      	beq.n	8002f0e <HAL_RCCEx_PeriphCLKConfig+0x422>
    switch (PeriphClkInit->FmcClockSelection)
 8002ed4:	6ca3      	ldr	r3, [r4, #72]	@ 0x48
 8002ed6:	2b03      	cmp	r3, #3
 8002ed8:	d844      	bhi.n	8002f64 <HAL_RCCEx_PeriphCLKConfig+0x478>
 8002eda:	e8df f003 	tbb	[pc, r3]
 8002ede:	0b10      	.short	0x0b10
 8002ee0:	103c      	.short	0x103c
        ret = RCCEx_PLL2_Config(&(PeriphClkInit->PLL2), DIVIDER_Q_UPDATE);
 8002ee2:	2101      	movs	r1, #1
 8002ee4:	f104 0008 	add.w	r0, r4, #8
 8002ee8:	f7ff fcf8 	bl	80028dc <RCCEx_PLL2_Config>
 8002eec:	4605      	mov	r5, r0
        break;
 8002eee:	e7e5      	b.n	8002ebc <HAL_RCCEx_PeriphCLKConfig+0x3d0>
      status = ret;
 8002ef0:	462e      	mov	r6, r5
 8002ef2:	e7eb      	b.n	8002ecc <HAL_RCCEx_PeriphCLKConfig+0x3e0>
        __HAL_RCC_PLLCLKOUT_ENABLE(RCC_PLL1_DIVQ);
 8002ef4:	4a1e      	ldr	r2, [pc, #120]	@ (8002f70 <HAL_RCCEx_PeriphCLKConfig+0x484>)
 8002ef6:	6ad3      	ldr	r3, [r2, #44]	@ 0x2c
 8002ef8:	f443 3300 	orr.w	r3, r3, #131072	@ 0x20000
 8002efc:	62d3      	str	r3, [r2, #44]	@ 0x2c
    if (ret == HAL_OK)
 8002efe:	bba5      	cbnz	r5, 8002f6a <HAL_RCCEx_PeriphCLKConfig+0x47e>
      __HAL_RCC_FMC_CONFIG(PeriphClkInit->FmcClockSelection);
 8002f00:	4a1b      	ldr	r2, [pc, #108]	@ (8002f70 <HAL_RCCEx_PeriphCLKConfig+0x484>)
 8002f02:	6cd3      	ldr	r3, [r2, #76]	@ 0x4c
 8002f04:	f023 0303 	bic.w	r3, r3, #3
 8002f08:	6ca1      	ldr	r1, [r4, #72]	@ 0x48
 8002f0a:	430b      	orrs	r3, r1
 8002f0c:	64d3      	str	r3, [r2, #76]	@ 0x4c
  if (((PeriphClkInit->PeriphClockSelection) & RCC_PERIPHCLK_RTC) == RCC_PERIPHCLK_RTC)
 8002f0e:	6823      	ldr	r3, [r4, #0]
 8002f10:	f413 0f80 	tst.w	r3, #4194304	@ 0x400000
 8002f14:	d12e      	bne.n	8002f74 <HAL_RCCEx_PeriphCLKConfig+0x488>
  if (((PeriphClkInit->PeriphClockSelection) & RCC_PERIPHCLK_USART16) == RCC_PERIPHCLK_USART16)
 8002f16:	6823      	ldr	r3, [r4, #0]
 8002f18:	f013 0f01 	tst.w	r3, #1
 8002f1c:	f000 80a6 	beq.w	800306c <HAL_RCCEx_PeriphCLKConfig+0x580>
    switch (PeriphClkInit->Usart16ClockSelection)
 8002f20:	6fe3      	ldr	r3, [r4, #124]	@ 0x7c
 8002f22:	2b28      	cmp	r3, #40	@ 0x28
 8002f24:	f200 80a0 	bhi.w	8003068 <HAL_RCCEx_PeriphCLKConfig+0x57c>
 8002f28:	e8df f003 	tbb	[pc, r3]
 8002f2c:	9e9e9e8e 	.word	0x9e9e9e8e
 8002f30:	9e9e9e9e 	.word	0x9e9e9e9e
 8002f34:	9e9e9e88 	.word	0x9e9e9e88
 8002f38:	9e9e9e9e 	.word	0x9e9e9e9e
 8002f3c:	9e9e9e97 	.word	0x9e9e9e97
 8002f40:	9e9e9e9e 	.word	0x9e9e9e9e
 8002f44:	9e9e9e8e 	.word	0x9e9e9e8e
 8002f48:	9e9e9e9e 	.word	0x9e9e9e9e
 8002f4c:	9e9e9e8e 	.word	0x9e9e9e8e
 8002f50:	9e9e9e9e 	.word	0x9e9e9e9e
 8002f54:	8e          	.byte	0x8e
 8002f55:	00          	.byte	0x00
        ret = RCCEx_PLL2_Config(&(PeriphClkInit->PLL2), DIVIDER_R_UPDATE);
 8002f56:	2102      	movs	r1, #2
 8002f58:	f104 0008 	add.w	r0, r4, #8
 8002f5c:	f7ff fcbe 	bl	80028dc <RCCEx_PLL2_Config>
 8002f60:	4605      	mov	r5, r0
        break;
 8002f62:	e7cc      	b.n	8002efe <HAL_RCCEx_PeriphCLKConfig+0x412>
    switch (PeriphClkInit->FmcClockSelection)
 8002f64:	2601      	movs	r6, #1
 8002f66:	4635      	mov	r5, r6
 8002f68:	e7d1      	b.n	8002f0e <HAL_RCCEx_PeriphCLKConfig+0x422>
      status = ret;
 8002f6a:	462e      	mov	r6, r5
 8002f6c:	e7cf      	b.n	8002f0e <HAL_RCCEx_PeriphCLKConfig+0x422>
 8002f6e:	bf00      	nop
 8002f70:	58024400 	.word	0x58024400
    SET_BIT(PWR->CR1, PWR_CR1_DBP);
 8002f74:	4a5a      	ldr	r2, [pc, #360]	@ (80030e0 <HAL_RCCEx_PeriphCLKConfig+0x5f4>)
 8002f76:	6813      	ldr	r3, [r2, #0]
 8002f78:	f443 7380 	orr.w	r3, r3, #256	@ 0x100
 8002f7c:	6013      	str	r3, [r2, #0]
    tickstart = HAL_GetTick();
 8002f7e:	f7fd fb6f 	bl	8000660 <HAL_GetTick>
 8002f82:	4607      	mov	r7, r0
    while ((PWR->CR1 & PWR_CR1_DBP) == 0U)
 8002f84:	4b56      	ldr	r3, [pc, #344]	@ (80030e0 <HAL_RCCEx_PeriphCLKConfig+0x5f4>)
 8002f86:	681b      	ldr	r3, [r3, #0]
 8002f88:	f413 7f80 	tst.w	r3, #256	@ 0x100
 8002f8c:	d105      	bne.n	8002f9a <HAL_RCCEx_PeriphCLKConfig+0x4ae>
      if ((HAL_GetTick() - tickstart) > RCC_DBP_TIMEOUT_VALUE)
 8002f8e:	f7fd fb67 	bl	8000660 <HAL_GetTick>
 8002f92:	1bc0      	subs	r0, r0, r7
 8002f94:	2864      	cmp	r0, #100	@ 0x64
 8002f96:	d9f5      	bls.n	8002f84 <HAL_RCCEx_PeriphCLKConfig+0x498>
        ret = HAL_TIMEOUT;
 8002f98:	2503      	movs	r5, #3
    if (ret == HAL_OK)
 8002f9a:	2d00      	cmp	r5, #0
 8002f9c:	d14a      	bne.n	8003034 <HAL_RCCEx_PeriphCLKConfig+0x548>
      if ((RCC->BDCR & RCC_BDCR_RTCSEL) != (PeriphClkInit->RTCClockSelection & RCC_BDCR_RTCSEL))
 8002f9e:	4b51      	ldr	r3, [pc, #324]	@ (80030e4 <HAL_RCCEx_PeriphCLKConfig+0x5f8>)
 8002fa0:	6f1b      	ldr	r3, [r3, #112]	@ 0x70
 8002fa2:	f8d4 20b4 	ldr.w	r2, [r4, #180]	@ 0xb4
 8002fa6:	4053      	eors	r3, r2
 8002fa8:	f413 7f40 	tst.w	r3, #768	@ 0x300
 8002fac:	d00c      	beq.n	8002fc8 <HAL_RCCEx_PeriphCLKConfig+0x4dc>
        tmpreg = (RCC->BDCR & ~(RCC_BDCR_RTCSEL));
 8002fae:	4b4d      	ldr	r3, [pc, #308]	@ (80030e4 <HAL_RCCEx_PeriphCLKConfig+0x5f8>)
 8002fb0:	6f1a      	ldr	r2, [r3, #112]	@ 0x70
 8002fb2:	f422 7240 	bic.w	r2, r2, #768	@ 0x300
        __HAL_RCC_BACKUPRESET_FORCE();
 8002fb6:	6f19      	ldr	r1, [r3, #112]	@ 0x70
 8002fb8:	f441 3180 	orr.w	r1, r1, #65536	@ 0x10000
 8002fbc:	6719      	str	r1, [r3, #112]	@ 0x70
        __HAL_RCC_BACKUPRESET_RELEASE();
 8002fbe:	6f19      	ldr	r1, [r3, #112]	@ 0x70
 8002fc0:	f421 3180 	bic.w	r1, r1, #65536	@ 0x10000
 8002fc4:	6719      	str	r1, [r3, #112]	@ 0x70
        RCC->BDCR = tmpreg;
 8002fc6:	671a      	str	r2, [r3, #112]	@ 0x70
      if (PeriphClkInit->RTCClockSelection == RCC_RTCCLKSOURCE_LSE)
 8002fc8:	f8d4 30b4 	ldr.w	r3, [r4, #180]	@ 0xb4
 8002fcc:	f5b3 7f80 	cmp.w	r3, #256	@ 0x100
 8002fd0:	d015      	beq.n	8002ffe <HAL_RCCEx_PeriphCLKConfig+0x512>
      if (ret == HAL_OK)
 8002fd2:	bb8d      	cbnz	r5, 8003038 <HAL_RCCEx_PeriphCLKConfig+0x54c>
        __HAL_RCC_RTC_CONFIG(PeriphClkInit->RTCClockSelection);
 8002fd4:	f8d4 30b4 	ldr.w	r3, [r4, #180]	@ 0xb4
 8002fd8:	f403 7240 	and.w	r2, r3, #768	@ 0x300
 8002fdc:	f5b2 7f40 	cmp.w	r2, #768	@ 0x300
 8002fe0:	d01e      	beq.n	8003020 <HAL_RCCEx_PeriphCLKConfig+0x534>
 8002fe2:	4a40      	ldr	r2, [pc, #256]	@ (80030e4 <HAL_RCCEx_PeriphCLKConfig+0x5f8>)
 8002fe4:	6913      	ldr	r3, [r2, #16]
 8002fe6:	f423 537c 	bic.w	r3, r3, #16128	@ 0x3f00
 8002fea:	6113      	str	r3, [r2, #16]
 8002fec:	493d      	ldr	r1, [pc, #244]	@ (80030e4 <HAL_RCCEx_PeriphCLKConfig+0x5f8>)
 8002fee:	6f0b      	ldr	r3, [r1, #112]	@ 0x70
 8002ff0:	f8d4 20b4 	ldr.w	r2, [r4, #180]	@ 0xb4
 8002ff4:	f3c2 020b 	ubfx	r2, r2, #0, #12
 8002ff8:	4313      	orrs	r3, r2
 8002ffa:	670b      	str	r3, [r1, #112]	@ 0x70
 8002ffc:	e78b      	b.n	8002f16 <HAL_RCCEx_PeriphCLKConfig+0x42a>
        tickstart = HAL_GetTick();
 8002ffe:	f7fd fb2f 	bl	8000660 <HAL_GetTick>
 8003002:	4607      	mov	r7, r0
        while (__HAL_RCC_GET_FLAG(RCC_FLAG_LSERDY) == 0U)
 8003004:	4b37      	ldr	r3, [pc, #220]	@ (80030e4 <HAL_RCCEx_PeriphCLKConfig+0x5f8>)
 8003006:	6f1b      	ldr	r3, [r3, #112]	@ 0x70
 8003008:	f013 0f02 	tst.w	r3, #2
 800300c:	d1e1      	bne.n	8002fd2 <HAL_RCCEx_PeriphCLKConfig+0x4e6>
          if ((HAL_GetTick() - tickstart) > RCC_LSE_TIMEOUT_VALUE)
 800300e:	f7fd fb27 	bl	8000660 <HAL_GetTick>
 8003012:	1bc0      	subs	r0, r0, r7
 8003014:	f241 3388 	movw	r3, #5000	@ 0x1388
 8003018:	4298      	cmp	r0, r3
 800301a:	d9f3      	bls.n	8003004 <HAL_RCCEx_PeriphCLKConfig+0x518>
            ret = HAL_TIMEOUT;
 800301c:	2503      	movs	r5, #3
 800301e:	e7d8      	b.n	8002fd2 <HAL_RCCEx_PeriphCLKConfig+0x4e6>
        __HAL_RCC_RTC_CONFIG(PeriphClkInit->RTCClockSelection);
 8003020:	4830      	ldr	r0, [pc, #192]	@ (80030e4 <HAL_RCCEx_PeriphCLKConfig+0x5f8>)
 8003022:	6902      	ldr	r2, [r0, #16]
 8003024:	f422 527c 	bic.w	r2, r2, #16128	@ 0x3f00
 8003028:	492f      	ldr	r1, [pc, #188]	@ (80030e8 <HAL_RCCEx_PeriphCLKConfig+0x5fc>)
 800302a:	ea01 1313 	and.w	r3, r1, r3, lsr #4
 800302e:	4313      	orrs	r3, r2
 8003030:	6103      	str	r3, [r0, #16]
 8003032:	e7db      	b.n	8002fec <HAL_RCCEx_PeriphCLKConfig+0x500>
      status = ret;
 8003034:	462e      	mov	r6, r5
 8003036:	e76e      	b.n	8002f16 <HAL_RCCEx_PeriphCLKConfig+0x42a>
        status = ret;
 8003038:	462e      	mov	r6, r5
 800303a:	e76c      	b.n	8002f16 <HAL_RCCEx_PeriphCLKConfig+0x42a>
        ret = RCCEx_PLL2_Config(&(PeriphClkInit->PLL2), DIVIDER_Q_UPDATE);
 800303c:	2101      	movs	r1, #1
 800303e:	f104 0008 	add.w	r0, r4, #8
 8003042:	f7ff fc4b 	bl	80028dc <RCCEx_PLL2_Config>
 8003046:	4605      	mov	r5, r0
    if (ret == HAL_OK)
 8003048:	b9e5      	cbnz	r5, 8003084 <HAL_RCCEx_PeriphCLKConfig+0x598>
      __HAL_RCC_USART16_CONFIG(PeriphClkInit->Usart16ClockSelection);
 800304a:	4a26      	ldr	r2, [pc, #152]	@ (80030e4 <HAL_RCCEx_PeriphCLKConfig+0x5f8>)
 800304c:	6d53      	ldr	r3, [r2, #84]	@ 0x54
 800304e:	f023 0338 	bic.w	r3, r3, #56	@ 0x38
 8003052:	6fe1      	ldr	r1, [r4, #124]	@ 0x7c
 8003054:	430b      	orrs	r3, r1
 8003056:	6553      	str	r3, [r2, #84]	@ 0x54
 8003058:	e008      	b.n	800306c <HAL_RCCEx_PeriphCLKConfig+0x580>
        ret = RCCEx_PLL3_Config(&(PeriphClkInit->PLL3), DIVIDER_Q_UPDATE);
 800305a:	2101      	movs	r1, #1
 800305c:	f104 0028 	add.w	r0, r4, #40	@ 0x28
 8003060:	f7ff fcc0 	bl	80029e4 <RCCEx_PLL3_Config>
 8003064:	4605      	mov	r5, r0
        break;
 8003066:	e7ef      	b.n	8003048 <HAL_RCCEx_PeriphCLKConfig+0x55c>
    switch (PeriphClkInit->Usart16ClockSelection)
 8003068:	2601      	movs	r6, #1
 800306a:	4635      	mov	r5, r6
  if (((PeriphClkInit->PeriphClockSelection) & RCC_PERIPHCLK_USART234578) == RCC_PERIPHCLK_USART234578)
 800306c:	6823      	ldr	r3, [r4, #0]
 800306e:	f013 0f02 	tst.w	r3, #2
 8003072:	d017      	beq.n	80030a4 <HAL_RCCEx_PeriphCLKConfig+0x5b8>
    switch (PeriphClkInit->Usart234578ClockSelection)
 8003074:	6fa3      	ldr	r3, [r4, #120]	@ 0x78
 8003076:	2b05      	cmp	r3, #5
 8003078:	d82c      	bhi.n	80030d4 <HAL_RCCEx_PeriphCLKConfig+0x5e8>
 800307a:	e8df f003 	tbb	[pc, r3]
 800307e:	050b      	.short	0x050b
 8003080:	0b0b0b24 	.word	0x0b0b0b24
      status = ret;
 8003084:	462e      	mov	r6, r5
 8003086:	e7f1      	b.n	800306c <HAL_RCCEx_PeriphCLKConfig+0x580>
        ret = RCCEx_PLL2_Config(&(PeriphClkInit->PLL2), DIVIDER_Q_UPDATE);
 8003088:	2101      	movs	r1, #1
 800308a:	f104 0008 	add.w	r0, r4, #8
 800308e:	f7ff fc25 	bl	80028dc <RCCEx_PLL2_Config>
 8003092:	4605      	mov	r5, r0
    if (ret == HAL_OK)
 8003094:	bb0d      	cbnz	r5, 80030da <HAL_RCCEx_PeriphCLKConfig+0x5ee>
      __HAL_RCC_USART234578_CONFIG(PeriphClkInit->Usart234578ClockSelection);
 8003096:	4a13      	ldr	r2, [pc, #76]	@ (80030e4 <HAL_RCCEx_PeriphCLKConfig+0x5f8>)
 8003098:	6d53      	ldr	r3, [r2, #84]	@ 0x54
 800309a:	f023 0307 	bic.w	r3, r3, #7
 800309e:	6fa1      	ldr	r1, [r4, #120]	@ 0x78
 80030a0:	430b      	orrs	r3, r1
 80030a2:	6553      	str	r3, [r2, #84]	@ 0x54
  if (((PeriphClkInit->PeriphClockSelection) & RCC_PERIPHCLK_LPUART1) == RCC_PERIPHCLK_LPUART1)
 80030a4:	6823      	ldr	r3, [r4, #0]
 80030a6:	f013 0f04 	tst.w	r3, #4
 80030aa:	d030      	beq.n	800310e <HAL_RCCEx_PeriphCLKConfig+0x622>
    switch (PeriphClkInit->Lpuart1ClockSelection)
 80030ac:	f8d4 3094 	ldr.w	r3, [r4, #148]	@ 0x94
 80030b0:	2b05      	cmp	r3, #5
 80030b2:	f200 810f 	bhi.w	80032d4 <HAL_RCCEx_PeriphCLKConfig+0x7e8>
 80030b6:	e8df f013 	tbh	[pc, r3, lsl #1]
 80030ba:	001f      	.short	0x001f
 80030bc:	01060019 	.word	0x01060019
 80030c0:	001f001f 	.word	0x001f001f
 80030c4:	001f      	.short	0x001f
        ret = RCCEx_PLL3_Config(&(PeriphClkInit->PLL3), DIVIDER_Q_UPDATE);
 80030c6:	2101      	movs	r1, #1
 80030c8:	f104 0028 	add.w	r0, r4, #40	@ 0x28
 80030cc:	f7ff fc8a 	bl	80029e4 <RCCEx_PLL3_Config>
 80030d0:	4605      	mov	r5, r0
        break;
 80030d2:	e7df      	b.n	8003094 <HAL_RCCEx_PeriphCLKConfig+0x5a8>
    switch (PeriphClkInit->Usart234578ClockSelection)
 80030d4:	2601      	movs	r6, #1
 80030d6:	4635      	mov	r5, r6
 80030d8:	e7e4      	b.n	80030a4 <HAL_RCCEx_PeriphCLKConfig+0x5b8>
      status = ret;
 80030da:	462e      	mov	r6, r5
 80030dc:	e7e2      	b.n	80030a4 <HAL_RCCEx_PeriphCLKConfig+0x5b8>
 80030de:	bf00      	nop
 80030e0:	58024800 	.word	0x58024800
 80030e4:	58024400 	.word	0x58024400
 80030e8:	00ffffcf 	.word	0x00ffffcf
        ret = RCCEx_PLL2_Config(&(PeriphClkInit->PLL2), DIVIDER_Q_UPDATE);
 80030ec:	2101      	movs	r1, #1
 80030ee:	f104 0008 	add.w	r0, r4, #8
 80030f2:	f7ff fbf3 	bl	80028dc <RCCEx_PLL2_Config>
 80030f6:	4605      	mov	r5, r0
    if (ret == HAL_OK)
 80030f8:	2d00      	cmp	r5, #0
 80030fa:	f040 80ee 	bne.w	80032da <HAL_RCCEx_PeriphCLKConfig+0x7ee>
      __HAL_RCC_LPUART1_CONFIG(PeriphClkInit->Lpuart1ClockSelection);
 80030fe:	4ab6      	ldr	r2, [pc, #728]	@ (80033d8 <HAL_RCCEx_PeriphCLKConfig+0x8ec>)
 8003100:	6d93      	ldr	r3, [r2, #88]	@ 0x58
 8003102:	f023 0307 	bic.w	r3, r3, #7
 8003106:	f8d4 1094 	ldr.w	r1, [r4, #148]	@ 0x94
 800310a:	430b      	orrs	r3, r1
 800310c:	6593      	str	r3, [r2, #88]	@ 0x58
  if (((PeriphClkInit->PeriphClockSelection) & RCC_PERIPHCLK_LPTIM1) == RCC_PERIPHCLK_LPTIM1)
 800310e:	6823      	ldr	r3, [r4, #0]
 8003110:	f013 0f20 	tst.w	r3, #32
 8003114:	d01d      	beq.n	8003152 <HAL_RCCEx_PeriphCLKConfig+0x666>
    switch (PeriphClkInit->Lptim1ClockSelection)
 8003116:	f8d4 3090 	ldr.w	r3, [r4, #144]	@ 0x90
 800311a:	f1b3 5f00 	cmp.w	r3, #536870912	@ 0x20000000
 800311e:	f000 80f0 	beq.w	8003302 <HAL_RCCEx_PeriphCLKConfig+0x816>
 8003122:	f200 80df 	bhi.w	80032e4 <HAL_RCCEx_PeriphCLKConfig+0x7f8>
 8003126:	b14b      	cbz	r3, 800313c <HAL_RCCEx_PeriphCLKConfig+0x650>
 8003128:	f1b3 5f80 	cmp.w	r3, #268435456	@ 0x10000000
 800312c:	f040 80d7 	bne.w	80032de <HAL_RCCEx_PeriphCLKConfig+0x7f2>
        ret = RCCEx_PLL2_Config(&(PeriphClkInit->PLL2), DIVIDER_P_UPDATE);
 8003130:	2100      	movs	r1, #0
 8003132:	f104 0008 	add.w	r0, r4, #8
 8003136:	f7ff fbd1 	bl	80028dc <RCCEx_PLL2_Config>
 800313a:	4605      	mov	r5, r0
    if (ret == HAL_OK)
 800313c:	2d00      	cmp	r5, #0
 800313e:	f040 80e7 	bne.w	8003310 <HAL_RCCEx_PeriphCLKConfig+0x824>
      __HAL_RCC_LPTIM1_CONFIG(PeriphClkInit->Lptim1ClockSelection);
 8003142:	4aa5      	ldr	r2, [pc, #660]	@ (80033d8 <HAL_RCCEx_PeriphCLKConfig+0x8ec>)
 8003144:	6d53      	ldr	r3, [r2, #84]	@ 0x54
 8003146:	f023 43e0 	bic.w	r3, r3, #1879048192	@ 0x70000000
 800314a:	f8d4 1090 	ldr.w	r1, [r4, #144]	@ 0x90
 800314e:	430b      	orrs	r3, r1
 8003150:	6553      	str	r3, [r2, #84]	@ 0x54
  if (((PeriphClkInit->PeriphClockSelection) & RCC_PERIPHCLK_LPTIM2) == RCC_PERIPHCLK_LPTIM2)
 8003152:	6823      	ldr	r3, [r4, #0]
 8003154:	f013 0f40 	tst.w	r3, #64	@ 0x40
 8003158:	d01d      	beq.n	8003196 <HAL_RCCEx_PeriphCLKConfig+0x6aa>
    switch (PeriphClkInit->Lptim2ClockSelection)
 800315a:	f8d4 309c 	ldr.w	r3, [r4, #156]	@ 0x9c
 800315e:	f5b3 6f00 	cmp.w	r3, #2048	@ 0x800
 8003162:	f000 80e9 	beq.w	8003338 <HAL_RCCEx_PeriphCLKConfig+0x84c>
 8003166:	f200 80d8 	bhi.w	800331a <HAL_RCCEx_PeriphCLKConfig+0x82e>
 800316a:	b14b      	cbz	r3, 8003180 <HAL_RCCEx_PeriphCLKConfig+0x694>
 800316c:	f5b3 6f80 	cmp.w	r3, #1024	@ 0x400
 8003170:	f040 80d0 	bne.w	8003314 <HAL_RCCEx_PeriphCLKConfig+0x828>
        ret = RCCEx_PLL2_Config(&(PeriphClkInit->PLL2), DIVIDER_P_UPDATE);
 8003174:	2100      	movs	r1, #0
 8003176:	f104 0008 	add.w	r0, r4, #8
 800317a:	f7ff fbaf 	bl	80028dc <RCCEx_PLL2_Config>
 800317e:	4605      	mov	r5, r0
    if (ret == HAL_OK)
 8003180:	2d00      	cmp	r5, #0
 8003182:	f040 80e0 	bne.w	8003346 <HAL_RCCEx_PeriphCLKConfig+0x85a>
      __HAL_RCC_LPTIM2_CONFIG(PeriphClkInit->Lptim2ClockSelection);
 8003186:	4a94      	ldr	r2, [pc, #592]	@ (80033d8 <HAL_RCCEx_PeriphCLKConfig+0x8ec>)
 8003188:	6d93      	ldr	r3, [r2, #88]	@ 0x58
 800318a:	f423 53e0 	bic.w	r3, r3, #7168	@ 0x1c00
 800318e:	f8d4 109c 	ldr.w	r1, [r4, #156]	@ 0x9c
 8003192:	430b      	orrs	r3, r1
 8003194:	6593      	str	r3, [r2, #88]	@ 0x58
  if (((PeriphClkInit->PeriphClockSelection) & RCC_PERIPHCLK_LPTIM345) == RCC_PERIPHCLK_LPTIM345)
 8003196:	6823      	ldr	r3, [r4, #0]
 8003198:	f013 0f80 	tst.w	r3, #128	@ 0x80
 800319c:	d01d      	beq.n	80031da <HAL_RCCEx_PeriphCLKConfig+0x6ee>
    switch (PeriphClkInit->Lptim345ClockSelection)
 800319e:	f8d4 30a0 	ldr.w	r3, [r4, #160]	@ 0xa0
 80031a2:	f5b3 4f80 	cmp.w	r3, #16384	@ 0x4000
 80031a6:	f000 80e2 	beq.w	800336e <HAL_RCCEx_PeriphCLKConfig+0x882>
 80031aa:	f200 80d1 	bhi.w	8003350 <HAL_RCCEx_PeriphCLKConfig+0x864>
 80031ae:	b14b      	cbz	r3, 80031c4 <HAL_RCCEx_PeriphCLKConfig+0x6d8>
 80031b0:	f5b3 5f00 	cmp.w	r3, #8192	@ 0x2000
 80031b4:	f040 80c9 	bne.w	800334a <HAL_RCCEx_PeriphCLKConfig+0x85e>
        ret = RCCEx_PLL2_Config(&(PeriphClkInit->PLL2), DIVIDER_P_UPDATE);
 80031b8:	2100      	movs	r1, #0
 80031ba:	f104 0008 	add.w	r0, r4, #8
 80031be:	f7ff fb8d 	bl	80028dc <RCCEx_PLL2_Config>
 80031c2:	4605      	mov	r5, r0
    if (ret == HAL_OK)
 80031c4:	2d00      	cmp	r5, #0
 80031c6:	f040 80d9 	bne.w	800337c <HAL_RCCEx_PeriphCLKConfig+0x890>
      __HAL_RCC_LPTIM345_CONFIG(PeriphClkInit->Lptim345ClockSelection);
 80031ca:	4a83      	ldr	r2, [pc, #524]	@ (80033d8 <HAL_RCCEx_PeriphCLKConfig+0x8ec>)
 80031cc:	6d93      	ldr	r3, [r2, #88]	@ 0x58
 80031ce:	f423 4360 	bic.w	r3, r3, #57344	@ 0xe000
 80031d2:	f8d4 10a0 	ldr.w	r1, [r4, #160]	@ 0xa0
 80031d6:	430b      	orrs	r3, r1
 80031d8:	6593      	str	r3, [r2, #88]	@ 0x58
  if (((PeriphClkInit->PeriphClockSelection) & RCC_PERIPHCLK_I2C123) == RCC_PERIPHCLK_I2C123)
 80031da:	6823      	ldr	r3, [r4, #0]
 80031dc:	f013 0f08 	tst.w	r3, #8
 80031e0:	d00d      	beq.n	80031fe <HAL_RCCEx_PeriphCLKConfig+0x712>
    if ((PeriphClkInit->I2c123ClockSelection) == RCC_I2C123CLKSOURCE_PLL3)
 80031e2:	f8d4 3084 	ldr.w	r3, [r4, #132]	@ 0x84
 80031e6:	f5b3 5f80 	cmp.w	r3, #4096	@ 0x1000
 80031ea:	f000 80c9 	beq.w	8003380 <HAL_RCCEx_PeriphCLKConfig+0x894>
    __HAL_RCC_I2C123_CONFIG(PeriphClkInit->I2c123ClockSelection);
 80031ee:	4a7a      	ldr	r2, [pc, #488]	@ (80033d8 <HAL_RCCEx_PeriphCLKConfig+0x8ec>)
 80031f0:	6d53      	ldr	r3, [r2, #84]	@ 0x54
 80031f2:	f423 5340 	bic.w	r3, r3, #12288	@ 0x3000
 80031f6:	f8d4 1084 	ldr.w	r1, [r4, #132]	@ 0x84
 80031fa:	430b      	orrs	r3, r1
 80031fc:	6553      	str	r3, [r2, #84]	@ 0x54
  if (((PeriphClkInit->PeriphClockSelection) & RCC_PERIPHCLK_I2C4) == RCC_PERIPHCLK_I2C4)
 80031fe:	6823      	ldr	r3, [r4, #0]
 8003200:	f013 0f10 	tst.w	r3, #16
 8003204:	d00d      	beq.n	8003222 <HAL_RCCEx_PeriphCLKConfig+0x736>
    if ((PeriphClkInit->I2c4ClockSelection) == RCC_I2C4CLKSOURCE_PLL3)
 8003206:	f8d4 3098 	ldr.w	r3, [r4, #152]	@ 0x98
 800320a:	f5b3 7f80 	cmp.w	r3, #256	@ 0x100
 800320e:	f000 80c1 	beq.w	8003394 <HAL_RCCEx_PeriphCLKConfig+0x8a8>
    __HAL_RCC_I2C4_CONFIG(PeriphClkInit->I2c4ClockSelection);
 8003212:	4a71      	ldr	r2, [pc, #452]	@ (80033d8 <HAL_RCCEx_PeriphCLKConfig+0x8ec>)
 8003214:	6d93      	ldr	r3, [r2, #88]	@ 0x58
 8003216:	f423 7340 	bic.w	r3, r3, #768	@ 0x300
 800321a:	f8d4 1098 	ldr.w	r1, [r4, #152]	@ 0x98
 800321e:	430b      	orrs	r3, r1
 8003220:	6593      	str	r3, [r2, #88]	@ 0x58
  if (((PeriphClkInit->PeriphClockSelection) & RCC_PERIPHCLK_ADC) == RCC_PERIPHCLK_ADC)
 8003222:	6823      	ldr	r3, [r4, #0]
 8003224:	f413 2f00 	tst.w	r3, #524288	@ 0x80000
 8003228:	d01c      	beq.n	8003264 <HAL_RCCEx_PeriphCLKConfig+0x778>
    switch (PeriphClkInit->AdcClockSelection)
 800322a:	f8d4 30a4 	ldr.w	r3, [r4, #164]	@ 0xa4
 800322e:	f5b3 3f80 	cmp.w	r3, #65536	@ 0x10000
 8003232:	f000 80b9 	beq.w	80033a8 <HAL_RCCEx_PeriphCLKConfig+0x8bc>
 8003236:	f5b3 3f00 	cmp.w	r3, #131072	@ 0x20000
 800323a:	d008      	beq.n	800324e <HAL_RCCEx_PeriphCLKConfig+0x762>
 800323c:	2b00      	cmp	r3, #0
 800323e:	f040 80ba 	bne.w	80033b6 <HAL_RCCEx_PeriphCLKConfig+0x8ca>
        ret = RCCEx_PLL2_Config(&(PeriphClkInit->PLL2), DIVIDER_P_UPDATE);
 8003242:	2100      	movs	r1, #0
 8003244:	f104 0008 	add.w	r0, r4, #8
 8003248:	f7ff fb48 	bl	80028dc <RCCEx_PLL2_Config>
 800324c:	4605      	mov	r5, r0
    if (ret == HAL_OK)
 800324e:	2d00      	cmp	r5, #0
 8003250:	f040 80b4 	bne.w	80033bc <HAL_RCCEx_PeriphCLKConfig+0x8d0>
      __HAL_RCC_ADC_CONFIG(PeriphClkInit->AdcClockSelection);
 8003254:	4a60      	ldr	r2, [pc, #384]	@ (80033d8 <HAL_RCCEx_PeriphCLKConfig+0x8ec>)
 8003256:	6d93      	ldr	r3, [r2, #88]	@ 0x58
 8003258:	f423 3340 	bic.w	r3, r3, #196608	@ 0x30000
 800325c:	f8d4 10a4 	ldr.w	r1, [r4, #164]	@ 0xa4
 8003260:	430b      	orrs	r3, r1
 8003262:	6593      	str	r3, [r2, #88]	@ 0x58
  if (((PeriphClkInit->PeriphClockSelection) & RCC_PERIPHCLK_USB) == RCC_PERIPHCLK_USB)
 8003264:	6823      	ldr	r3, [r4, #0]
 8003266:	f413 2f80 	tst.w	r3, #262144	@ 0x40000
 800326a:	d01c      	beq.n	80032a6 <HAL_RCCEx_PeriphCLKConfig+0x7ba>
    switch (PeriphClkInit->UsbClockSelection)
 800326c:	f8d4 3088 	ldr.w	r3, [r4, #136]	@ 0x88
 8003270:	f5b3 1f00 	cmp.w	r3, #2097152	@ 0x200000
 8003274:	f000 80a4 	beq.w	80033c0 <HAL_RCCEx_PeriphCLKConfig+0x8d4>
 8003278:	f5b3 1f40 	cmp.w	r3, #3145728	@ 0x300000
 800327c:	d008      	beq.n	8003290 <HAL_RCCEx_PeriphCLKConfig+0x7a4>
 800327e:	f5b3 1f80 	cmp.w	r3, #1048576	@ 0x100000
 8003282:	f040 80a4 	bne.w	80033ce <HAL_RCCEx_PeriphCLKConfig+0x8e2>
        __HAL_RCC_PLLCLKOUT_ENABLE(RCC_PLL1_DIVQ);
 8003286:	4a54      	ldr	r2, [pc, #336]	@ (80033d8 <HAL_RCCEx_PeriphCLKConfig+0x8ec>)
 8003288:	6ad3      	ldr	r3, [r2, #44]	@ 0x2c
 800328a:	f443 3300 	orr.w	r3, r3, #131072	@ 0x20000
 800328e:	62d3      	str	r3, [r2, #44]	@ 0x2c
    if (ret == HAL_OK)
 8003290:	2d00      	cmp	r5, #0
 8003292:	f040 809f 	bne.w	80033d4 <HAL_RCCEx_PeriphCLKConfig+0x8e8>
      __HAL_RCC_USB_CONFIG(PeriphClkInit->UsbClockSelection);
 8003296:	4a50      	ldr	r2, [pc, #320]	@ (80033d8 <HAL_RCCEx_PeriphCLKConfig+0x8ec>)
 8003298:	6d53      	ldr	r3, [r2, #84]	@ 0x54
 800329a:	f423 1340 	bic.w	r3, r3, #3145728	@ 0x300000
 800329e:	f8d4 1088 	ldr.w	r1, [r4, #136]	@ 0x88
 80032a2:	430b      	orrs	r3, r1
 80032a4:	6553      	str	r3, [r2, #84]	@ 0x54
  if (((PeriphClkInit->PeriphClockSelection) & RCC_PERIPHCLK_SDMMC) == RCC_PERIPHCLK_SDMMC)
 80032a6:	6823      	ldr	r3, [r4, #0]
 80032a8:	f413 3f80 	tst.w	r3, #65536	@ 0x10000
 80032ac:	f000 80ac 	beq.w	8003408 <HAL_RCCEx_PeriphCLKConfig+0x91c>
    switch (PeriphClkInit->SdmmcClockSelection)
 80032b0:	6d23      	ldr	r3, [r4, #80]	@ 0x50
 80032b2:	2b00      	cmp	r3, #0
 80032b4:	f000 8092 	beq.w	80033dc <HAL_RCCEx_PeriphCLKConfig+0x8f0>
 80032b8:	f5b3 3f80 	cmp.w	r3, #65536	@ 0x10000
 80032bc:	f000 809c 	beq.w	80033f8 <HAL_RCCEx_PeriphCLKConfig+0x90c>
 80032c0:	2601      	movs	r6, #1
 80032c2:	4635      	mov	r5, r6
 80032c4:	e0a0      	b.n	8003408 <HAL_RCCEx_PeriphCLKConfig+0x91c>
        ret = RCCEx_PLL3_Config(&(PeriphClkInit->PLL3), DIVIDER_Q_UPDATE);
 80032c6:	2101      	movs	r1, #1
 80032c8:	f104 0028 	add.w	r0, r4, #40	@ 0x28
 80032cc:	f7ff fb8a 	bl	80029e4 <RCCEx_PLL3_Config>
 80032d0:	4605      	mov	r5, r0
        break;
 80032d2:	e711      	b.n	80030f8 <HAL_RCCEx_PeriphCLKConfig+0x60c>
    switch (PeriphClkInit->Lpuart1ClockSelection)
 80032d4:	2601      	movs	r6, #1
 80032d6:	4635      	mov	r5, r6
 80032d8:	e719      	b.n	800310e <HAL_RCCEx_PeriphCLKConfig+0x622>
      status = ret;
 80032da:	462e      	mov	r6, r5
 80032dc:	e717      	b.n	800310e <HAL_RCCEx_PeriphCLKConfig+0x622>
    switch (PeriphClkInit->Lptim1ClockSelection)
 80032de:	2601      	movs	r6, #1
 80032e0:	4635      	mov	r5, r6
 80032e2:	e736      	b.n	8003152 <HAL_RCCEx_PeriphCLKConfig+0x666>
 80032e4:	f1b3 4f80 	cmp.w	r3, #1073741824	@ 0x40000000
 80032e8:	f43f af28 	beq.w	800313c <HAL_RCCEx_PeriphCLKConfig+0x650>
 80032ec:	f1b3 4fa0 	cmp.w	r3, #1342177280	@ 0x50000000
 80032f0:	f43f af24 	beq.w	800313c <HAL_RCCEx_PeriphCLKConfig+0x650>
 80032f4:	f1b3 5f40 	cmp.w	r3, #805306368	@ 0x30000000
 80032f8:	f43f af20 	beq.w	800313c <HAL_RCCEx_PeriphCLKConfig+0x650>
 80032fc:	2601      	movs	r6, #1
 80032fe:	4635      	mov	r5, r6
 8003300:	e727      	b.n	8003152 <HAL_RCCEx_PeriphCLKConfig+0x666>
        ret = RCCEx_PLL3_Config(&(PeriphClkInit->PLL3), DIVIDER_R_UPDATE);
 8003302:	2102      	movs	r1, #2
 8003304:	f104 0028 	add.w	r0, r4, #40	@ 0x28
 8003308:	f7ff fb6c 	bl	80029e4 <RCCEx_PLL3_Config>
 800330c:	4605      	mov	r5, r0
        break;
 800330e:	e715      	b.n	800313c <HAL_RCCEx_PeriphCLKConfig+0x650>
      status = ret;
 8003310:	462e      	mov	r6, r5
 8003312:	e71e      	b.n	8003152 <HAL_RCCEx_PeriphCLKConfig+0x666>
    switch (PeriphClkInit->Lptim2ClockSelection)
 8003314:	2601      	movs	r6, #1
 8003316:	4635      	mov	r5, r6
 8003318:	e73d      	b.n	8003196 <HAL_RCCEx_PeriphCLKConfig+0x6aa>
 800331a:	f5b3 5f80 	cmp.w	r3, #4096	@ 0x1000
 800331e:	f43f af2f 	beq.w	8003180 <HAL_RCCEx_PeriphCLKConfig+0x694>
 8003322:	f5b3 5fa0 	cmp.w	r3, #5120	@ 0x1400
 8003326:	f43f af2b 	beq.w	8003180 <HAL_RCCEx_PeriphCLKConfig+0x694>
 800332a:	f5b3 6f40 	cmp.w	r3, #3072	@ 0xc00
 800332e:	f43f af27 	beq.w	8003180 <HAL_RCCEx_PeriphCLKConfig+0x694>
 8003332:	2601      	movs	r6, #1
 8003334:	4635      	mov	r5, r6
 8003336:	e72e      	b.n	8003196 <HAL_RCCEx_PeriphCLKConfig+0x6aa>
        ret = RCCEx_PLL3_Config(&(PeriphClkInit->PLL3), DIVIDER_R_UPDATE);
 8003338:	2102      	movs	r1, #2
 800333a:	f104 0028 	add.w	r0, r4, #40	@ 0x28
 800333e:	f7ff fb51 	bl	80029e4 <RCCEx_PLL3_Config>
 8003342:	4605      	mov	r5, r0
        break;
 8003344:	e71c      	b.n	8003180 <HAL_RCCEx_PeriphCLKConfig+0x694>
      status = ret;
 8003346:	462e      	mov	r6, r5
 8003348:	e725      	b.n	8003196 <HAL_RCCEx_PeriphCLKConfig+0x6aa>
    switch (PeriphClkInit->Lptim345ClockSelection)
 800334a:	2601      	movs	r6, #1
 800334c:	4635      	mov	r5, r6
 800334e:	e744      	b.n	80031da <HAL_RCCEx_PeriphCLKConfig+0x6ee>
 8003350:	f5b3 4f00 	cmp.w	r3, #32768	@ 0x8000
 8003354:	f43f af36 	beq.w	80031c4 <HAL_RCCEx_PeriphCLKConfig+0x6d8>
 8003358:	f5b3 4f20 	cmp.w	r3, #40960	@ 0xa000
 800335c:	f43f af32 	beq.w	80031c4 <HAL_RCCEx_PeriphCLKConfig+0x6d8>
 8003360:	f5b3 4fc0 	cmp.w	r3, #24576	@ 0x6000
 8003364:	f43f af2e 	beq.w	80031c4 <HAL_RCCEx_PeriphCLKConfig+0x6d8>
 8003368:	2601      	movs	r6, #1
 800336a:	4635      	mov	r5, r6
 800336c:	e735      	b.n	80031da <HAL_RCCEx_PeriphCLKConfig+0x6ee>
        ret = RCCEx_PLL3_Config(&(PeriphClkInit->PLL3), DIVIDER_R_UPDATE);
 800336e:	2102      	movs	r1, #2
 8003370:	f104 0028 	add.w	r0, r4, #40	@ 0x28
 8003374:	f7ff fb36 	bl	80029e4 <RCCEx_PLL3_Config>
 8003378:	4605      	mov	r5, r0
        break;
 800337a:	e723      	b.n	80031c4 <HAL_RCCEx_PeriphCLKConfig+0x6d8>
      status = ret;
 800337c:	462e      	mov	r6, r5
 800337e:	e72c      	b.n	80031da <HAL_RCCEx_PeriphCLKConfig+0x6ee>
      if (RCCEx_PLL3_Config(&(PeriphClkInit->PLL3), DIVIDER_R_UPDATE) != HAL_OK)
 8003380:	2102      	movs	r1, #2
 8003382:	f104 0028 	add.w	r0, r4, #40	@ 0x28
 8003386:	f7ff fb2d 	bl	80029e4 <RCCEx_PLL3_Config>
 800338a:	2800      	cmp	r0, #0
 800338c:	f43f af2f 	beq.w	80031ee <HAL_RCCEx_PeriphCLKConfig+0x702>
        status = HAL_ERROR;
 8003390:	2601      	movs	r6, #1
 8003392:	e72c      	b.n	80031ee <HAL_RCCEx_PeriphCLKConfig+0x702>
      if (RCCEx_PLL3_Config(&(PeriphClkInit->PLL3), DIVIDER_R_UPDATE) != HAL_OK)
 8003394:	2102      	movs	r1, #2
 8003396:	f104 0028 	add.w	r0, r4, #40	@ 0x28
 800339a:	f7ff fb23 	bl	80029e4 <RCCEx_PLL3_Config>
 800339e:	2800      	cmp	r0, #0
 80033a0:	f43f af37 	beq.w	8003212 <HAL_RCCEx_PeriphCLKConfig+0x726>
        status = HAL_ERROR;
 80033a4:	2601      	movs	r6, #1
 80033a6:	e734      	b.n	8003212 <HAL_RCCEx_PeriphCLKConfig+0x726>
        ret = RCCEx_PLL3_Config(&(PeriphClkInit->PLL3), DIVIDER_R_UPDATE);
 80033a8:	2102      	movs	r1, #2
 80033aa:	f104 0028 	add.w	r0, r4, #40	@ 0x28
 80033ae:	f7ff fb19 	bl	80029e4 <RCCEx_PLL3_Config>
 80033b2:	4605      	mov	r5, r0
        break;
 80033b4:	e74b      	b.n	800324e <HAL_RCCEx_PeriphCLKConfig+0x762>
    switch (PeriphClkInit->AdcClockSelection)
 80033b6:	2601      	movs	r6, #1
 80033b8:	4635      	mov	r5, r6
 80033ba:	e753      	b.n	8003264 <HAL_RCCEx_PeriphCLKConfig+0x778>
      status = ret;
 80033bc:	462e      	mov	r6, r5
 80033be:	e751      	b.n	8003264 <HAL_RCCEx_PeriphCLKConfig+0x778>
        ret = RCCEx_PLL3_Config(&(PeriphClkInit->PLL3), DIVIDER_Q_UPDATE);
 80033c0:	2101      	movs	r1, #1
 80033c2:	f104 0028 	add.w	r0, r4, #40	@ 0x28
 80033c6:	f7ff fb0d 	bl	80029e4 <RCCEx_PLL3_Config>
 80033ca:	4605      	mov	r5, r0
        break;
 80033cc:	e760      	b.n	8003290 <HAL_RCCEx_PeriphCLKConfig+0x7a4>
    switch (PeriphClkInit->UsbClockSelection)
 80033ce:	2601      	movs	r6, #1
 80033d0:	4635      	mov	r5, r6
 80033d2:	e768      	b.n	80032a6 <HAL_RCCEx_PeriphCLKConfig+0x7ba>
      status = ret;
 80033d4:	462e      	mov	r6, r5
 80033d6:	e766      	b.n	80032a6 <HAL_RCCEx_PeriphCLKConfig+0x7ba>
 80033d8:	58024400 	.word	0x58024400
        __HAL_RCC_PLLCLKOUT_ENABLE(RCC_PLL1_DIVQ);
 80033dc:	4a70      	ldr	r2, [pc, #448]	@ (80035a0 <HAL_RCCEx_PeriphCLKConfig+0xab4>)
 80033de:	6ad3      	ldr	r3, [r2, #44]	@ 0x2c
 80033e0:	f443 3300 	orr.w	r3, r3, #131072	@ 0x20000
 80033e4:	62d3      	str	r3, [r2, #44]	@ 0x2c
    if (ret == HAL_OK)
 80033e6:	b975      	cbnz	r5, 8003406 <HAL_RCCEx_PeriphCLKConfig+0x91a>
      __HAL_RCC_SDMMC_CONFIG(PeriphClkInit->SdmmcClockSelection);
 80033e8:	4a6d      	ldr	r2, [pc, #436]	@ (80035a0 <HAL_RCCEx_PeriphCLKConfig+0xab4>)
 80033ea:	6cd3      	ldr	r3, [r2, #76]	@ 0x4c
 80033ec:	f423 3380 	bic.w	r3, r3, #65536	@ 0x10000
 80033f0:	6d21      	ldr	r1, [r4, #80]	@ 0x50
 80033f2:	430b      	orrs	r3, r1
 80033f4:	64d3      	str	r3, [r2, #76]	@ 0x4c
 80033f6:	e007      	b.n	8003408 <HAL_RCCEx_PeriphCLKConfig+0x91c>
        ret = RCCEx_PLL2_Config(&(PeriphClkInit->PLL2), DIVIDER_R_UPDATE);
 80033f8:	2102      	movs	r1, #2
 80033fa:	f104 0008 	add.w	r0, r4, #8
 80033fe:	f7ff fa6d 	bl	80028dc <RCCEx_PLL2_Config>
 8003402:	4605      	mov	r5, r0
        break;
 8003404:	e7ef      	b.n	80033e6 <HAL_RCCEx_PeriphCLKConfig+0x8fa>
      status = ret;
 8003406:	462e      	mov	r6, r5
  if (((PeriphClkInit->PeriphClockSelection) & RCC_PERIPHCLK_LTDC) == RCC_PERIPHCLK_LTDC)
 8003408:	6823      	ldr	r3, [r4, #0]
 800340a:	f013 5f00 	tst.w	r3, #536870912	@ 0x20000000
 800340e:	d111      	bne.n	8003434 <HAL_RCCEx_PeriphCLKConfig+0x948>
  if (((PeriphClkInit->PeriphClockSelection) & RCC_PERIPHCLK_RNG) == RCC_PERIPHCLK_RNG)
 8003410:	6823      	ldr	r3, [r4, #0]
 8003412:	f413 3f00 	tst.w	r3, #131072	@ 0x20000
 8003416:	d028      	beq.n	800346a <HAL_RCCEx_PeriphCLKConfig+0x97e>
    switch (PeriphClkInit->RngClockSelection)
 8003418:	f8d4 3080 	ldr.w	r3, [r4, #128]	@ 0x80
 800341c:	f5b3 7f80 	cmp.w	r3, #256	@ 0x100
 8003420:	d014      	beq.n	800344c <HAL_RCCEx_PeriphCLKConfig+0x960>
 8003422:	d910      	bls.n	8003446 <HAL_RCCEx_PeriphCLKConfig+0x95a>
 8003424:	f5b3 7f00 	cmp.w	r3, #512	@ 0x200
 8003428:	d015      	beq.n	8003456 <HAL_RCCEx_PeriphCLKConfig+0x96a>
 800342a:	f5b3 7f40 	cmp.w	r3, #768	@ 0x300
 800342e:	d012      	beq.n	8003456 <HAL_RCCEx_PeriphCLKConfig+0x96a>
 8003430:	2601      	movs	r6, #1
 8003432:	e01a      	b.n	800346a <HAL_RCCEx_PeriphCLKConfig+0x97e>
    if (RCCEx_PLL3_Config(&(PeriphClkInit->PLL3), DIVIDER_R_UPDATE) != HAL_OK)
 8003434:	2102      	movs	r1, #2
 8003436:	f104 0028 	add.w	r0, r4, #40	@ 0x28
 800343a:	f7ff fad3 	bl	80029e4 <RCCEx_PLL3_Config>
 800343e:	2800      	cmp	r0, #0
 8003440:	d0e6      	beq.n	8003410 <HAL_RCCEx_PeriphCLKConfig+0x924>
      status = HAL_ERROR;
 8003442:	2601      	movs	r6, #1
 8003444:	e7e4      	b.n	8003410 <HAL_RCCEx_PeriphCLKConfig+0x924>
    switch (PeriphClkInit->RngClockSelection)
 8003446:	b133      	cbz	r3, 8003456 <HAL_RCCEx_PeriphCLKConfig+0x96a>
 8003448:	2601      	movs	r6, #1
 800344a:	e00e      	b.n	800346a <HAL_RCCEx_PeriphCLKConfig+0x97e>
        __HAL_RCC_PLLCLKOUT_ENABLE(RCC_PLL1_DIVQ);
 800344c:	4a54      	ldr	r2, [pc, #336]	@ (80035a0 <HAL_RCCEx_PeriphCLKConfig+0xab4>)
 800344e:	6ad3      	ldr	r3, [r2, #44]	@ 0x2c
 8003450:	f443 3300 	orr.w	r3, r3, #131072	@ 0x20000
 8003454:	62d3      	str	r3, [r2, #44]	@ 0x2c
    if (ret == HAL_OK)
 8003456:	2d00      	cmp	r5, #0
 8003458:	d169      	bne.n	800352e <HAL_RCCEx_PeriphCLKConfig+0xa42>
      __HAL_RCC_RNG_CONFIG(PeriphClkInit->RngClockSelection);
 800345a:	4a51      	ldr	r2, [pc, #324]	@ (80035a0 <HAL_RCCEx_PeriphCLKConfig+0xab4>)
 800345c:	6d53      	ldr	r3, [r2, #84]	@ 0x54
 800345e:	f423 7340 	bic.w	r3, r3, #768	@ 0x300
 8003462:	f8d4 1080 	ldr.w	r1, [r4, #128]	@ 0x80
 8003466:	430b      	orrs	r3, r1
 8003468:	6553      	str	r3, [r2, #84]	@ 0x54
  if (((PeriphClkInit->PeriphClockSelection) & RCC_PERIPHCLK_SWPMI1) == RCC_PERIPHCLK_SWPMI1)
 800346a:	6823      	ldr	r3, [r4, #0]
 800346c:	f413 1f80 	tst.w	r3, #1048576	@ 0x100000
 8003470:	d006      	beq.n	8003480 <HAL_RCCEx_PeriphCLKConfig+0x994>
    __HAL_RCC_SWPMI1_CONFIG(PeriphClkInit->Swpmi1ClockSelection);
 8003472:	4a4b      	ldr	r2, [pc, #300]	@ (80035a0 <HAL_RCCEx_PeriphCLKConfig+0xab4>)
 8003474:	6d13      	ldr	r3, [r2, #80]	@ 0x50
 8003476:	f023 4300 	bic.w	r3, r3, #2147483648	@ 0x80000000
 800347a:	6f61      	ldr	r1, [r4, #116]	@ 0x74
 800347c:	430b      	orrs	r3, r1
 800347e:	6513      	str	r3, [r2, #80]	@ 0x50
  if (((PeriphClkInit->PeriphClockSelection) & RCC_PERIPHCLK_HRTIM1) == RCC_PERIPHCLK_HRTIM1)
 8003480:	6823      	ldr	r3, [r4, #0]
 8003482:	f013 5f80 	tst.w	r3, #268435456	@ 0x10000000
 8003486:	d007      	beq.n	8003498 <HAL_RCCEx_PeriphCLKConfig+0x9ac>
    __HAL_RCC_HRTIM1_CONFIG(PeriphClkInit->Hrtim1ClockSelection);
 8003488:	4a45      	ldr	r2, [pc, #276]	@ (80035a0 <HAL_RCCEx_PeriphCLKConfig+0xab4>)
 800348a:	6913      	ldr	r3, [r2, #16]
 800348c:	f423 4380 	bic.w	r3, r3, #16384	@ 0x4000
 8003490:	f8d4 10b8 	ldr.w	r1, [r4, #184]	@ 0xb8
 8003494:	430b      	orrs	r3, r1
 8003496:	6113      	str	r3, [r2, #16]
  if (((PeriphClkInit->PeriphClockSelection) & RCC_PERIPHCLK_DFSDM1) == RCC_PERIPHCLK_DFSDM1)
 8003498:	6823      	ldr	r3, [r4, #0]
 800349a:	f413 1f00 	tst.w	r3, #2097152	@ 0x200000
 800349e:	d006      	beq.n	80034ae <HAL_RCCEx_PeriphCLKConfig+0x9c2>
    __HAL_RCC_DFSDM1_CONFIG(PeriphClkInit->Dfsdm1ClockSelection);
 80034a0:	4a3f      	ldr	r2, [pc, #252]	@ (80035a0 <HAL_RCCEx_PeriphCLKConfig+0xab4>)
 80034a2:	6d13      	ldr	r3, [r2, #80]	@ 0x50
 80034a4:	f023 7380 	bic.w	r3, r3, #16777216	@ 0x1000000
 80034a8:	6ee1      	ldr	r1, [r4, #108]	@ 0x6c
 80034aa:	430b      	orrs	r3, r1
 80034ac:	6513      	str	r3, [r2, #80]	@ 0x50
  if (((PeriphClkInit->PeriphClockSelection) & RCC_PERIPHCLK_TIM) == RCC_PERIPHCLK_TIM)
 80034ae:	6823      	ldr	r3, [r4, #0]
 80034b0:	f013 4f80 	tst.w	r3, #1073741824	@ 0x40000000
 80034b4:	d009      	beq.n	80034ca <HAL_RCCEx_PeriphCLKConfig+0x9de>
    __HAL_RCC_TIMCLKPRESCALER(PeriphClkInit->TIMPresSelection);
 80034b6:	4b3a      	ldr	r3, [pc, #232]	@ (80035a0 <HAL_RCCEx_PeriphCLKConfig+0xab4>)
 80034b8:	691a      	ldr	r2, [r3, #16]
 80034ba:	f422 4200 	bic.w	r2, r2, #32768	@ 0x8000
 80034be:	611a      	str	r2, [r3, #16]
 80034c0:	691a      	ldr	r2, [r3, #16]
 80034c2:	f8d4 10bc 	ldr.w	r1, [r4, #188]	@ 0xbc
 80034c6:	430a      	orrs	r2, r1
 80034c8:	611a      	str	r2, [r3, #16]
  if (((PeriphClkInit->PeriphClockSelection) & RCC_PERIPHCLK_CKPER) == RCC_PERIPHCLK_CKPER)
 80034ca:	6823      	ldr	r3, [r4, #0]
 80034cc:	2b00      	cmp	r3, #0
 80034ce:	da06      	bge.n	80034de <HAL_RCCEx_PeriphCLKConfig+0x9f2>
    __HAL_RCC_CLKP_CONFIG(PeriphClkInit->CkperClockSelection);
 80034d0:	4a33      	ldr	r2, [pc, #204]	@ (80035a0 <HAL_RCCEx_PeriphCLKConfig+0xab4>)
 80034d2:	6cd3      	ldr	r3, [r2, #76]	@ 0x4c
 80034d4:	f023 5340 	bic.w	r3, r3, #805306368	@ 0x30000000
 80034d8:	6d61      	ldr	r1, [r4, #84]	@ 0x54
 80034da:	430b      	orrs	r3, r1
 80034dc:	64d3      	str	r3, [r2, #76]	@ 0x4c
  if (((PeriphClkInit->PeriphClockSelection) & RCC_PERIPHCLK_CEC) == RCC_PERIPHCLK_CEC)
 80034de:	6823      	ldr	r3, [r4, #0]
 80034e0:	f413 0f00 	tst.w	r3, #8388608	@ 0x800000
 80034e4:	d007      	beq.n	80034f6 <HAL_RCCEx_PeriphCLKConfig+0xa0a>
    __HAL_RCC_CEC_CONFIG(PeriphClkInit->CecClockSelection);
 80034e6:	4a2e      	ldr	r2, [pc, #184]	@ (80035a0 <HAL_RCCEx_PeriphCLKConfig+0xab4>)
 80034e8:	6d53      	ldr	r3, [r2, #84]	@ 0x54
 80034ea:	f423 0340 	bic.w	r3, r3, #12582912	@ 0xc00000
 80034ee:	f8d4 108c 	ldr.w	r1, [r4, #140]	@ 0x8c
 80034f2:	430b      	orrs	r3, r1
 80034f4:	6553      	str	r3, [r2, #84]	@ 0x54
  if (((PeriphClkInit->PeriphClockSelection) & RCC_PERIPHCLK_PLL2_DIVP) == RCC_PERIPHCLK_PLL2_DIVP)
 80034f6:	6863      	ldr	r3, [r4, #4]
 80034f8:	f013 0f01 	tst.w	r3, #1
 80034fc:	d119      	bne.n	8003532 <HAL_RCCEx_PeriphCLKConfig+0xa46>
  if (((PeriphClkInit->PeriphClockSelection) & RCC_PERIPHCLK_PLL2_DIVQ) == RCC_PERIPHCLK_PLL2_DIVQ)
 80034fe:	6863      	ldr	r3, [r4, #4]
 8003500:	f013 0f02 	tst.w	r3, #2
 8003504:	d11e      	bne.n	8003544 <HAL_RCCEx_PeriphCLKConfig+0xa58>
  if (((PeriphClkInit->PeriphClockSelection) & RCC_PERIPHCLK_PLL2_DIVR) == RCC_PERIPHCLK_PLL2_DIVR)
 8003506:	6863      	ldr	r3, [r4, #4]
 8003508:	f013 0f04 	tst.w	r3, #4
 800350c:	d123      	bne.n	8003556 <HAL_RCCEx_PeriphCLKConfig+0xa6a>
  if (((PeriphClkInit->PeriphClockSelection) & RCC_PERIPHCLK_PLL3_DIVP) == RCC_PERIPHCLK_PLL3_DIVP)
 800350e:	6863      	ldr	r3, [r4, #4]
 8003510:	f013 0f08 	tst.w	r3, #8
 8003514:	d128      	bne.n	8003568 <HAL_RCCEx_PeriphCLKConfig+0xa7c>
  if (((PeriphClkInit->PeriphClockSelection) & RCC_PERIPHCLK_PLL3_DIVQ) == RCC_PERIPHCLK_PLL3_DIVQ)
 8003516:	6863      	ldr	r3, [r4, #4]
 8003518:	f013 0f10 	tst.w	r3, #16
 800351c:	d12d      	bne.n	800357a <HAL_RCCEx_PeriphCLKConfig+0xa8e>
  if (((PeriphClkInit->PeriphClockSelection) & RCC_PERIPHCLK_PLL3_DIVR) == RCC_PERIPHCLK_PLL3_DIVR)
 800351e:	6863      	ldr	r3, [r4, #4]
 8003520:	f013 0f20 	tst.w	r3, #32
 8003524:	d132      	bne.n	800358c <HAL_RCCEx_PeriphCLKConfig+0xaa0>
  if (status == HAL_OK)
 8003526:	b106      	cbz	r6, 800352a <HAL_RCCEx_PeriphCLKConfig+0xa3e>
  return HAL_ERROR;
 8003528:	2601      	movs	r6, #1
}
 800352a:	4630      	mov	r0, r6
 800352c:	bdf8      	pop	{r3, r4, r5, r6, r7, pc}
      status = ret;
 800352e:	462e      	mov	r6, r5
 8003530:	e79b      	b.n	800346a <HAL_RCCEx_PeriphCLKConfig+0x97e>
    ret = RCCEx_PLL2_Config(&(PeriphClkInit->PLL2), DIVIDER_P_UPDATE);
 8003532:	2100      	movs	r1, #0
 8003534:	f104 0008 	add.w	r0, r4, #8
 8003538:	f7ff f9d0 	bl	80028dc <RCCEx_PLL2_Config>
    if (ret == HAL_OK)
 800353c:	2800      	cmp	r0, #0
 800353e:	d0de      	beq.n	80034fe <HAL_RCCEx_PeriphCLKConfig+0xa12>
      status = ret;
 8003540:	4606      	mov	r6, r0
 8003542:	e7dc      	b.n	80034fe <HAL_RCCEx_PeriphCLKConfig+0xa12>
    ret = RCCEx_PLL2_Config(&(PeriphClkInit->PLL2), DIVIDER_Q_UPDATE);
 8003544:	2101      	movs	r1, #1
 8003546:	f104 0008 	add.w	r0, r4, #8
 800354a:	f7ff f9c7 	bl	80028dc <RCCEx_PLL2_Config>
    if (ret == HAL_OK)
 800354e:	2800      	cmp	r0, #0
 8003550:	d0d9      	beq.n	8003506 <HAL_RCCEx_PeriphCLKConfig+0xa1a>
      status = ret;
 8003552:	4606      	mov	r6, r0
 8003554:	e7d7      	b.n	8003506 <HAL_RCCEx_PeriphCLKConfig+0xa1a>
    ret = RCCEx_PLL2_Config(&(PeriphClkInit->PLL2), DIVIDER_R_UPDATE);
 8003556:	2102      	movs	r1, #2
 8003558:	f104 0008 	add.w	r0, r4, #8
 800355c:	f7ff f9be 	bl	80028dc <RCCEx_PLL2_Config>
    if (ret == HAL_OK)
 8003560:	2800      	cmp	r0, #0
 8003562:	d0d4      	beq.n	800350e <HAL_RCCEx_PeriphCLKConfig+0xa22>
      status = ret;
 8003564:	4606      	mov	r6, r0
 8003566:	e7d2      	b.n	800350e <HAL_RCCEx_PeriphCLKConfig+0xa22>
    ret = RCCEx_PLL3_Config(&(PeriphClkInit->PLL3), DIVIDER_P_UPDATE);
 8003568:	2100      	movs	r1, #0
 800356a:	f104 0028 	add.w	r0, r4, #40	@ 0x28
 800356e:	f7ff fa39 	bl	80029e4 <RCCEx_PLL3_Config>
    if (ret == HAL_OK)
 8003572:	2800      	cmp	r0, #0
 8003574:	d0cf      	beq.n	8003516 <HAL_RCCEx_PeriphCLKConfig+0xa2a>
      status = ret;
 8003576:	4606      	mov	r6, r0
 8003578:	e7cd      	b.n	8003516 <HAL_RCCEx_PeriphCLKConfig+0xa2a>
    ret = RCCEx_PLL3_Config(&(PeriphClkInit->PLL3), DIVIDER_Q_UPDATE);
 800357a:	2101      	movs	r1, #1
 800357c:	f104 0028 	add.w	r0, r4, #40	@ 0x28
 8003580:	f7ff fa30 	bl	80029e4 <RCCEx_PLL3_Config>
    if (ret == HAL_OK)
 8003584:	2800      	cmp	r0, #0
 8003586:	d0ca      	beq.n	800351e <HAL_RCCEx_PeriphCLKConfig+0xa32>
      status = ret;
 8003588:	4606      	mov	r6, r0
 800358a:	e7c8      	b.n	800351e <HAL_RCCEx_PeriphCLKConfig+0xa32>
    ret = RCCEx_PLL3_Config(&(PeriphClkInit->PLL3), DIVIDER_R_UPDATE);
 800358c:	2102      	movs	r1, #2
 800358e:	f104 0028 	add.w	r0, r4, #40	@ 0x28
 8003592:	f7ff fa27 	bl	80029e4 <RCCEx_PLL3_Config>
    if (ret == HAL_OK)
 8003596:	2800      	cmp	r0, #0
 8003598:	d0c5      	beq.n	8003526 <HAL_RCCEx_PeriphCLKConfig+0xa3a>
  return HAL_ERROR;
 800359a:	2601      	movs	r6, #1
 800359c:	e7c5      	b.n	800352a <HAL_RCCEx_PeriphCLKConfig+0xa3e>
 800359e:	bf00      	nop
 80035a0:	58024400 	.word	0x58024400

080035a4 <TIM_OC1_SetConfig>:
  * @param  TIMx to select the TIM peripheral
  * @param  OC_Config The output configuration structure
  * @retval None
  */
static void TIM_OC1_SetConfig(TIM_TypeDef *TIMx, const TIM_OC_InitTypeDef *OC_Config)
{
 80035a4:	b4f0      	push	{r4, r5, r6, r7}
  uint32_t tmpccmrx;
  uint32_t tmpccer;
  uint32_t tmpcr2;

  /* Get the TIMx CCER register value */
  tmpccer = TIMx->CCER;
 80035a6:	6a02      	ldr	r2, [r0, #32]

  /* Disable the Channel 1: Reset the CC1E Bit */
  TIMx->CCER &= ~TIM_CCER_CC1E;
 80035a8:	6a03      	ldr	r3, [r0, #32]
 80035aa:	f023 0301 	bic.w	r3, r3, #1
 80035ae:	6203      	str	r3, [r0, #32]

  /* Get the TIMx CR2 register value */
  tmpcr2 =  TIMx->CR2;
 80035b0:	6846      	ldr	r6, [r0, #4]

  /* Get the TIMx CCMR1 register value */
  tmpccmrx = TIMx->CCMR1;
 80035b2:	6984      	ldr	r4, [r0, #24]

  /* Reset the Output Compare Mode Bits */
  tmpccmrx &= ~TIM_CCMR1_OC1M;
  tmpccmrx &= ~TIM_CCMR1_CC1S;
 80035b4:	4b1e      	ldr	r3, [pc, #120]	@ (8003630 <TIM_OC1_SetConfig+0x8c>)
 80035b6:	4023      	ands	r3, r4
  /* Select the Output Compare Mode */
  tmpccmrx |= OC_Config->OCMode;
 80035b8:	680d      	ldr	r5, [r1, #0]
 80035ba:	431d      	orrs	r5, r3

  /* Reset the Output Polarity level */
  tmpccer &= ~TIM_CCER_CC1P;
 80035bc:	f022 0202 	bic.w	r2, r2, #2
  /* Set the Output Compare Polarity */
  tmpccer |= OC_Config->OCPolarity;
 80035c0:	688b      	ldr	r3, [r1, #8]
 80035c2:	4313      	orrs	r3, r2

  if (IS_TIM_CCXN_INSTANCE(TIMx, TIM_CHANNEL_1))
 80035c4:	4a1b      	ldr	r2, [pc, #108]	@ (8003634 <TIM_OC1_SetConfig+0x90>)
 80035c6:	4c1c      	ldr	r4, [pc, #112]	@ (8003638 <TIM_OC1_SetConfig+0x94>)
 80035c8:	42a0      	cmp	r0, r4
 80035ca:	bf18      	it	ne
 80035cc:	4290      	cmpne	r0, r2
 80035ce:	bf0c      	ite	eq
 80035d0:	2201      	moveq	r2, #1
 80035d2:	2200      	movne	r2, #0
 80035d4:	d00c      	beq.n	80035f0 <TIM_OC1_SetConfig+0x4c>
 80035d6:	f504 4480 	add.w	r4, r4, #16384	@ 0x4000
 80035da:	42a0      	cmp	r0, r4
 80035dc:	bf14      	ite	ne
 80035de:	2400      	movne	r4, #0
 80035e0:	2401      	moveq	r4, #1
 80035e2:	4f16      	ldr	r7, [pc, #88]	@ (800363c <TIM_OC1_SetConfig+0x98>)
 80035e4:	42b8      	cmp	r0, r7
 80035e6:	d003      	beq.n	80035f0 <TIM_OC1_SetConfig+0x4c>
 80035e8:	b914      	cbnz	r4, 80035f0 <TIM_OC1_SetConfig+0x4c>
 80035ea:	4c15      	ldr	r4, [pc, #84]	@ (8003640 <TIM_OC1_SetConfig+0x9c>)
 80035ec:	42a0      	cmp	r0, r4
 80035ee:	d105      	bne.n	80035fc <TIM_OC1_SetConfig+0x58>
  {
    /* Check parameters */
    assert_param(IS_TIM_OCN_POLARITY(OC_Config->OCNPolarity));

    /* Reset the Output N Polarity level */
    tmpccer &= ~TIM_CCER_CC1NP;
 80035f0:	f023 0308 	bic.w	r3, r3, #8
    /* Set the Output N Polarity */
    tmpccer |= OC_Config->OCNPolarity;
 80035f4:	68cc      	ldr	r4, [r1, #12]
 80035f6:	4323      	orrs	r3, r4
    /* Reset the Output N State */
    tmpccer &= ~TIM_CCER_CC1NE;
 80035f8:	f023 0304 	bic.w	r3, r3, #4
  }

  if (IS_TIM_BREAK_INSTANCE(TIMx))
 80035fc:	b95a      	cbnz	r2, 8003616 <TIM_OC1_SetConfig+0x72>
 80035fe:	4a11      	ldr	r2, [pc, #68]	@ (8003644 <TIM_OC1_SetConfig+0xa0>)
 8003600:	4290      	cmp	r0, r2
 8003602:	bf14      	ite	ne
 8003604:	2200      	movne	r2, #0
 8003606:	2201      	moveq	r2, #1
 8003608:	4c0c      	ldr	r4, [pc, #48]	@ (800363c <TIM_OC1_SetConfig+0x98>)
 800360a:	42a0      	cmp	r0, r4
 800360c:	d003      	beq.n	8003616 <TIM_OC1_SetConfig+0x72>
 800360e:	b912      	cbnz	r2, 8003616 <TIM_OC1_SetConfig+0x72>
 8003610:	4a0b      	ldr	r2, [pc, #44]	@ (8003640 <TIM_OC1_SetConfig+0x9c>)
 8003612:	4290      	cmp	r0, r2
 8003614:	d105      	bne.n	8003622 <TIM_OC1_SetConfig+0x7e>
    assert_param(IS_TIM_OCNIDLE_STATE(OC_Config->OCNIdleState));
    assert_param(IS_TIM_OCIDLE_STATE(OC_Config->OCIdleState));

    /* Reset the Output Compare and Output Compare N IDLE State */
    tmpcr2 &= ~TIM_CR2_OIS1;
    tmpcr2 &= ~TIM_CR2_OIS1N;
 8003616:	f426 7640 	bic.w	r6, r6, #768	@ 0x300
    /* Set the Output Idle state */
    tmpcr2 |= OC_Config->OCIdleState;
 800361a:	694a      	ldr	r2, [r1, #20]
 800361c:	4332      	orrs	r2, r6
    /* Set the Output N Idle state */
    tmpcr2 |= OC_Config->OCNIdleState;
 800361e:	698e      	ldr	r6, [r1, #24]
 8003620:	4316      	orrs	r6, r2
  }

  /* Write to TIMx CR2 */
  TIMx->CR2 = tmpcr2;
 8003622:	6046      	str	r6, [r0, #4]

  /* Write to TIMx CCMR1 */
  TIMx->CCMR1 = tmpccmrx;
 8003624:	6185      	str	r5, [r0, #24]

  /* Set the Capture Compare Register value */
  TIMx->CCR1 = OC_Config->Pulse;
 8003626:	684a      	ldr	r2, [r1, #4]
 8003628:	6342      	str	r2, [r0, #52]	@ 0x34

  /* Write to TIMx CCER */
  TIMx->CCER = tmpccer;
 800362a:	6203      	str	r3, [r0, #32]
}
 800362c:	bcf0      	pop	{r4, r5, r6, r7}
 800362e:	4770      	bx	lr
 8003630:	fffeff8c 	.word	0xfffeff8c
 8003634:	40010000 	.word	0x40010000
 8003638:	40010400 	.word	0x40010400
 800363c:	40014000 	.word	0x40014000
 8003640:	40014800 	.word	0x40014800
 8003644:	40014400 	.word	0x40014400

08003648 <TIM_OC3_SetConfig>:
  * @param  TIMx to select the TIM peripheral
  * @param  OC_Config The output configuration structure
  * @retval None
  */
static void TIM_OC3_SetConfig(TIM_TypeDef *TIMx, const TIM_OC_InitTypeDef *OC_Config)
{
 8003648:	b470      	push	{r4, r5, r6}
  uint32_t tmpccmrx;
  uint32_t tmpccer;
  uint32_t tmpcr2;

  /* Get the TIMx CCER register value */
  tmpccer = TIMx->CCER;
 800364a:	6a03      	ldr	r3, [r0, #32]

  /* Disable the Channel 3: Reset the CC2E Bit */
  TIMx->CCER &= ~TIM_CCER_CC3E;
 800364c:	6a02      	ldr	r2, [r0, #32]
 800364e:	f422 7280 	bic.w	r2, r2, #256	@ 0x100
 8003652:	6202      	str	r2, [r0, #32]

  /* Get the TIMx CR2 register value */
  tmpcr2 =  TIMx->CR2;
 8003654:	6845      	ldr	r5, [r0, #4]

  /* Get the TIMx CCMR2 register value */
  tmpccmrx = TIMx->CCMR2;
 8003656:	69c4      	ldr	r4, [r0, #28]

  /* Reset the Output Compare mode and Capture/Compare selection Bits */
  tmpccmrx &= ~TIM_CCMR2_OC3M;
  tmpccmrx &= ~TIM_CCMR2_CC3S;
 8003658:	4a1a      	ldr	r2, [pc, #104]	@ (80036c4 <TIM_OC3_SetConfig+0x7c>)
 800365a:	4022      	ands	r2, r4
  /* Select the Output Compare Mode */
  tmpccmrx |= OC_Config->OCMode;
 800365c:	680e      	ldr	r6, [r1, #0]
 800365e:	4316      	orrs	r6, r2

  /* Reset the Output Polarity level */
  tmpccer &= ~TIM_CCER_CC3P;
 8003660:	f423 7300 	bic.w	r3, r3, #512	@ 0x200
  /* Set the Output Compare Polarity */
  tmpccer |= (OC_Config->OCPolarity << 8U);
 8003664:	688a      	ldr	r2, [r1, #8]
 8003666:	ea43 2302 	orr.w	r3, r3, r2, lsl #8

  if (IS_TIM_CCXN_INSTANCE(TIMx, TIM_CHANNEL_3))
 800366a:	4a17      	ldr	r2, [pc, #92]	@ (80036c8 <TIM_OC3_SetConfig+0x80>)
 800366c:	4c17      	ldr	r4, [pc, #92]	@ (80036cc <TIM_OC3_SetConfig+0x84>)
 800366e:	42a0      	cmp	r0, r4
 8003670:	bf18      	it	ne
 8003672:	4290      	cmpne	r0, r2
 8003674:	bf0c      	ite	eq
 8003676:	2201      	moveq	r2, #1
 8003678:	2200      	movne	r2, #0
 800367a:	d106      	bne.n	800368a <TIM_OC3_SetConfig+0x42>
  {
    assert_param(IS_TIM_OCN_POLARITY(OC_Config->OCNPolarity));

    /* Reset the Output N Polarity level */
    tmpccer &= ~TIM_CCER_CC3NP;
 800367c:	f423 6300 	bic.w	r3, r3, #2048	@ 0x800
    /* Set the Output N Polarity */
    tmpccer |= (OC_Config->OCNPolarity << 8U);
 8003680:	68cc      	ldr	r4, [r1, #12]
 8003682:	ea43 2304 	orr.w	r3, r3, r4, lsl #8
    /* Reset the Output N State */
    tmpccer &= ~TIM_CCER_CC3NE;
 8003686:	f423 6380 	bic.w	r3, r3, #1024	@ 0x400
  }

  if (IS_TIM_BREAK_INSTANCE(TIMx))
 800368a:	b95a      	cbnz	r2, 80036a4 <TIM_OC3_SetConfig+0x5c>
 800368c:	4a10      	ldr	r2, [pc, #64]	@ (80036d0 <TIM_OC3_SetConfig+0x88>)
 800368e:	4290      	cmp	r0, r2
 8003690:	bf14      	ite	ne
 8003692:	2200      	movne	r2, #0
 8003694:	2201      	moveq	r2, #1
 8003696:	4c0f      	ldr	r4, [pc, #60]	@ (80036d4 <TIM_OC3_SetConfig+0x8c>)
 8003698:	42a0      	cmp	r0, r4
 800369a:	d003      	beq.n	80036a4 <TIM_OC3_SetConfig+0x5c>
 800369c:	b912      	cbnz	r2, 80036a4 <TIM_OC3_SetConfig+0x5c>
 800369e:	4a0e      	ldr	r2, [pc, #56]	@ (80036d8 <TIM_OC3_SetConfig+0x90>)
 80036a0:	4290      	cmp	r0, r2
 80036a2:	d107      	bne.n	80036b4 <TIM_OC3_SetConfig+0x6c>
    assert_param(IS_TIM_OCNIDLE_STATE(OC_Config->OCNIdleState));
    assert_param(IS_TIM_OCIDLE_STATE(OC_Config->OCIdleState));

    /* Reset the Output Compare and Output Compare N IDLE State */
    tmpcr2 &= ~TIM_CR2_OIS3;
    tmpcr2 &= ~TIM_CR2_OIS3N;
 80036a4:	f425 5240 	bic.w	r2, r5, #12288	@ 0x3000
    /* Set the Output Idle state */
    tmpcr2 |= (OC_Config->OCIdleState << 4U);
 80036a8:	694c      	ldr	r4, [r1, #20]
 80036aa:	ea42 1204 	orr.w	r2, r2, r4, lsl #4
    /* Set the Output N Idle state */
    tmpcr2 |= (OC_Config->OCNIdleState << 4U);
 80036ae:	698c      	ldr	r4, [r1, #24]
 80036b0:	ea42 1504 	orr.w	r5, r2, r4, lsl #4
  }

  /* Write to TIMx CR2 */
  TIMx->CR2 = tmpcr2;
 80036b4:	6045      	str	r5, [r0, #4]

  /* Write to TIMx CCMR2 */
  TIMx->CCMR2 = tmpccmrx;
 80036b6:	61c6      	str	r6, [r0, #28]

  /* Set the Capture Compare Register value */
  TIMx->CCR3 = OC_Config->Pulse;
 80036b8:	684a      	ldr	r2, [r1, #4]
 80036ba:	63c2      	str	r2, [r0, #60]	@ 0x3c

  /* Write to TIMx CCER */
  TIMx->CCER = tmpccer;
 80036bc:	6203      	str	r3, [r0, #32]
}
 80036be:	bc70      	pop	{r4, r5, r6}
 80036c0:	4770      	bx	lr
 80036c2:	bf00      	nop
 80036c4:	fffeff8c 	.word	0xfffeff8c
 80036c8:	40010000 	.word	0x40010000
 80036cc:	40010400 	.word	0x40010400
 80036d0:	40014400 	.word	0x40014400
 80036d4:	40014000 	.word	0x40014000
 80036d8:	40014800 	.word	0x40014800

080036dc <TIM_OC4_SetConfig>:
  * @param  TIMx to select the TIM peripheral
  * @param  OC_Config The output configuration structure
  * @retval None
  */
static void TIM_OC4_SetConfig(TIM_TypeDef *TIMx, const TIM_OC_InitTypeDef *OC_Config)
{
 80036dc:	b470      	push	{r4, r5, r6}
  uint32_t tmpccmrx;
  uint32_t tmpccer;
  uint32_t tmpcr2;

  /* Get the TIMx CCER register value */
  tmpccer = TIMx->CCER;
 80036de:	6a03      	ldr	r3, [r0, #32]

  /* Disable the Channel 4: Reset the CC4E Bit */
  TIMx->CCER &= ~TIM_CCER_CC4E;
 80036e0:	6a02      	ldr	r2, [r0, #32]
 80036e2:	f422 5280 	bic.w	r2, r2, #4096	@ 0x1000
 80036e6:	6202      	str	r2, [r0, #32]

  /* Get the TIMx CR2 register value */
  tmpcr2 =  TIMx->CR2;
 80036e8:	6844      	ldr	r4, [r0, #4]

  /* Get the TIMx CCMR2 register value */
  tmpccmrx = TIMx->CCMR2;
 80036ea:	69c5      	ldr	r5, [r0, #28]

  /* Reset the Output Compare mode and Capture/Compare selection Bits */
  tmpccmrx &= ~TIM_CCMR2_OC4M;
  tmpccmrx &= ~TIM_CCMR2_CC4S;
 80036ec:	4a14      	ldr	r2, [pc, #80]	@ (8003740 <TIM_OC4_SetConfig+0x64>)
 80036ee:	402a      	ands	r2, r5

  /* Select the Output Compare Mode */
  tmpccmrx |= (OC_Config->OCMode << 8U);
 80036f0:	680d      	ldr	r5, [r1, #0]
 80036f2:	ea42 2205 	orr.w	r2, r2, r5, lsl #8

  /* Reset the Output Polarity level */
  tmpccer &= ~TIM_CCER_CC4P;
 80036f6:	f423 5300 	bic.w	r3, r3, #8192	@ 0x2000
  /* Set the Output Compare Polarity */
  tmpccer |= (OC_Config->OCPolarity << 12U);
 80036fa:	688d      	ldr	r5, [r1, #8]
 80036fc:	ea43 3305 	orr.w	r3, r3, r5, lsl #12

  if (IS_TIM_BREAK_INSTANCE(TIMx))
 8003700:	4e10      	ldr	r6, [pc, #64]	@ (8003744 <TIM_OC4_SetConfig+0x68>)
 8003702:	4d11      	ldr	r5, [pc, #68]	@ (8003748 <TIM_OC4_SetConfig+0x6c>)
 8003704:	42a8      	cmp	r0, r5
 8003706:	bf18      	it	ne
 8003708:	42b0      	cmpne	r0, r6
 800370a:	d00d      	beq.n	8003728 <TIM_OC4_SetConfig+0x4c>
 800370c:	f505 4580 	add.w	r5, r5, #16384	@ 0x4000
 8003710:	42a8      	cmp	r0, r5
 8003712:	bf14      	ite	ne
 8003714:	2500      	movne	r5, #0
 8003716:	2501      	moveq	r5, #1
 8003718:	f506 4680 	add.w	r6, r6, #16384	@ 0x4000
 800371c:	42b0      	cmp	r0, r6
 800371e:	d003      	beq.n	8003728 <TIM_OC4_SetConfig+0x4c>
 8003720:	b915      	cbnz	r5, 8003728 <TIM_OC4_SetConfig+0x4c>
 8003722:	4d0a      	ldr	r5, [pc, #40]	@ (800374c <TIM_OC4_SetConfig+0x70>)
 8003724:	42a8      	cmp	r0, r5
 8003726:	d104      	bne.n	8003732 <TIM_OC4_SetConfig+0x56>
  {
    /* Check parameters */
    assert_param(IS_TIM_OCIDLE_STATE(OC_Config->OCIdleState));

    /* Reset the Output Compare IDLE State */
    tmpcr2 &= ~TIM_CR2_OIS4;
 8003728:	f424 4480 	bic.w	r4, r4, #16384	@ 0x4000

    /* Set the Output Idle state */
    tmpcr2 |= (OC_Config->OCIdleState << 6U);
 800372c:	694d      	ldr	r5, [r1, #20]
 800372e:	ea44 1485 	orr.w	r4, r4, r5, lsl #6
  }

  /* Write to TIMx CR2 */
  TIMx->CR2 = tmpcr2;
 8003732:	6044      	str	r4, [r0, #4]

  /* Write to TIMx CCMR2 */
  TIMx->CCMR2 = tmpccmrx;
 8003734:	61c2      	str	r2, [r0, #28]

  /* Set the Capture Compare Register value */
  TIMx->CCR4 = OC_Config->Pulse;
 8003736:	684a      	ldr	r2, [r1, #4]
 8003738:	6402      	str	r2, [r0, #64]	@ 0x40

  /* Write to TIMx CCER */
  TIMx->CCER = tmpccer;
 800373a:	6203      	str	r3, [r0, #32]
}
 800373c:	bc70      	pop	{r4, r5, r6}
 800373e:	4770      	bx	lr
 8003740:	feff8cff 	.word	0xfeff8cff
 8003744:	40010000 	.word	0x40010000
 8003748:	40010400 	.word	0x40010400
 800374c:	40014800 	.word	0x40014800

08003750 <TIM_OC5_SetConfig>:
  * @param  OC_Config The output configuration structure
  * @retval None
  */
static void TIM_OC5_SetConfig(TIM_TypeDef *TIMx,
                              const TIM_OC_InitTypeDef *OC_Config)
{
 8003750:	b470      	push	{r4, r5, r6}
  uint32_t tmpccmrx;
  uint32_t tmpccer;
  uint32_t tmpcr2;

  /* Get the TIMx CCER register value */
  tmpccer = TIMx->CCER;
 8003752:	6a03      	ldr	r3, [r0, #32]

  /* Disable the output: Reset the CCxE Bit */
  TIMx->CCER &= ~TIM_CCER_CC5E;
 8003754:	6a02      	ldr	r2, [r0, #32]
 8003756:	f422 3280 	bic.w	r2, r2, #65536	@ 0x10000
 800375a:	6202      	str	r2, [r0, #32]

  /* Get the TIMx CR2 register value */
  tmpcr2 =  TIMx->CR2;
 800375c:	6842      	ldr	r2, [r0, #4]
  /* Get the TIMx CCMR1 register value */
  tmpccmrx = TIMx->CCMR3;
 800375e:	6d45      	ldr	r5, [r0, #84]	@ 0x54

  /* Reset the Output Compare Mode Bits */
  tmpccmrx &= ~(TIM_CCMR3_OC5M);
 8003760:	4e14      	ldr	r6, [pc, #80]	@ (80037b4 <TIM_OC5_SetConfig+0x64>)
 8003762:	402e      	ands	r6, r5
  /* Select the Output Compare Mode */
  tmpccmrx |= OC_Config->OCMode;
 8003764:	680d      	ldr	r5, [r1, #0]
 8003766:	432e      	orrs	r6, r5

  /* Reset the Output Polarity level */
  tmpccer &= ~TIM_CCER_CC5P;
 8003768:	f423 3300 	bic.w	r3, r3, #131072	@ 0x20000
  /* Set the Output Compare Polarity */
  tmpccer |= (OC_Config->OCPolarity << 16U);
 800376c:	688c      	ldr	r4, [r1, #8]
 800376e:	ea43 4304 	orr.w	r3, r3, r4, lsl #16

  if (IS_TIM_BREAK_INSTANCE(TIMx))
 8003772:	4d11      	ldr	r5, [pc, #68]	@ (80037b8 <TIM_OC5_SetConfig+0x68>)
 8003774:	4c11      	ldr	r4, [pc, #68]	@ (80037bc <TIM_OC5_SetConfig+0x6c>)
 8003776:	42a0      	cmp	r0, r4
 8003778:	bf18      	it	ne
 800377a:	42a8      	cmpne	r0, r5
 800377c:	d00d      	beq.n	800379a <TIM_OC5_SetConfig+0x4a>
 800377e:	f504 4480 	add.w	r4, r4, #16384	@ 0x4000
 8003782:	42a0      	cmp	r0, r4
 8003784:	bf14      	ite	ne
 8003786:	2400      	movne	r4, #0
 8003788:	2401      	moveq	r4, #1
 800378a:	f505 4580 	add.w	r5, r5, #16384	@ 0x4000
 800378e:	42a8      	cmp	r0, r5
 8003790:	d003      	beq.n	800379a <TIM_OC5_SetConfig+0x4a>
 8003792:	b914      	cbnz	r4, 800379a <TIM_OC5_SetConfig+0x4a>
 8003794:	4c0a      	ldr	r4, [pc, #40]	@ (80037c0 <TIM_OC5_SetConfig+0x70>)
 8003796:	42a0      	cmp	r0, r4
 8003798:	d104      	bne.n	80037a4 <TIM_OC5_SetConfig+0x54>
  {
    /* Reset the Output Compare IDLE State */
    tmpcr2 &= ~TIM_CR2_OIS5;
 800379a:	f422 3280 	bic.w	r2, r2, #65536	@ 0x10000
    /* Set the Output Idle state */
    tmpcr2 |= (OC_Config->OCIdleState << 8U);
 800379e:	694c      	ldr	r4, [r1, #20]
 80037a0:	ea42 2204 	orr.w	r2, r2, r4, lsl #8
  }
  /* Write to TIMx CR2 */
  TIMx->CR2 = tmpcr2;
 80037a4:	6042      	str	r2, [r0, #4]

  /* Write to TIMx CCMR3 */
  TIMx->CCMR3 = tmpccmrx;
 80037a6:	6546      	str	r6, [r0, #84]	@ 0x54

  /* Set the Capture Compare Register value */
  TIMx->CCR5 = OC_Config->Pulse;
 80037a8:	684a      	ldr	r2, [r1, #4]
 80037aa:	6582      	str	r2, [r0, #88]	@ 0x58

  /* Write to TIMx CCER */
  TIMx->CCER = tmpccer;
 80037ac:	6203      	str	r3, [r0, #32]
}
 80037ae:	bc70      	pop	{r4, r5, r6}
 80037b0:	4770      	bx	lr
 80037b2:	bf00      	nop
 80037b4:	fffeff8f 	.word	0xfffeff8f
 80037b8:	40010000 	.word	0x40010000
 80037bc:	40010400 	.word	0x40010400
 80037c0:	40014800 	.word	0x40014800

080037c4 <TIM_OC6_SetConfig>:
  * @param  OC_Config The output configuration structure
  * @retval None
  */
static void TIM_OC6_SetConfig(TIM_TypeDef *TIMx,
                              const TIM_OC_InitTypeDef *OC_Config)
{
 80037c4:	b470      	push	{r4, r5, r6}
  uint32_t tmpccmrx;
  uint32_t tmpccer;
  uint32_t tmpcr2;

  /* Get the TIMx CCER register value */
  tmpccer = TIMx->CCER;
 80037c6:	6a03      	ldr	r3, [r0, #32]

  /* Disable the output: Reset the CCxE Bit */
  TIMx->CCER &= ~TIM_CCER_CC6E;
 80037c8:	6a02      	ldr	r2, [r0, #32]
 80037ca:	f422 1280 	bic.w	r2, r2, #1048576	@ 0x100000
 80037ce:	6202      	str	r2, [r0, #32]

  /* Get the TIMx CR2 register value */
  tmpcr2 =  TIMx->CR2;
 80037d0:	6844      	ldr	r4, [r0, #4]
  /* Get the TIMx CCMR1 register value */
  tmpccmrx = TIMx->CCMR3;
 80037d2:	6d45      	ldr	r5, [r0, #84]	@ 0x54

  /* Reset the Output Compare Mode Bits */
  tmpccmrx &= ~(TIM_CCMR3_OC6M);
 80037d4:	4a14      	ldr	r2, [pc, #80]	@ (8003828 <TIM_OC6_SetConfig+0x64>)
 80037d6:	402a      	ands	r2, r5
  /* Select the Output Compare Mode */
  tmpccmrx |= (OC_Config->OCMode << 8U);
 80037d8:	680d      	ldr	r5, [r1, #0]
 80037da:	ea42 2205 	orr.w	r2, r2, r5, lsl #8

  /* Reset the Output Polarity level */
  tmpccer &= (uint32_t)~TIM_CCER_CC6P;
 80037de:	f423 1300 	bic.w	r3, r3, #2097152	@ 0x200000
  /* Set the Output Compare Polarity */
  tmpccer |= (OC_Config->OCPolarity << 20U);
 80037e2:	688d      	ldr	r5, [r1, #8]
 80037e4:	ea43 5305 	orr.w	r3, r3, r5, lsl #20

  if (IS_TIM_BREAK_INSTANCE(TIMx))
 80037e8:	4e10      	ldr	r6, [pc, #64]	@ (800382c <TIM_OC6_SetConfig+0x68>)
 80037ea:	4d11      	ldr	r5, [pc, #68]	@ (8003830 <TIM_OC6_SetConfig+0x6c>)
 80037ec:	42a8      	cmp	r0, r5
 80037ee:	bf18      	it	ne
 80037f0:	42b0      	cmpne	r0, r6
 80037f2:	d00d      	beq.n	8003810 <TIM_OC6_SetConfig+0x4c>
 80037f4:	f505 4580 	add.w	r5, r5, #16384	@ 0x4000
 80037f8:	42a8      	cmp	r0, r5
 80037fa:	bf14      	ite	ne
 80037fc:	2500      	movne	r5, #0
 80037fe:	2501      	moveq	r5, #1
 8003800:	f506 4680 	add.w	r6, r6, #16384	@ 0x4000
 8003804:	42b0      	cmp	r0, r6
 8003806:	d003      	beq.n	8003810 <TIM_OC6_SetConfig+0x4c>
 8003808:	b915      	cbnz	r5, 8003810 <TIM_OC6_SetConfig+0x4c>
 800380a:	4d0a      	ldr	r5, [pc, #40]	@ (8003834 <TIM_OC6_SetConfig+0x70>)
 800380c:	42a8      	cmp	r0, r5
 800380e:	d104      	bne.n	800381a <TIM_OC6_SetConfig+0x56>
  {
    /* Reset the Output Compare IDLE State */
    tmpcr2 &= ~TIM_CR2_OIS6;
 8003810:	f424 2480 	bic.w	r4, r4, #262144	@ 0x40000
    /* Set the Output Idle state */
    tmpcr2 |= (OC_Config->OCIdleState << 10U);
 8003814:	694d      	ldr	r5, [r1, #20]
 8003816:	ea44 2485 	orr.w	r4, r4, r5, lsl #10
  }

  /* Write to TIMx CR2 */
  TIMx->CR2 = tmpcr2;
 800381a:	6044      	str	r4, [r0, #4]

  /* Write to TIMx CCMR3 */
  TIMx->CCMR3 = tmpccmrx;
 800381c:	6542      	str	r2, [r0, #84]	@ 0x54

  /* Set the Capture Compare Register value */
  TIMx->CCR6 = OC_Config->Pulse;
 800381e:	684a      	ldr	r2, [r1, #4]
 8003820:	65c2      	str	r2, [r0, #92]	@ 0x5c

  /* Write to TIMx CCER */
  TIMx->CCER = tmpccer;
 8003822:	6203      	str	r3, [r0, #32]
}
 8003824:	bc70      	pop	{r4, r5, r6}
 8003826:	4770      	bx	lr
 8003828:	feff8fff 	.word	0xfeff8fff
 800382c:	40010000 	.word	0x40010000
 8003830:	40010400 	.word	0x40010400
 8003834:	40014800 	.word	0x40014800

08003838 <TIM_Base_SetConfig>:
{
 8003838:	b470      	push	{r4, r5, r6}
  tmpcr1 = TIMx->CR1;
 800383a:	6803      	ldr	r3, [r0, #0]
  if (IS_TIM_COUNTER_MODE_SELECT_INSTANCE(TIMx))
 800383c:	4a39      	ldr	r2, [pc, #228]	@ (8003924 <TIM_Base_SetConfig+0xec>)
 800383e:	4290      	cmp	r0, r2
 8003840:	bf14      	ite	ne
 8003842:	2200      	movne	r2, #0
 8003844:	2201      	moveq	r2, #1
 8003846:	f1b0 4f80 	cmp.w	r0, #1073741824	@ 0x40000000
 800384a:	bf14      	ite	ne
 800384c:	4614      	movne	r4, r2
 800384e:	f042 0401 	orreq.w	r4, r2, #1
 8003852:	b9ac      	cbnz	r4, 8003880 <TIM_Base_SetConfig+0x48>
 8003854:	4d34      	ldr	r5, [pc, #208]	@ (8003928 <TIM_Base_SetConfig+0xf0>)
 8003856:	42a8      	cmp	r0, r5
 8003858:	bf14      	ite	ne
 800385a:	2500      	movne	r5, #0
 800385c:	2501      	moveq	r5, #1
 800385e:	4e33      	ldr	r6, [pc, #204]	@ (800392c <TIM_Base_SetConfig+0xf4>)
 8003860:	42b0      	cmp	r0, r6
 8003862:	d00d      	beq.n	8003880 <TIM_Base_SetConfig+0x48>
 8003864:	b965      	cbnz	r5, 8003880 <TIM_Base_SetConfig+0x48>
 8003866:	f105 4580 	add.w	r5, r5, #1073741824	@ 0x40000000
 800386a:	f505 3582 	add.w	r5, r5, #66560	@ 0x10400
 800386e:	42a8      	cmp	r0, r5
 8003870:	bf14      	ite	ne
 8003872:	2500      	movne	r5, #0
 8003874:	2501      	moveq	r5, #1
 8003876:	f506 6600 	add.w	r6, r6, #2048	@ 0x800
 800387a:	42b0      	cmp	r0, r6
 800387c:	d000      	beq.n	8003880 <TIM_Base_SetConfig+0x48>
 800387e:	b11d      	cbz	r5, 8003888 <TIM_Base_SetConfig+0x50>
    tmpcr1 &= ~(TIM_CR1_DIR | TIM_CR1_CMS);
 8003880:	f023 0370 	bic.w	r3, r3, #112	@ 0x70
    tmpcr1 |= Structure->CounterMode;
 8003884:	684d      	ldr	r5, [r1, #4]
 8003886:	432b      	orrs	r3, r5
  if (IS_TIM_CLOCK_DIVISION_INSTANCE(TIMx))
 8003888:	bb14      	cbnz	r4, 80038d0 <TIM_Base_SetConfig+0x98>
 800388a:	4c27      	ldr	r4, [pc, #156]	@ (8003928 <TIM_Base_SetConfig+0xf0>)
 800388c:	42a0      	cmp	r0, r4
 800388e:	bf14      	ite	ne
 8003890:	2400      	movne	r4, #0
 8003892:	2401      	moveq	r4, #1
 8003894:	4d25      	ldr	r5, [pc, #148]	@ (800392c <TIM_Base_SetConfig+0xf4>)
 8003896:	42a8      	cmp	r0, r5
 8003898:	d01a      	beq.n	80038d0 <TIM_Base_SetConfig+0x98>
 800389a:	b9cc      	cbnz	r4, 80038d0 <TIM_Base_SetConfig+0x98>
 800389c:	f104 4480 	add.w	r4, r4, #1073741824	@ 0x40000000
 80038a0:	f504 3482 	add.w	r4, r4, #66560	@ 0x10400
 80038a4:	42a0      	cmp	r0, r4
 80038a6:	bf14      	ite	ne
 80038a8:	2400      	movne	r4, #0
 80038aa:	2401      	moveq	r4, #1
 80038ac:	f505 6500 	add.w	r5, r5, #2048	@ 0x800
 80038b0:	42a8      	cmp	r0, r5
 80038b2:	d00d      	beq.n	80038d0 <TIM_Base_SetConfig+0x98>
 80038b4:	b964      	cbnz	r4, 80038d0 <TIM_Base_SetConfig+0x98>
 80038b6:	4c1e      	ldr	r4, [pc, #120]	@ (8003930 <TIM_Base_SetConfig+0xf8>)
 80038b8:	42a0      	cmp	r0, r4
 80038ba:	bf14      	ite	ne
 80038bc:	2400      	movne	r4, #0
 80038be:	2401      	moveq	r4, #1
 80038c0:	f505 359a 	add.w	r5, r5, #78848	@ 0x13400
 80038c4:	42a8      	cmp	r0, r5
 80038c6:	d003      	beq.n	80038d0 <TIM_Base_SetConfig+0x98>
 80038c8:	b914      	cbnz	r4, 80038d0 <TIM_Base_SetConfig+0x98>
 80038ca:	4c1a      	ldr	r4, [pc, #104]	@ (8003934 <TIM_Base_SetConfig+0xfc>)
 80038cc:	42a0      	cmp	r0, r4
 80038ce:	d103      	bne.n	80038d8 <TIM_Base_SetConfig+0xa0>
    tmpcr1 &= ~TIM_CR1_CKD;
 80038d0:	f423 7340 	bic.w	r3, r3, #768	@ 0x300
    tmpcr1 |= (uint32_t)Structure->ClockDivision;
 80038d4:	68cc      	ldr	r4, [r1, #12]
 80038d6:	4323      	orrs	r3, r4
  MODIFY_REG(tmpcr1, TIM_CR1_ARPE, Structure->AutoReloadPreload);
 80038d8:	f023 0380 	bic.w	r3, r3, #128	@ 0x80
 80038dc:	694c      	ldr	r4, [r1, #20]
 80038de:	4323      	orrs	r3, r4
  TIMx->ARR = (uint32_t)Structure->Period ;
 80038e0:	688c      	ldr	r4, [r1, #8]
 80038e2:	62c4      	str	r4, [r0, #44]	@ 0x2c
  TIMx->PSC = Structure->Prescaler;
 80038e4:	680c      	ldr	r4, [r1, #0]
 80038e6:	6284      	str	r4, [r0, #40]	@ 0x28
  if (IS_TIM_REPETITION_COUNTER_INSTANCE(TIMx))
 80038e8:	4c13      	ldr	r4, [pc, #76]	@ (8003938 <TIM_Base_SetConfig+0x100>)
 80038ea:	42a0      	cmp	r0, r4
 80038ec:	bf08      	it	eq
 80038ee:	f042 0201 	orreq.w	r2, r2, #1
 80038f2:	b962      	cbnz	r2, 800390e <TIM_Base_SetConfig+0xd6>
 80038f4:	4a0e      	ldr	r2, [pc, #56]	@ (8003930 <TIM_Base_SetConfig+0xf8>)
 80038f6:	4290      	cmp	r0, r2
 80038f8:	bf14      	ite	ne
 80038fa:	2200      	movne	r2, #0
 80038fc:	2201      	moveq	r2, #1
 80038fe:	f504 5470 	add.w	r4, r4, #15360	@ 0x3c00
 8003902:	42a0      	cmp	r0, r4
 8003904:	d003      	beq.n	800390e <TIM_Base_SetConfig+0xd6>
 8003906:	b912      	cbnz	r2, 800390e <TIM_Base_SetConfig+0xd6>
 8003908:	4a0a      	ldr	r2, [pc, #40]	@ (8003934 <TIM_Base_SetConfig+0xfc>)
 800390a:	4290      	cmp	r0, r2
 800390c:	d101      	bne.n	8003912 <TIM_Base_SetConfig+0xda>
    TIMx->RCR = Structure->RepetitionCounter;
 800390e:	690a      	ldr	r2, [r1, #16]
 8003910:	6302      	str	r2, [r0, #48]	@ 0x30
  SET_BIT(TIMx->CR1, TIM_CR1_URS);
 8003912:	6802      	ldr	r2, [r0, #0]
 8003914:	f042 0204 	orr.w	r2, r2, #4
 8003918:	6002      	str	r2, [r0, #0]
  TIMx->EGR = TIM_EGR_UG;
 800391a:	2201      	movs	r2, #1
 800391c:	6142      	str	r2, [r0, #20]
  TIMx->CR1 = tmpcr1;
 800391e:	6003      	str	r3, [r0, #0]
}
 8003920:	bc70      	pop	{r4, r5, r6}
 8003922:	4770      	bx	lr
 8003924:	40010000 	.word	0x40010000
 8003928:	40000800 	.word	0x40000800
 800392c:	40000400 	.word	0x40000400
 8003930:	40014400 	.word	0x40014400
 8003934:	40014800 	.word	0x40014800
 8003938:	40010400 	.word	0x40010400

0800393c <HAL_TIM_PWM_Init>:
  if (htim == NULL)
 800393c:	b360      	cbz	r0, 8003998 <HAL_TIM_PWM_Init+0x5c>
{
 800393e:	b510      	push	{r4, lr}
 8003940:	4604      	mov	r4, r0
  if (htim->State == HAL_TIM_STATE_RESET)
 8003942:	f890 303d 	ldrb.w	r3, [r0, #61]	@ 0x3d
 8003946:	b313      	cbz	r3, 800398e <HAL_TIM_PWM_Init+0x52>
  htim->State = HAL_TIM_STATE_BUSY;
 8003948:	2302      	movs	r3, #2
 800394a:	f884 303d 	strb.w	r3, [r4, #61]	@ 0x3d
  TIM_Base_SetConfig(htim->Instance, &htim->Init);
 800394e:	4621      	mov	r1, r4
 8003950:	f851 0b04 	ldr.w	r0, [r1], #4
 8003954:	f7ff ff70 	bl	8003838 <TIM_Base_SetConfig>
  htim->DMABurstState = HAL_DMA_BURST_STATE_READY;
 8003958:	2301      	movs	r3, #1
 800395a:	f884 3048 	strb.w	r3, [r4, #72]	@ 0x48
  TIM_CHANNEL_STATE_SET_ALL(htim, HAL_TIM_CHANNEL_STATE_READY);
 800395e:	f884 303e 	strb.w	r3, [r4, #62]	@ 0x3e
 8003962:	f884 303f 	strb.w	r3, [r4, #63]	@ 0x3f
 8003966:	f884 3040 	strb.w	r3, [r4, #64]	@ 0x40
 800396a:	f884 3041 	strb.w	r3, [r4, #65]	@ 0x41
 800396e:	f884 3042 	strb.w	r3, [r4, #66]	@ 0x42
 8003972:	f884 3043 	strb.w	r3, [r4, #67]	@ 0x43
  TIM_CHANNEL_N_STATE_SET_ALL(htim, HAL_TIM_CHANNEL_STATE_READY);
 8003976:	f884 3044 	strb.w	r3, [r4, #68]	@ 0x44
 800397a:	f884 3045 	strb.w	r3, [r4, #69]	@ 0x45
 800397e:	f884 3046 	strb.w	r3, [r4, #70]	@ 0x46
 8003982:	f884 3047 	strb.w	r3, [r4, #71]	@ 0x47
  htim->State = HAL_TIM_STATE_READY;
 8003986:	f884 303d 	strb.w	r3, [r4, #61]	@ 0x3d
  return HAL_OK;
 800398a:	2000      	movs	r0, #0
}
 800398c:	bd10      	pop	{r4, pc}
    htim->Lock = HAL_UNLOCKED;
 800398e:	f880 303c 	strb.w	r3, [r0, #60]	@ 0x3c
    HAL_TIM_PWM_MspInit(htim);
 8003992:	f7fd fafb 	bl	8000f8c <HAL_TIM_PWM_MspInit>
 8003996:	e7d7      	b.n	8003948 <HAL_TIM_PWM_Init+0xc>
    return HAL_ERROR;
 8003998:	2001      	movs	r0, #1
}
 800399a:	4770      	bx	lr

0800399c <TIM_OC2_SetConfig>:
{
 800399c:	b470      	push	{r4, r5, r6}
  tmpccer = TIMx->CCER;
 800399e:	6a03      	ldr	r3, [r0, #32]
  TIMx->CCER &= ~TIM_CCER_CC2E;
 80039a0:	6a02      	ldr	r2, [r0, #32]
 80039a2:	f022 0210 	bic.w	r2, r2, #16
 80039a6:	6202      	str	r2, [r0, #32]
  tmpcr2 =  TIMx->CR2;
 80039a8:	6845      	ldr	r5, [r0, #4]
  tmpccmrx = TIMx->CCMR1;
 80039aa:	6984      	ldr	r4, [r0, #24]
  tmpccmrx &= ~TIM_CCMR1_CC2S;
 80039ac:	4e1a      	ldr	r6, [pc, #104]	@ (8003a18 <TIM_OC2_SetConfig+0x7c>)
 80039ae:	4026      	ands	r6, r4
  tmpccmrx |= (OC_Config->OCMode << 8U);
 80039b0:	680c      	ldr	r4, [r1, #0]
 80039b2:	ea46 2604 	orr.w	r6, r6, r4, lsl #8
  tmpccer &= ~TIM_CCER_CC2P;
 80039b6:	f023 0320 	bic.w	r3, r3, #32
  tmpccer |= (OC_Config->OCPolarity << 4U);
 80039ba:	688a      	ldr	r2, [r1, #8]
 80039bc:	ea43 1302 	orr.w	r3, r3, r2, lsl #4
  if (IS_TIM_CCXN_INSTANCE(TIMx, TIM_CHANNEL_2))
 80039c0:	4a16      	ldr	r2, [pc, #88]	@ (8003a1c <TIM_OC2_SetConfig+0x80>)
 80039c2:	4c17      	ldr	r4, [pc, #92]	@ (8003a20 <TIM_OC2_SetConfig+0x84>)
 80039c4:	42a0      	cmp	r0, r4
 80039c6:	bf18      	it	ne
 80039c8:	4290      	cmpne	r0, r2
 80039ca:	bf0c      	ite	eq
 80039cc:	2201      	moveq	r2, #1
 80039ce:	2200      	movne	r2, #0
 80039d0:	d106      	bne.n	80039e0 <TIM_OC2_SetConfig+0x44>
    tmpccer &= ~TIM_CCER_CC2NP;
 80039d2:	f023 0380 	bic.w	r3, r3, #128	@ 0x80
    tmpccer |= (OC_Config->OCNPolarity << 4U);
 80039d6:	68cc      	ldr	r4, [r1, #12]
 80039d8:	ea43 1304 	orr.w	r3, r3, r4, lsl #4
    tmpccer &= ~TIM_CCER_CC2NE;
 80039dc:	f023 0340 	bic.w	r3, r3, #64	@ 0x40
  if (IS_TIM_BREAK_INSTANCE(TIMx))
 80039e0:	b95a      	cbnz	r2, 80039fa <TIM_OC2_SetConfig+0x5e>
 80039e2:	4a10      	ldr	r2, [pc, #64]	@ (8003a24 <TIM_OC2_SetConfig+0x88>)
 80039e4:	4290      	cmp	r0, r2
 80039e6:	bf14      	ite	ne
 80039e8:	2200      	movne	r2, #0
 80039ea:	2201      	moveq	r2, #1
 80039ec:	4c0e      	ldr	r4, [pc, #56]	@ (8003a28 <TIM_OC2_SetConfig+0x8c>)
 80039ee:	42a0      	cmp	r0, r4
 80039f0:	d003      	beq.n	80039fa <TIM_OC2_SetConfig+0x5e>
 80039f2:	b912      	cbnz	r2, 80039fa <TIM_OC2_SetConfig+0x5e>
 80039f4:	4a0d      	ldr	r2, [pc, #52]	@ (8003a2c <TIM_OC2_SetConfig+0x90>)
 80039f6:	4290      	cmp	r0, r2
 80039f8:	d107      	bne.n	8003a0a <TIM_OC2_SetConfig+0x6e>
    tmpcr2 &= ~TIM_CR2_OIS2N;
 80039fa:	f425 6c40 	bic.w	ip, r5, #3072	@ 0xc00
    tmpcr2 |= (OC_Config->OCIdleState << 2U);
 80039fe:	694a      	ldr	r2, [r1, #20]
 8003a00:	ea4c 0c82 	orr.w	ip, ip, r2, lsl #2
    tmpcr2 |= (OC_Config->OCNIdleState << 2U);
 8003a04:	698a      	ldr	r2, [r1, #24]
 8003a06:	ea4c 0582 	orr.w	r5, ip, r2, lsl #2
  TIMx->CR2 = tmpcr2;
 8003a0a:	6045      	str	r5, [r0, #4]
  TIMx->CCMR1 = tmpccmrx;
 8003a0c:	6186      	str	r6, [r0, #24]
  TIMx->CCR2 = OC_Config->Pulse;
 8003a0e:	684a      	ldr	r2, [r1, #4]
 8003a10:	6382      	str	r2, [r0, #56]	@ 0x38
  TIMx->CCER = tmpccer;
 8003a12:	6203      	str	r3, [r0, #32]
}
 8003a14:	bc70      	pop	{r4, r5, r6}
 8003a16:	4770      	bx	lr
 8003a18:	feff8cff 	.word	0xfeff8cff
 8003a1c:	40010000 	.word	0x40010000
 8003a20:	40010400 	.word	0x40010400
 8003a24:	40014400 	.word	0x40014400
 8003a28:	40014000 	.word	0x40014000
 8003a2c:	40014800 	.word	0x40014800

08003a30 <HAL_TIM_PWM_ConfigChannel>:
{
 8003a30:	b538      	push	{r3, r4, r5, lr}
  __HAL_LOCK(htim);
 8003a32:	f890 303c 	ldrb.w	r3, [r0, #60]	@ 0x3c
 8003a36:	2b01      	cmp	r3, #1
 8003a38:	f000 8095 	beq.w	8003b66 <HAL_TIM_PWM_ConfigChannel+0x136>
 8003a3c:	4604      	mov	r4, r0
 8003a3e:	460d      	mov	r5, r1
 8003a40:	2301      	movs	r3, #1
 8003a42:	f880 303c 	strb.w	r3, [r0, #60]	@ 0x3c
  switch (Channel)
 8003a46:	2a14      	cmp	r2, #20
 8003a48:	f200 8088 	bhi.w	8003b5c <HAL_TIM_PWM_ConfigChannel+0x12c>
 8003a4c:	e8df f002 	tbb	[pc, r2]
 8003a50:	8686860b 	.word	0x8686860b
 8003a54:	8686861f 	.word	0x8686861f
 8003a58:	86868634 	.word	0x86868634
 8003a5c:	86868648 	.word	0x86868648
 8003a60:	8686865d 	.word	0x8686865d
 8003a64:	71          	.byte	0x71
 8003a65:	00          	.byte	0x00
      TIM_OC1_SetConfig(htim->Instance, sConfig);
 8003a66:	6800      	ldr	r0, [r0, #0]
 8003a68:	f7ff fd9c 	bl	80035a4 <TIM_OC1_SetConfig>
      htim->Instance->CCMR1 |= TIM_CCMR1_OC1PE;
 8003a6c:	6822      	ldr	r2, [r4, #0]
 8003a6e:	6993      	ldr	r3, [r2, #24]
 8003a70:	f043 0308 	orr.w	r3, r3, #8
 8003a74:	6193      	str	r3, [r2, #24]
      htim->Instance->CCMR1 &= ~TIM_CCMR1_OC1FE;
 8003a76:	6822      	ldr	r2, [r4, #0]
 8003a78:	6993      	ldr	r3, [r2, #24]
 8003a7a:	f023 0304 	bic.w	r3, r3, #4
 8003a7e:	6193      	str	r3, [r2, #24]
      htim->Instance->CCMR1 |= sConfig->OCFastMode;
 8003a80:	6822      	ldr	r2, [r4, #0]
 8003a82:	6993      	ldr	r3, [r2, #24]
 8003a84:	6929      	ldr	r1, [r5, #16]
 8003a86:	430b      	orrs	r3, r1
 8003a88:	6193      	str	r3, [r2, #24]
  HAL_StatusTypeDef status = HAL_OK;
 8003a8a:	2000      	movs	r0, #0
      break;
 8003a8c:	e067      	b.n	8003b5e <HAL_TIM_PWM_ConfigChannel+0x12e>
      TIM_OC2_SetConfig(htim->Instance, sConfig);
 8003a8e:	6800      	ldr	r0, [r0, #0]
 8003a90:	f7ff ff84 	bl	800399c <TIM_OC2_SetConfig>
      htim->Instance->CCMR1 |= TIM_CCMR1_OC2PE;
 8003a94:	6822      	ldr	r2, [r4, #0]
 8003a96:	6993      	ldr	r3, [r2, #24]
 8003a98:	f443 6300 	orr.w	r3, r3, #2048	@ 0x800
 8003a9c:	6193      	str	r3, [r2, #24]
      htim->Instance->CCMR1 &= ~TIM_CCMR1_OC2FE;
 8003a9e:	6822      	ldr	r2, [r4, #0]
 8003aa0:	6993      	ldr	r3, [r2, #24]
 8003aa2:	f423 6380 	bic.w	r3, r3, #1024	@ 0x400
 8003aa6:	6193      	str	r3, [r2, #24]
      htim->Instance->CCMR1 |= sConfig->OCFastMode << 8U;
 8003aa8:	6822      	ldr	r2, [r4, #0]
 8003aaa:	6993      	ldr	r3, [r2, #24]
 8003aac:	6929      	ldr	r1, [r5, #16]
 8003aae:	ea43 2301 	orr.w	r3, r3, r1, lsl #8
 8003ab2:	6193      	str	r3, [r2, #24]
  HAL_StatusTypeDef status = HAL_OK;
 8003ab4:	2000      	movs	r0, #0
      break;
 8003ab6:	e052      	b.n	8003b5e <HAL_TIM_PWM_ConfigChannel+0x12e>
      TIM_OC3_SetConfig(htim->Instance, sConfig);
 8003ab8:	6800      	ldr	r0, [r0, #0]
 8003aba:	f7ff fdc5 	bl	8003648 <TIM_OC3_SetConfig>
      htim->Instance->CCMR2 |= TIM_CCMR2_OC3PE;
 8003abe:	6822      	ldr	r2, [r4, #0]
 8003ac0:	69d3      	ldr	r3, [r2, #28]
 8003ac2:	f043 0308 	orr.w	r3, r3, #8
 8003ac6:	61d3      	str	r3, [r2, #28]
      htim->Instance->CCMR2 &= ~TIM_CCMR2_OC3FE;
 8003ac8:	6822      	ldr	r2, [r4, #0]
 8003aca:	69d3      	ldr	r3, [r2, #28]
 8003acc:	f023 0304 	bic.w	r3, r3, #4
 8003ad0:	61d3      	str	r3, [r2, #28]
      htim->Instance->CCMR2 |= sConfig->OCFastMode;
 8003ad2:	6822      	ldr	r2, [r4, #0]
 8003ad4:	69d3      	ldr	r3, [r2, #28]
 8003ad6:	6929      	ldr	r1, [r5, #16]
 8003ad8:	430b      	orrs	r3, r1
 8003ada:	61d3      	str	r3, [r2, #28]
  HAL_StatusTypeDef status = HAL_OK;
 8003adc:	2000      	movs	r0, #0
      break;
 8003ade:	e03e      	b.n	8003b5e <HAL_TIM_PWM_ConfigChannel+0x12e>
      TIM_OC4_SetConfig(htim->Instance, sConfig);
 8003ae0:	6800      	ldr	r0, [r0, #0]
 8003ae2:	f7ff fdfb 	bl	80036dc <TIM_OC4_SetConfig>
      htim->Instance->CCMR2 |= TIM_CCMR2_OC4PE;
 8003ae6:	6822      	ldr	r2, [r4, #0]
 8003ae8:	69d3      	ldr	r3, [r2, #28]
 8003aea:	f443 6300 	orr.w	r3, r3, #2048	@ 0x800
 8003aee:	61d3      	str	r3, [r2, #28]
      htim->Instance->CCMR2 &= ~TIM_CCMR2_OC4FE;
 8003af0:	6822      	ldr	r2, [r4, #0]
 8003af2:	69d3      	ldr	r3, [r2, #28]
 8003af4:	f423 6380 	bic.w	r3, r3, #1024	@ 0x400
 8003af8:	61d3      	str	r3, [r2, #28]
      htim->Instance->CCMR2 |= sConfig->OCFastMode << 8U;
 8003afa:	6822      	ldr	r2, [r4, #0]
 8003afc:	69d3      	ldr	r3, [r2, #28]
 8003afe:	6929      	ldr	r1, [r5, #16]
 8003b00:	ea43 2301 	orr.w	r3, r3, r1, lsl #8
 8003b04:	61d3      	str	r3, [r2, #28]
  HAL_StatusTypeDef status = HAL_OK;
 8003b06:	2000      	movs	r0, #0
      break;
 8003b08:	e029      	b.n	8003b5e <HAL_TIM_PWM_ConfigChannel+0x12e>
      TIM_OC5_SetConfig(htim->Instance, sConfig);
 8003b0a:	6800      	ldr	r0, [r0, #0]
 8003b0c:	f7ff fe20 	bl	8003750 <TIM_OC5_SetConfig>
      htim->Instance->CCMR3 |= TIM_CCMR3_OC5PE;
 8003b10:	6822      	ldr	r2, [r4, #0]
 8003b12:	6d53      	ldr	r3, [r2, #84]	@ 0x54
 8003b14:	f043 0308 	orr.w	r3, r3, #8
 8003b18:	6553      	str	r3, [r2, #84]	@ 0x54
      htim->Instance->CCMR3 &= ~TIM_CCMR3_OC5FE;
 8003b1a:	6822      	ldr	r2, [r4, #0]
 8003b1c:	6d53      	ldr	r3, [r2, #84]	@ 0x54
 8003b1e:	f023 0304 	bic.w	r3, r3, #4
 8003b22:	6553      	str	r3, [r2, #84]	@ 0x54
      htim->Instance->CCMR3 |= sConfig->OCFastMode;
 8003b24:	6822      	ldr	r2, [r4, #0]
 8003b26:	6d53      	ldr	r3, [r2, #84]	@ 0x54
 8003b28:	6929      	ldr	r1, [r5, #16]
 8003b2a:	430b      	orrs	r3, r1
 8003b2c:	6553      	str	r3, [r2, #84]	@ 0x54
  HAL_StatusTypeDef status = HAL_OK;
 8003b2e:	2000      	movs	r0, #0
      break;
 8003b30:	e015      	b.n	8003b5e <HAL_TIM_PWM_ConfigChannel+0x12e>
      TIM_OC6_SetConfig(htim->Instance, sConfig);
 8003b32:	6800      	ldr	r0, [r0, #0]
 8003b34:	f7ff fe46 	bl	80037c4 <TIM_OC6_SetConfig>
      htim->Instance->CCMR3 |= TIM_CCMR3_OC6PE;
 8003b38:	6822      	ldr	r2, [r4, #0]
 8003b3a:	6d53      	ldr	r3, [r2, #84]	@ 0x54
 8003b3c:	f443 6300 	orr.w	r3, r3, #2048	@ 0x800
 8003b40:	6553      	str	r3, [r2, #84]	@ 0x54
      htim->Instance->CCMR3 &= ~TIM_CCMR3_OC6FE;
 8003b42:	6822      	ldr	r2, [r4, #0]
 8003b44:	6d53      	ldr	r3, [r2, #84]	@ 0x54
 8003b46:	f423 6380 	bic.w	r3, r3, #1024	@ 0x400
 8003b4a:	6553      	str	r3, [r2, #84]	@ 0x54
      htim->Instance->CCMR3 |= sConfig->OCFastMode << 8U;
 8003b4c:	6822      	ldr	r2, [r4, #0]
 8003b4e:	6d53      	ldr	r3, [r2, #84]	@ 0x54
 8003b50:	6929      	ldr	r1, [r5, #16]
 8003b52:	ea43 2301 	orr.w	r3, r3, r1, lsl #8
 8003b56:	6553      	str	r3, [r2, #84]	@ 0x54
  HAL_StatusTypeDef status = HAL_OK;
 8003b58:	2000      	movs	r0, #0
      break;
 8003b5a:	e000      	b.n	8003b5e <HAL_TIM_PWM_ConfigChannel+0x12e>
  switch (Channel)
 8003b5c:	2001      	movs	r0, #1
  __HAL_UNLOCK(htim);
 8003b5e:	2300      	movs	r3, #0
 8003b60:	f884 303c 	strb.w	r3, [r4, #60]	@ 0x3c
}
 8003b64:	bd38      	pop	{r3, r4, r5, pc}
  __HAL_LOCK(htim);
 8003b66:	2002      	movs	r0, #2
 8003b68:	e7fc      	b.n	8003b64 <HAL_TIM_PWM_ConfigChannel+0x134>

08003b6a <TIM_CCxChannelCmd>:

  /* Check the parameters */
  assert_param(IS_TIM_CC1_INSTANCE(TIMx));
  assert_param(IS_TIM_CHANNELS(Channel));

  tmp = TIM_CCER_CC1E << (Channel & 0x1FU); /* 0x1FU = 31 bits max shift */
 8003b6a:	f001 011f 	and.w	r1, r1, #31
 8003b6e:	f04f 0c01 	mov.w	ip, #1
 8003b72:	fa0c fc01 	lsl.w	ip, ip, r1

  /* Reset the CCxE Bit */
  TIMx->CCER &= ~tmp;
 8003b76:	6a03      	ldr	r3, [r0, #32]
 8003b78:	ea23 030c 	bic.w	r3, r3, ip
 8003b7c:	6203      	str	r3, [r0, #32]

  /* Set or reset the CCxE Bit */
  TIMx->CCER |= (uint32_t)(ChannelState << (Channel & 0x1FU)); /* 0x1FU = 31 bits max shift */
 8003b7e:	6a03      	ldr	r3, [r0, #32]
 8003b80:	408a      	lsls	r2, r1
 8003b82:	4313      	orrs	r3, r2
 8003b84:	6203      	str	r3, [r0, #32]
}
 8003b86:	4770      	bx	lr

08003b88 <HAL_TIM_PWM_Start>:
{
 8003b88:	b510      	push	{r4, lr}
 8003b8a:	4604      	mov	r4, r0
  if (TIM_CHANNEL_STATE_GET(htim, Channel) != HAL_TIM_CHANNEL_STATE_READY)
 8003b8c:	2910      	cmp	r1, #16
 8003b8e:	d828      	bhi.n	8003be2 <HAL_TIM_PWM_Start+0x5a>
 8003b90:	e8df f001 	tbb	[pc, r1]
 8003b94:	27272709 	.word	0x27272709
 8003b98:	2727270f 	.word	0x2727270f
 8003b9c:	27272715 	.word	0x27272715
 8003ba0:	2727271b 	.word	0x2727271b
 8003ba4:	21          	.byte	0x21
 8003ba5:	00          	.byte	0x00
 8003ba6:	f890 303e 	ldrb.w	r3, [r0, #62]	@ 0x3e
 8003baa:	3b01      	subs	r3, #1
 8003bac:	bf18      	it	ne
 8003bae:	2301      	movne	r3, #1
 8003bb0:	e01c      	b.n	8003bec <HAL_TIM_PWM_Start+0x64>
 8003bb2:	f890 303f 	ldrb.w	r3, [r0, #63]	@ 0x3f
 8003bb6:	3b01      	subs	r3, #1
 8003bb8:	bf18      	it	ne
 8003bba:	2301      	movne	r3, #1
 8003bbc:	e016      	b.n	8003bec <HAL_TIM_PWM_Start+0x64>
 8003bbe:	f890 3040 	ldrb.w	r3, [r0, #64]	@ 0x40
 8003bc2:	3b01      	subs	r3, #1
 8003bc4:	bf18      	it	ne
 8003bc6:	2301      	movne	r3, #1
 8003bc8:	e010      	b.n	8003bec <HAL_TIM_PWM_Start+0x64>
 8003bca:	f890 3041 	ldrb.w	r3, [r0, #65]	@ 0x41
 8003bce:	3b01      	subs	r3, #1
 8003bd0:	bf18      	it	ne
 8003bd2:	2301      	movne	r3, #1
 8003bd4:	e00a      	b.n	8003bec <HAL_TIM_PWM_Start+0x64>
 8003bd6:	f890 3042 	ldrb.w	r3, [r0, #66]	@ 0x42
 8003bda:	3b01      	subs	r3, #1
 8003bdc:	bf18      	it	ne
 8003bde:	2301      	movne	r3, #1
 8003be0:	e004      	b.n	8003bec <HAL_TIM_PWM_Start+0x64>
 8003be2:	f890 3043 	ldrb.w	r3, [r0, #67]	@ 0x43
 8003be6:	3b01      	subs	r3, #1
 8003be8:	bf18      	it	ne
 8003bea:	2301      	movne	r3, #1
 8003bec:	2b00      	cmp	r3, #0
 8003bee:	d171      	bne.n	8003cd4 <HAL_TIM_PWM_Start+0x14c>
  TIM_CHANNEL_STATE_SET(htim, Channel, HAL_TIM_CHANNEL_STATE_BUSY);
 8003bf0:	2910      	cmp	r1, #16
 8003bf2:	d81e      	bhi.n	8003c32 <HAL_TIM_PWM_Start+0xaa>
 8003bf4:	e8df f001 	tbb	[pc, r1]
 8003bf8:	1d1d1d09 	.word	0x1d1d1d09
 8003bfc:	1d1d1d0d 	.word	0x1d1d1d0d
 8003c00:	1d1d1d11 	.word	0x1d1d1d11
 8003c04:	1d1d1d15 	.word	0x1d1d1d15
 8003c08:	19          	.byte	0x19
 8003c09:	00          	.byte	0x00
 8003c0a:	2302      	movs	r3, #2
 8003c0c:	f884 303e 	strb.w	r3, [r4, #62]	@ 0x3e
 8003c10:	e012      	b.n	8003c38 <HAL_TIM_PWM_Start+0xb0>
 8003c12:	2302      	movs	r3, #2
 8003c14:	f884 303f 	strb.w	r3, [r4, #63]	@ 0x3f
 8003c18:	e00e      	b.n	8003c38 <HAL_TIM_PWM_Start+0xb0>
 8003c1a:	2302      	movs	r3, #2
 8003c1c:	f884 3040 	strb.w	r3, [r4, #64]	@ 0x40
 8003c20:	e00a      	b.n	8003c38 <HAL_TIM_PWM_Start+0xb0>
 8003c22:	2302      	movs	r3, #2
 8003c24:	f884 3041 	strb.w	r3, [r4, #65]	@ 0x41
 8003c28:	e006      	b.n	8003c38 <HAL_TIM_PWM_Start+0xb0>
 8003c2a:	2302      	movs	r3, #2
 8003c2c:	f884 3042 	strb.w	r3, [r4, #66]	@ 0x42
 8003c30:	e002      	b.n	8003c38 <HAL_TIM_PWM_Start+0xb0>
 8003c32:	2302      	movs	r3, #2
 8003c34:	f884 3043 	strb.w	r3, [r4, #67]	@ 0x43
  TIM_CCxChannelCmd(htim->Instance, Channel, TIM_CCx_ENABLE);
 8003c38:	2201      	movs	r2, #1
 8003c3a:	6820      	ldr	r0, [r4, #0]
 8003c3c:	f7ff ff95 	bl	8003b6a <TIM_CCxChannelCmd>
  if (IS_TIM_BREAK_INSTANCE(htim->Instance) != RESET)
 8003c40:	6823      	ldr	r3, [r4, #0]
 8003c42:	4926      	ldr	r1, [pc, #152]	@ (8003cdc <HAL_TIM_PWM_Start+0x154>)
 8003c44:	4a26      	ldr	r2, [pc, #152]	@ (8003ce0 <HAL_TIM_PWM_Start+0x158>)
 8003c46:	4293      	cmp	r3, r2
 8003c48:	bf18      	it	ne
 8003c4a:	428b      	cmpne	r3, r1
 8003c4c:	d00b      	beq.n	8003c66 <HAL_TIM_PWM_Start+0xde>
 8003c4e:	f502 5270 	add.w	r2, r2, #15360	@ 0x3c00
 8003c52:	4293      	cmp	r3, r2
 8003c54:	d007      	beq.n	8003c66 <HAL_TIM_PWM_Start+0xde>
 8003c56:	f502 6280 	add.w	r2, r2, #1024	@ 0x400
 8003c5a:	4293      	cmp	r3, r2
 8003c5c:	d003      	beq.n	8003c66 <HAL_TIM_PWM_Start+0xde>
 8003c5e:	f502 6280 	add.w	r2, r2, #1024	@ 0x400
 8003c62:	4293      	cmp	r3, r2
 8003c64:	d103      	bne.n	8003c6e <HAL_TIM_PWM_Start+0xe6>
    __HAL_TIM_MOE_ENABLE(htim);
 8003c66:	6c5a      	ldr	r2, [r3, #68]	@ 0x44
 8003c68:	f442 4200 	orr.w	r2, r2, #32768	@ 0x8000
 8003c6c:	645a      	str	r2, [r3, #68]	@ 0x44
  if (IS_TIM_SLAVE_INSTANCE(htim->Instance))
 8003c6e:	6823      	ldr	r3, [r4, #0]
 8003c70:	4a1a      	ldr	r2, [pc, #104]	@ (8003cdc <HAL_TIM_PWM_Start+0x154>)
 8003c72:	f1b3 4f80 	cmp.w	r3, #1073741824	@ 0x40000000
 8003c76:	bf18      	it	ne
 8003c78:	4293      	cmpne	r3, r2
 8003c7a:	d01d      	beq.n	8003cb8 <HAL_TIM_PWM_Start+0x130>
 8003c7c:	f5a2 427c 	sub.w	r2, r2, #64512	@ 0xfc00
 8003c80:	4293      	cmp	r3, r2
 8003c82:	d019      	beq.n	8003cb8 <HAL_TIM_PWM_Start+0x130>
 8003c84:	f502 6280 	add.w	r2, r2, #1024	@ 0x400
 8003c88:	4293      	cmp	r3, r2
 8003c8a:	d015      	beq.n	8003cb8 <HAL_TIM_PWM_Start+0x130>
 8003c8c:	f502 6280 	add.w	r2, r2, #1024	@ 0x400
 8003c90:	4293      	cmp	r3, r2
 8003c92:	d011      	beq.n	8003cb8 <HAL_TIM_PWM_Start+0x130>
 8003c94:	f502 4278 	add.w	r2, r2, #63488	@ 0xf800
 8003c98:	4293      	cmp	r3, r2
 8003c9a:	d00d      	beq.n	8003cb8 <HAL_TIM_PWM_Start+0x130>
 8003c9c:	f5a2 426c 	sub.w	r2, r2, #60416	@ 0xec00
 8003ca0:	4293      	cmp	r3, r2
 8003ca2:	d009      	beq.n	8003cb8 <HAL_TIM_PWM_Start+0x130>
 8003ca4:	f502 3294 	add.w	r2, r2, #75776	@ 0x12800
 8003ca8:	4293      	cmp	r3, r2
 8003caa:	d005      	beq.n	8003cb8 <HAL_TIM_PWM_Start+0x130>
    __HAL_TIM_ENABLE(htim);
 8003cac:	681a      	ldr	r2, [r3, #0]
 8003cae:	f042 0201 	orr.w	r2, r2, #1
 8003cb2:	601a      	str	r2, [r3, #0]
  return HAL_OK;
 8003cb4:	2000      	movs	r0, #0
 8003cb6:	e00e      	b.n	8003cd6 <HAL_TIM_PWM_Start+0x14e>
    tmpsmcr = htim->Instance->SMCR & TIM_SMCR_SMS;
 8003cb8:	6899      	ldr	r1, [r3, #8]
 8003cba:	4a0a      	ldr	r2, [pc, #40]	@ (8003ce4 <HAL_TIM_PWM_Start+0x15c>)
 8003cbc:	400a      	ands	r2, r1
    if (!IS_TIM_SLAVEMODE_TRIGGER_ENABLED(tmpsmcr))
 8003cbe:	2a06      	cmp	r2, #6
 8003cc0:	bf18      	it	ne
 8003cc2:	f5b2 3f80 	cmpne.w	r2, #65536	@ 0x10000
 8003cc6:	d007      	beq.n	8003cd8 <HAL_TIM_PWM_Start+0x150>
      __HAL_TIM_ENABLE(htim);
 8003cc8:	681a      	ldr	r2, [r3, #0]
 8003cca:	f042 0201 	orr.w	r2, r2, #1
 8003cce:	601a      	str	r2, [r3, #0]
  return HAL_OK;
 8003cd0:	2000      	movs	r0, #0
 8003cd2:	e000      	b.n	8003cd6 <HAL_TIM_PWM_Start+0x14e>
    return HAL_ERROR;
 8003cd4:	2001      	movs	r0, #1
}
 8003cd6:	bd10      	pop	{r4, pc}
  return HAL_OK;
 8003cd8:	2000      	movs	r0, #0
 8003cda:	e7fc      	b.n	8003cd6 <HAL_TIM_PWM_Start+0x14e>
 8003cdc:	40010000 	.word	0x40010000
 8003ce0:	40010400 	.word	0x40010400
 8003ce4:	00010007 	.word	0x00010007

08003ce8 <HAL_TIMEx_MasterConfigSynchronization>:
  assert_param(IS_TIM_MASTER_INSTANCE(htim->Instance));
  assert_param(IS_TIM_TRGO_SOURCE(sMasterConfig->MasterOutputTrigger));
  assert_param(IS_TIM_MSM_STATE(sMasterConfig->MasterSlaveMode));

  /* Check input state */
  __HAL_LOCK(htim);
 8003ce8:	f890 203c 	ldrb.w	r2, [r0, #60]	@ 0x3c
 8003cec:	2a01      	cmp	r2, #1
 8003cee:	d045      	beq.n	8003d7c <HAL_TIMEx_MasterConfigSynchronization+0x94>
{
 8003cf0:	b470      	push	{r4, r5, r6}
 8003cf2:	4603      	mov	r3, r0
  __HAL_LOCK(htim);
 8003cf4:	2201      	movs	r2, #1
 8003cf6:	f880 203c 	strb.w	r2, [r0, #60]	@ 0x3c

  /* Change the handler state */
  htim->State = HAL_TIM_STATE_BUSY;
 8003cfa:	2202      	movs	r2, #2
 8003cfc:	f880 203d 	strb.w	r2, [r0, #61]	@ 0x3d

  /* Get the TIMx CR2 register value */
  tmpcr2 = htim->Instance->CR2;
 8003d00:	6802      	ldr	r2, [r0, #0]
 8003d02:	6850      	ldr	r0, [r2, #4]

  /* Get the TIMx SMCR register value */
  tmpsmcr = htim->Instance->SMCR;
 8003d04:	6894      	ldr	r4, [r2, #8]

  /* If the timer supports ADC synchronization through TRGO2, set the master mode selection 2 */
  if (IS_TIM_TRGO2_INSTANCE(htim->Instance))
 8003d06:	4e1e      	ldr	r6, [pc, #120]	@ (8003d80 <HAL_TIMEx_MasterConfigSynchronization+0x98>)
 8003d08:	4d1e      	ldr	r5, [pc, #120]	@ (8003d84 <HAL_TIMEx_MasterConfigSynchronization+0x9c>)
 8003d0a:	42aa      	cmp	r2, r5
 8003d0c:	bf18      	it	ne
 8003d0e:	42b2      	cmpne	r2, r6
 8003d10:	d103      	bne.n	8003d1a <HAL_TIMEx_MasterConfigSynchronization+0x32>
  {
    /* Check the parameters */
    assert_param(IS_TIM_TRGO2_SOURCE(sMasterConfig->MasterOutputTrigger2));

    /* Clear the MMS2 bits */
    tmpcr2 &= ~TIM_CR2_MMS2;
 8003d12:	f420 0070 	bic.w	r0, r0, #15728640	@ 0xf00000
    /* Select the TRGO2 source*/
    tmpcr2 |= sMasterConfig->MasterOutputTrigger2;
 8003d16:	684d      	ldr	r5, [r1, #4]
 8003d18:	4328      	orrs	r0, r5
  }

  /* Reset the MMS Bits */
  tmpcr2 &= ~TIM_CR2_MMS;
 8003d1a:	f020 0070 	bic.w	r0, r0, #112	@ 0x70
  /* Select the TRGO source */
  tmpcr2 |=  sMasterConfig->MasterOutputTrigger;
 8003d1e:	680d      	ldr	r5, [r1, #0]
 8003d20:	4328      	orrs	r0, r5

  /* Update TIMx CR2 */
  htim->Instance->CR2 = tmpcr2;
 8003d22:	6050      	str	r0, [r2, #4]

  if (IS_TIM_SLAVE_INSTANCE(htim->Instance))
 8003d24:	681a      	ldr	r2, [r3, #0]
 8003d26:	4816      	ldr	r0, [pc, #88]	@ (8003d80 <HAL_TIMEx_MasterConfigSynchronization+0x98>)
 8003d28:	f1b2 4f80 	cmp.w	r2, #1073741824	@ 0x40000000
 8003d2c:	bf18      	it	ne
 8003d2e:	4282      	cmpne	r2, r0
 8003d30:	d017      	beq.n	8003d62 <HAL_TIMEx_MasterConfigSynchronization+0x7a>
 8003d32:	f5a0 407c 	sub.w	r0, r0, #64512	@ 0xfc00
 8003d36:	4282      	cmp	r2, r0
 8003d38:	d013      	beq.n	8003d62 <HAL_TIMEx_MasterConfigSynchronization+0x7a>
 8003d3a:	f500 6080 	add.w	r0, r0, #1024	@ 0x400
 8003d3e:	4282      	cmp	r2, r0
 8003d40:	d00f      	beq.n	8003d62 <HAL_TIMEx_MasterConfigSynchronization+0x7a>
 8003d42:	f500 6080 	add.w	r0, r0, #1024	@ 0x400
 8003d46:	4282      	cmp	r2, r0
 8003d48:	d00b      	beq.n	8003d62 <HAL_TIMEx_MasterConfigSynchronization+0x7a>
 8003d4a:	f500 4078 	add.w	r0, r0, #63488	@ 0xf800
 8003d4e:	4282      	cmp	r2, r0
 8003d50:	d007      	beq.n	8003d62 <HAL_TIMEx_MasterConfigSynchronization+0x7a>
 8003d52:	f5a0 406c 	sub.w	r0, r0, #60416	@ 0xec00
 8003d56:	4282      	cmp	r2, r0
 8003d58:	d003      	beq.n	8003d62 <HAL_TIMEx_MasterConfigSynchronization+0x7a>
 8003d5a:	f500 3094 	add.w	r0, r0, #75776	@ 0x12800
 8003d5e:	4282      	cmp	r2, r0
 8003d60:	d104      	bne.n	8003d6c <HAL_TIMEx_MasterConfigSynchronization+0x84>
  {
    /* Reset the MSM Bit */
    tmpsmcr &= ~TIM_SMCR_MSM;
 8003d62:	f024 0480 	bic.w	r4, r4, #128	@ 0x80
    /* Set master mode */
    tmpsmcr |= sMasterConfig->MasterSlaveMode;
 8003d66:	6889      	ldr	r1, [r1, #8]
 8003d68:	4321      	orrs	r1, r4

    /* Update TIMx SMCR */
    htim->Instance->SMCR = tmpsmcr;
 8003d6a:	6091      	str	r1, [r2, #8]
  }

  /* Change the htim state */
  htim->State = HAL_TIM_STATE_READY;
 8003d6c:	2201      	movs	r2, #1
 8003d6e:	f883 203d 	strb.w	r2, [r3, #61]	@ 0x3d

  __HAL_UNLOCK(htim);
 8003d72:	2000      	movs	r0, #0
 8003d74:	f883 003c 	strb.w	r0, [r3, #60]	@ 0x3c

  return HAL_OK;
}
 8003d78:	bc70      	pop	{r4, r5, r6}
 8003d7a:	4770      	bx	lr
  __HAL_LOCK(htim);
 8003d7c:	2002      	movs	r0, #2
}
 8003d7e:	4770      	bx	lr
 8003d80:	40010000 	.word	0x40010000
 8003d84:	40010400 	.word	0x40010400

08003d88 <NMI_Handler>:
{
  /* USER CODE BEGIN NonMaskableInt_IRQn 0 */

  /* USER CODE END NonMaskableInt_IRQn 0 */
  /* USER CODE BEGIN NonMaskableInt_IRQn 1 */
   while (1)
 8003d88:	e7fe      	b.n	8003d88 <NMI_Handler>

08003d8a <HardFault_Handler>:
void HardFault_Handler(void)
{
  /* USER CODE BEGIN HardFault_IRQn 0 */

  /* USER CODE END HardFault_IRQn 0 */
  while (1)
 8003d8a:	e7fe      	b.n	8003d8a <HardFault_Handler>

08003d8c <MemManage_Handler>:
void MemManage_Handler(void)
{
  /* USER CODE BEGIN MemoryManagement_IRQn 0 */

  /* USER CODE END MemoryManagement_IRQn 0 */
  while (1)
 8003d8c:	e7fe      	b.n	8003d8c <MemManage_Handler>

08003d8e <BusFault_Handler>:
void BusFault_Handler(void)
{
  /* USER CODE BEGIN BusFault_IRQn 0 */

  /* USER CODE END BusFault_IRQn 0 */
  while (1)
 8003d8e:	e7fe      	b.n	8003d8e <BusFault_Handler>

08003d90 <UsageFault_Handler>:
void UsageFault_Handler(void)
{
  /* USER CODE BEGIN UsageFault_IRQn 0 */

  /* USER CODE END UsageFault_IRQn 0 */
  while (1)
 8003d90:	e7fe      	b.n	8003d90 <UsageFault_Handler>

08003d92 <SVC_Handler>:

  /* USER CODE END SVCall_IRQn 0 */
  /* USER CODE BEGIN SVCall_IRQn 1 */

  /* USER CODE END SVCall_IRQn 1 */
}
 8003d92:	4770      	bx	lr

08003d94 <DebugMon_Handler>:

  /* USER CODE END DebugMonitor_IRQn 0 */
  /* USER CODE BEGIN DebugMonitor_IRQn 1 */

  /* USER CODE END DebugMonitor_IRQn 1 */
}
 8003d94:	4770      	bx	lr

08003d96 <PendSV_Handler>:

  /* USER CODE END PendSV_IRQn 0 */
  /* USER CODE BEGIN PendSV_IRQn 1 */

  /* USER CODE END PendSV_IRQn 1 */
}
 8003d96:	4770      	bx	lr

08003d98 <SysTick_Handler>:

/**
  * @brief This function handles System tick timer.
  */
void SysTick_Handler(void)
{
 8003d98:	b508      	push	{r3, lr}
  /* USER CODE BEGIN SysTick_IRQn 0 */

  /* USER CODE END SysTick_IRQn 0 */
  HAL_IncTick();
 8003d9a:	f7fc fc55 	bl	8000648 <HAL_IncTick>
  /* USER CODE BEGIN SysTick_IRQn 1 */

  /* USER CODE END SysTick_IRQn 1 */
}
 8003d9e:	bd08      	pop	{r3, pc}

08003da0 <OTG_FS_IRQHandler>:

/**
  * @brief This function handles USB On The Go FS global interrupt.
  */
void OTG_FS_IRQHandler(void)
{
 8003da0:	b508      	push	{r3, lr}
  /* USER CODE BEGIN OTG_FS_IRQn 0 */

  /* USER CODE END OTG_FS_IRQn 0 */
  HAL_PCD_IRQHandler(&hpcd_USB_OTG_FS);
 8003da2:	4802      	ldr	r0, [pc, #8]	@ (8003dac <OTG_FS_IRQHandler+0xc>)
 8003da4:	f7fd fc67 	bl	8001676 <HAL_PCD_IRQHandler>
  /* USER CODE BEGIN OTG_FS_IRQn 1 */

  /* USER CODE END OTG_FS_IRQn 1 */
}
 8003da8:	bd08      	pop	{r3, pc}
 8003daa:	bf00      	nop
 8003dac:	20000908 	.word	0x20000908

08003db0 <USB_CoreReset>:
  * @brief  Reset the USB Core (needed after USB clock settings change)
  * @param  USBx  Selected device
  * @retval HAL status
  */
static HAL_StatusTypeDef USB_CoreReset(USB_OTG_GlobalTypeDef *USBx)
{
 8003db0:	b082      	sub	sp, #8
  __IO uint32_t count = 0U;
 8003db2:	2300      	movs	r3, #0
 8003db4:	9301      	str	r3, [sp, #4]

  /* Wait for AHB master IDLE state. */
  do
  {
    count++;
 8003db6:	9b01      	ldr	r3, [sp, #4]
 8003db8:	3301      	adds	r3, #1
 8003dba:	9301      	str	r3, [sp, #4]

    if (count > HAL_USB_TIMEOUT)
 8003dbc:	9b01      	ldr	r3, [sp, #4]
 8003dbe:	f1b3 6f70 	cmp.w	r3, #251658240	@ 0xf000000
 8003dc2:	d815      	bhi.n	8003df0 <USB_CoreReset+0x40>
    {
      return HAL_TIMEOUT;
    }
  } while ((USBx->GRSTCTL & USB_OTG_GRSTCTL_AHBIDL) == 0U);
 8003dc4:	6903      	ldr	r3, [r0, #16]
 8003dc6:	2b00      	cmp	r3, #0
 8003dc8:	daf5      	bge.n	8003db6 <USB_CoreReset+0x6>

  /* Core Soft Reset */
  count = 0U;
 8003dca:	2300      	movs	r3, #0
 8003dcc:	9301      	str	r3, [sp, #4]
  USBx->GRSTCTL |= USB_OTG_GRSTCTL_CSRST;
 8003dce:	6903      	ldr	r3, [r0, #16]
 8003dd0:	f043 0301 	orr.w	r3, r3, #1
 8003dd4:	6103      	str	r3, [r0, #16]

  do
  {
    count++;
 8003dd6:	9b01      	ldr	r3, [sp, #4]
 8003dd8:	3301      	adds	r3, #1
 8003dda:	9301      	str	r3, [sp, #4]

    if (count > HAL_USB_TIMEOUT)
 8003ddc:	9b01      	ldr	r3, [sp, #4]
 8003dde:	f1b3 6f70 	cmp.w	r3, #251658240	@ 0xf000000
 8003de2:	d808      	bhi.n	8003df6 <USB_CoreReset+0x46>
    {
      return HAL_TIMEOUT;
    }
  } while ((USBx->GRSTCTL & USB_OTG_GRSTCTL_CSRST) == USB_OTG_GRSTCTL_CSRST);
 8003de4:	6903      	ldr	r3, [r0, #16]
 8003de6:	f013 0f01 	tst.w	r3, #1
 8003dea:	d1f4      	bne.n	8003dd6 <USB_CoreReset+0x26>

  return HAL_OK;
 8003dec:	2000      	movs	r0, #0
 8003dee:	e000      	b.n	8003df2 <USB_CoreReset+0x42>
      return HAL_TIMEOUT;
 8003df0:	2003      	movs	r0, #3
}
 8003df2:	b002      	add	sp, #8
 8003df4:	4770      	bx	lr
      return HAL_TIMEOUT;
 8003df6:	2003      	movs	r0, #3
 8003df8:	e7fb      	b.n	8003df2 <USB_CoreReset+0x42>
	...

08003dfc <USB_CoreInit>:
{
 8003dfc:	b084      	sub	sp, #16
 8003dfe:	b510      	push	{r4, lr}
 8003e00:	4604      	mov	r4, r0
 8003e02:	a803      	add	r0, sp, #12
 8003e04:	e880 000e 	stmia.w	r0, {r1, r2, r3}
  if (cfg.phy_itface == USB_OTG_ULPI_PHY)
 8003e08:	f89d 3011 	ldrb.w	r3, [sp, #17]
 8003e0c:	2b01      	cmp	r3, #1
 8003e0e:	d11f      	bne.n	8003e50 <USB_CoreInit+0x54>
    USBx->GCCFG &= ~(USB_OTG_GCCFG_PWRDWN);
 8003e10:	6ba3      	ldr	r3, [r4, #56]	@ 0x38
 8003e12:	f423 3380 	bic.w	r3, r3, #65536	@ 0x10000
 8003e16:	63a3      	str	r3, [r4, #56]	@ 0x38
    USBx->GUSBCFG &= ~(USB_OTG_GUSBCFG_TSDPS | USB_OTG_GUSBCFG_ULPIFSLS | USB_OTG_GUSBCFG_PHYSEL);
 8003e18:	68e2      	ldr	r2, [r4, #12]
 8003e1a:	4b1f      	ldr	r3, [pc, #124]	@ (8003e98 <USB_CoreInit+0x9c>)
 8003e1c:	4013      	ands	r3, r2
 8003e1e:	60e3      	str	r3, [r4, #12]
    USBx->GUSBCFG &= ~(USB_OTG_GUSBCFG_ULPIEVBUSD | USB_OTG_GUSBCFG_ULPIEVBUSI);
 8003e20:	68e3      	ldr	r3, [r4, #12]
 8003e22:	f423 1340 	bic.w	r3, r3, #3145728	@ 0x300000
 8003e26:	60e3      	str	r3, [r4, #12]
    if (cfg.use_external_vbus == 1U)
 8003e28:	f89d 3018 	ldrb.w	r3, [sp, #24]
 8003e2c:	2b01      	cmp	r3, #1
 8003e2e:	d00a      	beq.n	8003e46 <USB_CoreInit+0x4a>
    ret = USB_CoreReset(USBx);
 8003e30:	4620      	mov	r0, r4
 8003e32:	f7ff ffbd 	bl	8003db0 <USB_CoreReset>
  if (cfg.dma_enable == 1U)
 8003e36:	f89d 300e 	ldrb.w	r3, [sp, #14]
 8003e3a:	2b01      	cmp	r3, #1
 8003e3c:	d01c      	beq.n	8003e78 <USB_CoreInit+0x7c>
}
 8003e3e:	e8bd 4010 	ldmia.w	sp!, {r4, lr}
 8003e42:	b004      	add	sp, #16
 8003e44:	4770      	bx	lr
      USBx->GUSBCFG |= USB_OTG_GUSBCFG_ULPIEVBUSD;
 8003e46:	68e3      	ldr	r3, [r4, #12]
 8003e48:	f443 1380 	orr.w	r3, r3, #1048576	@ 0x100000
 8003e4c:	60e3      	str	r3, [r4, #12]
 8003e4e:	e7ef      	b.n	8003e30 <USB_CoreInit+0x34>
    USBx->GUSBCFG |= USB_OTG_GUSBCFG_PHYSEL;
 8003e50:	68e3      	ldr	r3, [r4, #12]
 8003e52:	f043 0340 	orr.w	r3, r3, #64	@ 0x40
 8003e56:	60e3      	str	r3, [r4, #12]
    ret = USB_CoreReset(USBx);
 8003e58:	4620      	mov	r0, r4
 8003e5a:	f7ff ffa9 	bl	8003db0 <USB_CoreReset>
    if (cfg.battery_charging_enable == 0U)
 8003e5e:	f89d 3015 	ldrb.w	r3, [sp, #21]
 8003e62:	b923      	cbnz	r3, 8003e6e <USB_CoreInit+0x72>
      USBx->GCCFG |= USB_OTG_GCCFG_PWRDWN;
 8003e64:	6ba3      	ldr	r3, [r4, #56]	@ 0x38
 8003e66:	f443 3380 	orr.w	r3, r3, #65536	@ 0x10000
 8003e6a:	63a3      	str	r3, [r4, #56]	@ 0x38
 8003e6c:	e7e3      	b.n	8003e36 <USB_CoreInit+0x3a>
      USBx->GCCFG &= ~(USB_OTG_GCCFG_PWRDWN);
 8003e6e:	6ba3      	ldr	r3, [r4, #56]	@ 0x38
 8003e70:	f423 3380 	bic.w	r3, r3, #65536	@ 0x10000
 8003e74:	63a3      	str	r3, [r4, #56]	@ 0x38
 8003e76:	e7de      	b.n	8003e36 <USB_CoreInit+0x3a>
    USBx->GDFIFOCFG &= ~(0xFFFFU << 16);
 8003e78:	6de3      	ldr	r3, [r4, #92]	@ 0x5c
 8003e7a:	b29b      	uxth	r3, r3
 8003e7c:	65e3      	str	r3, [r4, #92]	@ 0x5c
    USBx->GDFIFOCFG |= 0x3EEU << 16;
 8003e7e:	6de2      	ldr	r2, [r4, #92]	@ 0x5c
 8003e80:	4b06      	ldr	r3, [pc, #24]	@ (8003e9c <USB_CoreInit+0xa0>)
 8003e82:	4313      	orrs	r3, r2
 8003e84:	65e3      	str	r3, [r4, #92]	@ 0x5c
    USBx->GAHBCFG |= USB_OTG_GAHBCFG_HBSTLEN_2;
 8003e86:	68a3      	ldr	r3, [r4, #8]
 8003e88:	f043 0306 	orr.w	r3, r3, #6
 8003e8c:	60a3      	str	r3, [r4, #8]
    USBx->GAHBCFG |= USB_OTG_GAHBCFG_DMAEN;
 8003e8e:	68a3      	ldr	r3, [r4, #8]
 8003e90:	f043 0320 	orr.w	r3, r3, #32
 8003e94:	60a3      	str	r3, [r4, #8]
 8003e96:	e7d2      	b.n	8003e3e <USB_CoreInit+0x42>
 8003e98:	ffbdffbf 	.word	0xffbdffbf
 8003e9c:	03ee0000 	.word	0x03ee0000

08003ea0 <USB_SetTurnaroundTime>:
  if (speed == USBD_FS_SPEED)
 8003ea0:	2a02      	cmp	r2, #2
 8003ea2:	d00a      	beq.n	8003eba <USB_SetTurnaroundTime+0x1a>
    UsbTrd = USBD_HS_TRDT_VALUE;
 8003ea4:	2209      	movs	r2, #9
  USBx->GUSBCFG &= ~USB_OTG_GUSBCFG_TRDT;
 8003ea6:	68c3      	ldr	r3, [r0, #12]
 8003ea8:	f423 5370 	bic.w	r3, r3, #15360	@ 0x3c00
 8003eac:	60c3      	str	r3, [r0, #12]
  USBx->GUSBCFG |= (uint32_t)((UsbTrd << 10) & USB_OTG_GUSBCFG_TRDT);
 8003eae:	68c3      	ldr	r3, [r0, #12]
 8003eb0:	ea43 2382 	orr.w	r3, r3, r2, lsl #10
 8003eb4:	60c3      	str	r3, [r0, #12]
}
 8003eb6:	2000      	movs	r0, #0
 8003eb8:	4770      	bx	lr
    if ((hclk >= 14200000U) && (hclk < 15000000U))
 8003eba:	4b20      	ldr	r3, [pc, #128]	@ (8003f3c <USB_SetTurnaroundTime+0x9c>)
 8003ebc:	440b      	add	r3, r1
 8003ebe:	4a20      	ldr	r2, [pc, #128]	@ (8003f40 <USB_SetTurnaroundTime+0xa0>)
 8003ec0:	4293      	cmp	r3, r2
 8003ec2:	d929      	bls.n	8003f18 <USB_SetTurnaroundTime+0x78>
    else if ((hclk >= 15000000U) && (hclk < 16000000U))
 8003ec4:	4b1f      	ldr	r3, [pc, #124]	@ (8003f44 <USB_SetTurnaroundTime+0xa4>)
 8003ec6:	440b      	add	r3, r1
 8003ec8:	4a1f      	ldr	r2, [pc, #124]	@ (8003f48 <USB_SetTurnaroundTime+0xa8>)
 8003eca:	4293      	cmp	r3, r2
 8003ecc:	d926      	bls.n	8003f1c <USB_SetTurnaroundTime+0x7c>
    else if ((hclk >= 16000000U) && (hclk < 17200000U))
 8003ece:	4b1f      	ldr	r3, [pc, #124]	@ (8003f4c <USB_SetTurnaroundTime+0xac>)
 8003ed0:	440b      	add	r3, r1
 8003ed2:	4a1f      	ldr	r2, [pc, #124]	@ (8003f50 <USB_SetTurnaroundTime+0xb0>)
 8003ed4:	4293      	cmp	r3, r2
 8003ed6:	d923      	bls.n	8003f20 <USB_SetTurnaroundTime+0x80>
    else if ((hclk >= 17200000U) && (hclk < 18500000U))
 8003ed8:	4b1e      	ldr	r3, [pc, #120]	@ (8003f54 <USB_SetTurnaroundTime+0xb4>)
 8003eda:	440b      	add	r3, r1
 8003edc:	4a1e      	ldr	r2, [pc, #120]	@ (8003f58 <USB_SetTurnaroundTime+0xb8>)
 8003ede:	4293      	cmp	r3, r2
 8003ee0:	d320      	bcc.n	8003f24 <USB_SetTurnaroundTime+0x84>
    else if ((hclk >= 18500000U) && (hclk < 20000000U))
 8003ee2:	4b1e      	ldr	r3, [pc, #120]	@ (8003f5c <USB_SetTurnaroundTime+0xbc>)
 8003ee4:	440b      	add	r3, r1
 8003ee6:	4a1e      	ldr	r2, [pc, #120]	@ (8003f60 <USB_SetTurnaroundTime+0xc0>)
 8003ee8:	4293      	cmp	r3, r2
 8003eea:	d91d      	bls.n	8003f28 <USB_SetTurnaroundTime+0x88>
    else if ((hclk >= 20000000U) && (hclk < 21800000U))
 8003eec:	4b1d      	ldr	r3, [pc, #116]	@ (8003f64 <USB_SetTurnaroundTime+0xc4>)
 8003eee:	440b      	add	r3, r1
 8003ef0:	4a1d      	ldr	r2, [pc, #116]	@ (8003f68 <USB_SetTurnaroundTime+0xc8>)
 8003ef2:	4293      	cmp	r3, r2
 8003ef4:	d31a      	bcc.n	8003f2c <USB_SetTurnaroundTime+0x8c>
    else if ((hclk >= 21800000U) && (hclk < 24000000U))
 8003ef6:	4b1d      	ldr	r3, [pc, #116]	@ (8003f6c <USB_SetTurnaroundTime+0xcc>)
 8003ef8:	440b      	add	r3, r1
 8003efa:	4a1d      	ldr	r2, [pc, #116]	@ (8003f70 <USB_SetTurnaroundTime+0xd0>)
 8003efc:	4293      	cmp	r3, r2
 8003efe:	d317      	bcc.n	8003f30 <USB_SetTurnaroundTime+0x90>
    else if ((hclk >= 24000000U) && (hclk < 27700000U))
 8003f00:	4b1c      	ldr	r3, [pc, #112]	@ (8003f74 <USB_SetTurnaroundTime+0xd4>)
 8003f02:	440b      	add	r3, r1
 8003f04:	4a1c      	ldr	r2, [pc, #112]	@ (8003f78 <USB_SetTurnaroundTime+0xd8>)
 8003f06:	4293      	cmp	r3, r2
 8003f08:	d314      	bcc.n	8003f34 <USB_SetTurnaroundTime+0x94>
    else if ((hclk >= 27700000U) && (hclk < 32000000U))
 8003f0a:	4b1c      	ldr	r3, [pc, #112]	@ (8003f7c <USB_SetTurnaroundTime+0xdc>)
 8003f0c:	440b      	add	r3, r1
 8003f0e:	4a1c      	ldr	r2, [pc, #112]	@ (8003f80 <USB_SetTurnaroundTime+0xe0>)
 8003f10:	4293      	cmp	r3, r2
 8003f12:	d211      	bcs.n	8003f38 <USB_SetTurnaroundTime+0x98>
      UsbTrd = 0x7U;
 8003f14:	2207      	movs	r2, #7
 8003f16:	e7c6      	b.n	8003ea6 <USB_SetTurnaroundTime+0x6>
      UsbTrd = 0xFU;
 8003f18:	220f      	movs	r2, #15
 8003f1a:	e7c4      	b.n	8003ea6 <USB_SetTurnaroundTime+0x6>
      UsbTrd = 0xEU;
 8003f1c:	220e      	movs	r2, #14
 8003f1e:	e7c2      	b.n	8003ea6 <USB_SetTurnaroundTime+0x6>
      UsbTrd = 0xDU;
 8003f20:	220d      	movs	r2, #13
 8003f22:	e7c0      	b.n	8003ea6 <USB_SetTurnaroundTime+0x6>
      UsbTrd = 0xCU;
 8003f24:	220c      	movs	r2, #12
 8003f26:	e7be      	b.n	8003ea6 <USB_SetTurnaroundTime+0x6>
      UsbTrd = 0xBU;
 8003f28:	220b      	movs	r2, #11
 8003f2a:	e7bc      	b.n	8003ea6 <USB_SetTurnaroundTime+0x6>
      UsbTrd = 0xAU;
 8003f2c:	220a      	movs	r2, #10
 8003f2e:	e7ba      	b.n	8003ea6 <USB_SetTurnaroundTime+0x6>
      UsbTrd = 0x9U;
 8003f30:	2209      	movs	r2, #9
 8003f32:	e7b8      	b.n	8003ea6 <USB_SetTurnaroundTime+0x6>
      UsbTrd = 0x8U;
 8003f34:	2208      	movs	r2, #8
 8003f36:	e7b6      	b.n	8003ea6 <USB_SetTurnaroundTime+0x6>
      UsbTrd = 0x6U;
 8003f38:	2206      	movs	r2, #6
 8003f3a:	e7b4      	b.n	8003ea6 <USB_SetTurnaroundTime+0x6>
 8003f3c:	ff275340 	.word	0xff275340
 8003f40:	000c34ff 	.word	0x000c34ff
 8003f44:	ff1b1e40 	.word	0xff1b1e40
 8003f48:	000f423f 	.word	0x000f423f
 8003f4c:	ff0bdc00 	.word	0xff0bdc00
 8003f50:	00124f7f 	.word	0x00124f7f
 8003f54:	fef98c80 	.word	0xfef98c80
 8003f58:	0013d620 	.word	0x0013d620
 8003f5c:	fee5b660 	.word	0xfee5b660
 8003f60:	0016e35f 	.word	0x0016e35f
 8003f64:	feced300 	.word	0xfeced300
 8003f68:	001b7740 	.word	0x001b7740
 8003f6c:	feb35bc0 	.word	0xfeb35bc0
 8003f70:	002191c0 	.word	0x002191c0
 8003f74:	fe91ca00 	.word	0xfe91ca00
 8003f78:	00387520 	.word	0x00387520
 8003f7c:	fe5954e0 	.word	0xfe5954e0
 8003f80:	00419ce0 	.word	0x00419ce0

08003f84 <USB_EnableGlobalInt>:
  USBx->GAHBCFG |= USB_OTG_GAHBCFG_GINT;
 8003f84:	6883      	ldr	r3, [r0, #8]
 8003f86:	f043 0301 	orr.w	r3, r3, #1
 8003f8a:	6083      	str	r3, [r0, #8]
}
 8003f8c:	2000      	movs	r0, #0
 8003f8e:	4770      	bx	lr

08003f90 <USB_DisableGlobalInt>:
  USBx->GAHBCFG &= ~USB_OTG_GAHBCFG_GINT;
 8003f90:	6883      	ldr	r3, [r0, #8]
 8003f92:	f023 0301 	bic.w	r3, r3, #1
 8003f96:	6083      	str	r3, [r0, #8]
}
 8003f98:	2000      	movs	r0, #0
 8003f9a:	4770      	bx	lr

08003f9c <USB_FlushTxFifo>:
{
 8003f9c:	b082      	sub	sp, #8
  __IO uint32_t count = 0U;
 8003f9e:	2300      	movs	r3, #0
 8003fa0:	9301      	str	r3, [sp, #4]
    count++;
 8003fa2:	9b01      	ldr	r3, [sp, #4]
 8003fa4:	3301      	adds	r3, #1
 8003fa6:	9301      	str	r3, [sp, #4]
    if (count > HAL_USB_TIMEOUT)
 8003fa8:	9b01      	ldr	r3, [sp, #4]
 8003faa:	f1b3 6f70 	cmp.w	r3, #251658240	@ 0xf000000
 8003fae:	d815      	bhi.n	8003fdc <USB_FlushTxFifo+0x40>
  } while ((USBx->GRSTCTL & USB_OTG_GRSTCTL_AHBIDL) == 0U);
 8003fb0:	6903      	ldr	r3, [r0, #16]
 8003fb2:	2b00      	cmp	r3, #0
 8003fb4:	daf5      	bge.n	8003fa2 <USB_FlushTxFifo+0x6>
  count = 0U;
 8003fb6:	2300      	movs	r3, #0
 8003fb8:	9301      	str	r3, [sp, #4]
  USBx->GRSTCTL = (USB_OTG_GRSTCTL_TXFFLSH | (num << 6));
 8003fba:	0189      	lsls	r1, r1, #6
 8003fbc:	f041 0120 	orr.w	r1, r1, #32
 8003fc0:	6101      	str	r1, [r0, #16]
    count++;
 8003fc2:	9b01      	ldr	r3, [sp, #4]
 8003fc4:	3301      	adds	r3, #1
 8003fc6:	9301      	str	r3, [sp, #4]
    if (count > HAL_USB_TIMEOUT)
 8003fc8:	9b01      	ldr	r3, [sp, #4]
 8003fca:	f1b3 6f70 	cmp.w	r3, #251658240	@ 0xf000000
 8003fce:	d808      	bhi.n	8003fe2 <USB_FlushTxFifo+0x46>
  } while ((USBx->GRSTCTL & USB_OTG_GRSTCTL_TXFFLSH) == USB_OTG_GRSTCTL_TXFFLSH);
 8003fd0:	6903      	ldr	r3, [r0, #16]
 8003fd2:	f013 0f20 	tst.w	r3, #32
 8003fd6:	d1f4      	bne.n	8003fc2 <USB_FlushTxFifo+0x26>
  return HAL_OK;
 8003fd8:	2000      	movs	r0, #0
 8003fda:	e000      	b.n	8003fde <USB_FlushTxFifo+0x42>
      return HAL_TIMEOUT;
 8003fdc:	2003      	movs	r0, #3
}
 8003fde:	b002      	add	sp, #8
 8003fe0:	4770      	bx	lr
      return HAL_TIMEOUT;
 8003fe2:	2003      	movs	r0, #3
 8003fe4:	e7fb      	b.n	8003fde <USB_FlushTxFifo+0x42>

08003fe6 <USB_FlushRxFifo>:
{
 8003fe6:	b082      	sub	sp, #8
  __IO uint32_t count = 0U;
 8003fe8:	2300      	movs	r3, #0
 8003fea:	9301      	str	r3, [sp, #4]
    count++;
 8003fec:	9b01      	ldr	r3, [sp, #4]
 8003fee:	3301      	adds	r3, #1
 8003ff0:	9301      	str	r3, [sp, #4]
    if (count > HAL_USB_TIMEOUT)
 8003ff2:	9b01      	ldr	r3, [sp, #4]
 8003ff4:	f1b3 6f70 	cmp.w	r3, #251658240	@ 0xf000000
 8003ff8:	d813      	bhi.n	8004022 <USB_FlushRxFifo+0x3c>
  } while ((USBx->GRSTCTL & USB_OTG_GRSTCTL_AHBIDL) == 0U);
 8003ffa:	6903      	ldr	r3, [r0, #16]
 8003ffc:	2b00      	cmp	r3, #0
 8003ffe:	daf5      	bge.n	8003fec <USB_FlushRxFifo+0x6>
  count = 0U;
 8004000:	2300      	movs	r3, #0
 8004002:	9301      	str	r3, [sp, #4]
  USBx->GRSTCTL = USB_OTG_GRSTCTL_RXFFLSH;
 8004004:	2310      	movs	r3, #16
 8004006:	6103      	str	r3, [r0, #16]
    count++;
 8004008:	9b01      	ldr	r3, [sp, #4]
 800400a:	3301      	adds	r3, #1
 800400c:	9301      	str	r3, [sp, #4]
    if (count > HAL_USB_TIMEOUT)
 800400e:	9b01      	ldr	r3, [sp, #4]
 8004010:	f1b3 6f70 	cmp.w	r3, #251658240	@ 0xf000000
 8004014:	d808      	bhi.n	8004028 <USB_FlushRxFifo+0x42>
  } while ((USBx->GRSTCTL & USB_OTG_GRSTCTL_RXFFLSH) == USB_OTG_GRSTCTL_RXFFLSH);
 8004016:	6903      	ldr	r3, [r0, #16]
 8004018:	f013 0f10 	tst.w	r3, #16
 800401c:	d1f4      	bne.n	8004008 <USB_FlushRxFifo+0x22>
  return HAL_OK;
 800401e:	2000      	movs	r0, #0
 8004020:	e000      	b.n	8004024 <USB_FlushRxFifo+0x3e>
      return HAL_TIMEOUT;
 8004022:	2003      	movs	r0, #3
}
 8004024:	b002      	add	sp, #8
 8004026:	4770      	bx	lr
      return HAL_TIMEOUT;
 8004028:	2003      	movs	r0, #3
 800402a:	e7fb      	b.n	8004024 <USB_FlushRxFifo+0x3e>

0800402c <USB_SetDevSpeed>:
  USBx_DEVICE->DCFG |= speed;
 800402c:	f8d0 3800 	ldr.w	r3, [r0, #2048]	@ 0x800
 8004030:	4319      	orrs	r1, r3
 8004032:	f8c0 1800 	str.w	r1, [r0, #2048]	@ 0x800
}
 8004036:	2000      	movs	r0, #0
 8004038:	4770      	bx	lr
	...

0800403c <USB_DevInit>:
{
 800403c:	b084      	sub	sp, #16
 800403e:	b5f8      	push	{r3, r4, r5, r6, r7, lr}
 8004040:	4604      	mov	r4, r0
 8004042:	a807      	add	r0, sp, #28
 8004044:	e880 000e 	stmia.w	r0, {r1, r2, r3}
  for (i = 0U; i < 15U; i++)
 8004048:	2300      	movs	r3, #0
 800404a:	e006      	b.n	800405a <USB_DevInit+0x1e>
    USBx->DIEPTXF[i] = 0U;
 800404c:	f103 0240 	add.w	r2, r3, #64	@ 0x40
 8004050:	eb04 0282 	add.w	r2, r4, r2, lsl #2
 8004054:	2100      	movs	r1, #0
 8004056:	6051      	str	r1, [r2, #4]
  for (i = 0U; i < 15U; i++)
 8004058:	3301      	adds	r3, #1
 800405a:	2b0e      	cmp	r3, #14
 800405c:	d9f6      	bls.n	800404c <USB_DevInit+0x10>
  if (cfg.vbus_sensing_enable == 0U)
 800405e:	f89d 6026 	ldrb.w	r6, [sp, #38]	@ 0x26
 8004062:	bb06      	cbnz	r6, 80040a6 <USB_DevInit+0x6a>
    USBx_DEVICE->DCTL |= USB_OTG_DCTL_SDIS;
 8004064:	f8d4 3804 	ldr.w	r3, [r4, #2052]	@ 0x804
 8004068:	f043 0302 	orr.w	r3, r3, #2
 800406c:	f8c4 3804 	str.w	r3, [r4, #2052]	@ 0x804
    USBx->GCCFG &= ~USB_OTG_GCCFG_VBDEN;
 8004070:	6ba3      	ldr	r3, [r4, #56]	@ 0x38
 8004072:	f423 1300 	bic.w	r3, r3, #2097152	@ 0x200000
 8004076:	63a3      	str	r3, [r4, #56]	@ 0x38
    USBx->GOTGCTL |= USB_OTG_GOTGCTL_BVALOEN;
 8004078:	6823      	ldr	r3, [r4, #0]
 800407a:	f043 0340 	orr.w	r3, r3, #64	@ 0x40
 800407e:	6023      	str	r3, [r4, #0]
    USBx->GOTGCTL |= USB_OTG_GOTGCTL_BVALOVAL;
 8004080:	6823      	ldr	r3, [r4, #0]
 8004082:	f043 0380 	orr.w	r3, r3, #128	@ 0x80
 8004086:	6023      	str	r3, [r4, #0]
  USBx_PCGCCTL = 0U;
 8004088:	2300      	movs	r3, #0
 800408a:	f8c4 3e00 	str.w	r3, [r4, #3584]	@ 0xe00
  if (cfg.phy_itface == USB_OTG_ULPI_PHY)
 800408e:	f89d 3021 	ldrb.w	r3, [sp, #33]	@ 0x21
 8004092:	2b01      	cmp	r3, #1
 8004094:	d111      	bne.n	80040ba <USB_DevInit+0x7e>
    if (cfg.speed == USBD_HS_SPEED)
 8004096:	f89d 301f 	ldrb.w	r3, [sp, #31]
 800409a:	b94b      	cbnz	r3, 80040b0 <USB_DevInit+0x74>
      (void)USB_SetDevSpeed(USBx, USB_OTG_SPEED_HIGH);
 800409c:	2100      	movs	r1, #0
 800409e:	4620      	mov	r0, r4
 80040a0:	f7ff ffc4 	bl	800402c <USB_SetDevSpeed>
 80040a4:	e00d      	b.n	80040c2 <USB_DevInit+0x86>
    USBx->GCCFG |= USB_OTG_GCCFG_VBDEN;
 80040a6:	6ba3      	ldr	r3, [r4, #56]	@ 0x38
 80040a8:	f443 1300 	orr.w	r3, r3, #2097152	@ 0x200000
 80040ac:	63a3      	str	r3, [r4, #56]	@ 0x38
 80040ae:	e7eb      	b.n	8004088 <USB_DevInit+0x4c>
      (void)USB_SetDevSpeed(USBx, USB_OTG_SPEED_HIGH_IN_FULL);
 80040b0:	2101      	movs	r1, #1
 80040b2:	4620      	mov	r0, r4
 80040b4:	f7ff ffba 	bl	800402c <USB_SetDevSpeed>
 80040b8:	e003      	b.n	80040c2 <USB_DevInit+0x86>
    (void)USB_SetDevSpeed(USBx, USB_OTG_SPEED_FULL);
 80040ba:	2103      	movs	r1, #3
 80040bc:	4620      	mov	r0, r4
 80040be:	f7ff ffb5 	bl	800402c <USB_SetDevSpeed>
  if (USB_FlushTxFifo(USBx, 0x10U) != HAL_OK) /* all Tx FIFOs */
 80040c2:	2110      	movs	r1, #16
 80040c4:	4620      	mov	r0, r4
 80040c6:	f7ff ff69 	bl	8003f9c <USB_FlushTxFifo>
 80040ca:	4605      	mov	r5, r0
 80040cc:	b100      	cbz	r0, 80040d0 <USB_DevInit+0x94>
    ret = HAL_ERROR;
 80040ce:	2501      	movs	r5, #1
  if (USB_FlushRxFifo(USBx) != HAL_OK)
 80040d0:	4620      	mov	r0, r4
 80040d2:	f7ff ff88 	bl	8003fe6 <USB_FlushRxFifo>
 80040d6:	b100      	cbz	r0, 80040da <USB_DevInit+0x9e>
    ret = HAL_ERROR;
 80040d8:	2501      	movs	r5, #1
  USBx_DEVICE->DIEPMSK = 0U;
 80040da:	f504 6c00 	add.w	ip, r4, #2048	@ 0x800
 80040de:	2300      	movs	r3, #0
 80040e0:	f8cc 3010 	str.w	r3, [ip, #16]
  USBx_DEVICE->DOEPMSK = 0U;
 80040e4:	f8cc 3014 	str.w	r3, [ip, #20]
  USBx_DEVICE->DAINTMSK = 0U;
 80040e8:	f8cc 301c 	str.w	r3, [ip, #28]
  for (i = 0U; i < cfg.dev_endpoints; i++)
 80040ec:	e00d      	b.n	800410a <USB_DevInit+0xce>
        USBx_INEP(i)->DIEPCTL = USB_OTG_DIEPCTL_EPDIS | USB_OTG_DIEPCTL_SNAK;
 80040ee:	f04f 4090 	mov.w	r0, #1207959552	@ 0x48000000
 80040f2:	f8c2 0900 	str.w	r0, [r2, #2304]	@ 0x900
 80040f6:	e002      	b.n	80040fe <USB_DevInit+0xc2>
      USBx_INEP(i)->DIEPCTL = 0U;
 80040f8:	2000      	movs	r0, #0
 80040fa:	f8c2 0900 	str.w	r0, [r2, #2304]	@ 0x900
    USBx_INEP(i)->DIEPTSIZ = 0U;
 80040fe:	2200      	movs	r2, #0
 8004100:	610a      	str	r2, [r1, #16]
    USBx_INEP(i)->DIEPINT  = 0xFB7FU;
 8004102:	f64f 327f 	movw	r2, #64383	@ 0xfb7f
 8004106:	608a      	str	r2, [r1, #8]
  for (i = 0U; i < cfg.dev_endpoints; i++)
 8004108:	3301      	adds	r3, #1
 800410a:	f89d 101c 	ldrb.w	r1, [sp, #28]
 800410e:	4299      	cmp	r1, r3
 8004110:	d90e      	bls.n	8004130 <USB_DevInit+0xf4>
    if ((USBx_INEP(i)->DIEPCTL & USB_OTG_DIEPCTL_EPENA) == USB_OTG_DIEPCTL_EPENA)
 8004112:	eb04 1243 	add.w	r2, r4, r3, lsl #5
 8004116:	f502 6110 	add.w	r1, r2, #2304	@ 0x900
 800411a:	f8d2 0900 	ldr.w	r0, [r2, #2304]	@ 0x900
 800411e:	2800      	cmp	r0, #0
 8004120:	daea      	bge.n	80040f8 <USB_DevInit+0xbc>
      if (i == 0U)
 8004122:	2b00      	cmp	r3, #0
 8004124:	d1e3      	bne.n	80040ee <USB_DevInit+0xb2>
        USBx_INEP(i)->DIEPCTL = USB_OTG_DIEPCTL_SNAK;
 8004126:	f04f 6000 	mov.w	r0, #134217728	@ 0x8000000
 800412a:	f8c2 0900 	str.w	r0, [r2, #2304]	@ 0x900
 800412e:	e7e6      	b.n	80040fe <USB_DevInit+0xc2>
  for (i = 0U; i < cfg.dev_endpoints; i++)
 8004130:	2300      	movs	r3, #0
 8004132:	e00a      	b.n	800414a <USB_DevInit+0x10e>
      if (i == 0U)
 8004134:	b1bb      	cbz	r3, 8004166 <USB_DevInit+0x12a>
        USBx_OUTEP(i)->DOEPCTL = USB_OTG_DOEPCTL_EPDIS | USB_OTG_DOEPCTL_SNAK;
 8004136:	f04f 4790 	mov.w	r7, #1207959552	@ 0x48000000
 800413a:	f8c2 7b00 	str.w	r7, [r2, #2816]	@ 0xb00
    USBx_OUTEP(i)->DOEPTSIZ = 0U;
 800413e:	2200      	movs	r2, #0
 8004140:	6102      	str	r2, [r0, #16]
    USBx_OUTEP(i)->DOEPINT  = 0xFB7FU;
 8004142:	f64f 327f 	movw	r2, #64383	@ 0xfb7f
 8004146:	6082      	str	r2, [r0, #8]
  for (i = 0U; i < cfg.dev_endpoints; i++)
 8004148:	3301      	adds	r3, #1
 800414a:	4299      	cmp	r1, r3
 800414c:	d910      	bls.n	8004170 <USB_DevInit+0x134>
    if ((USBx_OUTEP(i)->DOEPCTL & USB_OTG_DOEPCTL_EPENA) == USB_OTG_DOEPCTL_EPENA)
 800414e:	eb04 1243 	add.w	r2, r4, r3, lsl #5
 8004152:	f502 6030 	add.w	r0, r2, #2816	@ 0xb00
 8004156:	f8d2 7b00 	ldr.w	r7, [r2, #2816]	@ 0xb00
 800415a:	2f00      	cmp	r7, #0
 800415c:	dbea      	blt.n	8004134 <USB_DevInit+0xf8>
      USBx_OUTEP(i)->DOEPCTL = 0U;
 800415e:	2700      	movs	r7, #0
 8004160:	f8c2 7b00 	str.w	r7, [r2, #2816]	@ 0xb00
 8004164:	e7eb      	b.n	800413e <USB_DevInit+0x102>
        USBx_OUTEP(i)->DOEPCTL = USB_OTG_DOEPCTL_SNAK;
 8004166:	f04f 6700 	mov.w	r7, #134217728	@ 0x8000000
 800416a:	f8c2 7b00 	str.w	r7, [r2, #2816]	@ 0xb00
 800416e:	e7e6      	b.n	800413e <USB_DevInit+0x102>
  USBx_DEVICE->DIEPMSK &= ~(USB_OTG_DIEPMSK_TXFURM);
 8004170:	f8dc 3010 	ldr.w	r3, [ip, #16]
 8004174:	f423 7380 	bic.w	r3, r3, #256	@ 0x100
 8004178:	f8cc 3010 	str.w	r3, [ip, #16]
  USBx->GINTMSK = 0U;
 800417c:	2300      	movs	r3, #0
 800417e:	61a3      	str	r3, [r4, #24]
  USBx->GINTSTS = 0xBFFFFFFFU;
 8004180:	f06f 4380 	mvn.w	r3, #1073741824	@ 0x40000000
 8004184:	6163      	str	r3, [r4, #20]
  if (cfg.dma_enable == 0U)
 8004186:	f89d 301e 	ldrb.w	r3, [sp, #30]
 800418a:	b91b      	cbnz	r3, 8004194 <USB_DevInit+0x158>
    USBx->GINTMSK |= USB_OTG_GINTMSK_RXFLVLM;
 800418c:	69a3      	ldr	r3, [r4, #24]
 800418e:	f043 0310 	orr.w	r3, r3, #16
 8004192:	61a3      	str	r3, [r4, #24]
  USBx->GINTMSK |= USB_OTG_GINTMSK_USBSUSPM | USB_OTG_GINTMSK_USBRST |
 8004194:	69a2      	ldr	r2, [r4, #24]
 8004196:	4b0b      	ldr	r3, [pc, #44]	@ (80041c4 <USB_DevInit+0x188>)
 8004198:	4313      	orrs	r3, r2
 800419a:	61a3      	str	r3, [r4, #24]
  if (cfg.Sof_enable != 0U)
 800419c:	f89d 3022 	ldrb.w	r3, [sp, #34]	@ 0x22
 80041a0:	b11b      	cbz	r3, 80041aa <USB_DevInit+0x16e>
    USBx->GINTMSK |= USB_OTG_GINTMSK_SOFM;
 80041a2:	69a3      	ldr	r3, [r4, #24]
 80041a4:	f043 0308 	orr.w	r3, r3, #8
 80041a8:	61a3      	str	r3, [r4, #24]
  if (cfg.vbus_sensing_enable == 1U)
 80041aa:	2e01      	cmp	r6, #1
 80041ac:	d004      	beq.n	80041b8 <USB_DevInit+0x17c>
}
 80041ae:	4628      	mov	r0, r5
 80041b0:	e8bd 40f8 	ldmia.w	sp!, {r3, r4, r5, r6, r7, lr}
 80041b4:	b004      	add	sp, #16
 80041b6:	4770      	bx	lr
    USBx->GINTMSK |= (USB_OTG_GINTMSK_SRQIM | USB_OTG_GINTMSK_OTGINT);
 80041b8:	69a2      	ldr	r2, [r4, #24]
 80041ba:	4b03      	ldr	r3, [pc, #12]	@ (80041c8 <USB_DevInit+0x18c>)
 80041bc:	4313      	orrs	r3, r2
 80041be:	61a3      	str	r3, [r4, #24]
 80041c0:	e7f5      	b.n	80041ae <USB_DevInit+0x172>
 80041c2:	bf00      	nop
 80041c4:	803c3800 	.word	0x803c3800
 80041c8:	40000004 	.word	0x40000004

080041cc <USB_GetDevSpeed>:
  uint32_t DevEnumSpeed = USBx_DEVICE->DSTS & USB_OTG_DSTS_ENUMSPD;
 80041cc:	f8d0 3808 	ldr.w	r3, [r0, #2056]	@ 0x808
 80041d0:	f003 0306 	and.w	r3, r3, #6
  if (DevEnumSpeed == DSTS_ENUMSPD_HS_PHY_30MHZ_OR_60MHZ)
 80041d4:	2b02      	cmp	r3, #2
 80041d6:	d004      	beq.n	80041e2 <USB_GetDevSpeed+0x16>
 80041d8:	2b06      	cmp	r3, #6
 80041da:	d004      	beq.n	80041e6 <USB_GetDevSpeed+0x1a>
 80041dc:	b92b      	cbnz	r3, 80041ea <USB_GetDevSpeed+0x1e>
  uint32_t DevEnumSpeed = USBx_DEVICE->DSTS & USB_OTG_DSTS_ENUMSPD;
 80041de:	2000      	movs	r0, #0
 80041e0:	4770      	bx	lr
 80041e2:	2002      	movs	r0, #2
 80041e4:	4770      	bx	lr
 80041e6:	2002      	movs	r0, #2
 80041e8:	4770      	bx	lr
 80041ea:	200f      	movs	r0, #15
}
 80041ec:	4770      	bx	lr
	...

080041f0 <USB_ActivateEndpoint>:
{
 80041f0:	b510      	push	{r4, lr}
  uint32_t epnum = (uint32_t)ep->num;
 80041f2:	f891 c000 	ldrb.w	ip, [r1]
  if (ep->is_in == 1U)
 80041f6:	784b      	ldrb	r3, [r1, #1]
 80041f8:	2b01      	cmp	r3, #1
 80041fa:	d021      	beq.n	8004240 <USB_ActivateEndpoint+0x50>
    USBx_DEVICE->DAINTMSK |= USB_OTG_DAINTMSK_OEPM & ((uint32_t)(1UL << (ep->num & EP_ADDR_MSK)) << 16);
 80041fc:	f500 6e00 	add.w	lr, r0, #2048	@ 0x800
 8004200:	f8d0 381c 	ldr.w	r3, [r0, #2076]	@ 0x81c
 8004204:	f00c 040f 	and.w	r4, ip, #15
 8004208:	2201      	movs	r2, #1
 800420a:	40a2      	lsls	r2, r4
 800420c:	ea43 4302 	orr.w	r3, r3, r2, lsl #16
 8004210:	f8c0 381c 	str.w	r3, [r0, #2076]	@ 0x81c
    if (((USBx_OUTEP(epnum)->DOEPCTL) & USB_OTG_DOEPCTL_USBAEP) == 0U)
 8004214:	eb00 104c 	add.w	r0, r0, ip, lsl #5
 8004218:	f8d0 3b00 	ldr.w	r3, [r0, #2816]	@ 0xb00
 800421c:	f413 4f00 	tst.w	r3, #32768	@ 0x8000
 8004220:	d10c      	bne.n	800423c <USB_ActivateEndpoint+0x4c>
      USBx_OUTEP(epnum)->DOEPCTL |= (ep->maxpacket & USB_OTG_DOEPCTL_MPSIZ) |
 8004222:	f8d0 2b00 	ldr.w	r2, [r0, #2816]	@ 0xb00
 8004226:	688b      	ldr	r3, [r1, #8]
 8004228:	f3c3 030a 	ubfx	r3, r3, #0, #11
                                    ((uint32_t)ep->type << 18) |
 800422c:	7909      	ldrb	r1, [r1, #4]
      USBx_OUTEP(epnum)->DOEPCTL |= (ep->maxpacket & USB_OTG_DOEPCTL_MPSIZ) |
 800422e:	ea43 4381 	orr.w	r3, r3, r1, lsl #18
 8004232:	431a      	orrs	r2, r3
 8004234:	4b13      	ldr	r3, [pc, #76]	@ (8004284 <USB_ActivateEndpoint+0x94>)
 8004236:	4313      	orrs	r3, r2
 8004238:	f8c0 3b00 	str.w	r3, [r0, #2816]	@ 0xb00
}
 800423c:	2000      	movs	r0, #0
 800423e:	bd10      	pop	{r4, pc}
    USBx_DEVICE->DAINTMSK |= USB_OTG_DAINTMSK_IEPM & (uint32_t)(1UL << (ep->num & EP_ADDR_MSK));
 8004240:	f8d0 281c 	ldr.w	r2, [r0, #2076]	@ 0x81c
 8004244:	f00c 0e0f 	and.w	lr, ip, #15
 8004248:	fa03 f30e 	lsl.w	r3, r3, lr
 800424c:	b29b      	uxth	r3, r3
 800424e:	4313      	orrs	r3, r2
 8004250:	f8c0 381c 	str.w	r3, [r0, #2076]	@ 0x81c
    if ((USBx_INEP(epnum)->DIEPCTL & USB_OTG_DIEPCTL_USBAEP) == 0U)
 8004254:	eb00 104c 	add.w	r0, r0, ip, lsl #5
 8004258:	f8d0 3900 	ldr.w	r3, [r0, #2304]	@ 0x900
 800425c:	f413 4f00 	tst.w	r3, #32768	@ 0x8000
 8004260:	d1ec      	bne.n	800423c <USB_ActivateEndpoint+0x4c>
      USBx_INEP(epnum)->DIEPCTL |= (ep->maxpacket & USB_OTG_DIEPCTL_MPSIZ) |
 8004262:	f8d0 2900 	ldr.w	r2, [r0, #2304]	@ 0x900
 8004266:	688b      	ldr	r3, [r1, #8]
 8004268:	f3c3 030a 	ubfx	r3, r3, #0, #11
                                   ((uint32_t)ep->type << 18) | (epnum << 22) |
 800426c:	7909      	ldrb	r1, [r1, #4]
      USBx_INEP(epnum)->DIEPCTL |= (ep->maxpacket & USB_OTG_DIEPCTL_MPSIZ) |
 800426e:	ea43 4381 	orr.w	r3, r3, r1, lsl #18
                                   ((uint32_t)ep->type << 18) | (epnum << 22) |
 8004272:	ea43 538c 	orr.w	r3, r3, ip, lsl #22
      USBx_INEP(epnum)->DIEPCTL |= (ep->maxpacket & USB_OTG_DIEPCTL_MPSIZ) |
 8004276:	431a      	orrs	r2, r3
 8004278:	4b02      	ldr	r3, [pc, #8]	@ (8004284 <USB_ActivateEndpoint+0x94>)
 800427a:	4313      	orrs	r3, r2
 800427c:	f8c0 3900 	str.w	r3, [r0, #2304]	@ 0x900
 8004280:	e7dc      	b.n	800423c <USB_ActivateEndpoint+0x4c>
 8004282:	bf00      	nop
 8004284:	10008000 	.word	0x10008000

08004288 <USB_DeactivateEndpoint>:
{
 8004288:	b430      	push	{r4, r5}
  uint32_t epnum = (uint32_t)ep->num;
 800428a:	780b      	ldrb	r3, [r1, #0]
  if (ep->is_in == 1U)
 800428c:	784a      	ldrb	r2, [r1, #1]
 800428e:	2a01      	cmp	r2, #1
 8004290:	d026      	beq.n	80042e0 <USB_DeactivateEndpoint+0x58>
    if ((USBx_OUTEP(epnum)->DOEPCTL & USB_OTG_DOEPCTL_EPENA) == USB_OTG_DOEPCTL_EPENA)
 8004292:	eb00 1343 	add.w	r3, r0, r3, lsl #5
 8004296:	f8d3 2b00 	ldr.w	r2, [r3, #2816]	@ 0xb00
 800429a:	2a00      	cmp	r2, #0
 800429c:	db52      	blt.n	8004344 <USB_DeactivateEndpoint+0xbc>
    USBx_DEVICE->DEACHMSK &= ~(USB_OTG_DAINTMSK_OEPM & ((uint32_t)(1UL << (ep->num & EP_ADDR_MSK)) << 16));
 800429e:	f8d0 483c 	ldr.w	r4, [r0, #2108]	@ 0x83c
 80042a2:	780a      	ldrb	r2, [r1, #0]
 80042a4:	f002 020f 	and.w	r2, r2, #15
 80042a8:	f04f 0c01 	mov.w	ip, #1
 80042ac:	fa0c f202 	lsl.w	r2, ip, r2
 80042b0:	ea24 4202 	bic.w	r2, r4, r2, lsl #16
 80042b4:	f8c0 283c 	str.w	r2, [r0, #2108]	@ 0x83c
    USBx_DEVICE->DAINTMSK &= ~(USB_OTG_DAINTMSK_OEPM & ((uint32_t)(1UL << (ep->num & EP_ADDR_MSK)) << 16));
 80042b8:	f8d0 281c 	ldr.w	r2, [r0, #2076]	@ 0x81c
 80042bc:	7809      	ldrb	r1, [r1, #0]
 80042be:	f001 010f 	and.w	r1, r1, #15
 80042c2:	fa0c fc01 	lsl.w	ip, ip, r1
 80042c6:	ea22 420c 	bic.w	r2, r2, ip, lsl #16
 80042ca:	f8c0 281c 	str.w	r2, [r0, #2076]	@ 0x81c
    USBx_OUTEP(epnum)->DOEPCTL &= ~(USB_OTG_DOEPCTL_USBAEP |
 80042ce:	f8d3 1b00 	ldr.w	r1, [r3, #2816]	@ 0xb00
 80042d2:	4a23      	ldr	r2, [pc, #140]	@ (8004360 <USB_DeactivateEndpoint+0xd8>)
 80042d4:	400a      	ands	r2, r1
 80042d6:	f8c3 2b00 	str.w	r2, [r3, #2816]	@ 0xb00
}
 80042da:	2000      	movs	r0, #0
 80042dc:	bc30      	pop	{r4, r5}
 80042de:	4770      	bx	lr
    if ((USBx_INEP(epnum)->DIEPCTL & USB_OTG_DIEPCTL_EPENA) == USB_OTG_DIEPCTL_EPENA)
 80042e0:	eb00 1343 	add.w	r3, r0, r3, lsl #5
 80042e4:	f8d3 2900 	ldr.w	r2, [r3, #2304]	@ 0x900
 80042e8:	2a00      	cmp	r2, #0
 80042ea:	db1e      	blt.n	800432a <USB_DeactivateEndpoint+0xa2>
    USBx_DEVICE->DEACHMSK &= ~(USB_OTG_DAINTMSK_IEPM & (uint32_t)(1UL << (ep->num & EP_ADDR_MSK)));
 80042ec:	f8d0 583c 	ldr.w	r5, [r0, #2108]	@ 0x83c
 80042f0:	780a      	ldrb	r2, [r1, #0]
 80042f2:	f002 020f 	and.w	r2, r2, #15
 80042f6:	2401      	movs	r4, #1
 80042f8:	fa04 f202 	lsl.w	r2, r4, r2
 80042fc:	b292      	uxth	r2, r2
 80042fe:	ea25 0202 	bic.w	r2, r5, r2
 8004302:	f8c0 283c 	str.w	r2, [r0, #2108]	@ 0x83c
    USBx_DEVICE->DAINTMSK &= ~(USB_OTG_DAINTMSK_IEPM & (uint32_t)(1UL << (ep->num & EP_ADDR_MSK)));
 8004306:	f8d0 281c 	ldr.w	r2, [r0, #2076]	@ 0x81c
 800430a:	7809      	ldrb	r1, [r1, #0]
 800430c:	f001 010f 	and.w	r1, r1, #15
 8004310:	408c      	lsls	r4, r1
 8004312:	b2a4      	uxth	r4, r4
 8004314:	ea22 0204 	bic.w	r2, r2, r4
 8004318:	f8c0 281c 	str.w	r2, [r0, #2076]	@ 0x81c
    USBx_INEP(epnum)->DIEPCTL &= ~(USB_OTG_DIEPCTL_USBAEP |
 800431c:	f8d3 1900 	ldr.w	r1, [r3, #2304]	@ 0x900
 8004320:	4a10      	ldr	r2, [pc, #64]	@ (8004364 <USB_DeactivateEndpoint+0xdc>)
 8004322:	400a      	ands	r2, r1
 8004324:	f8c3 2900 	str.w	r2, [r3, #2304]	@ 0x900
 8004328:	e7d7      	b.n	80042da <USB_DeactivateEndpoint+0x52>
      USBx_INEP(epnum)->DIEPCTL |= USB_OTG_DIEPCTL_SNAK;
 800432a:	f8d3 2900 	ldr.w	r2, [r3, #2304]	@ 0x900
 800432e:	f042 6200 	orr.w	r2, r2, #134217728	@ 0x8000000
 8004332:	f8c3 2900 	str.w	r2, [r3, #2304]	@ 0x900
      USBx_INEP(epnum)->DIEPCTL |= USB_OTG_DIEPCTL_EPDIS;
 8004336:	f8d3 2900 	ldr.w	r2, [r3, #2304]	@ 0x900
 800433a:	f042 4280 	orr.w	r2, r2, #1073741824	@ 0x40000000
 800433e:	f8c3 2900 	str.w	r2, [r3, #2304]	@ 0x900
 8004342:	e7d3      	b.n	80042ec <USB_DeactivateEndpoint+0x64>
      USBx_OUTEP(epnum)->DOEPCTL |= USB_OTG_DOEPCTL_SNAK;
 8004344:	f8d3 2b00 	ldr.w	r2, [r3, #2816]	@ 0xb00
 8004348:	f042 6200 	orr.w	r2, r2, #134217728	@ 0x8000000
 800434c:	f8c3 2b00 	str.w	r2, [r3, #2816]	@ 0xb00
      USBx_OUTEP(epnum)->DOEPCTL |= USB_OTG_DOEPCTL_EPDIS;
 8004350:	f8d3 2b00 	ldr.w	r2, [r3, #2816]	@ 0xb00
 8004354:	f042 4280 	orr.w	r2, r2, #1073741824	@ 0x40000000
 8004358:	f8c3 2b00 	str.w	r2, [r3, #2816]	@ 0xb00
 800435c:	e79f      	b.n	800429e <USB_DeactivateEndpoint+0x16>
 800435e:	bf00      	nop
 8004360:	eff37800 	.word	0xeff37800
 8004364:	ec337800 	.word	0xec337800

08004368 <USB_EPStopXfer>:
{
 8004368:	b410      	push	{r4}
 800436a:	b083      	sub	sp, #12
 800436c:	4602      	mov	r2, r0
  __IO uint32_t count = 0U;
 800436e:	2300      	movs	r3, #0
 8004370:	9301      	str	r3, [sp, #4]
  if (ep->is_in == 1U)
 8004372:	7848      	ldrb	r0, [r1, #1]
 8004374:	2801      	cmp	r0, #1
 8004376:	d00b      	beq.n	8004390 <USB_EPStopXfer+0x28>
    if (((USBx_OUTEP(ep->num)->DOEPCTL) & USB_OTG_DOEPCTL_EPENA) == USB_OTG_DOEPCTL_EPENA)
 8004378:	780b      	ldrb	r3, [r1, #0]
 800437a:	eb02 1343 	add.w	r3, r2, r3, lsl #5
 800437e:	f8d3 0b00 	ldr.w	r0, [r3, #2816]	@ 0xb00
 8004382:	2800      	cmp	r0, #0
 8004384:	db2d      	blt.n	80043e2 <USB_EPStopXfer+0x7a>
  HAL_StatusTypeDef ret = HAL_OK;
 8004386:	2000      	movs	r0, #0
}
 8004388:	b003      	add	sp, #12
 800438a:	f85d 4b04 	ldr.w	r4, [sp], #4
 800438e:	4770      	bx	lr
    if (((USBx_INEP(ep->num)->DIEPCTL) & USB_OTG_DIEPCTL_EPENA) == USB_OTG_DIEPCTL_EPENA)
 8004390:	780b      	ldrb	r3, [r1, #0]
 8004392:	eb02 1343 	add.w	r3, r2, r3, lsl #5
 8004396:	f8d3 4900 	ldr.w	r4, [r3, #2304]	@ 0x900
 800439a:	2c00      	cmp	r4, #0
 800439c:	db01      	blt.n	80043a2 <USB_EPStopXfer+0x3a>
  HAL_StatusTypeDef ret = HAL_OK;
 800439e:	2000      	movs	r0, #0
 80043a0:	e7f2      	b.n	8004388 <USB_EPStopXfer+0x20>
      USBx_INEP(ep->num)->DIEPCTL |= (USB_OTG_DIEPCTL_SNAK);
 80043a2:	f8d3 4900 	ldr.w	r4, [r3, #2304]	@ 0x900
 80043a6:	f044 6400 	orr.w	r4, r4, #134217728	@ 0x8000000
 80043aa:	f8c3 4900 	str.w	r4, [r3, #2304]	@ 0x900
      USBx_INEP(ep->num)->DIEPCTL |= (USB_OTG_DIEPCTL_EPDIS);
 80043ae:	780b      	ldrb	r3, [r1, #0]
 80043b0:	eb02 1343 	add.w	r3, r2, r3, lsl #5
 80043b4:	f8d3 4900 	ldr.w	r4, [r3, #2304]	@ 0x900
 80043b8:	f044 4480 	orr.w	r4, r4, #1073741824	@ 0x40000000
 80043bc:	f8c3 4900 	str.w	r4, [r3, #2304]	@ 0x900
        count++;
 80043c0:	9b01      	ldr	r3, [sp, #4]
 80043c2:	3301      	adds	r3, #1
 80043c4:	9301      	str	r3, [sp, #4]
        if (count > 10000U)
 80043c6:	9c01      	ldr	r4, [sp, #4]
 80043c8:	f242 7310 	movw	r3, #10000	@ 0x2710
 80043cc:	429c      	cmp	r4, r3
 80043ce:	d8db      	bhi.n	8004388 <USB_EPStopXfer+0x20>
      } while (((USBx_INEP(ep->num)->DIEPCTL) & USB_OTG_DIEPCTL_EPENA) ==  USB_OTG_DIEPCTL_EPENA);
 80043d0:	780b      	ldrb	r3, [r1, #0]
 80043d2:	eb02 1343 	add.w	r3, r2, r3, lsl #5
 80043d6:	f8d3 3900 	ldr.w	r3, [r3, #2304]	@ 0x900
 80043da:	2b00      	cmp	r3, #0
 80043dc:	dbf0      	blt.n	80043c0 <USB_EPStopXfer+0x58>
  HAL_StatusTypeDef ret = HAL_OK;
 80043de:	2000      	movs	r0, #0
 80043e0:	e7d2      	b.n	8004388 <USB_EPStopXfer+0x20>
      USBx_OUTEP(ep->num)->DOEPCTL |= (USB_OTG_DOEPCTL_SNAK);
 80043e2:	f8d3 0b00 	ldr.w	r0, [r3, #2816]	@ 0xb00
 80043e6:	f040 6000 	orr.w	r0, r0, #134217728	@ 0x8000000
 80043ea:	f8c3 0b00 	str.w	r0, [r3, #2816]	@ 0xb00
      USBx_OUTEP(ep->num)->DOEPCTL |= (USB_OTG_DOEPCTL_EPDIS);
 80043ee:	780b      	ldrb	r3, [r1, #0]
 80043f0:	eb02 1343 	add.w	r3, r2, r3, lsl #5
 80043f4:	f8d3 0b00 	ldr.w	r0, [r3, #2816]	@ 0xb00
 80043f8:	f040 4080 	orr.w	r0, r0, #1073741824	@ 0x40000000
 80043fc:	f8c3 0b00 	str.w	r0, [r3, #2816]	@ 0xb00
        count++;
 8004400:	9b01      	ldr	r3, [sp, #4]
 8004402:	3301      	adds	r3, #1
 8004404:	9301      	str	r3, [sp, #4]
        if (count > 10000U)
 8004406:	9801      	ldr	r0, [sp, #4]
 8004408:	f242 7310 	movw	r3, #10000	@ 0x2710
 800440c:	4298      	cmp	r0, r3
 800440e:	d808      	bhi.n	8004422 <USB_EPStopXfer+0xba>
      } while (((USBx_OUTEP(ep->num)->DOEPCTL) & USB_OTG_DOEPCTL_EPENA) ==  USB_OTG_DOEPCTL_EPENA);
 8004410:	780b      	ldrb	r3, [r1, #0]
 8004412:	eb02 1343 	add.w	r3, r2, r3, lsl #5
 8004416:	f8d3 3b00 	ldr.w	r3, [r3, #2816]	@ 0xb00
 800441a:	2b00      	cmp	r3, #0
 800441c:	dbf0      	blt.n	8004400 <USB_EPStopXfer+0x98>
  HAL_StatusTypeDef ret = HAL_OK;
 800441e:	2000      	movs	r0, #0
 8004420:	e7b2      	b.n	8004388 <USB_EPStopXfer+0x20>
          ret = HAL_ERROR;
 8004422:	2001      	movs	r0, #1
 8004424:	e7b0      	b.n	8004388 <USB_EPStopXfer+0x20>

08004426 <USB_WritePacket>:
{
 8004426:	b510      	push	{r4, lr}
 8004428:	f89d 4008 	ldrb.w	r4, [sp, #8]
  if (dma == 0U)
 800442c:	b984      	cbnz	r4, 8004450 <USB_WritePacket+0x2a>
    count32b = ((uint32_t)len + 3U) / 4U;
 800442e:	3303      	adds	r3, #3
 8004430:	ea4f 0e93 	mov.w	lr, r3, lsr #2
    for (i = 0U; i < count32b; i++)
 8004434:	f04f 0c00 	mov.w	ip, #0
 8004438:	e008      	b.n	800444c <USB_WritePacket+0x26>
      USBx_DFIFO((uint32_t)ch_ep_num) = __UNALIGNED_UINT32_READ(pSrc);
 800443a:	eb00 3302 	add.w	r3, r0, r2, lsl #12
 800443e:	f503 5380 	add.w	r3, r3, #4096	@ 0x1000
 8004442:	f851 4b04 	ldr.w	r4, [r1], #4
 8004446:	601c      	str	r4, [r3, #0]
    for (i = 0U; i < count32b; i++)
 8004448:	f10c 0c01 	add.w	ip, ip, #1
 800444c:	45f4      	cmp	ip, lr
 800444e:	d3f4      	bcc.n	800443a <USB_WritePacket+0x14>
}
 8004450:	2000      	movs	r0, #0
 8004452:	bd10      	pop	{r4, pc}

08004454 <USB_EPStartXfer>:
{
 8004454:	b5f0      	push	{r4, r5, r6, r7, lr}
 8004456:	b083      	sub	sp, #12
  uint32_t epnum = (uint32_t)ep->num;
 8004458:	780c      	ldrb	r4, [r1, #0]
  if (ep->is_in == 1U)
 800445a:	784b      	ldrb	r3, [r1, #1]
 800445c:	2b01      	cmp	r3, #1
 800445e:	d02d      	beq.n	80044bc <USB_EPStartXfer+0x68>
    USBx_OUTEP(epnum)->DOEPTSIZ &= ~(USB_OTG_DOEPTSIZ_XFRSIZ);
 8004460:	eb00 1c44 	add.w	ip, r0, r4, lsl #5
 8004464:	f50c 6330 	add.w	r3, ip, #2816	@ 0xb00
 8004468:	691d      	ldr	r5, [r3, #16]
 800446a:	f36f 0512 	bfc	r5, #0, #19
 800446e:	611d      	str	r5, [r3, #16]
    USBx_OUTEP(epnum)->DOEPTSIZ &= ~(USB_OTG_DOEPTSIZ_PKTCNT);
 8004470:	691d      	ldr	r5, [r3, #16]
 8004472:	f36f 45dc 	bfc	r5, #19, #10
 8004476:	611d      	str	r5, [r3, #16]
    if (epnum == 0U)
 8004478:	2c00      	cmp	r4, #0
 800447a:	f040 80ce 	bne.w	800461a <USB_EPStartXfer+0x1c6>
      if (ep->xfer_len > 0U)
 800447e:	690c      	ldr	r4, [r1, #16]
 8004480:	b10c      	cbz	r4, 8004486 <USB_EPStartXfer+0x32>
        ep->xfer_len = ep->maxpacket;
 8004482:	688c      	ldr	r4, [r1, #8]
 8004484:	610c      	str	r4, [r1, #16]
      ep->xfer_size = ep->maxpacket;
 8004486:	688c      	ldr	r4, [r1, #8]
 8004488:	620c      	str	r4, [r1, #32]
      USBx_OUTEP(epnum)->DOEPTSIZ |= (USB_OTG_DOEPTSIZ_XFRSIZ & ep->xfer_size);
 800448a:	691d      	ldr	r5, [r3, #16]
 800448c:	f3c4 0412 	ubfx	r4, r4, #0, #19
 8004490:	432c      	orrs	r4, r5
 8004492:	611c      	str	r4, [r3, #16]
      USBx_OUTEP(epnum)->DOEPTSIZ |= (USB_OTG_DOEPTSIZ_PKTCNT & (1U << 19));
 8004494:	691c      	ldr	r4, [r3, #16]
 8004496:	f444 2400 	orr.w	r4, r4, #524288	@ 0x80000
 800449a:	611c      	str	r4, [r3, #16]
    if (dma == 1U)
 800449c:	2a01      	cmp	r2, #1
 800449e:	f000 80df 	beq.w	8004660 <USB_EPStartXfer+0x20c>
    if (ep->type == EP_TYPE_ISOC)
 80044a2:	790b      	ldrb	r3, [r1, #4]
 80044a4:	2b01      	cmp	r3, #1
 80044a6:	f000 80e1 	beq.w	800466c <USB_EPStartXfer+0x218>
    USBx_OUTEP(epnum)->DOEPCTL |= (USB_OTG_DOEPCTL_CNAK | USB_OTG_DOEPCTL_EPENA);
 80044aa:	f8dc 3b00 	ldr.w	r3, [ip, #2816]	@ 0xb00
 80044ae:	f043 4304 	orr.w	r3, r3, #2214592512	@ 0x84000000
 80044b2:	f8cc 3b00 	str.w	r3, [ip, #2816]	@ 0xb00
}
 80044b6:	2000      	movs	r0, #0
 80044b8:	b003      	add	sp, #12
 80044ba:	bdf0      	pop	{r4, r5, r6, r7, pc}
    if (ep->xfer_len == 0U)
 80044bc:	690b      	ldr	r3, [r1, #16]
 80044be:	bb73      	cbnz	r3, 800451e <USB_EPStartXfer+0xca>
      USBx_INEP(epnum)->DIEPTSIZ &= ~(USB_OTG_DIEPTSIZ_PKTCNT);
 80044c0:	eb00 1344 	add.w	r3, r0, r4, lsl #5
 80044c4:	f8d3 5910 	ldr.w	r5, [r3, #2320]	@ 0x910
 80044c8:	f36f 45dc 	bfc	r5, #19, #10
 80044cc:	f8c3 5910 	str.w	r5, [r3, #2320]	@ 0x910
      USBx_INEP(epnum)->DIEPTSIZ |= (USB_OTG_DIEPTSIZ_PKTCNT & (1U << 19));
 80044d0:	f8d3 5910 	ldr.w	r5, [r3, #2320]	@ 0x910
 80044d4:	f445 2500 	orr.w	r5, r5, #524288	@ 0x80000
 80044d8:	f8c3 5910 	str.w	r5, [r3, #2320]	@ 0x910
      USBx_INEP(epnum)->DIEPTSIZ &= ~(USB_OTG_DIEPTSIZ_XFRSIZ);
 80044dc:	f8d3 5910 	ldr.w	r5, [r3, #2320]	@ 0x910
 80044e0:	f36f 0512 	bfc	r5, #0, #19
 80044e4:	f8c3 5910 	str.w	r5, [r3, #2320]	@ 0x910
    if (dma == 1U)
 80044e8:	2a01      	cmp	r2, #1
 80044ea:	d054      	beq.n	8004596 <USB_EPStartXfer+0x142>
      USBx_INEP(epnum)->DIEPCTL |= (USB_OTG_DIEPCTL_CNAK | USB_OTG_DIEPCTL_EPENA);
 80044ec:	eb00 1444 	add.w	r4, r0, r4, lsl #5
 80044f0:	f8d4 3900 	ldr.w	r3, [r4, #2304]	@ 0x900
 80044f4:	f043 4304 	orr.w	r3, r3, #2214592512	@ 0x84000000
 80044f8:	f8c4 3900 	str.w	r3, [r4, #2304]	@ 0x900
      if (ep->type != EP_TYPE_ISOC)
 80044fc:	790b      	ldrb	r3, [r1, #4]
 80044fe:	2b01      	cmp	r3, #1
 8004500:	d072      	beq.n	80045e8 <USB_EPStartXfer+0x194>
        if (ep->xfer_len > 0U)
 8004502:	690b      	ldr	r3, [r1, #16]
 8004504:	2b00      	cmp	r3, #0
 8004506:	d0d6      	beq.n	80044b6 <USB_EPStartXfer+0x62>
          USBx_DEVICE->DIEPEMPMSK |= 1UL << (ep->num & EP_ADDR_MSK);
 8004508:	f8d0 3834 	ldr.w	r3, [r0, #2100]	@ 0x834
 800450c:	7809      	ldrb	r1, [r1, #0]
 800450e:	f001 010f 	and.w	r1, r1, #15
 8004512:	2201      	movs	r2, #1
 8004514:	408a      	lsls	r2, r1
 8004516:	4313      	orrs	r3, r2
 8004518:	f8c0 3834 	str.w	r3, [r0, #2100]	@ 0x834
 800451c:	e7cb      	b.n	80044b6 <USB_EPStartXfer+0x62>
      USBx_INEP(epnum)->DIEPTSIZ &= ~(USB_OTG_DIEPTSIZ_XFRSIZ);
 800451e:	eb00 1344 	add.w	r3, r0, r4, lsl #5
 8004522:	f503 6310 	add.w	r3, r3, #2304	@ 0x900
 8004526:	691d      	ldr	r5, [r3, #16]
 8004528:	f36f 0512 	bfc	r5, #0, #19
 800452c:	611d      	str	r5, [r3, #16]
      USBx_INEP(epnum)->DIEPTSIZ &= ~(USB_OTG_DIEPTSIZ_PKTCNT);
 800452e:	691d      	ldr	r5, [r3, #16]
 8004530:	f36f 45dc 	bfc	r5, #19, #10
 8004534:	611d      	str	r5, [r3, #16]
      if (epnum == 0U)
 8004536:	b984      	cbnz	r4, 800455a <USB_EPStartXfer+0x106>
        if (ep->xfer_len > ep->maxpacket)
 8004538:	690e      	ldr	r6, [r1, #16]
 800453a:	688d      	ldr	r5, [r1, #8]
 800453c:	42ae      	cmp	r6, r5
 800453e:	d900      	bls.n	8004542 <USB_EPStartXfer+0xee>
          ep->xfer_len = ep->maxpacket;
 8004540:	610d      	str	r5, [r1, #16]
        USBx_INEP(epnum)->DIEPTSIZ |= (USB_OTG_DIEPTSIZ_PKTCNT & (1U << 19));
 8004542:	691d      	ldr	r5, [r3, #16]
 8004544:	f445 2500 	orr.w	r5, r5, #524288	@ 0x80000
 8004548:	611d      	str	r5, [r3, #16]
      USBx_INEP(epnum)->DIEPTSIZ |= (USB_OTG_DIEPTSIZ_XFRSIZ & ep->xfer_len);
 800454a:	691d      	ldr	r5, [r3, #16]
 800454c:	690e      	ldr	r6, [r1, #16]
 800454e:	f3c6 0c12 	ubfx	ip, r6, #0, #19
 8004552:	ea45 050c 	orr.w	r5, r5, ip
 8004556:	611d      	str	r5, [r3, #16]
 8004558:	e7c6      	b.n	80044e8 <USB_EPStartXfer+0x94>
        pktcnt = (uint16_t)((ep->xfer_len + ep->maxpacket - 1U) / ep->maxpacket);
 800455a:	690d      	ldr	r5, [r1, #16]
 800455c:	688e      	ldr	r6, [r1, #8]
 800455e:	4435      	add	r5, r6
 8004560:	3d01      	subs	r5, #1
 8004562:	fbb5 f5f6 	udiv	r5, r5, r6
        USBx_INEP(epnum)->DIEPTSIZ |= (USB_OTG_DIEPTSIZ_PKTCNT & ((uint32_t)pktcnt << 19));
 8004566:	691e      	ldr	r6, [r3, #16]
 8004568:	fa1f fc85 	uxth.w	ip, r5
 800456c:	4f49      	ldr	r7, [pc, #292]	@ (8004694 <USB_EPStartXfer+0x240>)
 800456e:	ea07 45c5 	and.w	r5, r7, r5, lsl #19
 8004572:	4335      	orrs	r5, r6
 8004574:	611d      	str	r5, [r3, #16]
        if (ep->type == EP_TYPE_ISOC)
 8004576:	790d      	ldrb	r5, [r1, #4]
 8004578:	2d01      	cmp	r5, #1
 800457a:	d1e6      	bne.n	800454a <USB_EPStartXfer+0xf6>
          USBx_INEP(epnum)->DIEPTSIZ &= ~(USB_OTG_DIEPTSIZ_MULCNT);
 800457c:	691d      	ldr	r5, [r3, #16]
 800457e:	f025 45c0 	bic.w	r5, r5, #1610612736	@ 0x60000000
 8004582:	611d      	str	r5, [r3, #16]
          USBx_INEP(epnum)->DIEPTSIZ |= (USB_OTG_DIEPTSIZ_MULCNT & ((uint32_t)pktcnt << 29));
 8004584:	691d      	ldr	r5, [r3, #16]
 8004586:	ea4f 7c4c 	mov.w	ip, ip, lsl #29
 800458a:	f00c 4cc0 	and.w	ip, ip, #1610612736	@ 0x60000000
 800458e:	ea45 050c 	orr.w	r5, r5, ip
 8004592:	611d      	str	r5, [r3, #16]
 8004594:	e7d9      	b.n	800454a <USB_EPStartXfer+0xf6>
      if ((uint32_t)ep->dma_addr != 0U)
 8004596:	69cb      	ldr	r3, [r1, #28]
 8004598:	b11b      	cbz	r3, 80045a2 <USB_EPStartXfer+0x14e>
        USBx_INEP(epnum)->DIEPDMA = (uint32_t)(ep->dma_addr);
 800459a:	eb00 1244 	add.w	r2, r0, r4, lsl #5
 800459e:	f8c2 3914 	str.w	r3, [r2, #2324]	@ 0x914
      if (ep->type == EP_TYPE_ISOC)
 80045a2:	790b      	ldrb	r3, [r1, #4]
 80045a4:	2b01      	cmp	r3, #1
 80045a6:	d008      	beq.n	80045ba <USB_EPStartXfer+0x166>
      USBx_INEP(epnum)->DIEPCTL |= (USB_OTG_DIEPCTL_CNAK | USB_OTG_DIEPCTL_EPENA);
 80045a8:	eb00 1444 	add.w	r4, r0, r4, lsl #5
 80045ac:	f8d4 3900 	ldr.w	r3, [r4, #2304]	@ 0x900
 80045b0:	f043 4304 	orr.w	r3, r3, #2214592512	@ 0x84000000
 80045b4:	f8c4 3900 	str.w	r3, [r4, #2304]	@ 0x900
 80045b8:	e77d      	b.n	80044b6 <USB_EPStartXfer+0x62>
        if ((USBx_DEVICE->DSTS & (1U << 8)) == 0U)
 80045ba:	f8d0 3808 	ldr.w	r3, [r0, #2056]	@ 0x808
 80045be:	f413 7f80 	tst.w	r3, #256	@ 0x100
 80045c2:	d108      	bne.n	80045d6 <USB_EPStartXfer+0x182>
          USBx_INEP(epnum)->DIEPCTL |= USB_OTG_DIEPCTL_SODDFRM;
 80045c4:	eb00 1244 	add.w	r2, r0, r4, lsl #5
 80045c8:	f8d2 3900 	ldr.w	r3, [r2, #2304]	@ 0x900
 80045cc:	f043 5300 	orr.w	r3, r3, #536870912	@ 0x20000000
 80045d0:	f8c2 3900 	str.w	r3, [r2, #2304]	@ 0x900
 80045d4:	e7e8      	b.n	80045a8 <USB_EPStartXfer+0x154>
          USBx_INEP(epnum)->DIEPCTL |= USB_OTG_DIEPCTL_SD0PID_SEVNFRM;
 80045d6:	eb00 1244 	add.w	r2, r0, r4, lsl #5
 80045da:	f8d2 3900 	ldr.w	r3, [r2, #2304]	@ 0x900
 80045de:	f043 5380 	orr.w	r3, r3, #268435456	@ 0x10000000
 80045e2:	f8c2 3900 	str.w	r3, [r2, #2304]	@ 0x900
 80045e6:	e7df      	b.n	80045a8 <USB_EPStartXfer+0x154>
        if ((USBx_DEVICE->DSTS & (1U << 8)) == 0U)
 80045e8:	f8d0 3808 	ldr.w	r3, [r0, #2056]	@ 0x808
 80045ec:	f413 7f80 	tst.w	r3, #256	@ 0x100
 80045f0:	d10c      	bne.n	800460c <USB_EPStartXfer+0x1b8>
          USBx_INEP(epnum)->DIEPCTL |= USB_OTG_DIEPCTL_SODDFRM;
 80045f2:	f8d4 3900 	ldr.w	r3, [r4, #2304]	@ 0x900
 80045f6:	f043 5300 	orr.w	r3, r3, #536870912	@ 0x20000000
 80045fa:	f8c4 3900 	str.w	r3, [r4, #2304]	@ 0x900
        (void)USB_WritePacket(USBx, ep->xfer_buff, ep->num, (uint16_t)ep->xfer_len, dma);
 80045fe:	9200      	str	r2, [sp, #0]
 8004600:	8a0b      	ldrh	r3, [r1, #16]
 8004602:	780a      	ldrb	r2, [r1, #0]
 8004604:	68c9      	ldr	r1, [r1, #12]
 8004606:	f7ff ff0e 	bl	8004426 <USB_WritePacket>
 800460a:	e754      	b.n	80044b6 <USB_EPStartXfer+0x62>
          USBx_INEP(epnum)->DIEPCTL |= USB_OTG_DIEPCTL_SD0PID_SEVNFRM;
 800460c:	f8d4 3900 	ldr.w	r3, [r4, #2304]	@ 0x900
 8004610:	f043 5380 	orr.w	r3, r3, #268435456	@ 0x10000000
 8004614:	f8c4 3900 	str.w	r3, [r4, #2304]	@ 0x900
 8004618:	e7f1      	b.n	80045fe <USB_EPStartXfer+0x1aa>
      if (ep->xfer_len == 0U)
 800461a:	690c      	ldr	r4, [r1, #16]
 800461c:	b954      	cbnz	r4, 8004634 <USB_EPStartXfer+0x1e0>
        USBx_OUTEP(epnum)->DOEPTSIZ |= (USB_OTG_DOEPTSIZ_XFRSIZ & ep->maxpacket);
 800461e:	691c      	ldr	r4, [r3, #16]
 8004620:	688d      	ldr	r5, [r1, #8]
 8004622:	f3c5 0512 	ubfx	r5, r5, #0, #19
 8004626:	432c      	orrs	r4, r5
 8004628:	611c      	str	r4, [r3, #16]
        USBx_OUTEP(epnum)->DOEPTSIZ |= (USB_OTG_DOEPTSIZ_PKTCNT & (1U << 19));
 800462a:	691c      	ldr	r4, [r3, #16]
 800462c:	f444 2400 	orr.w	r4, r4, #524288	@ 0x80000
 8004630:	611c      	str	r4, [r3, #16]
 8004632:	e733      	b.n	800449c <USB_EPStartXfer+0x48>
        pktcnt = (uint16_t)((ep->xfer_len + ep->maxpacket - 1U) / ep->maxpacket);
 8004634:	688d      	ldr	r5, [r1, #8]
 8004636:	442c      	add	r4, r5
 8004638:	3c01      	subs	r4, #1
 800463a:	fbb4 f4f5 	udiv	r4, r4, r5
        ep->xfer_size = ep->maxpacket * pktcnt;
 800463e:	b2a4      	uxth	r4, r4
 8004640:	fb04 f505 	mul.w	r5, r4, r5
 8004644:	620d      	str	r5, [r1, #32]
        USBx_OUTEP(epnum)->DOEPTSIZ |= USB_OTG_DOEPTSIZ_PKTCNT & ((uint32_t)pktcnt << 19);
 8004646:	691d      	ldr	r5, [r3, #16]
 8004648:	4e12      	ldr	r6, [pc, #72]	@ (8004694 <USB_EPStartXfer+0x240>)
 800464a:	ea06 44c4 	and.w	r4, r6, r4, lsl #19
 800464e:	432c      	orrs	r4, r5
 8004650:	611c      	str	r4, [r3, #16]
        USBx_OUTEP(epnum)->DOEPTSIZ |= USB_OTG_DOEPTSIZ_XFRSIZ & ep->xfer_size;
 8004652:	691c      	ldr	r4, [r3, #16]
 8004654:	6a0d      	ldr	r5, [r1, #32]
 8004656:	f3c5 0512 	ubfx	r5, r5, #0, #19
 800465a:	432c      	orrs	r4, r5
 800465c:	611c      	str	r4, [r3, #16]
 800465e:	e71d      	b.n	800449c <USB_EPStartXfer+0x48>
      if ((uint32_t)ep->xfer_buff != 0U)
 8004660:	68ca      	ldr	r2, [r1, #12]
 8004662:	2a00      	cmp	r2, #0
 8004664:	f43f af1d 	beq.w	80044a2 <USB_EPStartXfer+0x4e>
        USBx_OUTEP(epnum)->DOEPDMA = (uint32_t)(ep->xfer_buff);
 8004668:	615a      	str	r2, [r3, #20]
 800466a:	e71a      	b.n	80044a2 <USB_EPStartXfer+0x4e>
      if ((USBx_DEVICE->DSTS & (1U << 8)) == 0U)
 800466c:	f8d0 3808 	ldr.w	r3, [r0, #2056]	@ 0x808
 8004670:	f413 7f80 	tst.w	r3, #256	@ 0x100
 8004674:	d106      	bne.n	8004684 <USB_EPStartXfer+0x230>
        USBx_OUTEP(epnum)->DOEPCTL |= USB_OTG_DOEPCTL_SODDFRM;
 8004676:	f8dc 3b00 	ldr.w	r3, [ip, #2816]	@ 0xb00
 800467a:	f043 5300 	orr.w	r3, r3, #536870912	@ 0x20000000
 800467e:	f8cc 3b00 	str.w	r3, [ip, #2816]	@ 0xb00
 8004682:	e712      	b.n	80044aa <USB_EPStartXfer+0x56>
        USBx_OUTEP(epnum)->DOEPCTL |= USB_OTG_DOEPCTL_SD0PID_SEVNFRM;
 8004684:	f8dc 3b00 	ldr.w	r3, [ip, #2816]	@ 0xb00
 8004688:	f043 5380 	orr.w	r3, r3, #268435456	@ 0x10000000
 800468c:	f8cc 3b00 	str.w	r3, [ip, #2816]	@ 0xb00
 8004690:	e70b      	b.n	80044aa <USB_EPStartXfer+0x56>
 8004692:	bf00      	nop
 8004694:	1ff80000 	.word	0x1ff80000

08004698 <USB_ReadPacket>:
{
 8004698:	b510      	push	{r4, lr}
 800469a:	4684      	mov	ip, r0
 800469c:	4608      	mov	r0, r1
  uint32_t count32b = (uint32_t)len >> 2U;
 800469e:	ea4f 0e92 	mov.w	lr, r2, lsr #2
  uint16_t remaining_bytes = len % 4U;
 80046a2:	f002 0203 	and.w	r2, r2, #3
  for (i = 0U; i < count32b; i++)
 80046a6:	2300      	movs	r3, #0
 80046a8:	e005      	b.n	80046b6 <USB_ReadPacket+0x1e>
    __UNALIGNED_UINT32_WRITE(pDest, USBx_DFIFO(0U));
 80046aa:	f50c 5180 	add.w	r1, ip, #4096	@ 0x1000
 80046ae:	6809      	ldr	r1, [r1, #0]
 80046b0:	f840 1b04 	str.w	r1, [r0], #4
  for (i = 0U; i < count32b; i++)
 80046b4:	3301      	adds	r3, #1
 80046b6:	4573      	cmp	r3, lr
 80046b8:	d3f7      	bcc.n	80046aa <USB_ReadPacket+0x12>
  if (remaining_bytes != 0U)
 80046ba:	b17a      	cbz	r2, 80046dc <USB_ReadPacket+0x44>
    __UNALIGNED_UINT32_WRITE(&pData, USBx_DFIFO(0U));
 80046bc:	f50c 5c80 	add.w	ip, ip, #4096	@ 0x1000
 80046c0:	f8dc 4000 	ldr.w	r4, [ip]
    i = 0U;
 80046c4:	2100      	movs	r1, #0
      *(uint8_t *)pDest = (uint8_t)(pData >> (8U * (uint8_t)(i)));
 80046c6:	b2cb      	uxtb	r3, r1
 80046c8:	00db      	lsls	r3, r3, #3
 80046ca:	fa24 f303 	lsr.w	r3, r4, r3
 80046ce:	f800 3b01 	strb.w	r3, [r0], #1
      i++;
 80046d2:	3101      	adds	r1, #1
      remaining_bytes--;
 80046d4:	3a01      	subs	r2, #1
 80046d6:	b292      	uxth	r2, r2
    } while (remaining_bytes != 0U);
 80046d8:	2a00      	cmp	r2, #0
 80046da:	d1f4      	bne.n	80046c6 <USB_ReadPacket+0x2e>
}
 80046dc:	bd10      	pop	{r4, pc}

080046de <USB_EPSetStall>:
  uint32_t epnum = (uint32_t)ep->num;
 80046de:	780b      	ldrb	r3, [r1, #0]
  if (ep->is_in == 1U)
 80046e0:	784a      	ldrb	r2, [r1, #1]
 80046e2:	2a01      	cmp	r2, #1
 80046e4:	d014      	beq.n	8004710 <USB_EPSetStall+0x32>
    if (((USBx_OUTEP(epnum)->DOEPCTL & USB_OTG_DOEPCTL_EPENA) == 0U) && (epnum != 0U))
 80046e6:	eb00 1043 	add.w	r0, r0, r3, lsl #5
 80046ea:	f8d0 2b00 	ldr.w	r2, [r0, #2816]	@ 0xb00
 80046ee:	2a00      	cmp	r2, #0
 80046f0:	db06      	blt.n	8004700 <USB_EPSetStall+0x22>
 80046f2:	b12b      	cbz	r3, 8004700 <USB_EPSetStall+0x22>
      USBx_OUTEP(epnum)->DOEPCTL &= ~(USB_OTG_DOEPCTL_EPDIS);
 80046f4:	f8d0 3b00 	ldr.w	r3, [r0, #2816]	@ 0xb00
 80046f8:	f023 4380 	bic.w	r3, r3, #1073741824	@ 0x40000000
 80046fc:	f8c0 3b00 	str.w	r3, [r0, #2816]	@ 0xb00
    USBx_OUTEP(epnum)->DOEPCTL |= USB_OTG_DOEPCTL_STALL;
 8004700:	f8d0 3b00 	ldr.w	r3, [r0, #2816]	@ 0xb00
 8004704:	f443 1300 	orr.w	r3, r3, #2097152	@ 0x200000
 8004708:	f8c0 3b00 	str.w	r3, [r0, #2816]	@ 0xb00
}
 800470c:	2000      	movs	r0, #0
 800470e:	4770      	bx	lr
    if (((USBx_INEP(epnum)->DIEPCTL & USB_OTG_DIEPCTL_EPENA) == 0U) && (epnum != 0U))
 8004710:	eb00 1043 	add.w	r0, r0, r3, lsl #5
 8004714:	f8d0 2900 	ldr.w	r2, [r0, #2304]	@ 0x900
 8004718:	2a00      	cmp	r2, #0
 800471a:	db06      	blt.n	800472a <USB_EPSetStall+0x4c>
 800471c:	b12b      	cbz	r3, 800472a <USB_EPSetStall+0x4c>
      USBx_INEP(epnum)->DIEPCTL &= ~(USB_OTG_DIEPCTL_EPDIS);
 800471e:	f8d0 3900 	ldr.w	r3, [r0, #2304]	@ 0x900
 8004722:	f023 4380 	bic.w	r3, r3, #1073741824	@ 0x40000000
 8004726:	f8c0 3900 	str.w	r3, [r0, #2304]	@ 0x900
    USBx_INEP(epnum)->DIEPCTL |= USB_OTG_DIEPCTL_STALL;
 800472a:	f8d0 3900 	ldr.w	r3, [r0, #2304]	@ 0x900
 800472e:	f443 1300 	orr.w	r3, r3, #2097152	@ 0x200000
 8004732:	f8c0 3900 	str.w	r3, [r0, #2304]	@ 0x900
 8004736:	e7e9      	b.n	800470c <USB_EPSetStall+0x2e>

08004738 <USB_EPClearStall>:
  uint32_t epnum = (uint32_t)ep->num;
 8004738:	780b      	ldrb	r3, [r1, #0]
  if (ep->is_in == 1U)
 800473a:	784a      	ldrb	r2, [r1, #1]
 800473c:	2a01      	cmp	r2, #1
 800473e:	d00e      	beq.n	800475e <USB_EPClearStall+0x26>
    USBx_OUTEP(epnum)->DOEPCTL &= ~USB_OTG_DOEPCTL_STALL;
 8004740:	eb00 1043 	add.w	r0, r0, r3, lsl #5
 8004744:	f8d0 3b00 	ldr.w	r3, [r0, #2816]	@ 0xb00
 8004748:	f423 1300 	bic.w	r3, r3, #2097152	@ 0x200000
 800474c:	f8c0 3b00 	str.w	r3, [r0, #2816]	@ 0xb00
    if ((ep->type == EP_TYPE_INTR) || (ep->type == EP_TYPE_BULK))
 8004750:	790b      	ldrb	r3, [r1, #4]
 8004752:	3b02      	subs	r3, #2
 8004754:	b2db      	uxtb	r3, r3
 8004756:	2b01      	cmp	r3, #1
 8004758:	d915      	bls.n	8004786 <USB_EPClearStall+0x4e>
}
 800475a:	2000      	movs	r0, #0
 800475c:	4770      	bx	lr
    USBx_INEP(epnum)->DIEPCTL &= ~USB_OTG_DIEPCTL_STALL;
 800475e:	eb00 1043 	add.w	r0, r0, r3, lsl #5
 8004762:	f8d0 3900 	ldr.w	r3, [r0, #2304]	@ 0x900
 8004766:	f423 1300 	bic.w	r3, r3, #2097152	@ 0x200000
 800476a:	f8c0 3900 	str.w	r3, [r0, #2304]	@ 0x900
    if ((ep->type == EP_TYPE_INTR) || (ep->type == EP_TYPE_BULK))
 800476e:	790b      	ldrb	r3, [r1, #4]
 8004770:	3b02      	subs	r3, #2
 8004772:	b2db      	uxtb	r3, r3
 8004774:	2b01      	cmp	r3, #1
 8004776:	d8f0      	bhi.n	800475a <USB_EPClearStall+0x22>
      USBx_INEP(epnum)->DIEPCTL |= USB_OTG_DIEPCTL_SD0PID_SEVNFRM; /* DATA0 */
 8004778:	f8d0 3900 	ldr.w	r3, [r0, #2304]	@ 0x900
 800477c:	f043 5380 	orr.w	r3, r3, #268435456	@ 0x10000000
 8004780:	f8c0 3900 	str.w	r3, [r0, #2304]	@ 0x900
 8004784:	e7e9      	b.n	800475a <USB_EPClearStall+0x22>
      USBx_OUTEP(epnum)->DOEPCTL |= USB_OTG_DOEPCTL_SD0PID_SEVNFRM; /* DATA0 */
 8004786:	f8d0 3b00 	ldr.w	r3, [r0, #2816]	@ 0xb00
 800478a:	f043 5380 	orr.w	r3, r3, #268435456	@ 0x10000000
 800478e:	f8c0 3b00 	str.w	r3, [r0, #2816]	@ 0xb00
 8004792:	e7e2      	b.n	800475a <USB_EPClearStall+0x22>

08004794 <USB_SetDevAddress>:
  USBx_DEVICE->DCFG &= ~(USB_OTG_DCFG_DAD);
 8004794:	f8d0 3800 	ldr.w	r3, [r0, #2048]	@ 0x800
 8004798:	f423 63fe 	bic.w	r3, r3, #2032	@ 0x7f0
 800479c:	f8c0 3800 	str.w	r3, [r0, #2048]	@ 0x800
  USBx_DEVICE->DCFG |= ((uint32_t)address << 4) & USB_OTG_DCFG_DAD;
 80047a0:	f8d0 3800 	ldr.w	r3, [r0, #2048]	@ 0x800
 80047a4:	0109      	lsls	r1, r1, #4
 80047a6:	f401 61fe 	and.w	r1, r1, #2032	@ 0x7f0
 80047aa:	430b      	orrs	r3, r1
 80047ac:	f8c0 3800 	str.w	r3, [r0, #2048]	@ 0x800
}
 80047b0:	2000      	movs	r0, #0
 80047b2:	4770      	bx	lr

080047b4 <USB_DevConnect>:
  USBx_PCGCCTL &= ~(USB_OTG_PCGCCTL_STOPCLK | USB_OTG_PCGCCTL_GATECLK);
 80047b4:	f8d0 3e00 	ldr.w	r3, [r0, #3584]	@ 0xe00
 80047b8:	f023 0303 	bic.w	r3, r3, #3
 80047bc:	f8c0 3e00 	str.w	r3, [r0, #3584]	@ 0xe00
  USBx_DEVICE->DCTL &= ~USB_OTG_DCTL_SDIS;
 80047c0:	f8d0 3804 	ldr.w	r3, [r0, #2052]	@ 0x804
 80047c4:	f023 0302 	bic.w	r3, r3, #2
 80047c8:	f8c0 3804 	str.w	r3, [r0, #2052]	@ 0x804
}
 80047cc:	2000      	movs	r0, #0
 80047ce:	4770      	bx	lr

080047d0 <USB_DevDisconnect>:
  USBx_PCGCCTL &= ~(USB_OTG_PCGCCTL_STOPCLK | USB_OTG_PCGCCTL_GATECLK);
 80047d0:	f8d0 3e00 	ldr.w	r3, [r0, #3584]	@ 0xe00
 80047d4:	f023 0303 	bic.w	r3, r3, #3
 80047d8:	f8c0 3e00 	str.w	r3, [r0, #3584]	@ 0xe00
  USBx_DEVICE->DCTL |= USB_OTG_DCTL_SDIS;
 80047dc:	f8d0 3804 	ldr.w	r3, [r0, #2052]	@ 0x804
 80047e0:	f043 0302 	orr.w	r3, r3, #2
 80047e4:	f8c0 3804 	str.w	r3, [r0, #2052]	@ 0x804
}
 80047e8:	2000      	movs	r0, #0
 80047ea:	4770      	bx	lr

080047ec <USB_ReadInterrupts>:
  tmpreg = USBx->GINTSTS;
 80047ec:	6942      	ldr	r2, [r0, #20]
  tmpreg &= USBx->GINTMSK;
 80047ee:	6980      	ldr	r0, [r0, #24]
}
 80047f0:	4010      	ands	r0, r2
 80047f2:	4770      	bx	lr

080047f4 <USB_ReadDevAllOutEpInterrupt>:
  tmpreg  = USBx_DEVICE->DAINT;
 80047f4:	f8d0 3818 	ldr.w	r3, [r0, #2072]	@ 0x818
 80047f8:	f500 6000 	add.w	r0, r0, #2048	@ 0x800
  tmpreg &= USBx_DEVICE->DAINTMSK;
 80047fc:	69c0      	ldr	r0, [r0, #28]
 80047fe:	4018      	ands	r0, r3
}
 8004800:	0c00      	lsrs	r0, r0, #16
 8004802:	4770      	bx	lr

08004804 <USB_ReadDevAllInEpInterrupt>:
  tmpreg  = USBx_DEVICE->DAINT;
 8004804:	f8d0 3818 	ldr.w	r3, [r0, #2072]	@ 0x818
 8004808:	f500 6000 	add.w	r0, r0, #2048	@ 0x800
  tmpreg &= USBx_DEVICE->DAINTMSK;
 800480c:	69c0      	ldr	r0, [r0, #28]
 800480e:	4018      	ands	r0, r3
}
 8004810:	b280      	uxth	r0, r0
 8004812:	4770      	bx	lr

08004814 <USB_ReadDevOutEPInterrupt>:
  tmpreg  = USBx_OUTEP((uint32_t)epnum)->DOEPINT;
 8004814:	eb00 1141 	add.w	r1, r0, r1, lsl #5
 8004818:	f8d1 2b08 	ldr.w	r2, [r1, #2824]	@ 0xb08
  tmpreg &= USBx_DEVICE->DOEPMSK;
 800481c:	f500 6000 	add.w	r0, r0, #2048	@ 0x800
 8004820:	6940      	ldr	r0, [r0, #20]
}
 8004822:	4010      	ands	r0, r2
 8004824:	4770      	bx	lr

08004826 <USB_ReadDevInEPInterrupt>:
  msk = USBx_DEVICE->DIEPMSK;
 8004826:	f8d0 2810 	ldr.w	r2, [r0, #2064]	@ 0x810
  emp = USBx_DEVICE->DIEPEMPMSK;
 800482a:	f8d0 3834 	ldr.w	r3, [r0, #2100]	@ 0x834
  msk |= ((emp >> (epnum & EP_ADDR_MSK)) & 0x1U) << 7;
 800482e:	f001 0c0f 	and.w	ip, r1, #15
 8004832:	fa23 f30c 	lsr.w	r3, r3, ip
 8004836:	01db      	lsls	r3, r3, #7
 8004838:	b2db      	uxtb	r3, r3
 800483a:	4313      	orrs	r3, r2
  tmpreg = USBx_INEP((uint32_t)epnum)->DIEPINT & msk;
 800483c:	eb00 1041 	add.w	r0, r0, r1, lsl #5
 8004840:	f500 6010 	add.w	r0, r0, #2304	@ 0x900
 8004844:	6880      	ldr	r0, [r0, #8]
}
 8004846:	4018      	ands	r0, r3
 8004848:	4770      	bx	lr

0800484a <USB_GetMode>:
  return ((USBx->GINTSTS) & 0x1U);
 800484a:	6940      	ldr	r0, [r0, #20]
}
 800484c:	f000 0001 	and.w	r0, r0, #1
 8004850:	4770      	bx	lr

08004852 <USB_SetCurrentMode>:
{
 8004852:	b538      	push	{r3, r4, r5, lr}
 8004854:	4605      	mov	r5, r0
  USBx->GUSBCFG &= ~(USB_OTG_GUSBCFG_FHMOD | USB_OTG_GUSBCFG_FDMOD);
 8004856:	68c3      	ldr	r3, [r0, #12]
 8004858:	f023 43c0 	bic.w	r3, r3, #1610612736	@ 0x60000000
 800485c:	60c3      	str	r3, [r0, #12]
  if (mode == USB_HOST_MODE)
 800485e:	2901      	cmp	r1, #1
 8004860:	d013      	beq.n	800488a <USB_SetCurrentMode+0x38>
  else if (mode == USB_DEVICE_MODE)
 8004862:	bb19      	cbnz	r1, 80048ac <USB_SetCurrentMode+0x5a>
    USBx->GUSBCFG |= USB_OTG_GUSBCFG_FDMOD;
 8004864:	68c3      	ldr	r3, [r0, #12]
 8004866:	f043 4380 	orr.w	r3, r3, #1073741824	@ 0x40000000
 800486a:	60c3      	str	r3, [r0, #12]
  uint32_t ms = 0U;
 800486c:	2400      	movs	r4, #0
      HAL_Delay(10U);
 800486e:	200a      	movs	r0, #10
 8004870:	f7fb fefc 	bl	800066c <HAL_Delay>
      ms += 10U;
 8004874:	340a      	adds	r4, #10
    } while ((USB_GetMode(USBx) != (uint32_t)USB_DEVICE_MODE) && (ms < HAL_USB_CURRENT_MODE_MAX_DELAY_MS));
 8004876:	4628      	mov	r0, r5
 8004878:	f7ff ffe7 	bl	800484a <USB_GetMode>
 800487c:	b108      	cbz	r0, 8004882 <USB_SetCurrentMode+0x30>
 800487e:	2cc7      	cmp	r4, #199	@ 0xc7
 8004880:	d9f5      	bls.n	800486e <USB_SetCurrentMode+0x1c>
  if (ms == HAL_USB_CURRENT_MODE_MAX_DELAY_MS)
 8004882:	2cc8      	cmp	r4, #200	@ 0xc8
 8004884:	d014      	beq.n	80048b0 <USB_SetCurrentMode+0x5e>
  return HAL_OK;
 8004886:	2000      	movs	r0, #0
}
 8004888:	bd38      	pop	{r3, r4, r5, pc}
    USBx->GUSBCFG |= USB_OTG_GUSBCFG_FHMOD;
 800488a:	68c3      	ldr	r3, [r0, #12]
 800488c:	f043 5300 	orr.w	r3, r3, #536870912	@ 0x20000000
 8004890:	60c3      	str	r3, [r0, #12]
  uint32_t ms = 0U;
 8004892:	2400      	movs	r4, #0
      HAL_Delay(10U);
 8004894:	200a      	movs	r0, #10
 8004896:	f7fb fee9 	bl	800066c <HAL_Delay>
      ms += 10U;
 800489a:	340a      	adds	r4, #10
    } while ((USB_GetMode(USBx) != (uint32_t)USB_HOST_MODE) && (ms < HAL_USB_CURRENT_MODE_MAX_DELAY_MS));
 800489c:	4628      	mov	r0, r5
 800489e:	f7ff ffd4 	bl	800484a <USB_GetMode>
 80048a2:	2801      	cmp	r0, #1
 80048a4:	d0ed      	beq.n	8004882 <USB_SetCurrentMode+0x30>
 80048a6:	2cc7      	cmp	r4, #199	@ 0xc7
 80048a8:	d9f4      	bls.n	8004894 <USB_SetCurrentMode+0x42>
 80048aa:	e7ea      	b.n	8004882 <USB_SetCurrentMode+0x30>
    return HAL_ERROR;
 80048ac:	2001      	movs	r0, #1
 80048ae:	e7eb      	b.n	8004888 <USB_SetCurrentMode+0x36>
    return HAL_ERROR;
 80048b0:	2001      	movs	r0, #1
 80048b2:	e7e9      	b.n	8004888 <USB_SetCurrentMode+0x36>

080048b4 <USB_ActivateSetup>:
  USBx_INEP(0U)->DIEPCTL &= ~USB_OTG_DIEPCTL_MPSIZ;
 80048b4:	f8d0 3900 	ldr.w	r3, [r0, #2304]	@ 0x900
 80048b8:	f36f 030a 	bfc	r3, #0, #11
 80048bc:	f8c0 3900 	str.w	r3, [r0, #2304]	@ 0x900
  USBx_DEVICE->DCTL |= USB_OTG_DCTL_CGINAK;
 80048c0:	f8d0 3804 	ldr.w	r3, [r0, #2052]	@ 0x804
 80048c4:	f443 7380 	orr.w	r3, r3, #256	@ 0x100
 80048c8:	f8c0 3804 	str.w	r3, [r0, #2052]	@ 0x804
}
 80048cc:	2000      	movs	r0, #0
 80048ce:	4770      	bx	lr

080048d0 <USB_EP0_OutStart>:
{
 80048d0:	b410      	push	{r4}
  uint32_t gSNPSiD = *(__IO const uint32_t *)(&USBx->CID + 0x1U);
 80048d2:	6c04      	ldr	r4, [r0, #64]	@ 0x40
  if (gSNPSiD > USB_OTG_CORE_ID_300A)
 80048d4:	4b15      	ldr	r3, [pc, #84]	@ (800492c <USB_EP0_OutStart+0x5c>)
 80048d6:	429c      	cmp	r4, r3
 80048d8:	d903      	bls.n	80048e2 <USB_EP0_OutStart+0x12>
    if ((USBx_OUTEP(0U)->DOEPCTL & USB_OTG_DOEPCTL_EPENA) == USB_OTG_DOEPCTL_EPENA)
 80048da:	f8d0 3b00 	ldr.w	r3, [r0, #2816]	@ 0xb00
 80048de:	2b00      	cmp	r3, #0
 80048e0:	db16      	blt.n	8004910 <USB_EP0_OutStart+0x40>
  USBx_OUTEP(0U)->DOEPTSIZ = 0U;
 80048e2:	2400      	movs	r4, #0
 80048e4:	f8c0 4b10 	str.w	r4, [r0, #2832]	@ 0xb10
  USBx_OUTEP(0U)->DOEPTSIZ |= (USB_OTG_DOEPTSIZ_PKTCNT & (1U << 19));
 80048e8:	f8d0 4b10 	ldr.w	r4, [r0, #2832]	@ 0xb10
 80048ec:	f444 2400 	orr.w	r4, r4, #524288	@ 0x80000
 80048f0:	f8c0 4b10 	str.w	r4, [r0, #2832]	@ 0xb10
  USBx_OUTEP(0U)->DOEPTSIZ |= (3U * 8U);
 80048f4:	f8d0 4b10 	ldr.w	r4, [r0, #2832]	@ 0xb10
 80048f8:	f044 0418 	orr.w	r4, r4, #24
 80048fc:	f8c0 4b10 	str.w	r4, [r0, #2832]	@ 0xb10
  USBx_OUTEP(0U)->DOEPTSIZ |=  USB_OTG_DOEPTSIZ_STUPCNT;
 8004900:	f8d0 4b10 	ldr.w	r4, [r0, #2832]	@ 0xb10
 8004904:	f044 44c0 	orr.w	r4, r4, #1610612736	@ 0x60000000
 8004908:	f8c0 4b10 	str.w	r4, [r0, #2832]	@ 0xb10
  if (dma == 1U)
 800490c:	2901      	cmp	r1, #1
 800490e:	d003      	beq.n	8004918 <USB_EP0_OutStart+0x48>
}
 8004910:	2000      	movs	r0, #0
 8004912:	f85d 4b04 	ldr.w	r4, [sp], #4
 8004916:	4770      	bx	lr
    USBx_OUTEP(0U)->DOEPDMA = (uint32_t)psetup;
 8004918:	f8c0 2b14 	str.w	r2, [r0, #2836]	@ 0xb14
    USBx_OUTEP(0U)->DOEPCTL |= USB_OTG_DOEPCTL_EPENA | USB_OTG_DOEPCTL_USBAEP;
 800491c:	f8d0 3b00 	ldr.w	r3, [r0, #2816]	@ 0xb00
 8004920:	f043 2380 	orr.w	r3, r3, #2147516416	@ 0x80008000
 8004924:	f8c0 3b00 	str.w	r3, [r0, #2816]	@ 0xb00
 8004928:	e7f2      	b.n	8004910 <USB_EP0_OutStart+0x40>
 800492a:	bf00      	nop
 800492c:	4f54300a 	.word	0x4f54300a

08004930 <SystemInit>:
 __IO uint32_t tmpreg;
#endif /* DATA_IN_D2_SRAM */

  /* FPU settings ------------------------------------------------------------*/
  #if (__FPU_PRESENT == 1) && (__FPU_USED == 1)
    SCB->CPACR |= ((3UL << (10*2))|(3UL << (11*2)));  /* set CP10 and CP11 Full Access */
 8004930:	4a31      	ldr	r2, [pc, #196]	@ (80049f8 <SystemInit+0xc8>)
 8004932:	f8d2 3088 	ldr.w	r3, [r2, #136]	@ 0x88
 8004936:	f443 0370 	orr.w	r3, r3, #15728640	@ 0xf00000
 800493a:	f8c2 3088 	str.w	r3, [r2, #136]	@ 0x88
  #endif
  /* Reset the RCC clock configuration to the default reset state ------------*/

   /* Increasing the CPU frequency */
  if(FLASH_LATENCY_DEFAULT  > (READ_BIT((FLASH->ACR), FLASH_ACR_LATENCY)))
 800493e:	4b2f      	ldr	r3, [pc, #188]	@ (80049fc <SystemInit+0xcc>)
 8004940:	681b      	ldr	r3, [r3, #0]
 8004942:	f003 030f 	and.w	r3, r3, #15
 8004946:	2b06      	cmp	r3, #6
 8004948:	d806      	bhi.n	8004958 <SystemInit+0x28>
  {
    /* Program the new number of wait states to the LATENCY bits in the FLASH_ACR register */
    MODIFY_REG(FLASH->ACR, FLASH_ACR_LATENCY, (uint32_t)(FLASH_LATENCY_DEFAULT));
 800494a:	4a2c      	ldr	r2, [pc, #176]	@ (80049fc <SystemInit+0xcc>)
 800494c:	6813      	ldr	r3, [r2, #0]
 800494e:	f023 030f 	bic.w	r3, r3, #15
 8004952:	f043 0307 	orr.w	r3, r3, #7
 8004956:	6013      	str	r3, [r2, #0]
  }

  /* Set HSION bit */
  RCC->CR |= RCC_CR_HSION;
 8004958:	4b29      	ldr	r3, [pc, #164]	@ (8004a00 <SystemInit+0xd0>)
 800495a:	681a      	ldr	r2, [r3, #0]
 800495c:	f042 0201 	orr.w	r2, r2, #1
 8004960:	601a      	str	r2, [r3, #0]

  /* Reset CFGR register */
  RCC->CFGR = 0x00000000;
 8004962:	2200      	movs	r2, #0
 8004964:	611a      	str	r2, [r3, #16]

  /* Reset HSEON, HSECSSON, CSION, HSI48ON, CSIKERON, PLL1ON, PLL2ON and PLL3ON bits */
  RCC->CR &= 0xEAF6ED7FU;
 8004966:	6819      	ldr	r1, [r3, #0]
 8004968:	4a26      	ldr	r2, [pc, #152]	@ (8004a04 <SystemInit+0xd4>)
 800496a:	400a      	ands	r2, r1
 800496c:	601a      	str	r2, [r3, #0]

   /* Decreasing the number of wait states because of lower CPU frequency */
  if(FLASH_LATENCY_DEFAULT  < (READ_BIT((FLASH->ACR), FLASH_ACR_LATENCY)))
 800496e:	4b23      	ldr	r3, [pc, #140]	@ (80049fc <SystemInit+0xcc>)
 8004970:	681b      	ldr	r3, [r3, #0]
 8004972:	f013 0f08 	tst.w	r3, #8
 8004976:	d006      	beq.n	8004986 <SystemInit+0x56>
  {
    /* Program the new number of wait states to the LATENCY bits in the FLASH_ACR register */
    MODIFY_REG(FLASH->ACR, FLASH_ACR_LATENCY, (uint32_t)(FLASH_LATENCY_DEFAULT));
 8004978:	4a20      	ldr	r2, [pc, #128]	@ (80049fc <SystemInit+0xcc>)
 800497a:	6813      	ldr	r3, [r2, #0]
 800497c:	f023 030f 	bic.w	r3, r3, #15
 8004980:	f043 0307 	orr.w	r3, r3, #7
 8004984:	6013      	str	r3, [r2, #0]
  }

#if defined(D3_SRAM_BASE)
  /* Reset D1CFGR register */
  RCC->D1CFGR = 0x00000000;
 8004986:	4b1e      	ldr	r3, [pc, #120]	@ (8004a00 <SystemInit+0xd0>)
 8004988:	2200      	movs	r2, #0
 800498a:	619a      	str	r2, [r3, #24]

  /* Reset D2CFGR register */
  RCC->D2CFGR = 0x00000000;
 800498c:	61da      	str	r2, [r3, #28]

  /* Reset D3CFGR register */
  RCC->D3CFGR = 0x00000000;
 800498e:	621a      	str	r2, [r3, #32]

  /* Reset SRDCFGR register */
  RCC->SRDCFGR = 0x00000000;
#endif
  /* Reset PLLCKSELR register */
  RCC->PLLCKSELR = 0x02020200;
 8004990:	491d      	ldr	r1, [pc, #116]	@ (8004a08 <SystemInit+0xd8>)
 8004992:	6299      	str	r1, [r3, #40]	@ 0x28

  /* Reset PLLCFGR register */
  RCC->PLLCFGR = 0x01FF0000;
 8004994:	491d      	ldr	r1, [pc, #116]	@ (8004a0c <SystemInit+0xdc>)
 8004996:	62d9      	str	r1, [r3, #44]	@ 0x2c
  /* Reset PLL1DIVR register */
  RCC->PLL1DIVR = 0x01010280;
 8004998:	491d      	ldr	r1, [pc, #116]	@ (8004a10 <SystemInit+0xe0>)
 800499a:	6319      	str	r1, [r3, #48]	@ 0x30
  /* Reset PLL1FRACR register */
  RCC->PLL1FRACR = 0x00000000;
 800499c:	635a      	str	r2, [r3, #52]	@ 0x34

  /* Reset PLL2DIVR register */
  RCC->PLL2DIVR = 0x01010280;
 800499e:	6399      	str	r1, [r3, #56]	@ 0x38

  /* Reset PLL2FRACR register */

  RCC->PLL2FRACR = 0x00000000;
 80049a0:	63da      	str	r2, [r3, #60]	@ 0x3c
  /* Reset PLL3DIVR register */
  RCC->PLL3DIVR = 0x01010280;
 80049a2:	6419      	str	r1, [r3, #64]	@ 0x40

  /* Reset PLL3FRACR register */
  RCC->PLL3FRACR = 0x00000000;
 80049a4:	645a      	str	r2, [r3, #68]	@ 0x44

  /* Reset HSEBYP bit */
  RCC->CR &= 0xFFFBFFFFU;
 80049a6:	6819      	ldr	r1, [r3, #0]
 80049a8:	f421 2180 	bic.w	r1, r1, #262144	@ 0x40000
 80049ac:	6019      	str	r1, [r3, #0]

  /* Disable all interrupts */
  RCC->CIER = 0x00000000;
 80049ae:	661a      	str	r2, [r3, #96]	@ 0x60

#if (STM32H7_DEV_ID == 0x450UL)
  /* dual core CM7 or single core line */
  if((DBGMCU->IDCODE & 0xFFFF0000U) < 0x20000000U)
 80049b0:	4b18      	ldr	r3, [pc, #96]	@ (8004a14 <SystemInit+0xe4>)
 80049b2:	681b      	ldr	r3, [r3, #0]
 80049b4:	f36f 030f 	bfc	r3, #0, #16
 80049b8:	f1b3 5f00 	cmp.w	r3, #536870912	@ 0x20000000
 80049bc:	d203      	bcs.n	80049c6 <SystemInit+0x96>
  {
    /* if stm32h7 revY*/
    /* Change  the switch matrix read issuing capability to 1 for the AXI SRAM target (Target 7) */
    *((__IO uint32_t*)0x51008108) = 0x000000001U;
 80049be:	4b16      	ldr	r3, [pc, #88]	@ (8004a18 <SystemInit+0xe8>)
 80049c0:	2201      	movs	r2, #1
 80049c2:	f8c3 2108 	str.w	r2, [r3, #264]	@ 0x108
#if defined(USER_VECT_TAB_ADDRESS)
  SCB->VTOR = VECT_TAB_BASE_ADDRESS | VECT_TAB_OFFSET; /* Vector Table Relocation in Internal D2 AXI-RAM or in Internal FLASH */
#endif /* USER_VECT_TAB_ADDRESS */

#else
  if(READ_BIT(RCC->AHB3ENR, RCC_AHB3ENR_FMCEN) == 0U)
 80049c6:	4b0e      	ldr	r3, [pc, #56]	@ (8004a00 <SystemInit+0xd0>)
 80049c8:	f8d3 30d4 	ldr.w	r3, [r3, #212]	@ 0xd4
 80049cc:	f413 5f80 	tst.w	r3, #4096	@ 0x1000
 80049d0:	d110      	bne.n	80049f4 <SystemInit+0xc4>
  {
    /* Enable the FMC interface clock */
    SET_BIT(RCC->AHB3ENR, RCC_AHB3ENR_FMCEN);
 80049d2:	4b0b      	ldr	r3, [pc, #44]	@ (8004a00 <SystemInit+0xd0>)
 80049d4:	f8d3 20d4 	ldr.w	r2, [r3, #212]	@ 0xd4
 80049d8:	f442 5280 	orr.w	r2, r2, #4096	@ 0x1000
 80049dc:	f8c3 20d4 	str.w	r2, [r3, #212]	@ 0xd4
    /*
     * Disable the FMC bank1 (enabled after reset).
     * This, prevents CPU speculation access on this bank which blocks the use of FMC during
     * 24us. During this time the others FMC master (such as LTDC) cannot use it!
     */
    FMC_Bank1_R->BTCR[0] = 0x000030D2;
 80049e0:	4a0e      	ldr	r2, [pc, #56]	@ (8004a1c <SystemInit+0xec>)
 80049e2:	f243 01d2 	movw	r1, #12498	@ 0x30d2
 80049e6:	6011      	str	r1, [r2, #0]

    /* Disable the FMC interface clock */
    CLEAR_BIT(RCC->AHB3ENR, RCC_AHB3ENR_FMCEN);
 80049e8:	f8d3 20d4 	ldr.w	r2, [r3, #212]	@ 0xd4
 80049ec:	f422 5280 	bic.w	r2, r2, #4096	@ 0x1000
 80049f0:	f8c3 20d4 	str.w	r2, [r3, #212]	@ 0xd4
#if defined(USER_VECT_TAB_ADDRESS)
  SCB->VTOR = VECT_TAB_BASE_ADDRESS | VECT_TAB_OFFSET; /* Vector Table Relocation in Internal D1 AXI-RAM or in Internal FLASH */
#endif /* USER_VECT_TAB_ADDRESS */

#endif /*DUAL_CORE && CORE_CM4*/
}
 80049f4:	4770      	bx	lr
 80049f6:	bf00      	nop
 80049f8:	e000ed00 	.word	0xe000ed00
 80049fc:	52002000 	.word	0x52002000
 8004a00:	58024400 	.word	0x58024400
 8004a04:	eaf6ed7f 	.word	0xeaf6ed7f
 8004a08:	02020200 	.word	0x02020200
 8004a0c:	01ff0000 	.word	0x01ff0000
 8004a10:	01010280 	.word	0x01010280
 8004a14:	5c001000 	.word	0x5c001000
 8004a18:	51008000 	.word	0x51008000
 8004a1c:	52004000 	.word	0x52004000

08004a20 <ExitRun0Mode>:
  #if defined(SMPS)
    /* Exit Run* mode by disabling SMPS and enabling LDO */
    PWR->CR3 = (PWR->CR3 & ~PWR_CR3_SMPSEN) | PWR_CR3_LDOEN;
  #else
    /* Enable LDO mode */
    PWR->CR3 |= PWR_CR3_LDOEN;
 8004a20:	4a05      	ldr	r2, [pc, #20]	@ (8004a38 <ExitRun0Mode+0x18>)
 8004a22:	68d3      	ldr	r3, [r2, #12]
 8004a24:	f043 0302 	orr.w	r3, r3, #2
 8004a28:	60d3      	str	r3, [r2, #12]
  #endif /* SMPS */
  /* Wait till voltage level flag is set */
  while ((PWR->CSR1 & PWR_CSR1_ACTVOSRDY) == 0U)
 8004a2a:	4b03      	ldr	r3, [pc, #12]	@ (8004a38 <ExitRun0Mode+0x18>)
 8004a2c:	685b      	ldr	r3, [r3, #4]
 8004a2e:	f413 5f00 	tst.w	r3, #8192	@ 0x2000
 8004a32:	d0fa      	beq.n	8004a2a <ExitRun0Mode+0xa>
  while ((PWR->CSR1 & PWR_CSR1_ACTVOSRDY) == 0U)
  {}
#else
  /* No system power supply configuration is selected at exit Run* mode */
#endif /* USE_PWR_LDO_SUPPLY */
}
 8004a34:	4770      	bx	lr
 8004a36:	bf00      	nop
 8004a38:	58024800 	.word	0x58024800

08004a3c <MX_USB_DEVICE_Init>:
/**
  * Init USB device Library, add supported class and start the library
  * @retval None
  */
void MX_USB_DEVICE_Init(void)
{
 8004a3c:	b508      	push	{r3, lr}
  /* USER CODE BEGIN USB_DEVICE_Init_PreTreatment */

  /* USER CODE END USB_DEVICE_Init_PreTreatment */

  /* Init Device Library, add supported class and start the library. */
  if (USBD_Init(&hUsbDeviceFS, &FS_Desc, DEVICE_FS) != USBD_OK)
 8004a3e:	2200      	movs	r2, #0
 8004a40:	4910      	ldr	r1, [pc, #64]	@ (8004a84 <MX_USB_DEVICE_Init+0x48>)
 8004a42:	4811      	ldr	r0, [pc, #68]	@ (8004a88 <MX_USB_DEVICE_Init+0x4c>)
 8004a44:	f000 fc4e 	bl	80052e4 <USBD_Init>
 8004a48:	b980      	cbnz	r0, 8004a6c <MX_USB_DEVICE_Init+0x30>
  {
    Error_Handler();
  }
  if (USBD_RegisterClass(&hUsbDeviceFS, &USBD_CDC) != USBD_OK)
 8004a4a:	4910      	ldr	r1, [pc, #64]	@ (8004a8c <MX_USB_DEVICE_Init+0x50>)
 8004a4c:	480e      	ldr	r0, [pc, #56]	@ (8004a88 <MX_USB_DEVICE_Init+0x4c>)
 8004a4e:	f000 fc60 	bl	8005312 <USBD_RegisterClass>
 8004a52:	b970      	cbnz	r0, 8004a72 <MX_USB_DEVICE_Init+0x36>
  {
    Error_Handler();
  }
  if (USBD_CDC_RegisterInterface(&hUsbDeviceFS, &USBD_Interface_fops_FS) != USBD_OK)
 8004a54:	490e      	ldr	r1, [pc, #56]	@ (8004a90 <MX_USB_DEVICE_Init+0x54>)
 8004a56:	480c      	ldr	r0, [pc, #48]	@ (8004a88 <MX_USB_DEVICE_Init+0x4c>)
 8004a58:	f000 fa3b 	bl	8004ed2 <USBD_CDC_RegisterInterface>
 8004a5c:	b960      	cbnz	r0, 8004a78 <MX_USB_DEVICE_Init+0x3c>
  {
    Error_Handler();
  }
  if (USBD_Start(&hUsbDeviceFS) != USBD_OK)
 8004a5e:	480a      	ldr	r0, [pc, #40]	@ (8004a88 <MX_USB_DEVICE_Init+0x4c>)
 8004a60:	f000 fc77 	bl	8005352 <USBD_Start>
 8004a64:	b958      	cbnz	r0, 8004a7e <MX_USB_DEVICE_Init+0x42>
  {
    Error_Handler();
  }

  /* USER CODE BEGIN USB_DEVICE_Init_PostTreatment */
  HAL_PWREx_EnableUSBVoltageDetector();
 8004a66:	f7fd f971 	bl	8001d4c <HAL_PWREx_EnableUSBVoltageDetector>

  /* USER CODE END USB_DEVICE_Init_PostTreatment */
}
 8004a6a:	bd08      	pop	{r3, pc}
    Error_Handler();
 8004a6c:	f7fb fc87 	bl	800037e <Error_Handler>
 8004a70:	e7eb      	b.n	8004a4a <MX_USB_DEVICE_Init+0xe>
    Error_Handler();
 8004a72:	f7fb fc84 	bl	800037e <Error_Handler>
 8004a76:	e7ed      	b.n	8004a54 <MX_USB_DEVICE_Init+0x18>
    Error_Handler();
 8004a78:	f7fb fc81 	bl	800037e <Error_Handler>
 8004a7c:	e7ef      	b.n	8004a5e <MX_USB_DEVICE_Init+0x22>
    Error_Handler();
 8004a7e:	f7fb fc7e 	bl	800037e <Error_Handler>
 8004a82:	e7f0      	b.n	8004a66 <MX_USB_DEVICE_Init+0x2a>
 8004a84:	200000e0 	.word	0x200000e0
 8004a88:	2000020c 	.word	0x2000020c
 8004a8c:	20000054 	.word	0x20000054
 8004a90:	20000098 	.word	0x20000098

08004a94 <USBD_CDC_EP0_RxReady>:
  *         Handle EP0 Rx Ready event
  * @param  pdev: device instance
  * @retval status
  */
static uint8_t USBD_CDC_EP0_RxReady(USBD_HandleTypeDef *pdev)
{
 8004a94:	b510      	push	{r4, lr}
  USBD_CDC_HandleTypeDef *hcdc = (USBD_CDC_HandleTypeDef *)pdev->pClassDataCmsit[pdev->classId];
 8004a96:	f8d0 32d4 	ldr.w	r3, [r0, #724]	@ 0x2d4
 8004a9a:	f103 02b0 	add.w	r2, r3, #176	@ 0xb0
 8004a9e:	f850 4022 	ldr.w	r4, [r0, r2, lsl #2]

  if (hcdc == NULL)
 8004aa2:	b18c      	cbz	r4, 8004ac8 <USBD_CDC_EP0_RxReady+0x34>
  {
    return (uint8_t)USBD_FAIL;
  }

  if ((pdev->pUserData[pdev->classId] != NULL) && (hcdc->CmdOpCode != 0xFFU))
 8004aa4:	eb00 0082 	add.w	r0, r0, r2, lsl #2
 8004aa8:	6843      	ldr	r3, [r0, #4]
 8004aaa:	b17b      	cbz	r3, 8004acc <USBD_CDC_EP0_RxReady+0x38>
 8004aac:	f894 0200 	ldrb.w	r0, [r4, #512]	@ 0x200
 8004ab0:	28ff      	cmp	r0, #255	@ 0xff
 8004ab2:	d00d      	beq.n	8004ad0 <USBD_CDC_EP0_RxReady+0x3c>
  {
    ((USBD_CDC_ItfTypeDef *)pdev->pUserData[pdev->classId])->Control(hcdc->CmdOpCode,
 8004ab4:	689b      	ldr	r3, [r3, #8]
 8004ab6:	f894 2201 	ldrb.w	r2, [r4, #513]	@ 0x201
 8004aba:	4621      	mov	r1, r4
 8004abc:	4798      	blx	r3
                                                                     (uint8_t *)hcdc->data,
                                                                     (uint16_t)hcdc->CmdLength);
    hcdc->CmdOpCode = 0xFFU;
 8004abe:	23ff      	movs	r3, #255	@ 0xff
 8004ac0:	f884 3200 	strb.w	r3, [r4, #512]	@ 0x200
  }

  return (uint8_t)USBD_OK;
 8004ac4:	2000      	movs	r0, #0
}
 8004ac6:	bd10      	pop	{r4, pc}
    return (uint8_t)USBD_FAIL;
 8004ac8:	2003      	movs	r0, #3
 8004aca:	e7fc      	b.n	8004ac6 <USBD_CDC_EP0_RxReady+0x32>
  return (uint8_t)USBD_OK;
 8004acc:	2000      	movs	r0, #0
 8004ace:	e7fa      	b.n	8004ac6 <USBD_CDC_EP0_RxReady+0x32>
 8004ad0:	2000      	movs	r0, #0
 8004ad2:	e7f8      	b.n	8004ac6 <USBD_CDC_EP0_RxReady+0x32>

08004ad4 <USBD_CDC_GetDeviceQualifierDescriptor>:
  * @param  length : pointer data length
  * @retval pointer to descriptor buffer
  */
uint8_t *USBD_CDC_GetDeviceQualifierDescriptor(uint16_t *length)
{
  *length = (uint16_t)sizeof(USBD_CDC_DeviceQualifierDesc);
 8004ad4:	230a      	movs	r3, #10
 8004ad6:	8003      	strh	r3, [r0, #0]

  return USBD_CDC_DeviceQualifierDesc;
}
 8004ad8:	4800      	ldr	r0, [pc, #0]	@ (8004adc <USBD_CDC_GetDeviceQualifierDescriptor+0x8>)
 8004ada:	4770      	bx	lr
 8004adc:	2000008c 	.word	0x2000008c

08004ae0 <USBD_CDC_GetOtherSpeedCfgDesc>:
{
 8004ae0:	b5f8      	push	{r3, r4, r5, r6, r7, lr}
 8004ae2:	4606      	mov	r6, r0
  USBD_EpDescTypeDef *pEpCmdDesc = USBD_GetEpDesc(USBD_CDC_CfgDesc, CDC_CMD_EP);
 8004ae4:	4f0f      	ldr	r7, [pc, #60]	@ (8004b24 <USBD_CDC_GetOtherSpeedCfgDesc+0x44>)
 8004ae6:	2182      	movs	r1, #130	@ 0x82
 8004ae8:	4638      	mov	r0, r7
 8004aea:	f000 fde5 	bl	80056b8 <USBD_GetEpDesc>
 8004aee:	4605      	mov	r5, r0
  USBD_EpDescTypeDef *pEpOutDesc = USBD_GetEpDesc(USBD_CDC_CfgDesc, CDC_OUT_EP);
 8004af0:	2101      	movs	r1, #1
 8004af2:	4638      	mov	r0, r7
 8004af4:	f000 fde0 	bl	80056b8 <USBD_GetEpDesc>
 8004af8:	4604      	mov	r4, r0
  USBD_EpDescTypeDef *pEpInDesc = USBD_GetEpDesc(USBD_CDC_CfgDesc, CDC_IN_EP);
 8004afa:	2181      	movs	r1, #129	@ 0x81
 8004afc:	4638      	mov	r0, r7
 8004afe:	f000 fddb 	bl	80056b8 <USBD_GetEpDesc>
  if (pEpCmdDesc != NULL)
 8004b02:	b10d      	cbz	r5, 8004b08 <USBD_CDC_GetOtherSpeedCfgDesc+0x28>
    pEpCmdDesc->bInterval = CDC_FS_BINTERVAL;
 8004b04:	2210      	movs	r2, #16
 8004b06:	71aa      	strb	r2, [r5, #6]
  if (pEpOutDesc != NULL)
 8004b08:	b11c      	cbz	r4, 8004b12 <USBD_CDC_GetOtherSpeedCfgDesc+0x32>
    pEpOutDesc->wMaxPacketSize = CDC_DATA_FS_MAX_PACKET_SIZE;
 8004b0a:	2240      	movs	r2, #64	@ 0x40
 8004b0c:	7122      	strb	r2, [r4, #4]
 8004b0e:	2200      	movs	r2, #0
 8004b10:	7162      	strb	r2, [r4, #5]
  if (pEpInDesc != NULL)
 8004b12:	b118      	cbz	r0, 8004b1c <USBD_CDC_GetOtherSpeedCfgDesc+0x3c>
    pEpInDesc->wMaxPacketSize = CDC_DATA_FS_MAX_PACKET_SIZE;
 8004b14:	2240      	movs	r2, #64	@ 0x40
 8004b16:	7102      	strb	r2, [r0, #4]
 8004b18:	2200      	movs	r2, #0
 8004b1a:	7142      	strb	r2, [r0, #5]
  *length = (uint16_t)sizeof(USBD_CDC_CfgDesc);
 8004b1c:	2343      	movs	r3, #67	@ 0x43
 8004b1e:	8033      	strh	r3, [r6, #0]
}
 8004b20:	4800      	ldr	r0, [pc, #0]	@ (8004b24 <USBD_CDC_GetOtherSpeedCfgDesc+0x44>)
 8004b22:	bdf8      	pop	{r3, r4, r5, r6, r7, pc}
 8004b24:	20000010 	.word	0x20000010

08004b28 <USBD_CDC_GetFSCfgDesc>:
{
 8004b28:	b5f8      	push	{r3, r4, r5, r6, r7, lr}
 8004b2a:	4606      	mov	r6, r0
  USBD_EpDescTypeDef *pEpCmdDesc = USBD_GetEpDesc(USBD_CDC_CfgDesc, CDC_CMD_EP);
 8004b2c:	4f0f      	ldr	r7, [pc, #60]	@ (8004b6c <USBD_CDC_GetFSCfgDesc+0x44>)
 8004b2e:	2182      	movs	r1, #130	@ 0x82
 8004b30:	4638      	mov	r0, r7
 8004b32:	f000 fdc1 	bl	80056b8 <USBD_GetEpDesc>
 8004b36:	4605      	mov	r5, r0
  USBD_EpDescTypeDef *pEpOutDesc = USBD_GetEpDesc(USBD_CDC_CfgDesc, CDC_OUT_EP);
 8004b38:	2101      	movs	r1, #1
 8004b3a:	4638      	mov	r0, r7
 8004b3c:	f000 fdbc 	bl	80056b8 <USBD_GetEpDesc>
 8004b40:	4604      	mov	r4, r0
  USBD_EpDescTypeDef *pEpInDesc = USBD_GetEpDesc(USBD_CDC_CfgDesc, CDC_IN_EP);
 8004b42:	2181      	movs	r1, #129	@ 0x81
 8004b44:	4638      	mov	r0, r7
 8004b46:	f000 fdb7 	bl	80056b8 <USBD_GetEpDesc>
  if (pEpCmdDesc != NULL)
 8004b4a:	b10d      	cbz	r5, 8004b50 <USBD_CDC_GetFSCfgDesc+0x28>
    pEpCmdDesc->bInterval = CDC_FS_BINTERVAL;
 8004b4c:	2210      	movs	r2, #16
 8004b4e:	71aa      	strb	r2, [r5, #6]
  if (pEpOutDesc != NULL)
 8004b50:	b11c      	cbz	r4, 8004b5a <USBD_CDC_GetFSCfgDesc+0x32>
    pEpOutDesc->wMaxPacketSize = CDC_DATA_FS_MAX_PACKET_SIZE;
 8004b52:	2240      	movs	r2, #64	@ 0x40
 8004b54:	7122      	strb	r2, [r4, #4]
 8004b56:	2200      	movs	r2, #0
 8004b58:	7162      	strb	r2, [r4, #5]
  if (pEpInDesc != NULL)
 8004b5a:	b118      	cbz	r0, 8004b64 <USBD_CDC_GetFSCfgDesc+0x3c>
    pEpInDesc->wMaxPacketSize = CDC_DATA_FS_MAX_PACKET_SIZE;
 8004b5c:	2240      	movs	r2, #64	@ 0x40
 8004b5e:	7102      	strb	r2, [r0, #4]
 8004b60:	2200      	movs	r2, #0
 8004b62:	7142      	strb	r2, [r0, #5]
  *length = (uint16_t)sizeof(USBD_CDC_CfgDesc);
 8004b64:	2343      	movs	r3, #67	@ 0x43
 8004b66:	8033      	strh	r3, [r6, #0]
}
 8004b68:	4800      	ldr	r0, [pc, #0]	@ (8004b6c <USBD_CDC_GetFSCfgDesc+0x44>)
 8004b6a:	bdf8      	pop	{r3, r4, r5, r6, r7, pc}
 8004b6c:	20000010 	.word	0x20000010

08004b70 <USBD_CDC_GetHSCfgDesc>:
{
 8004b70:	b5f8      	push	{r3, r4, r5, r6, r7, lr}
 8004b72:	4606      	mov	r6, r0
  USBD_EpDescTypeDef *pEpCmdDesc = USBD_GetEpDesc(USBD_CDC_CfgDesc, CDC_CMD_EP);
 8004b74:	4f0f      	ldr	r7, [pc, #60]	@ (8004bb4 <USBD_CDC_GetHSCfgDesc+0x44>)
 8004b76:	2182      	movs	r1, #130	@ 0x82
 8004b78:	4638      	mov	r0, r7
 8004b7a:	f000 fd9d 	bl	80056b8 <USBD_GetEpDesc>
 8004b7e:	4605      	mov	r5, r0
  USBD_EpDescTypeDef *pEpOutDesc = USBD_GetEpDesc(USBD_CDC_CfgDesc, CDC_OUT_EP);
 8004b80:	2101      	movs	r1, #1
 8004b82:	4638      	mov	r0, r7
 8004b84:	f000 fd98 	bl	80056b8 <USBD_GetEpDesc>
 8004b88:	4604      	mov	r4, r0
  USBD_EpDescTypeDef *pEpInDesc = USBD_GetEpDesc(USBD_CDC_CfgDesc, CDC_IN_EP);
 8004b8a:	2181      	movs	r1, #129	@ 0x81
 8004b8c:	4638      	mov	r0, r7
 8004b8e:	f000 fd93 	bl	80056b8 <USBD_GetEpDesc>
  if (pEpCmdDesc != NULL)
 8004b92:	b10d      	cbz	r5, 8004b98 <USBD_CDC_GetHSCfgDesc+0x28>
    pEpCmdDesc->bInterval = CDC_HS_BINTERVAL;
 8004b94:	2210      	movs	r2, #16
 8004b96:	71aa      	strb	r2, [r5, #6]
  if (pEpOutDesc != NULL)
 8004b98:	b11c      	cbz	r4, 8004ba2 <USBD_CDC_GetHSCfgDesc+0x32>
    pEpOutDesc->wMaxPacketSize = CDC_DATA_HS_MAX_PACKET_SIZE;
 8004b9a:	2200      	movs	r2, #0
 8004b9c:	7122      	strb	r2, [r4, #4]
 8004b9e:	2202      	movs	r2, #2
 8004ba0:	7162      	strb	r2, [r4, #5]
  if (pEpInDesc != NULL)
 8004ba2:	b118      	cbz	r0, 8004bac <USBD_CDC_GetHSCfgDesc+0x3c>
    pEpInDesc->wMaxPacketSize = CDC_DATA_HS_MAX_PACKET_SIZE;
 8004ba4:	2200      	movs	r2, #0
 8004ba6:	7102      	strb	r2, [r0, #4]
 8004ba8:	2202      	movs	r2, #2
 8004baa:	7142      	strb	r2, [r0, #5]
  *length = (uint16_t)sizeof(USBD_CDC_CfgDesc);
 8004bac:	2343      	movs	r3, #67	@ 0x43
 8004bae:	8033      	strh	r3, [r6, #0]
}
 8004bb0:	4800      	ldr	r0, [pc, #0]	@ (8004bb4 <USBD_CDC_GetHSCfgDesc+0x44>)
 8004bb2:	bdf8      	pop	{r3, r4, r5, r6, r7, pc}
 8004bb4:	20000010 	.word	0x20000010

08004bb8 <USBD_CDC_DataOut>:
{
 8004bb8:	b538      	push	{r3, r4, r5, lr}
  USBD_CDC_HandleTypeDef *hcdc = (USBD_CDC_HandleTypeDef *)pdev->pClassDataCmsit[pdev->classId];
 8004bba:	f8d0 32d4 	ldr.w	r3, [r0, #724]	@ 0x2d4
 8004bbe:	33b0      	adds	r3, #176	@ 0xb0
 8004bc0:	f850 5023 	ldr.w	r5, [r0, r3, lsl #2]
  if (pdev->pClassDataCmsit[pdev->classId] == NULL)
 8004bc4:	b195      	cbz	r5, 8004bec <USBD_CDC_DataOut+0x34>
 8004bc6:	4604      	mov	r4, r0
  hcdc->RxLength = USBD_LL_GetRxDataSize(pdev, epnum);
 8004bc8:	f000 fb34 	bl	8005234 <USBD_LL_GetRxDataSize>
 8004bcc:	f8c5 020c 	str.w	r0, [r5, #524]	@ 0x20c
  ((USBD_CDC_ItfTypeDef *)pdev->pUserData[pdev->classId])->Receive(hcdc->RxBuffer, &hcdc->RxLength);
 8004bd0:	f8d4 32d4 	ldr.w	r3, [r4, #724]	@ 0x2d4
 8004bd4:	33b0      	adds	r3, #176	@ 0xb0
 8004bd6:	eb04 0483 	add.w	r4, r4, r3, lsl #2
 8004bda:	6863      	ldr	r3, [r4, #4]
 8004bdc:	68db      	ldr	r3, [r3, #12]
 8004bde:	f505 7103 	add.w	r1, r5, #524	@ 0x20c
 8004be2:	f8d5 0204 	ldr.w	r0, [r5, #516]	@ 0x204
 8004be6:	4798      	blx	r3
  return (uint8_t)USBD_OK;
 8004be8:	2000      	movs	r0, #0
}
 8004bea:	bd38      	pop	{r3, r4, r5, pc}
    return (uint8_t)USBD_FAIL;
 8004bec:	2003      	movs	r0, #3
 8004bee:	e7fc      	b.n	8004bea <USBD_CDC_DataOut+0x32>

08004bf0 <USBD_CDC_DataIn>:
{
 8004bf0:	b538      	push	{r3, r4, r5, lr}
  PCD_HandleTypeDef *hpcd = (PCD_HandleTypeDef *)pdev->pData;
 8004bf2:	f8d0 52c8 	ldr.w	r5, [r0, #712]	@ 0x2c8
  if (pdev->pClassDataCmsit[pdev->classId] == NULL)
 8004bf6:	f8d0 32d4 	ldr.w	r3, [r0, #724]	@ 0x2d4
 8004bfa:	33b0      	adds	r3, #176	@ 0xb0
 8004bfc:	f850 4023 	ldr.w	r4, [r0, r3, lsl #2]
 8004c00:	b384      	cbz	r4, 8004c64 <USBD_CDC_DataIn+0x74>
  if ((pdev->ep_in[epnum & 0xFU].total_length > 0U) &&
 8004c02:	f001 030f 	and.w	r3, r1, #15
 8004c06:	eb03 0283 	add.w	r2, r3, r3, lsl #2
 8004c0a:	eb00 0282 	add.w	r2, r0, r2, lsl #2
 8004c0e:	6992      	ldr	r2, [r2, #24]
 8004c10:	b14a      	cbz	r2, 8004c26 <USBD_CDC_DataIn+0x36>
      ((pdev->ep_in[epnum & 0xFU].total_length % hpcd->IN_ep[epnum & 0xFU].maxpacket) == 0U))
 8004c12:	eb03 0cc3 	add.w	ip, r3, r3, lsl #3
 8004c16:	eb05 058c 	add.w	r5, r5, ip, lsl #2
 8004c1a:	69ed      	ldr	r5, [r5, #28]
 8004c1c:	fbb2 fcf5 	udiv	ip, r2, r5
 8004c20:	fb05 221c 	mls	r2, r5, ip, r2
  if ((pdev->ep_in[epnum & 0xFU].total_length > 0U) &&
 8004c24:	b192      	cbz	r2, 8004c4c <USBD_CDC_DataIn+0x5c>
    hcdc->TxState = 0U;
 8004c26:	2300      	movs	r3, #0
 8004c28:	f8c4 3214 	str.w	r3, [r4, #532]	@ 0x214
    if (((USBD_CDC_ItfTypeDef *)pdev->pUserData[pdev->classId])->TransmitCplt != NULL)
 8004c2c:	f8d0 32d4 	ldr.w	r3, [r0, #724]	@ 0x2d4
 8004c30:	33b0      	adds	r3, #176	@ 0xb0
 8004c32:	eb00 0083 	add.w	r0, r0, r3, lsl #2
 8004c36:	6843      	ldr	r3, [r0, #4]
 8004c38:	691b      	ldr	r3, [r3, #16]
 8004c3a:	b1ab      	cbz	r3, 8004c68 <USBD_CDC_DataIn+0x78>
      ((USBD_CDC_ItfTypeDef *)pdev->pUserData[pdev->classId])->TransmitCplt(hcdc->TxBuffer, &hcdc->TxLength, epnum);
 8004c3c:	460a      	mov	r2, r1
 8004c3e:	f504 7104 	add.w	r1, r4, #528	@ 0x210
 8004c42:	f8d4 0208 	ldr.w	r0, [r4, #520]	@ 0x208
 8004c46:	4798      	blx	r3
  return (uint8_t)USBD_OK;
 8004c48:	2000      	movs	r0, #0
}
 8004c4a:	bd38      	pop	{r3, r4, r5, pc}
    pdev->ep_in[epnum & 0xFU].total_length = 0U;
 8004c4c:	eb03 0383 	add.w	r3, r3, r3, lsl #2
 8004c50:	eb00 0383 	add.w	r3, r0, r3, lsl #2
 8004c54:	2400      	movs	r4, #0
 8004c56:	619c      	str	r4, [r3, #24]
    (void)USBD_LL_Transmit(pdev, epnum, NULL, 0U);
 8004c58:	4623      	mov	r3, r4
 8004c5a:	4622      	mov	r2, r4
 8004c5c:	f000 fb32 	bl	80052c4 <USBD_LL_Transmit>
  return (uint8_t)USBD_OK;
 8004c60:	4620      	mov	r0, r4
    (void)USBD_LL_Transmit(pdev, epnum, NULL, 0U);
 8004c62:	e7f2      	b.n	8004c4a <USBD_CDC_DataIn+0x5a>
    return (uint8_t)USBD_FAIL;
 8004c64:	2003      	movs	r0, #3
 8004c66:	e7f0      	b.n	8004c4a <USBD_CDC_DataIn+0x5a>
  return (uint8_t)USBD_OK;
 8004c68:	2000      	movs	r0, #0
 8004c6a:	e7ee      	b.n	8004c4a <USBD_CDC_DataIn+0x5a>

08004c6c <USBD_CDC_Setup>:
{
 8004c6c:	b5f0      	push	{r4, r5, r6, r7, lr}
 8004c6e:	b083      	sub	sp, #12
  USBD_CDC_HandleTypeDef *hcdc = (USBD_CDC_HandleTypeDef *)pdev->pClassDataCmsit[pdev->classId];
 8004c70:	f8d0 32d4 	ldr.w	r3, [r0, #724]	@ 0x2d4
 8004c74:	f103 02b0 	add.w	r2, r3, #176	@ 0xb0
 8004c78:	f850 7022 	ldr.w	r7, [r0, r2, lsl #2]
  uint8_t ifalt = 0U;
 8004c7c:	2200      	movs	r2, #0
 8004c7e:	f88d 2007 	strb.w	r2, [sp, #7]
  uint16_t status_info = 0U;
 8004c82:	f8ad 2004 	strh.w	r2, [sp, #4]
  if (hcdc == NULL)
 8004c86:	2f00      	cmp	r7, #0
 8004c88:	d078      	beq.n	8004d7c <USBD_CDC_Setup+0x110>
 8004c8a:	4604      	mov	r4, r0
 8004c8c:	460d      	mov	r5, r1
  switch (req->bmRequest & USB_REQ_TYPE_MASK)
 8004c8e:	7809      	ldrb	r1, [r1, #0]
 8004c90:	f011 0660 	ands.w	r6, r1, #96	@ 0x60
 8004c94:	d034      	beq.n	8004d00 <USBD_CDC_Setup+0x94>
 8004c96:	2e20      	cmp	r6, #32
 8004c98:	d169      	bne.n	8004d6e <USBD_CDC_Setup+0x102>
      if (req->wLength != 0U)
 8004c9a:	88ea      	ldrh	r2, [r5, #6]
 8004c9c:	b32a      	cbz	r2, 8004cea <USBD_CDC_Setup+0x7e>
        if ((req->bmRequest & 0x80U) != 0U)
 8004c9e:	f011 0f80 	tst.w	r1, #128	@ 0x80
 8004ca2:	d10e      	bne.n	8004cc2 <USBD_CDC_Setup+0x56>
          hcdc->CmdOpCode = req->bRequest;
 8004ca4:	786b      	ldrb	r3, [r5, #1]
 8004ca6:	f887 3200 	strb.w	r3, [r7, #512]	@ 0x200
          hcdc->CmdLength = (uint8_t)MIN(req->wLength, USB_MAX_EP0_SIZE);
 8004caa:	88ea      	ldrh	r2, [r5, #6]
 8004cac:	2a3f      	cmp	r2, #63	@ 0x3f
 8004cae:	d81a      	bhi.n	8004ce6 <USBD_CDC_Setup+0x7a>
 8004cb0:	b2d2      	uxtb	r2, r2
 8004cb2:	f887 2201 	strb.w	r2, [r7, #513]	@ 0x201
          (void)USBD_CtlPrepareRx(pdev, (uint8_t *)hcdc->data, hcdc->CmdLength);
 8004cb6:	4639      	mov	r1, r7
 8004cb8:	4620      	mov	r0, r4
 8004cba:	f001 f976 	bl	8005faa <USBD_CtlPrepareRx>
  USBD_StatusTypeDef ret = USBD_OK;
 8004cbe:	2600      	movs	r6, #0
 8004cc0:	e059      	b.n	8004d76 <USBD_CDC_Setup+0x10a>
          ((USBD_CDC_ItfTypeDef *)pdev->pUserData[pdev->classId])->Control(req->bRequest,
 8004cc2:	33b0      	adds	r3, #176	@ 0xb0
 8004cc4:	eb00 0383 	add.w	r3, r0, r3, lsl #2
 8004cc8:	685b      	ldr	r3, [r3, #4]
 8004cca:	689b      	ldr	r3, [r3, #8]
 8004ccc:	4639      	mov	r1, r7
 8004cce:	7868      	ldrb	r0, [r5, #1]
 8004cd0:	4798      	blx	r3
          len = MIN(CDC_REQ_MAX_DATA_SIZE, req->wLength);
 8004cd2:	88ea      	ldrh	r2, [r5, #6]
          (void)USBD_CtlSendData(pdev, (uint8_t *)hcdc->data, len);
 8004cd4:	2a07      	cmp	r2, #7
 8004cd6:	bf28      	it	cs
 8004cd8:	2207      	movcs	r2, #7
 8004cda:	4639      	mov	r1, r7
 8004cdc:	4620      	mov	r0, r4
 8004cde:	f001 f94f 	bl	8005f80 <USBD_CtlSendData>
  USBD_StatusTypeDef ret = USBD_OK;
 8004ce2:	2600      	movs	r6, #0
 8004ce4:	e047      	b.n	8004d76 <USBD_CDC_Setup+0x10a>
          hcdc->CmdLength = (uint8_t)MIN(req->wLength, USB_MAX_EP0_SIZE);
 8004ce6:	2240      	movs	r2, #64	@ 0x40
 8004ce8:	e7e3      	b.n	8004cb2 <USBD_CDC_Setup+0x46>
        ((USBD_CDC_ItfTypeDef *)pdev->pUserData[pdev->classId])->Control(req->bRequest,
 8004cea:	33b0      	adds	r3, #176	@ 0xb0
 8004cec:	eb00 0383 	add.w	r3, r0, r3, lsl #2
 8004cf0:	685b      	ldr	r3, [r3, #4]
 8004cf2:	689b      	ldr	r3, [r3, #8]
 8004cf4:	2200      	movs	r2, #0
 8004cf6:	4629      	mov	r1, r5
 8004cf8:	7868      	ldrb	r0, [r5, #1]
 8004cfa:	4798      	blx	r3
  USBD_StatusTypeDef ret = USBD_OK;
 8004cfc:	2600      	movs	r6, #0
 8004cfe:	e03a      	b.n	8004d76 <USBD_CDC_Setup+0x10a>
      switch (req->bRequest)
 8004d00:	786f      	ldrb	r7, [r5, #1]
 8004d02:	2f0b      	cmp	r7, #11
 8004d04:	d82e      	bhi.n	8004d64 <USBD_CDC_Setup+0xf8>
 8004d06:	e8df f007 	tbb	[pc, r7]
 8004d0a:	3606      	.short	0x3606
 8004d0c:	2d2d2d2d 	.word	0x2d2d2d2d
 8004d10:	2d2d2d2d 	.word	0x2d2d2d2d
 8004d14:	2415      	.short	0x2415
          if (pdev->dev_state == USBD_STATE_CONFIGURED)
 8004d16:	f890 329c 	ldrb.w	r3, [r0, #668]	@ 0x29c
 8004d1a:	2b03      	cmp	r3, #3
 8004d1c:	d004      	beq.n	8004d28 <USBD_CDC_Setup+0xbc>
            USBD_CtlError(pdev, req);
 8004d1e:	4629      	mov	r1, r5
 8004d20:	f000 fd07 	bl	8005732 <USBD_CtlError>
            ret = USBD_FAIL;
 8004d24:	2603      	movs	r6, #3
 8004d26:	e026      	b.n	8004d76 <USBD_CDC_Setup+0x10a>
            (void)USBD_CtlSendData(pdev, (uint8_t *)&status_info, 2U);
 8004d28:	2202      	movs	r2, #2
 8004d2a:	a901      	add	r1, sp, #4
 8004d2c:	f001 f928 	bl	8005f80 <USBD_CtlSendData>
  USBD_StatusTypeDef ret = USBD_OK;
 8004d30:	463e      	mov	r6, r7
 8004d32:	e020      	b.n	8004d76 <USBD_CDC_Setup+0x10a>
          if (pdev->dev_state == USBD_STATE_CONFIGURED)
 8004d34:	f890 329c 	ldrb.w	r3, [r0, #668]	@ 0x29c
 8004d38:	2b03      	cmp	r3, #3
 8004d3a:	d004      	beq.n	8004d46 <USBD_CDC_Setup+0xda>
            USBD_CtlError(pdev, req);
 8004d3c:	4629      	mov	r1, r5
 8004d3e:	f000 fcf8 	bl	8005732 <USBD_CtlError>
            ret = USBD_FAIL;
 8004d42:	2603      	movs	r6, #3
 8004d44:	e017      	b.n	8004d76 <USBD_CDC_Setup+0x10a>
            (void)USBD_CtlSendData(pdev, &ifalt, 1U);
 8004d46:	2201      	movs	r2, #1
 8004d48:	f10d 0107 	add.w	r1, sp, #7
 8004d4c:	f001 f918 	bl	8005f80 <USBD_CtlSendData>
 8004d50:	e011      	b.n	8004d76 <USBD_CDC_Setup+0x10a>
          if (pdev->dev_state != USBD_STATE_CONFIGURED)
 8004d52:	f890 329c 	ldrb.w	r3, [r0, #668]	@ 0x29c
 8004d56:	2b03      	cmp	r3, #3
 8004d58:	d00d      	beq.n	8004d76 <USBD_CDC_Setup+0x10a>
            USBD_CtlError(pdev, req);
 8004d5a:	4629      	mov	r1, r5
 8004d5c:	f000 fce9 	bl	8005732 <USBD_CtlError>
            ret = USBD_FAIL;
 8004d60:	2603      	movs	r6, #3
 8004d62:	e008      	b.n	8004d76 <USBD_CDC_Setup+0x10a>
          USBD_CtlError(pdev, req);
 8004d64:	4629      	mov	r1, r5
 8004d66:	f000 fce4 	bl	8005732 <USBD_CtlError>
          ret = USBD_FAIL;
 8004d6a:	2603      	movs	r6, #3
          break;
 8004d6c:	e003      	b.n	8004d76 <USBD_CDC_Setup+0x10a>
      USBD_CtlError(pdev, req);
 8004d6e:	4629      	mov	r1, r5
 8004d70:	f000 fcdf 	bl	8005732 <USBD_CtlError>
      ret = USBD_FAIL;
 8004d74:	2603      	movs	r6, #3
}
 8004d76:	4630      	mov	r0, r6
 8004d78:	b003      	add	sp, #12
 8004d7a:	bdf0      	pop	{r4, r5, r6, r7, pc}
    return (uint8_t)USBD_FAIL;
 8004d7c:	2603      	movs	r6, #3
 8004d7e:	e7fa      	b.n	8004d76 <USBD_CDC_Setup+0x10a>

08004d80 <USBD_CDC_DeInit>:
{
 8004d80:	b538      	push	{r3, r4, r5, lr}
 8004d82:	4604      	mov	r4, r0
  (void)USBD_LL_CloseEP(pdev, CDCInEpAdd);
 8004d84:	2181      	movs	r1, #129	@ 0x81
 8004d86:	f000 fa7d 	bl	8005284 <USBD_LL_CloseEP>
  pdev->ep_in[CDCInEpAdd & 0xFU].is_used = 0U;
 8004d8a:	2500      	movs	r5, #0
 8004d8c:	8725      	strh	r5, [r4, #56]	@ 0x38
  (void)USBD_LL_CloseEP(pdev, CDCOutEpAdd);
 8004d8e:	2101      	movs	r1, #1
 8004d90:	4620      	mov	r0, r4
 8004d92:	f000 fa77 	bl	8005284 <USBD_LL_CloseEP>
  pdev->ep_out[CDCOutEpAdd & 0xFU].is_used = 0U;
 8004d96:	f8a4 5178 	strh.w	r5, [r4, #376]	@ 0x178
  (void)USBD_LL_CloseEP(pdev, CDCCmdEpAdd);
 8004d9a:	2182      	movs	r1, #130	@ 0x82
 8004d9c:	4620      	mov	r0, r4
 8004d9e:	f000 fa71 	bl	8005284 <USBD_LL_CloseEP>
  pdev->ep_in[CDCCmdEpAdd & 0xFU].is_used = 0U;
 8004da2:	f8a4 504c 	strh.w	r5, [r4, #76]	@ 0x4c
  pdev->ep_in[CDCCmdEpAdd & 0xFU].bInterval = 0U;
 8004da6:	f8a4 504e 	strh.w	r5, [r4, #78]	@ 0x4e
  if (pdev->pClassDataCmsit[pdev->classId] != NULL)
 8004daa:	f8d4 32d4 	ldr.w	r3, [r4, #724]	@ 0x2d4
 8004dae:	f103 02b0 	add.w	r2, r3, #176	@ 0xb0
 8004db2:	f854 2022 	ldr.w	r2, [r4, r2, lsl #2]
 8004db6:	b19a      	cbz	r2, 8004de0 <USBD_CDC_DeInit+0x60>
    ((USBD_CDC_ItfTypeDef *)pdev->pUserData[pdev->classId])->DeInit();
 8004db8:	33b0      	adds	r3, #176	@ 0xb0
 8004dba:	eb04 0383 	add.w	r3, r4, r3, lsl #2
 8004dbe:	685b      	ldr	r3, [r3, #4]
 8004dc0:	685b      	ldr	r3, [r3, #4]
 8004dc2:	4798      	blx	r3
    (void)USBD_free(pdev->pClassDataCmsit[pdev->classId]);
 8004dc4:	f8d4 32d4 	ldr.w	r3, [r4, #724]	@ 0x2d4
 8004dc8:	33b0      	adds	r3, #176	@ 0xb0
 8004dca:	f854 0023 	ldr.w	r0, [r4, r3, lsl #2]
 8004dce:	f000 fa3b 	bl	8005248 <USBD_static_free>
    pdev->pClassDataCmsit[pdev->classId] = NULL;
 8004dd2:	f8d4 32d4 	ldr.w	r3, [r4, #724]	@ 0x2d4
 8004dd6:	33b0      	adds	r3, #176	@ 0xb0
 8004dd8:	f844 5023 	str.w	r5, [r4, r3, lsl #2]
    pdev->pClassData = NULL;
 8004ddc:	f8c4 52bc 	str.w	r5, [r4, #700]	@ 0x2bc
}
 8004de0:	2000      	movs	r0, #0
 8004de2:	bd38      	pop	{r3, r4, r5, pc}

08004de4 <USBD_CDC_Init>:
{
 8004de4:	b570      	push	{r4, r5, r6, lr}
 8004de6:	4604      	mov	r4, r0
  hcdc = (USBD_CDC_HandleTypeDef *)USBD_malloc(sizeof(USBD_CDC_HandleTypeDef));
 8004de8:	f44f 7007 	mov.w	r0, #540	@ 0x21c
 8004dec:	f000 fa28 	bl	8005240 <USBD_static_malloc>
  if (hcdc == NULL)
 8004df0:	2800      	cmp	r0, #0
 8004df2:	d049      	beq.n	8004e88 <USBD_CDC_Init+0xa4>
 8004df4:	4605      	mov	r5, r0
  (void)USBD_memset(hcdc, 0, sizeof(USBD_CDC_HandleTypeDef));
 8004df6:	f44f 7207 	mov.w	r2, #540	@ 0x21c
 8004dfa:	2100      	movs	r1, #0
 8004dfc:	f001 f92d 	bl	800605a <memset>
  pdev->pClassDataCmsit[pdev->classId] = (void *)hcdc;
 8004e00:	f8d4 32d4 	ldr.w	r3, [r4, #724]	@ 0x2d4
 8004e04:	33b0      	adds	r3, #176	@ 0xb0
 8004e06:	f844 5023 	str.w	r5, [r4, r3, lsl #2]
  pdev->pClassData = pdev->pClassDataCmsit[pdev->classId];
 8004e0a:	f8c4 52bc 	str.w	r5, [r4, #700]	@ 0x2bc
  if (pdev->dev_speed == USBD_SPEED_HIGH)
 8004e0e:	7c23      	ldrb	r3, [r4, #16]
 8004e10:	2b00      	cmp	r3, #0
 8004e12:	d141      	bne.n	8004e98 <USBD_CDC_Init+0xb4>
    (void)USBD_LL_OpenEP(pdev, CDCInEpAdd, USBD_EP_TYPE_BULK,
 8004e14:	f44f 7300 	mov.w	r3, #512	@ 0x200
 8004e18:	2202      	movs	r2, #2
 8004e1a:	2181      	movs	r1, #129	@ 0x81
 8004e1c:	4620      	mov	r0, r4
 8004e1e:	f000 fa26 	bl	800526e <USBD_LL_OpenEP>
    pdev->ep_in[CDCInEpAdd & 0xFU].is_used = 1U;
 8004e22:	2601      	movs	r6, #1
 8004e24:	8726      	strh	r6, [r4, #56]	@ 0x38
    (void)USBD_LL_OpenEP(pdev, CDCOutEpAdd, USBD_EP_TYPE_BULK,
 8004e26:	f44f 7300 	mov.w	r3, #512	@ 0x200
 8004e2a:	2202      	movs	r2, #2
 8004e2c:	4631      	mov	r1, r6
 8004e2e:	4620      	mov	r0, r4
 8004e30:	f000 fa1d 	bl	800526e <USBD_LL_OpenEP>
    pdev->ep_out[CDCOutEpAdd & 0xFU].is_used = 1U;
 8004e34:	f8a4 6178 	strh.w	r6, [r4, #376]	@ 0x178
    pdev->ep_in[CDCCmdEpAdd & 0xFU].bInterval = CDC_HS_BINTERVAL;
 8004e38:	2310      	movs	r3, #16
 8004e3a:	f8a4 304e 	strh.w	r3, [r4, #78]	@ 0x4e
  (void)USBD_LL_OpenEP(pdev, CDCCmdEpAdd, USBD_EP_TYPE_INTR, CDC_CMD_PACKET_SIZE);
 8004e3e:	2308      	movs	r3, #8
 8004e40:	2203      	movs	r2, #3
 8004e42:	2182      	movs	r1, #130	@ 0x82
 8004e44:	4620      	mov	r0, r4
 8004e46:	f000 fa12 	bl	800526e <USBD_LL_OpenEP>
  pdev->ep_in[CDCCmdEpAdd & 0xFU].is_used = 1U;
 8004e4a:	2301      	movs	r3, #1
 8004e4c:	f8a4 304c 	strh.w	r3, [r4, #76]	@ 0x4c
  hcdc->RxBuffer = NULL;
 8004e50:	2600      	movs	r6, #0
 8004e52:	f8c5 6204 	str.w	r6, [r5, #516]	@ 0x204
  ((USBD_CDC_ItfTypeDef *)pdev->pUserData[pdev->classId])->Init();
 8004e56:	f8d4 32d4 	ldr.w	r3, [r4, #724]	@ 0x2d4
 8004e5a:	33b0      	adds	r3, #176	@ 0xb0
 8004e5c:	eb04 0383 	add.w	r3, r4, r3, lsl #2
 8004e60:	685b      	ldr	r3, [r3, #4]
 8004e62:	681b      	ldr	r3, [r3, #0]
 8004e64:	4798      	blx	r3
  hcdc->TxState = 0U;
 8004e66:	f8c5 6214 	str.w	r6, [r5, #532]	@ 0x214
  hcdc->RxState = 0U;
 8004e6a:	f8c5 6218 	str.w	r6, [r5, #536]	@ 0x218
  if (hcdc->RxBuffer == NULL)
 8004e6e:	f8d5 2204 	ldr.w	r2, [r5, #516]	@ 0x204
 8004e72:	b362      	cbz	r2, 8004ece <USBD_CDC_Init+0xea>
  if (pdev->dev_speed == USBD_SPEED_HIGH)
 8004e74:	7c25      	ldrb	r5, [r4, #16]
 8004e76:	bb1d      	cbnz	r5, 8004ec0 <USBD_CDC_Init+0xdc>
    (void)USBD_LL_PrepareReceive(pdev, CDCOutEpAdd, hcdc->RxBuffer,
 8004e78:	f44f 7300 	mov.w	r3, #512	@ 0x200
 8004e7c:	2101      	movs	r1, #1
 8004e7e:	4620      	mov	r0, r4
 8004e80:	f000 fa28 	bl	80052d4 <USBD_LL_PrepareReceive>
}
 8004e84:	4628      	mov	r0, r5
 8004e86:	bd70      	pop	{r4, r5, r6, pc}
    pdev->pClassDataCmsit[pdev->classId] = NULL;
 8004e88:	f8d4 32d4 	ldr.w	r3, [r4, #724]	@ 0x2d4
 8004e8c:	33b0      	adds	r3, #176	@ 0xb0
 8004e8e:	2200      	movs	r2, #0
 8004e90:	f844 2023 	str.w	r2, [r4, r3, lsl #2]
    return (uint8_t)USBD_EMEM;
 8004e94:	2502      	movs	r5, #2
 8004e96:	e7f5      	b.n	8004e84 <USBD_CDC_Init+0xa0>
    (void)USBD_LL_OpenEP(pdev, CDCInEpAdd, USBD_EP_TYPE_BULK,
 8004e98:	2340      	movs	r3, #64	@ 0x40
 8004e9a:	2202      	movs	r2, #2
 8004e9c:	2181      	movs	r1, #129	@ 0x81
 8004e9e:	4620      	mov	r0, r4
 8004ea0:	f000 f9e5 	bl	800526e <USBD_LL_OpenEP>
    pdev->ep_in[CDCInEpAdd & 0xFU].is_used = 1U;
 8004ea4:	2601      	movs	r6, #1
 8004ea6:	8726      	strh	r6, [r4, #56]	@ 0x38
    (void)USBD_LL_OpenEP(pdev, CDCOutEpAdd, USBD_EP_TYPE_BULK,
 8004ea8:	2340      	movs	r3, #64	@ 0x40
 8004eaa:	2202      	movs	r2, #2
 8004eac:	4631      	mov	r1, r6
 8004eae:	4620      	mov	r0, r4
 8004eb0:	f000 f9dd 	bl	800526e <USBD_LL_OpenEP>
    pdev->ep_out[CDCOutEpAdd & 0xFU].is_used = 1U;
 8004eb4:	f8a4 6178 	strh.w	r6, [r4, #376]	@ 0x178
    pdev->ep_in[CDCCmdEpAdd & 0xFU].bInterval = CDC_FS_BINTERVAL;
 8004eb8:	2310      	movs	r3, #16
 8004eba:	f8a4 304e 	strh.w	r3, [r4, #78]	@ 0x4e
 8004ebe:	e7be      	b.n	8004e3e <USBD_CDC_Init+0x5a>
    (void)USBD_LL_PrepareReceive(pdev, CDCOutEpAdd, hcdc->RxBuffer,
 8004ec0:	2340      	movs	r3, #64	@ 0x40
 8004ec2:	2101      	movs	r1, #1
 8004ec4:	4620      	mov	r0, r4
 8004ec6:	f000 fa05 	bl	80052d4 <USBD_LL_PrepareReceive>
  return (uint8_t)USBD_OK;
 8004eca:	2500      	movs	r5, #0
 8004ecc:	e7da      	b.n	8004e84 <USBD_CDC_Init+0xa0>
    return (uint8_t)USBD_EMEM;
 8004ece:	2502      	movs	r5, #2
 8004ed0:	e7d8      	b.n	8004e84 <USBD_CDC_Init+0xa0>

08004ed2 <USBD_CDC_RegisterInterface>:
  * @retval status
  */
uint8_t USBD_CDC_RegisterInterface(USBD_HandleTypeDef *pdev,
                                   USBD_CDC_ItfTypeDef *fops)
{
  if (fops == NULL)
 8004ed2:	b139      	cbz	r1, 8004ee4 <USBD_CDC_RegisterInterface+0x12>
  {
    return (uint8_t)USBD_FAIL;
  }

  pdev->pUserData[pdev->classId] = fops;
 8004ed4:	f8d0 32d4 	ldr.w	r3, [r0, #724]	@ 0x2d4
 8004ed8:	33b0      	adds	r3, #176	@ 0xb0
 8004eda:	eb00 0083 	add.w	r0, r0, r3, lsl #2
 8004ede:	6041      	str	r1, [r0, #4]

  return (uint8_t)USBD_OK;
 8004ee0:	2000      	movs	r0, #0
 8004ee2:	4770      	bx	lr
    return (uint8_t)USBD_FAIL;
 8004ee4:	2003      	movs	r0, #3
}
 8004ee6:	4770      	bx	lr

08004ee8 <USBD_CDC_SetTxBuffer>:
  USBD_CDC_HandleTypeDef *hcdc = (USBD_CDC_HandleTypeDef *)pdev->pClassDataCmsit[ClassId];
#else
uint8_t USBD_CDC_SetTxBuffer(USBD_HandleTypeDef *pdev,
                             uint8_t *pbuff, uint32_t length)
{
  USBD_CDC_HandleTypeDef *hcdc = (USBD_CDC_HandleTypeDef *)pdev->pClassDataCmsit[pdev->classId];
 8004ee8:	f8d0 32d4 	ldr.w	r3, [r0, #724]	@ 0x2d4
 8004eec:	33b0      	adds	r3, #176	@ 0xb0
 8004eee:	f850 3023 	ldr.w	r3, [r0, r3, lsl #2]
#endif /* USE_USBD_COMPOSITE */

  if (hcdc == NULL)
 8004ef2:	b12b      	cbz	r3, 8004f00 <USBD_CDC_SetTxBuffer+0x18>
  {
    return (uint8_t)USBD_FAIL;
  }

  hcdc->TxBuffer = pbuff;
 8004ef4:	f8c3 1208 	str.w	r1, [r3, #520]	@ 0x208
  hcdc->TxLength = length;
 8004ef8:	f8c3 2210 	str.w	r2, [r3, #528]	@ 0x210

  return (uint8_t)USBD_OK;
 8004efc:	2000      	movs	r0, #0
 8004efe:	4770      	bx	lr
    return (uint8_t)USBD_FAIL;
 8004f00:	2003      	movs	r0, #3
}
 8004f02:	4770      	bx	lr

08004f04 <USBD_CDC_SetRxBuffer>:
  * @param  pbuff: Rx Buffer
  * @retval status
  */
uint8_t USBD_CDC_SetRxBuffer(USBD_HandleTypeDef *pdev, uint8_t *pbuff)
{
  USBD_CDC_HandleTypeDef *hcdc = (USBD_CDC_HandleTypeDef *)pdev->pClassDataCmsit[pdev->classId];
 8004f04:	f8d0 32d4 	ldr.w	r3, [r0, #724]	@ 0x2d4
 8004f08:	33b0      	adds	r3, #176	@ 0xb0
 8004f0a:	f850 3023 	ldr.w	r3, [r0, r3, lsl #2]

  if (hcdc == NULL)
 8004f0e:	b11b      	cbz	r3, 8004f18 <USBD_CDC_SetRxBuffer+0x14>
  {
    return (uint8_t)USBD_FAIL;
  }

  hcdc->RxBuffer = pbuff;
 8004f10:	f8c3 1204 	str.w	r1, [r3, #516]	@ 0x204

  return (uint8_t)USBD_OK;
 8004f14:	2000      	movs	r0, #0
 8004f16:	4770      	bx	lr
    return (uint8_t)USBD_FAIL;
 8004f18:	2003      	movs	r0, #3
}
 8004f1a:	4770      	bx	lr

08004f1c <USBD_CDC_TransmitPacket>:
uint8_t USBD_CDC_TransmitPacket(USBD_HandleTypeDef *pdev, uint8_t ClassId)
{
  USBD_CDC_HandleTypeDef *hcdc = (USBD_CDC_HandleTypeDef *)pdev->pClassDataCmsit[ClassId];
#else
uint8_t USBD_CDC_TransmitPacket(USBD_HandleTypeDef *pdev)
{
 8004f1c:	b508      	push	{r3, lr}
  USBD_CDC_HandleTypeDef *hcdc = (USBD_CDC_HandleTypeDef *)pdev->pClassDataCmsit[pdev->classId];
 8004f1e:	f8d0 32d4 	ldr.w	r3, [r0, #724]	@ 0x2d4
 8004f22:	33b0      	adds	r3, #176	@ 0xb0
 8004f24:	f850 2023 	ldr.w	r2, [r0, r3, lsl #2]
#ifdef USE_USBD_COMPOSITE
  /* Get the Endpoints addresses allocated for this class instance */
  CDCInEpAdd  = USBD_CoreGetEPAdd(pdev, USBD_EP_IN, USBD_EP_TYPE_BULK, ClassId);
#endif  /* USE_USBD_COMPOSITE */

  if (hcdc == NULL)
 8004f28:	b18a      	cbz	r2, 8004f4e <USBD_CDC_TransmitPacket+0x32>
  {
    return (uint8_t)USBD_FAIL;
  }

  if (hcdc->TxState == 0U)
 8004f2a:	f8d2 3214 	ldr.w	r3, [r2, #532]	@ 0x214
 8004f2e:	b10b      	cbz	r3, 8004f34 <USBD_CDC_TransmitPacket+0x18>
  USBD_StatusTypeDef ret = USBD_BUSY;
 8004f30:	2001      	movs	r0, #1

    ret = USBD_OK;
  }

  return (uint8_t)ret;
}
 8004f32:	bd08      	pop	{r3, pc}
    hcdc->TxState = 1U;
 8004f34:	2301      	movs	r3, #1
 8004f36:	f8c2 3214 	str.w	r3, [r2, #532]	@ 0x214
    pdev->ep_in[CDCInEpAdd & 0xFU].total_length = hcdc->TxLength;
 8004f3a:	f8d2 3210 	ldr.w	r3, [r2, #528]	@ 0x210
 8004f3e:	62c3      	str	r3, [r0, #44]	@ 0x2c
    (void)USBD_LL_Transmit(pdev, CDCInEpAdd, hcdc->TxBuffer, hcdc->TxLength);
 8004f40:	f8d2 2208 	ldr.w	r2, [r2, #520]	@ 0x208
 8004f44:	2181      	movs	r1, #129	@ 0x81
 8004f46:	f000 f9bd 	bl	80052c4 <USBD_LL_Transmit>
    ret = USBD_OK;
 8004f4a:	2000      	movs	r0, #0
 8004f4c:	e7f1      	b.n	8004f32 <USBD_CDC_TransmitPacket+0x16>
    return (uint8_t)USBD_FAIL;
 8004f4e:	2003      	movs	r0, #3
 8004f50:	e7ef      	b.n	8004f32 <USBD_CDC_TransmitPacket+0x16>

08004f52 <USBD_CDC_ReceivePacket>:
  *         prepare OUT Endpoint for reception
  * @param  pdev: device instance
  * @retval status
  */
uint8_t USBD_CDC_ReceivePacket(USBD_HandleTypeDef *pdev)
{
 8004f52:	b510      	push	{r4, lr}
  USBD_CDC_HandleTypeDef *hcdc = (USBD_CDC_HandleTypeDef *)pdev->pClassDataCmsit[pdev->classId];
 8004f54:	f8d0 32d4 	ldr.w	r3, [r0, #724]	@ 0x2d4
 8004f58:	33b0      	adds	r3, #176	@ 0xb0
 8004f5a:	f850 2023 	ldr.w	r2, [r0, r3, lsl #2]
#ifdef USE_USBD_COMPOSITE
  /* Get the Endpoints addresses allocated for this class instance */
  CDCOutEpAdd = USBD_CoreGetEPAdd(pdev, USBD_EP_OUT, USBD_EP_TYPE_BULK, (uint8_t)pdev->classId);
#endif /* USE_USBD_COMPOSITE */

  if (pdev->pClassDataCmsit[pdev->classId] == NULL)
 8004f5e:	b192      	cbz	r2, 8004f86 <USBD_CDC_ReceivePacket+0x34>
  {
    return (uint8_t)USBD_FAIL;
  }

  if (pdev->dev_speed == USBD_SPEED_HIGH)
 8004f60:	7c04      	ldrb	r4, [r0, #16]
 8004f62:	b944      	cbnz	r4, 8004f76 <USBD_CDC_ReceivePacket+0x24>
  {
    /* Prepare Out endpoint to receive next packet */
    (void)USBD_LL_PrepareReceive(pdev, CDCOutEpAdd, hcdc->RxBuffer,
 8004f64:	f44f 7300 	mov.w	r3, #512	@ 0x200
 8004f68:	f8d2 2204 	ldr.w	r2, [r2, #516]	@ 0x204
 8004f6c:	2101      	movs	r1, #1
 8004f6e:	f000 f9b1 	bl	80052d4 <USBD_LL_PrepareReceive>
    (void)USBD_LL_PrepareReceive(pdev, CDCOutEpAdd, hcdc->RxBuffer,
                                 CDC_DATA_FS_OUT_PACKET_SIZE);
  }

  return (uint8_t)USBD_OK;
}
 8004f72:	4620      	mov	r0, r4
 8004f74:	bd10      	pop	{r4, pc}
    (void)USBD_LL_PrepareReceive(pdev, CDCOutEpAdd, hcdc->RxBuffer,
 8004f76:	2340      	movs	r3, #64	@ 0x40
 8004f78:	f8d2 2204 	ldr.w	r2, [r2, #516]	@ 0x204
 8004f7c:	2101      	movs	r1, #1
 8004f7e:	f000 f9a9 	bl	80052d4 <USBD_LL_PrepareReceive>
  return (uint8_t)USBD_OK;
 8004f82:	2400      	movs	r4, #0
 8004f84:	e7f5      	b.n	8004f72 <USBD_CDC_ReceivePacket+0x20>
    return (uint8_t)USBD_FAIL;
 8004f86:	2403      	movs	r4, #3
 8004f88:	e7f3      	b.n	8004f72 <USBD_CDC_ReceivePacket+0x20>

08004f8a <CDC_DeInit_FS>:
static int8_t CDC_DeInit_FS(void)
{
  /* USER CODE BEGIN 4 */
  return (USBD_OK);
  /* USER CODE END 4 */
}
 8004f8a:	2000      	movs	r0, #0
 8004f8c:	4770      	bx	lr

08004f8e <CDC_Control_FS>:
    break;
  }

  return (USBD_OK);
  /* USER CODE END 5 */
}
 8004f8e:	2000      	movs	r0, #0
 8004f90:	4770      	bx	lr

08004f92 <CDC_TransmitCplt_FS>:
  UNUSED(Buf);
  UNUSED(Len);
  UNUSED(epnum);
  /* USER CODE END 13 */
  return result;
}
 8004f92:	2000      	movs	r0, #0
 8004f94:	4770      	bx	lr
	...

08004f98 <CDC_Receive_FS>:
{
 8004f98:	b510      	push	{r4, lr}
 8004f9a:	4601      	mov	r1, r0
  USBD_CDC_SetRxBuffer(&hUsbDeviceFS, &Buf[0]);
 8004f9c:	4c04      	ldr	r4, [pc, #16]	@ (8004fb0 <CDC_Receive_FS+0x18>)
 8004f9e:	4620      	mov	r0, r4
 8004fa0:	f7ff ffb0 	bl	8004f04 <USBD_CDC_SetRxBuffer>
  USBD_CDC_ReceivePacket(&hUsbDeviceFS);
 8004fa4:	4620      	mov	r0, r4
 8004fa6:	f7ff ffd4 	bl	8004f52 <USBD_CDC_ReceivePacket>
}
 8004faa:	2000      	movs	r0, #0
 8004fac:	bd10      	pop	{r4, pc}
 8004fae:	bf00      	nop
 8004fb0:	2000020c 	.word	0x2000020c

08004fb4 <CDC_Init_FS>:
{
 8004fb4:	b510      	push	{r4, lr}
  USBD_CDC_SetTxBuffer(&hUsbDeviceFS, UserTxBufferFS, 0);
 8004fb6:	4c06      	ldr	r4, [pc, #24]	@ (8004fd0 <CDC_Init_FS+0x1c>)
 8004fb8:	2200      	movs	r2, #0
 8004fba:	4906      	ldr	r1, [pc, #24]	@ (8004fd4 <CDC_Init_FS+0x20>)
 8004fbc:	4620      	mov	r0, r4
 8004fbe:	f7ff ff93 	bl	8004ee8 <USBD_CDC_SetTxBuffer>
  USBD_CDC_SetRxBuffer(&hUsbDeviceFS, UserRxBufferFS);
 8004fc2:	4905      	ldr	r1, [pc, #20]	@ (8004fd8 <CDC_Init_FS+0x24>)
 8004fc4:	4620      	mov	r0, r4
 8004fc6:	f7ff ff9d 	bl	8004f04 <USBD_CDC_SetRxBuffer>
}
 8004fca:	2000      	movs	r0, #0
 8004fcc:	bd10      	pop	{r4, pc}
 8004fce:	bf00      	nop
 8004fd0:	2000020c 	.word	0x2000020c
 8004fd4:	200004e8 	.word	0x200004e8
 8004fd8:	200005e8 	.word	0x200005e8

08004fdc <CDC_Transmit_FS>:
  USBD_CDC_HandleTypeDef *hcdc = (USBD_CDC_HandleTypeDef*)hUsbDeviceFS.pClassData;
 8004fdc:	4b09      	ldr	r3, [pc, #36]	@ (8005004 <CDC_Transmit_FS+0x28>)
 8004fde:	f8d3 32bc 	ldr.w	r3, [r3, #700]	@ 0x2bc
  if (hcdc->TxState != 0){
 8004fe2:	f8d3 3214 	ldr.w	r3, [r3, #532]	@ 0x214
 8004fe6:	b10b      	cbz	r3, 8004fec <CDC_Transmit_FS+0x10>
    return USBD_BUSY;
 8004fe8:	2001      	movs	r0, #1
}
 8004fea:	4770      	bx	lr
{
 8004fec:	b510      	push	{r4, lr}
  USBD_CDC_SetTxBuffer(&hUsbDeviceFS, Buf, Len);
 8004fee:	4c05      	ldr	r4, [pc, #20]	@ (8005004 <CDC_Transmit_FS+0x28>)
 8004ff0:	460a      	mov	r2, r1
 8004ff2:	4601      	mov	r1, r0
 8004ff4:	4620      	mov	r0, r4
 8004ff6:	f7ff ff77 	bl	8004ee8 <USBD_CDC_SetTxBuffer>
  result = USBD_CDC_TransmitPacket(&hUsbDeviceFS);
 8004ffa:	4620      	mov	r0, r4
 8004ffc:	f7ff ff8e 	bl	8004f1c <USBD_CDC_TransmitPacket>
}
 8005000:	bd10      	pop	{r4, pc}
 8005002:	bf00      	nop
 8005004:	2000020c 	.word	0x2000020c

08005008 <HAL_PCD_MspInit>:
                       LL Driver Callbacks (PCD -> USB Device Library)
*******************************************************************************/
/* MSP Init */

void HAL_PCD_MspInit(PCD_HandleTypeDef* pcdHandle)
{
 8005008:	b530      	push	{r4, r5, lr}
 800500a:	b0b9      	sub	sp, #228	@ 0xe4
 800500c:	4604      	mov	r4, r0
  GPIO_InitTypeDef GPIO_InitStruct = {0};
 800500e:	2100      	movs	r1, #0
 8005010:	9133      	str	r1, [sp, #204]	@ 0xcc
 8005012:	9134      	str	r1, [sp, #208]	@ 0xd0
 8005014:	9135      	str	r1, [sp, #212]	@ 0xd4
 8005016:	9136      	str	r1, [sp, #216]	@ 0xd8
 8005018:	9137      	str	r1, [sp, #220]	@ 0xdc
  RCC_PeriphCLKInitTypeDef PeriphClkInitStruct = {0};
 800501a:	22c0      	movs	r2, #192	@ 0xc0
 800501c:	a802      	add	r0, sp, #8
 800501e:	f001 f81c 	bl	800605a <memset>
  if(pcdHandle->Instance==USB_OTG_FS)
 8005022:	6822      	ldr	r2, [r4, #0]
 8005024:	4b22      	ldr	r3, [pc, #136]	@ (80050b0 <HAL_PCD_MspInit+0xa8>)
 8005026:	429a      	cmp	r2, r3
 8005028:	d001      	beq.n	800502e <HAL_PCD_MspInit+0x26>
    HAL_NVIC_EnableIRQ(OTG_FS_IRQn);
  /* USER CODE BEGIN USB_OTG_FS_MspInit 1 */

  /* USER CODE END USB_OTG_FS_MspInit 1 */
  }
}
 800502a:	b039      	add	sp, #228	@ 0xe4
 800502c:	bd30      	pop	{r4, r5, pc}
    PeriphClkInitStruct.PeriphClockSelection = RCC_PERIPHCLK_USB;
 800502e:	f44f 2280 	mov.w	r2, #262144	@ 0x40000
 8005032:	2300      	movs	r3, #0
 8005034:	e9cd 2302 	strd	r2, r3, [sp, #8]
    PeriphClkInitStruct.UsbClockSelection = RCC_USBCLKSOURCE_PLL;
 8005038:	f44f 1380 	mov.w	r3, #1048576	@ 0x100000
 800503c:	9324      	str	r3, [sp, #144]	@ 0x90
    if (HAL_RCCEx_PeriphCLKConfig(&PeriphClkInitStruct) != HAL_OK)
 800503e:	a802      	add	r0, sp, #8
 8005040:	f7fd fd54 	bl	8002aec <HAL_RCCEx_PeriphCLKConfig>
 8005044:	bb88      	cbnz	r0, 80050aa <HAL_PCD_MspInit+0xa2>
    HAL_PWREx_EnableUSBVoltageDetector();
 8005046:	f7fc fe81 	bl	8001d4c <HAL_PWREx_EnableUSBVoltageDetector>
    __HAL_RCC_GPIOA_CLK_ENABLE();
 800504a:	4c1a      	ldr	r4, [pc, #104]	@ (80050b4 <HAL_PCD_MspInit+0xac>)
 800504c:	f8d4 30e0 	ldr.w	r3, [r4, #224]	@ 0xe0
 8005050:	f043 0301 	orr.w	r3, r3, #1
 8005054:	f8c4 30e0 	str.w	r3, [r4, #224]	@ 0xe0
 8005058:	f8d4 30e0 	ldr.w	r3, [r4, #224]	@ 0xe0
 800505c:	f003 0301 	and.w	r3, r3, #1
 8005060:	9300      	str	r3, [sp, #0]
 8005062:	9b00      	ldr	r3, [sp, #0]
    GPIO_InitStruct.Pin = GPIO_PIN_11|GPIO_PIN_12;
 8005064:	f44f 53c0 	mov.w	r3, #6144	@ 0x1800
 8005068:	9333      	str	r3, [sp, #204]	@ 0xcc
    GPIO_InitStruct.Mode = GPIO_MODE_AF_PP;
 800506a:	2302      	movs	r3, #2
 800506c:	9334      	str	r3, [sp, #208]	@ 0xd0
    GPIO_InitStruct.Pull = GPIO_NOPULL;
 800506e:	2500      	movs	r5, #0
 8005070:	9535      	str	r5, [sp, #212]	@ 0xd4
    GPIO_InitStruct.Speed = GPIO_SPEED_FREQ_LOW;
 8005072:	9536      	str	r5, [sp, #216]	@ 0xd8
    GPIO_InitStruct.Alternate = GPIO_AF10_OTG1_FS;
 8005074:	230a      	movs	r3, #10
 8005076:	9337      	str	r3, [sp, #220]	@ 0xdc
    HAL_GPIO_Init(GPIOA, &GPIO_InitStruct);
 8005078:	a933      	add	r1, sp, #204	@ 0xcc
 800507a:	480f      	ldr	r0, [pc, #60]	@ (80050b8 <HAL_PCD_MspInit+0xb0>)
 800507c:	f7fb fe08 	bl	8000c90 <HAL_GPIO_Init>
    __HAL_RCC_USB_OTG_FS_CLK_ENABLE();
 8005080:	f8d4 30d8 	ldr.w	r3, [r4, #216]	@ 0xd8
 8005084:	f043 6300 	orr.w	r3, r3, #134217728	@ 0x8000000
 8005088:	f8c4 30d8 	str.w	r3, [r4, #216]	@ 0xd8
 800508c:	f8d4 30d8 	ldr.w	r3, [r4, #216]	@ 0xd8
 8005090:	f003 6300 	and.w	r3, r3, #134217728	@ 0x8000000
 8005094:	9301      	str	r3, [sp, #4]
 8005096:	9b01      	ldr	r3, [sp, #4]
    HAL_NVIC_SetPriority(OTG_FS_IRQn, 0, 0);
 8005098:	462a      	mov	r2, r5
 800509a:	4629      	mov	r1, r5
 800509c:	2065      	movs	r0, #101	@ 0x65
 800509e:	f7fb fb51 	bl	8000744 <HAL_NVIC_SetPriority>
    HAL_NVIC_EnableIRQ(OTG_FS_IRQn);
 80050a2:	2065      	movs	r0, #101	@ 0x65
 80050a4:	f7fb fb5e 	bl	8000764 <HAL_NVIC_EnableIRQ>
}
 80050a8:	e7bf      	b.n	800502a <HAL_PCD_MspInit+0x22>
      Error_Handler();
 80050aa:	f7fb f968 	bl	800037e <Error_Handler>
 80050ae:	e7ca      	b.n	8005046 <HAL_PCD_MspInit+0x3e>
 80050b0:	40080000 	.word	0x40080000
 80050b4:	58024400 	.word	0x58024400
 80050b8:	58020000 	.word	0x58020000

080050bc <HAL_PCD_SetupStageCallback>:
#if (USE_HAL_PCD_REGISTER_CALLBACKS == 1U)
static void PCD_SetupStageCallback(PCD_HandleTypeDef *hpcd)
#else
void HAL_PCD_SetupStageCallback(PCD_HandleTypeDef *hpcd)
#endif /* USE_HAL_PCD_REGISTER_CALLBACKS */
{
 80050bc:	b508      	push	{r3, lr}
  USBD_LL_SetupStage((USBD_HandleTypeDef*)hpcd->pData, (uint8_t *)hpcd->Setup);
 80050be:	f200 419c 	addw	r1, r0, #1180	@ 0x49c
 80050c2:	f8d0 04e0 	ldr.w	r0, [r0, #1248]	@ 0x4e0
 80050c6:	f000 f95a 	bl	800537e <USBD_LL_SetupStage>
}
 80050ca:	bd08      	pop	{r3, pc}

080050cc <HAL_PCD_DataOutStageCallback>:
#if (USE_HAL_PCD_REGISTER_CALLBACKS == 1U)
static void PCD_DataOutStageCallback(PCD_HandleTypeDef *hpcd, uint8_t epnum)
#else
void HAL_PCD_DataOutStageCallback(PCD_HandleTypeDef *hpcd, uint8_t epnum)
#endif /* USE_HAL_PCD_REGISTER_CALLBACKS */
{
 80050cc:	b508      	push	{r3, lr}
  USBD_LL_DataOutStage((USBD_HandleTypeDef*)hpcd->pData, epnum, hpcd->OUT_ep[epnum].xfer_buff);
 80050ce:	eb01 03c1 	add.w	r3, r1, r1, lsl #3
 80050d2:	eb00 0383 	add.w	r3, r0, r3, lsl #2
 80050d6:	f8d3 2260 	ldr.w	r2, [r3, #608]	@ 0x260
 80050da:	f8d0 04e0 	ldr.w	r0, [r0, #1248]	@ 0x4e0
 80050de:	f000 fa1b 	bl	8005518 <USBD_LL_DataOutStage>
}
 80050e2:	bd08      	pop	{r3, pc}

080050e4 <HAL_PCD_DataInStageCallback>:
#if (USE_HAL_PCD_REGISTER_CALLBACKS == 1U)
static void PCD_DataInStageCallback(PCD_HandleTypeDef *hpcd, uint8_t epnum)
#else
void HAL_PCD_DataInStageCallback(PCD_HandleTypeDef *hpcd, uint8_t epnum)
#endif /* USE_HAL_PCD_REGISTER_CALLBACKS */
{
 80050e4:	b508      	push	{r3, lr}
  USBD_LL_DataInStage((USBD_HandleTypeDef*)hpcd->pData, epnum, hpcd->IN_ep[epnum].xfer_buff);
 80050e6:	eb01 03c1 	add.w	r3, r1, r1, lsl #3
 80050ea:	eb00 0383 	add.w	r3, r0, r3, lsl #2
 80050ee:	6a1a      	ldr	r2, [r3, #32]
 80050f0:	f8d0 04e0 	ldr.w	r0, [r0, #1248]	@ 0x4e0
 80050f4:	f000 fa70 	bl	80055d8 <USBD_LL_DataInStage>
}
 80050f8:	bd08      	pop	{r3, pc}

080050fa <HAL_PCD_SOFCallback>:
#if (USE_HAL_PCD_REGISTER_CALLBACKS == 1U)
static void PCD_SOFCallback(PCD_HandleTypeDef *hpcd)
#else
void HAL_PCD_SOFCallback(PCD_HandleTypeDef *hpcd)
#endif /* USE_HAL_PCD_REGISTER_CALLBACKS */
{
 80050fa:	b508      	push	{r3, lr}
  USBD_LL_SOF((USBD_HandleTypeDef*)hpcd->pData);
 80050fc:	f8d0 04e0 	ldr.w	r0, [r0, #1248]	@ 0x4e0
 8005100:	f000 f9b8 	bl	8005474 <USBD_LL_SOF>
}
 8005104:	bd08      	pop	{r3, pc}

08005106 <HAL_PCD_ResetCallback>:
#if (USE_HAL_PCD_REGISTER_CALLBACKS == 1U)
static void PCD_ResetCallback(PCD_HandleTypeDef *hpcd)
#else
void HAL_PCD_ResetCallback(PCD_HandleTypeDef *hpcd)
#endif /* USE_HAL_PCD_REGISTER_CALLBACKS */
{
 8005106:	b510      	push	{r4, lr}
 8005108:	4604      	mov	r4, r0
  USBD_SpeedTypeDef speed = USBD_SPEED_FULL;

  if ( hpcd->Init.speed == PCD_SPEED_HIGH)
 800510a:	79c1      	ldrb	r1, [r0, #7]
 800510c:	b111      	cbz	r1, 8005114 <HAL_PCD_ResetCallback+0xe>
  {
    speed = USBD_SPEED_HIGH;
  }
  else if ( hpcd->Init.speed == PCD_SPEED_FULL)
 800510e:	2902      	cmp	r1, #2
 8005110:	d109      	bne.n	8005126 <HAL_PCD_ResetCallback+0x20>
  {
    speed = USBD_SPEED_FULL;
 8005112:	2101      	movs	r1, #1
  else
  {
    Error_Handler();
  }
    /* Set Speed. */
  USBD_LL_SetSpeed((USBD_HandleTypeDef*)hpcd->pData, speed);
 8005114:	f8d4 04e0 	ldr.w	r0, [r4, #1248]	@ 0x4e0
 8005118:	f000 f98f 	bl	800543a <USBD_LL_SetSpeed>

  /* Reset Device. */
  USBD_LL_Reset((USBD_HandleTypeDef*)hpcd->pData);
 800511c:	f8d4 04e0 	ldr.w	r0, [r4, #1248]	@ 0x4e0
 8005120:	f000 f959 	bl	80053d6 <USBD_LL_Reset>
}
 8005124:	bd10      	pop	{r4, pc}
    Error_Handler();
 8005126:	f7fb f92a 	bl	800037e <Error_Handler>
  USBD_SpeedTypeDef speed = USBD_SPEED_FULL;
 800512a:	2101      	movs	r1, #1
 800512c:	e7f2      	b.n	8005114 <HAL_PCD_ResetCallback+0xe>
	...

08005130 <HAL_PCD_SuspendCallback>:
#if (USE_HAL_PCD_REGISTER_CALLBACKS == 1U)
static void PCD_SuspendCallback(PCD_HandleTypeDef *hpcd)
#else
void HAL_PCD_SuspendCallback(PCD_HandleTypeDef *hpcd)
#endif /* USE_HAL_PCD_REGISTER_CALLBACKS */
{
 8005130:	b510      	push	{r4, lr}
 8005132:	4604      	mov	r4, r0
  /* Inform USB library that core enters in suspend Mode. */
  USBD_LL_Suspend((USBD_HandleTypeDef*)hpcd->pData);
 8005134:	f8d0 04e0 	ldr.w	r0, [r0, #1248]	@ 0x4e0
 8005138:	f000 f982 	bl	8005440 <USBD_LL_Suspend>
  __HAL_PCD_GATE_PHYCLOCK(hpcd);
 800513c:	6822      	ldr	r2, [r4, #0]
 800513e:	f8d2 3e00 	ldr.w	r3, [r2, #3584]	@ 0xe00
 8005142:	f043 0301 	orr.w	r3, r3, #1
 8005146:	f8c2 3e00 	str.w	r3, [r2, #3584]	@ 0xe00
  /* Enter in STOP mode. */
  /* USER CODE BEGIN 2 */
  if (hpcd->Init.low_power_enable)
 800514a:	7ae3      	ldrb	r3, [r4, #11]
 800514c:	b123      	cbz	r3, 8005158 <HAL_PCD_SuspendCallback+0x28>
  {
    /* Set SLEEPDEEP bit and SleepOnExit of Cortex System Control Register. */
    SCB->SCR |= (uint32_t)((uint32_t)(SCB_SCR_SLEEPDEEP_Msk | SCB_SCR_SLEEPONEXIT_Msk));
 800514e:	4a03      	ldr	r2, [pc, #12]	@ (800515c <HAL_PCD_SuspendCallback+0x2c>)
 8005150:	6913      	ldr	r3, [r2, #16]
 8005152:	f043 0306 	orr.w	r3, r3, #6
 8005156:	6113      	str	r3, [r2, #16]
  }
  /* USER CODE END 2 */
}
 8005158:	bd10      	pop	{r4, pc}
 800515a:	bf00      	nop
 800515c:	e000ed00 	.word	0xe000ed00

08005160 <HAL_PCD_ResumeCallback>:
#if (USE_HAL_PCD_REGISTER_CALLBACKS == 1U)
static void PCD_ResumeCallback(PCD_HandleTypeDef *hpcd)
#else
void HAL_PCD_ResumeCallback(PCD_HandleTypeDef *hpcd)
#endif /* USE_HAL_PCD_REGISTER_CALLBACKS */
{
 8005160:	b508      	push	{r3, lr}
  /* USER CODE BEGIN 3 */

  /* USER CODE END 3 */
  USBD_LL_Resume((USBD_HandleTypeDef*)hpcd->pData);
 8005162:	f8d0 04e0 	ldr.w	r0, [r0, #1248]	@ 0x4e0
 8005166:	f000 f979 	bl	800545c <USBD_LL_Resume>
}
 800516a:	bd08      	pop	{r3, pc}

0800516c <HAL_PCD_ISOOUTIncompleteCallback>:
#if (USE_HAL_PCD_REGISTER_CALLBACKS == 1U)
static void PCD_ISOOUTIncompleteCallback(PCD_HandleTypeDef *hpcd, uint8_t epnum)
#else
void HAL_PCD_ISOOUTIncompleteCallback(PCD_HandleTypeDef *hpcd, uint8_t epnum)
#endif /* USE_HAL_PCD_REGISTER_CALLBACKS */
{
 800516c:	b508      	push	{r3, lr}
  USBD_LL_IsoOUTIncomplete((USBD_HandleTypeDef*)hpcd->pData, epnum);
 800516e:	f8d0 04e0 	ldr.w	r0, [r0, #1248]	@ 0x4e0
 8005172:	f000 f9a5 	bl	80054c0 <USBD_LL_IsoOUTIncomplete>
}
 8005176:	bd08      	pop	{r3, pc}

08005178 <HAL_PCD_ISOINIncompleteCallback>:
#if (USE_HAL_PCD_REGISTER_CALLBACKS == 1U)
static void PCD_ISOINIncompleteCallback(PCD_HandleTypeDef *hpcd, uint8_t epnum)
#else
void HAL_PCD_ISOINIncompleteCallback(PCD_HandleTypeDef *hpcd, uint8_t epnum)
#endif /* USE_HAL_PCD_REGISTER_CALLBACKS */
{
 8005178:	b508      	push	{r3, lr}
  USBD_LL_IsoINIncomplete((USBD_HandleTypeDef*)hpcd->pData, epnum);
 800517a:	f8d0 04e0 	ldr.w	r0, [r0, #1248]	@ 0x4e0
 800517e:	f000 f989 	bl	8005494 <USBD_LL_IsoINIncomplete>
}
 8005182:	bd08      	pop	{r3, pc}

08005184 <HAL_PCD_ConnectCallback>:
#if (USE_HAL_PCD_REGISTER_CALLBACKS == 1U)
static void PCD_ConnectCallback(PCD_HandleTypeDef *hpcd)
#else
void HAL_PCD_ConnectCallback(PCD_HandleTypeDef *hpcd)
#endif /* USE_HAL_PCD_REGISTER_CALLBACKS */
{
 8005184:	b508      	push	{r3, lr}
  USBD_LL_DevConnected((USBD_HandleTypeDef*)hpcd->pData);
 8005186:	f8d0 04e0 	ldr.w	r0, [r0, #1248]	@ 0x4e0
 800518a:	f000 f9af 	bl	80054ec <USBD_LL_DevConnected>
}
 800518e:	bd08      	pop	{r3, pc}

08005190 <HAL_PCD_DisconnectCallback>:
#if (USE_HAL_PCD_REGISTER_CALLBACKS == 1U)
static void PCD_DisconnectCallback(PCD_HandleTypeDef *hpcd)
#else
void HAL_PCD_DisconnectCallback(PCD_HandleTypeDef *hpcd)
#endif /* USE_HAL_PCD_REGISTER_CALLBACKS */
{
 8005190:	b508      	push	{r3, lr}
  USBD_LL_DevDisconnected((USBD_HandleTypeDef*)hpcd->pData);
 8005192:	f8d0 04e0 	ldr.w	r0, [r0, #1248]	@ 0x4e0
 8005196:	f000 f9ab 	bl	80054f0 <USBD_LL_DevDisconnected>
}
 800519a:	bd08      	pop	{r3, pc}

0800519c <USBD_LL_Init>:
  * @retval USBD status
  */
USBD_StatusTypeDef USBD_LL_Init(USBD_HandleTypeDef *pdev)
{
  /* Init USB Ip. */
  if (pdev->id == DEVICE_FS) {
 800519c:	7802      	ldrb	r2, [r0, #0]
 800519e:	b10a      	cbz	r2, 80051a4 <USBD_LL_Init+0x8>
  HAL_PCDEx_SetTxFiFo(&hpcd_USB_OTG_FS, 0, 0x40);
  HAL_PCDEx_SetTxFiFo(&hpcd_USB_OTG_FS, 1, 0x80);
  /* USER CODE END TxRx_Configuration */
  }
  return USBD_OK;
}
 80051a0:	2000      	movs	r0, #0
 80051a2:	4770      	bx	lr
{
 80051a4:	b510      	push	{r4, lr}
 80051a6:	4603      	mov	r3, r0
  hpcd_USB_OTG_FS.pData = pdev;
 80051a8:	4815      	ldr	r0, [pc, #84]	@ (8005200 <USBD_LL_Init+0x64>)
 80051aa:	f8c0 34e0 	str.w	r3, [r0, #1248]	@ 0x4e0
  pdev->pData = &hpcd_USB_OTG_FS;
 80051ae:	f8c3 02c8 	str.w	r0, [r3, #712]	@ 0x2c8
  hpcd_USB_OTG_FS.Instance = USB_OTG_FS;
 80051b2:	4b14      	ldr	r3, [pc, #80]	@ (8005204 <USBD_LL_Init+0x68>)
 80051b4:	6003      	str	r3, [r0, #0]
  hpcd_USB_OTG_FS.Init.dev_endpoints = 9;
 80051b6:	2309      	movs	r3, #9
 80051b8:	7103      	strb	r3, [r0, #4]
  hpcd_USB_OTG_FS.Init.speed = PCD_SPEED_FULL;
 80051ba:	2202      	movs	r2, #2
 80051bc:	71c2      	strb	r2, [r0, #7]
  hpcd_USB_OTG_FS.Init.dma_enable = DISABLE;
 80051be:	2300      	movs	r3, #0
 80051c0:	7183      	strb	r3, [r0, #6]
  hpcd_USB_OTG_FS.Init.phy_itface = PCD_PHY_EMBEDDED;
 80051c2:	7242      	strb	r2, [r0, #9]
  hpcd_USB_OTG_FS.Init.Sof_enable = DISABLE;
 80051c4:	7283      	strb	r3, [r0, #10]
  hpcd_USB_OTG_FS.Init.low_power_enable = DISABLE;
 80051c6:	72c3      	strb	r3, [r0, #11]
  hpcd_USB_OTG_FS.Init.lpm_enable = DISABLE;
 80051c8:	7303      	strb	r3, [r0, #12]
  hpcd_USB_OTG_FS.Init.battery_charging_enable = DISABLE;
 80051ca:	7343      	strb	r3, [r0, #13]
  hpcd_USB_OTG_FS.Init.vbus_sensing_enable = DISABLE;
 80051cc:	7383      	strb	r3, [r0, #14]
  hpcd_USB_OTG_FS.Init.use_dedicated_ep1 = DISABLE;
 80051ce:	73c3      	strb	r3, [r0, #15]
  if (HAL_PCD_Init(&hpcd_USB_OTG_FS) != HAL_OK)
 80051d0:	f7fb ff88 	bl	80010e4 <HAL_PCD_Init>
 80051d4:	b980      	cbnz	r0, 80051f8 <USBD_LL_Init+0x5c>
  HAL_PCDEx_SetRxFiFo(&hpcd_USB_OTG_FS, 0x80);
 80051d6:	4c0a      	ldr	r4, [pc, #40]	@ (8005200 <USBD_LL_Init+0x64>)
 80051d8:	2180      	movs	r1, #128	@ 0x80
 80051da:	4620      	mov	r0, r4
 80051dc:	f7fc fd71 	bl	8001cc2 <HAL_PCDEx_SetRxFiFo>
  HAL_PCDEx_SetTxFiFo(&hpcd_USB_OTG_FS, 0, 0x40);
 80051e0:	2240      	movs	r2, #64	@ 0x40
 80051e2:	2100      	movs	r1, #0
 80051e4:	4620      	mov	r0, r4
 80051e6:	f7fc fd46 	bl	8001c76 <HAL_PCDEx_SetTxFiFo>
  HAL_PCDEx_SetTxFiFo(&hpcd_USB_OTG_FS, 1, 0x80);
 80051ea:	2280      	movs	r2, #128	@ 0x80
 80051ec:	2101      	movs	r1, #1
 80051ee:	4620      	mov	r0, r4
 80051f0:	f7fc fd41 	bl	8001c76 <HAL_PCDEx_SetTxFiFo>
}
 80051f4:	2000      	movs	r0, #0
 80051f6:	bd10      	pop	{r4, pc}
    Error_Handler( );
 80051f8:	f7fb f8c1 	bl	800037e <Error_Handler>
 80051fc:	e7eb      	b.n	80051d6 <USBD_LL_Init+0x3a>
 80051fe:	bf00      	nop
 8005200:	20000908 	.word	0x20000908
 8005204:	40080000 	.word	0x40080000

08005208 <USBD_LL_IsStallEP>:
  * @param  ep_addr: Endpoint number
  * @retval Stall (1: Yes, 0: No)
  */
uint8_t USBD_LL_IsStallEP(USBD_HandleTypeDef *pdev, uint8_t ep_addr)
{
  PCD_HandleTypeDef *hpcd = (PCD_HandleTypeDef*) pdev->pData;
 8005208:	f8d0 32c8 	ldr.w	r3, [r0, #712]	@ 0x2c8

  if((ep_addr & 0x80) == 0x80)
 800520c:	f011 0f80 	tst.w	r1, #128	@ 0x80
 8005210:	d108      	bne.n	8005224 <USBD_LL_IsStallEP+0x1c>
  {
    return hpcd->IN_ep[ep_addr & 0x7F].is_stall;
  }
  else
  {
    return hpcd->OUT_ep[ep_addr & 0x7F].is_stall;
 8005212:	f001 017f 	and.w	r1, r1, #127	@ 0x7f
 8005216:	eb01 01c1 	add.w	r1, r1, r1, lsl #3
 800521a:	eb03 0381 	add.w	r3, r3, r1, lsl #2
 800521e:	f893 0256 	ldrb.w	r0, [r3, #598]	@ 0x256
  }
}
 8005222:	4770      	bx	lr
    return hpcd->IN_ep[ep_addr & 0x7F].is_stall;
 8005224:	f001 017f 	and.w	r1, r1, #127	@ 0x7f
 8005228:	eb01 01c1 	add.w	r1, r1, r1, lsl #3
 800522c:	eb03 0381 	add.w	r3, r3, r1, lsl #2
 8005230:	7d98      	ldrb	r0, [r3, #22]
 8005232:	4770      	bx	lr

08005234 <USBD_LL_GetRxDataSize>:
  * @param  pdev: Device handle
  * @param  ep_addr: Endpoint number
  * @retval Received Data Size
  */
uint32_t USBD_LL_GetRxDataSize(USBD_HandleTypeDef *pdev, uint8_t ep_addr)
{
 8005234:	b508      	push	{r3, lr}
  return HAL_PCD_EP_GetRxCount((PCD_HandleTypeDef*) pdev->pData, ep_addr);
 8005236:	f8d0 02c8 	ldr.w	r0, [r0, #712]	@ 0x2c8
 800523a:	f7fc f957 	bl	80014ec <HAL_PCD_EP_GetRxCount>
}
 800523e:	bd08      	pop	{r3, pc}

08005240 <USBD_static_malloc>:
void *USBD_static_malloc(uint32_t size)
{
  UNUSED(size);
  static uint32_t mem[(sizeof(USBD_CDC_HandleTypeDef)/4)+1];/* On 32-bit boundary */
  return mem;
}
 8005240:	4800      	ldr	r0, [pc, #0]	@ (8005244 <USBD_static_malloc+0x4>)
 8005242:	4770      	bx	lr
 8005244:	200006e8 	.word	0x200006e8

08005248 <USBD_static_free>:
  * @retval None
  */
void USBD_static_free(void *p)
{
  UNUSED(p);
}
 8005248:	4770      	bx	lr

0800524a <USBD_Get_USB_Status>:
  */
USBD_StatusTypeDef USBD_Get_USB_Status(HAL_StatusTypeDef hal_status)
{
  USBD_StatusTypeDef usb_status = USBD_OK;

  switch (hal_status)
 800524a:	2803      	cmp	r0, #3
 800524c:	d805      	bhi.n	800525a <USBD_Get_USB_Status+0x10>
 800524e:	e8df f000 	tbb	[pc, r0]
 8005252:	0405      	.short	0x0405
 8005254:	0502      	.short	0x0502
    break;
    case HAL_ERROR :
      usb_status = USBD_FAIL;
    break;
    case HAL_BUSY :
      usb_status = USBD_BUSY;
 8005256:	2001      	movs	r0, #1
    break;
 8005258:	4770      	bx	lr
      usb_status = USBD_FAIL;
 800525a:	2003      	movs	r0, #3
    default :
      usb_status = USBD_FAIL;
    break;
  }
  return usb_status;
}
 800525c:	4770      	bx	lr

0800525e <USBD_LL_Start>:
{
 800525e:	b508      	push	{r3, lr}
  hal_status = HAL_PCD_Start(pdev->pData);
 8005260:	f8d0 02c8 	ldr.w	r0, [r0, #712]	@ 0x2c8
 8005264:	f7fb ffbf 	bl	80011e6 <HAL_PCD_Start>
  usb_status =  USBD_Get_USB_Status(hal_status);
 8005268:	f7ff ffef 	bl	800524a <USBD_Get_USB_Status>
}
 800526c:	bd08      	pop	{r3, pc}

0800526e <USBD_LL_OpenEP>:
{
 800526e:	b508      	push	{r3, lr}
 8005270:	4694      	mov	ip, r2
 8005272:	461a      	mov	r2, r3
  hal_status = HAL_PCD_EP_Open(pdev->pData, ep_addr, ep_mps, ep_type);
 8005274:	4663      	mov	r3, ip
 8005276:	f8d0 02c8 	ldr.w	r0, [r0, #712]	@ 0x2c8
 800527a:	f7fc f894 	bl	80013a6 <HAL_PCD_EP_Open>
  usb_status =  USBD_Get_USB_Status(hal_status);
 800527e:	f7ff ffe4 	bl	800524a <USBD_Get_USB_Status>
}
 8005282:	bd08      	pop	{r3, pc}

08005284 <USBD_LL_CloseEP>:
{
 8005284:	b508      	push	{r3, lr}
  hal_status = HAL_PCD_EP_Close(pdev->pData, ep_addr);
 8005286:	f8d0 02c8 	ldr.w	r0, [r0, #712]	@ 0x2c8
 800528a:	f7fc f8d2 	bl	8001432 <HAL_PCD_EP_Close>
  usb_status =  USBD_Get_USB_Status(hal_status);
 800528e:	f7ff ffdc 	bl	800524a <USBD_Get_USB_Status>
}
 8005292:	bd08      	pop	{r3, pc}

08005294 <USBD_LL_StallEP>:
{
 8005294:	b508      	push	{r3, lr}
  hal_status = HAL_PCD_EP_SetStall(pdev->pData, ep_addr);
 8005296:	f8d0 02c8 	ldr.w	r0, [r0, #712]	@ 0x2c8
 800529a:	f7fc f955 	bl	8001548 <HAL_PCD_EP_SetStall>
  usb_status =  USBD_Get_USB_Status(hal_status);
 800529e:	f7ff ffd4 	bl	800524a <USBD_Get_USB_Status>
}
 80052a2:	bd08      	pop	{r3, pc}

080052a4 <USBD_LL_ClearStallEP>:
{
 80052a4:	b508      	push	{r3, lr}
  hal_status = HAL_PCD_EP_ClrStall(pdev->pData, ep_addr);
 80052a6:	f8d0 02c8 	ldr.w	r0, [r0, #712]	@ 0x2c8
 80052aa:	f7fc f990 	bl	80015ce <HAL_PCD_EP_ClrStall>
  usb_status =  USBD_Get_USB_Status(hal_status);
 80052ae:	f7ff ffcc 	bl	800524a <USBD_Get_USB_Status>
}
 80052b2:	bd08      	pop	{r3, pc}

080052b4 <USBD_LL_SetUSBAddress>:
{
 80052b4:	b508      	push	{r3, lr}
  hal_status = HAL_PCD_SetAddress(pdev->pData, dev_addr);
 80052b6:	f8d0 02c8 	ldr.w	r0, [r0, #712]	@ 0x2c8
 80052ba:	f7fc f861 	bl	8001380 <HAL_PCD_SetAddress>
  usb_status =  USBD_Get_USB_Status(hal_status);
 80052be:	f7ff ffc4 	bl	800524a <USBD_Get_USB_Status>
}
 80052c2:	bd08      	pop	{r3, pc}

080052c4 <USBD_LL_Transmit>:
{
 80052c4:	b508      	push	{r3, lr}
  hal_status = HAL_PCD_EP_Transmit(pdev->pData, ep_addr, pbuf, size);
 80052c6:	f8d0 02c8 	ldr.w	r0, [r0, #712]	@ 0x2c8
 80052ca:	f7fc f918 	bl	80014fe <HAL_PCD_EP_Transmit>
  usb_status =  USBD_Get_USB_Status(hal_status);
 80052ce:	f7ff ffbc 	bl	800524a <USBD_Get_USB_Status>
}
 80052d2:	bd08      	pop	{r3, pc}

080052d4 <USBD_LL_PrepareReceive>:
{
 80052d4:	b508      	push	{r3, lr}
  hal_status = HAL_PCD_EP_Receive(pdev->pData, ep_addr, pbuf, size);
 80052d6:	f8d0 02c8 	ldr.w	r0, [r0, #712]	@ 0x2c8
 80052da:	f7fc f8e2 	bl	80014a2 <HAL_PCD_EP_Receive>
  usb_status =  USBD_Get_USB_Status(hal_status);
 80052de:	f7ff ffb4 	bl	800524a <USBD_Get_USB_Status>
}
 80052e2:	bd08      	pop	{r3, pc}

080052e4 <USBD_Init>:
                             USBD_DescriptorsTypeDef *pdesc, uint8_t id)
{
  USBD_StatusTypeDef ret;

  /* Check whether the USB Host handle is valid */
  if (pdev == NULL)
 80052e4:	b198      	cbz	r0, 800530e <USBD_Init+0x2a>
{
 80052e6:	b508      	push	{r3, lr}
 80052e8:	4603      	mov	r3, r0
    pdev->NumClasses = 0;
    pdev->classId = 0;
  }
#else
  /* Unlink previous class*/
  pdev->pClass[0] = NULL;
 80052ea:	2000      	movs	r0, #0
 80052ec:	f8c3 02b8 	str.w	r0, [r3, #696]	@ 0x2b8
  pdev->pUserData[0] = NULL;
 80052f0:	f8c3 02c4 	str.w	r0, [r3, #708]	@ 0x2c4
#endif /* USE_USBD_COMPOSITE */

  pdev->pConfDesc = NULL;
 80052f4:	f8c3 02d0 	str.w	r0, [r3, #720]	@ 0x2d0

  /* Assign USBD Descriptors */
  if (pdesc != NULL)
 80052f8:	b109      	cbz	r1, 80052fe <USBD_Init+0x1a>
  {
    pdev->pDesc = pdesc;
 80052fa:	f8c3 12b4 	str.w	r1, [r3, #692]	@ 0x2b4
  }

  /* Set Device initial State */
  pdev->dev_state = USBD_STATE_DEFAULT;
 80052fe:	2101      	movs	r1, #1
 8005300:	f883 129c 	strb.w	r1, [r3, #668]	@ 0x29c
  pdev->id = id;
 8005304:	701a      	strb	r2, [r3, #0]

  /* Initialize low level driver */
  ret = USBD_LL_Init(pdev);
 8005306:	4618      	mov	r0, r3
 8005308:	f7ff ff48 	bl	800519c <USBD_LL_Init>

  return ret;
}
 800530c:	bd08      	pop	{r3, pc}
    return USBD_FAIL;
 800530e:	2003      	movs	r0, #3
}
 8005310:	4770      	bx	lr

08005312 <USBD_RegisterClass>:
  * @param  pdev: Device Handle
  * @param  pclass: Class handle
  * @retval USBD Status
  */
USBD_StatusTypeDef USBD_RegisterClass(USBD_HandleTypeDef *pdev, USBD_ClassTypeDef *pclass)
{
 8005312:	b510      	push	{r4, lr}
 8005314:	b082      	sub	sp, #8
  uint16_t len = 0U;
 8005316:	2300      	movs	r3, #0
 8005318:	f8ad 3006 	strh.w	r3, [sp, #6]

  if (pclass == NULL)
 800531c:	b1b9      	cbz	r1, 800534e <USBD_RegisterClass+0x3c>
 800531e:	4604      	mov	r4, r0
#endif /* (USBD_DEBUG_LEVEL > 1U) */
    return USBD_FAIL;
  }

  /* link the class to the USB Device handle */
  pdev->pClass[0] = pclass;
 8005320:	f8c0 12b8 	str.w	r1, [r0, #696]	@ 0x2b8
  if (pdev->pClass[pdev->classId]->GetHSConfigDescriptor != NULL)
  {
    pdev->pConfDesc = (void *)pdev->pClass[pdev->classId]->GetHSConfigDescriptor(&len);
  }
#else /* Default USE_USB_FS */
  if (pdev->pClass[pdev->classId]->GetFSConfigDescriptor != NULL)
 8005324:	f8d0 22d4 	ldr.w	r2, [r0, #724]	@ 0x2d4
 8005328:	6acb      	ldr	r3, [r1, #44]	@ 0x2c
 800532a:	b143      	cbz	r3, 800533e <USBD_RegisterClass+0x2c>
  {
    pdev->pConfDesc = (void *)pdev->pClass[pdev->classId]->GetFSConfigDescriptor(&len);
 800532c:	32ae      	adds	r2, #174	@ 0xae
 800532e:	f850 3022 	ldr.w	r3, [r0, r2, lsl #2]
 8005332:	6adb      	ldr	r3, [r3, #44]	@ 0x2c
 8005334:	f10d 0006 	add.w	r0, sp, #6
 8005338:	4798      	blx	r3
 800533a:	f8c4 02d0 	str.w	r0, [r4, #720]	@ 0x2d0
  }
#endif /* USE_USB_FS */

  /* Increment the NumClasses */
  pdev->NumClasses++;
 800533e:	f8d4 32d8 	ldr.w	r3, [r4, #728]	@ 0x2d8
 8005342:	3301      	adds	r3, #1
 8005344:	f8c4 32d8 	str.w	r3, [r4, #728]	@ 0x2d8

  return USBD_OK;
 8005348:	2000      	movs	r0, #0
}
 800534a:	b002      	add	sp, #8
 800534c:	bd10      	pop	{r4, pc}
    return USBD_FAIL;
 800534e:	2003      	movs	r0, #3
 8005350:	e7fb      	b.n	800534a <USBD_RegisterClass+0x38>

08005352 <USBD_Start>:
  *         Start the USB Device Core.
  * @param  pdev: Device Handle
  * @retval USBD Status
  */
USBD_StatusTypeDef USBD_Start(USBD_HandleTypeDef *pdev)
{
 8005352:	b508      	push	{r3, lr}
#ifdef USE_USBD_COMPOSITE
  pdev->classId = 0U;
#endif /* USE_USBD_COMPOSITE */

  /* Start the low level driver  */
  return USBD_LL_Start(pdev);
 8005354:	f7ff ff83 	bl	800525e <USBD_LL_Start>
}
 8005358:	bd08      	pop	{r3, pc}

0800535a <USBD_SetClassConfig>:
  * @param  cfgidx: configuration index
  * @retval status
  */

USBD_StatusTypeDef USBD_SetClassConfig(USBD_HandleTypeDef *pdev, uint8_t cfgidx)
{
 800535a:	b508      	push	{r3, lr}
        }
      }
    }
  }
#else
  if (pdev->pClass[0] != NULL)
 800535c:	f8d0 32b8 	ldr.w	r3, [r0, #696]	@ 0x2b8
 8005360:	b113      	cbz	r3, 8005368 <USBD_SetClassConfig+0xe>
  {
    /* Set configuration and Start the Class */
    ret = (USBD_StatusTypeDef)pdev->pClass[0]->Init(pdev, cfgidx);
 8005362:	681b      	ldr	r3, [r3, #0]
 8005364:	4798      	blx	r3
  }
#endif /* USE_USBD_COMPOSITE */

  return ret;
}
 8005366:	bd08      	pop	{r3, pc}
  USBD_StatusTypeDef ret = USBD_OK;
 8005368:	2000      	movs	r0, #0
 800536a:	e7fc      	b.n	8005366 <USBD_SetClassConfig+0xc>

0800536c <USBD_ClrClassConfig>:
  * @param  pdev: device instance
  * @param  cfgidx: configuration index
  * @retval status
  */
USBD_StatusTypeDef USBD_ClrClassConfig(USBD_HandleTypeDef *pdev, uint8_t cfgidx)
{
 800536c:	b508      	push	{r3, lr}
      }
    }
  }
#else
  /* Clear configuration  and De-initialize the Class process */
  if (pdev->pClass[0]->DeInit(pdev, cfgidx) != 0U)
 800536e:	f8d0 32b8 	ldr.w	r3, [r0, #696]	@ 0x2b8
 8005372:	685b      	ldr	r3, [r3, #4]
 8005374:	4798      	blx	r3
 8005376:	b900      	cbnz	r0, 800537a <USBD_ClrClassConfig+0xe>
    ret = USBD_FAIL;
  }
#endif /* USE_USBD_COMPOSITE */

  return ret;
}
 8005378:	bd08      	pop	{r3, pc}
    ret = USBD_FAIL;
 800537a:	2003      	movs	r0, #3
 800537c:	e7fc      	b.n	8005378 <USBD_ClrClassConfig+0xc>

0800537e <USBD_LL_SetupStage>:
  * @param  pdev: device instance
  * @param  psetup: setup packet buffer pointer
  * @retval status
  */
USBD_StatusTypeDef USBD_LL_SetupStage(USBD_HandleTypeDef *pdev, uint8_t *psetup)
{
 800537e:	b538      	push	{r3, r4, r5, lr}
 8005380:	4604      	mov	r4, r0
  USBD_StatusTypeDef ret;

  USBD_ParseSetupRequest(&pdev->request, psetup);
 8005382:	f200 25aa 	addw	r5, r0, #682	@ 0x2aa
 8005386:	4628      	mov	r0, r5
 8005388:	f000 f9bf 	bl	800570a <USBD_ParseSetupRequest>

  pdev->ep0_state = USBD_EP0_SETUP;
 800538c:	2301      	movs	r3, #1
 800538e:	f8c4 3294 	str.w	r3, [r4, #660]	@ 0x294

  pdev->ep0_data_len = pdev->request.wLength;
 8005392:	f8b4 32b0 	ldrh.w	r3, [r4, #688]	@ 0x2b0
 8005396:	f8c4 3298 	str.w	r3, [r4, #664]	@ 0x298

  switch (pdev->request.bmRequest & 0x1FU)
 800539a:	f894 12aa 	ldrb.w	r1, [r4, #682]	@ 0x2aa
 800539e:	f001 031f 	and.w	r3, r1, #31
 80053a2:	2b01      	cmp	r3, #1
 80053a4:	d007      	beq.n	80053b6 <USBD_LL_SetupStage+0x38>
 80053a6:	2b02      	cmp	r3, #2
 80053a8:	d00a      	beq.n	80053c0 <USBD_LL_SetupStage+0x42>
 80053aa:	b973      	cbnz	r3, 80053ca <USBD_LL_SetupStage+0x4c>
  {
    case USB_REQ_RECIPIENT_DEVICE:
      ret = USBD_StdDevReq(pdev, &pdev->request);
 80053ac:	4629      	mov	r1, r5
 80053ae:	4620      	mov	r0, r4
 80053b0:	f000 fb90 	bl	8005ad4 <USBD_StdDevReq>
      ret = USBD_LL_StallEP(pdev, (pdev->request.bmRequest & 0x80U));
      break;
  }

  return ret;
}
 80053b4:	bd38      	pop	{r3, r4, r5, pc}
      ret = USBD_StdItfReq(pdev, &pdev->request);
 80053b6:	4629      	mov	r1, r5
 80053b8:	4620      	mov	r0, r4
 80053ba:	f000 fbc6 	bl	8005b4a <USBD_StdItfReq>
      break;
 80053be:	e7f9      	b.n	80053b4 <USBD_LL_SetupStage+0x36>
      ret = USBD_StdEPReq(pdev, &pdev->request);
 80053c0:	4629      	mov	r1, r5
 80053c2:	4620      	mov	r0, r4
 80053c4:	f000 fc03 	bl	8005bce <USBD_StdEPReq>
      break;
 80053c8:	e7f4      	b.n	80053b4 <USBD_LL_SetupStage+0x36>
      ret = USBD_LL_StallEP(pdev, (pdev->request.bmRequest & 0x80U));
 80053ca:	f001 0180 	and.w	r1, r1, #128	@ 0x80
 80053ce:	4620      	mov	r0, r4
 80053d0:	f7ff ff60 	bl	8005294 <USBD_LL_StallEP>
      break;
 80053d4:	e7ee      	b.n	80053b4 <USBD_LL_SetupStage+0x36>

080053d6 <USBD_LL_Reset>:
  *         Handle Reset event
  * @param  pdev: device instance
  * @retval status
  */
USBD_StatusTypeDef USBD_LL_Reset(USBD_HandleTypeDef *pdev)
{
 80053d6:	b5f8      	push	{r3, r4, r5, r6, r7, lr}
 80053d8:	4604      	mov	r4, r0
  USBD_StatusTypeDef ret = USBD_OK;

  /* Upon Reset call user call back */
  pdev->dev_state = USBD_STATE_DEFAULT;
 80053da:	2301      	movs	r3, #1
 80053dc:	f880 329c 	strb.w	r3, [r0, #668]	@ 0x29c
  pdev->ep0_state = USBD_EP0_IDLE;
 80053e0:	2300      	movs	r3, #0
 80053e2:	f8c0 3294 	str.w	r3, [r0, #660]	@ 0x294
  pdev->dev_config = 0U;
 80053e6:	6043      	str	r3, [r0, #4]
  pdev->dev_remote_wakeup = 0U;
 80053e8:	f8c0 32a4 	str.w	r3, [r0, #676]	@ 0x2a4
  pdev->dev_test_mode = 0U;
 80053ec:	f880 32a0 	strb.w	r3, [r0, #672]	@ 0x2a0
      }
    }
  }
#else

  if (pdev->pClass[0] != NULL)
 80053f0:	f8d0 32b8 	ldr.w	r3, [r0, #696]	@ 0x2b8
 80053f4:	b1db      	cbz	r3, 800542e <USBD_LL_Reset+0x58>
  {
    if (pdev->pClass[0]->DeInit != NULL)
 80053f6:	685b      	ldr	r3, [r3, #4]
 80053f8:	b1db      	cbz	r3, 8005432 <USBD_LL_Reset+0x5c>
    {
      if (pdev->pClass[0]->DeInit(pdev, (uint8_t)pdev->dev_config) != USBD_OK)
 80053fa:	2100      	movs	r1, #0
 80053fc:	4798      	blx	r3
 80053fe:	4607      	mov	r7, r0
 8005400:	b9c8      	cbnz	r0, 8005436 <USBD_LL_Reset+0x60>
    }
  }
#endif /* USE_USBD_COMPOSITE */

  /* Open EP0 OUT */
  (void)USBD_LL_OpenEP(pdev, 0x00U, USBD_EP_TYPE_CTRL, USB_MAX_EP0_SIZE);
 8005402:	2340      	movs	r3, #64	@ 0x40
 8005404:	2200      	movs	r2, #0
 8005406:	4611      	mov	r1, r2
 8005408:	4620      	mov	r0, r4
 800540a:	f7ff ff30 	bl	800526e <USBD_LL_OpenEP>
  pdev->ep_out[0x00U & 0xFU].is_used = 1U;
 800540e:	2601      	movs	r6, #1
 8005410:	f8a4 6164 	strh.w	r6, [r4, #356]	@ 0x164

  pdev->ep_out[0].maxpacket = USB_MAX_EP0_SIZE;
 8005414:	2540      	movs	r5, #64	@ 0x40
 8005416:	f8c4 5160 	str.w	r5, [r4, #352]	@ 0x160

  /* Open EP0 IN */
  (void)USBD_LL_OpenEP(pdev, 0x80U, USBD_EP_TYPE_CTRL, USB_MAX_EP0_SIZE);
 800541a:	462b      	mov	r3, r5
 800541c:	2200      	movs	r2, #0
 800541e:	2180      	movs	r1, #128	@ 0x80
 8005420:	4620      	mov	r0, r4
 8005422:	f7ff ff24 	bl	800526e <USBD_LL_OpenEP>
  pdev->ep_in[0x80U & 0xFU].is_used = 1U;
 8005426:	84a6      	strh	r6, [r4, #36]	@ 0x24

  pdev->ep_in[0].maxpacket = USB_MAX_EP0_SIZE;
 8005428:	6225      	str	r5, [r4, #32]

  return ret;
}
 800542a:	4638      	mov	r0, r7
 800542c:	bdf8      	pop	{r3, r4, r5, r6, r7, pc}
  USBD_StatusTypeDef ret = USBD_OK;
 800542e:	2700      	movs	r7, #0
 8005430:	e7e7      	b.n	8005402 <USBD_LL_Reset+0x2c>
 8005432:	2700      	movs	r7, #0
 8005434:	e7e5      	b.n	8005402 <USBD_LL_Reset+0x2c>
        ret = USBD_FAIL;
 8005436:	2703      	movs	r7, #3
 8005438:	e7e3      	b.n	8005402 <USBD_LL_Reset+0x2c>

0800543a <USBD_LL_SetSpeed>:
  * @retval status
  */
USBD_StatusTypeDef USBD_LL_SetSpeed(USBD_HandleTypeDef *pdev,
                                    USBD_SpeedTypeDef speed)
{
  pdev->dev_speed = speed;
 800543a:	7401      	strb	r1, [r0, #16]

  return USBD_OK;
}
 800543c:	2000      	movs	r0, #0
 800543e:	4770      	bx	lr

08005440 <USBD_LL_Suspend>:
  * @param  pdev: device instance
  * @retval status
  */
USBD_StatusTypeDef USBD_LL_Suspend(USBD_HandleTypeDef *pdev)
{
  if (pdev->dev_state != USBD_STATE_SUSPENDED)
 8005440:	f890 329c 	ldrb.w	r3, [r0, #668]	@ 0x29c
 8005444:	2b04      	cmp	r3, #4
 8005446:	d004      	beq.n	8005452 <USBD_LL_Suspend+0x12>
  {
    pdev->dev_old_state = pdev->dev_state;
 8005448:	f890 329c 	ldrb.w	r3, [r0, #668]	@ 0x29c
 800544c:	b2db      	uxtb	r3, r3
 800544e:	f880 329d 	strb.w	r3, [r0, #669]	@ 0x29d
  }

  pdev->dev_state = USBD_STATE_SUSPENDED;
 8005452:	2304      	movs	r3, #4
 8005454:	f880 329c 	strb.w	r3, [r0, #668]	@ 0x29c

  return USBD_OK;
}
 8005458:	2000      	movs	r0, #0
 800545a:	4770      	bx	lr

0800545c <USBD_LL_Resume>:
  * @param  pdev: device instance
  * @retval status
  */
USBD_StatusTypeDef USBD_LL_Resume(USBD_HandleTypeDef *pdev)
{
  if (pdev->dev_state == USBD_STATE_SUSPENDED)
 800545c:	f890 329c 	ldrb.w	r3, [r0, #668]	@ 0x29c
 8005460:	2b04      	cmp	r3, #4
 8005462:	d001      	beq.n	8005468 <USBD_LL_Resume+0xc>
  {
    pdev->dev_state = pdev->dev_old_state;
  }

  return USBD_OK;
}
 8005464:	2000      	movs	r0, #0
 8005466:	4770      	bx	lr
    pdev->dev_state = pdev->dev_old_state;
 8005468:	f890 329d 	ldrb.w	r3, [r0, #669]	@ 0x29d
 800546c:	b2db      	uxtb	r3, r3
 800546e:	f880 329c 	strb.w	r3, [r0, #668]	@ 0x29c
 8005472:	e7f7      	b.n	8005464 <USBD_LL_Resume+0x8>

08005474 <USBD_LL_SOF>:
  *         Handle SOF event
  * @param  pdev: device instance
  * @retval status
  */
USBD_StatusTypeDef USBD_LL_SOF(USBD_HandleTypeDef *pdev)
{
 8005474:	b508      	push	{r3, lr}
  /* The SOF event can be distributed for all classes that support it */
  if (pdev->dev_state == USBD_STATE_CONFIGURED)
 8005476:	f890 329c 	ldrb.w	r3, [r0, #668]	@ 0x29c
 800547a:	2b03      	cmp	r3, #3
 800547c:	d001      	beq.n	8005482 <USBD_LL_SOF+0xe>
    }
#endif /* USE_USBD_COMPOSITE */
  }

  return USBD_OK;
}
 800547e:	2000      	movs	r0, #0
 8005480:	bd08      	pop	{r3, pc}
    if (pdev->pClass[0] != NULL)
 8005482:	f8d0 32b8 	ldr.w	r3, [r0, #696]	@ 0x2b8
 8005486:	2b00      	cmp	r3, #0
 8005488:	d0f9      	beq.n	800547e <USBD_LL_SOF+0xa>
      if (pdev->pClass[0]->SOF != NULL)
 800548a:	69db      	ldr	r3, [r3, #28]
 800548c:	2b00      	cmp	r3, #0
 800548e:	d0f6      	beq.n	800547e <USBD_LL_SOF+0xa>
        (void)pdev->pClass[0]->SOF(pdev);
 8005490:	4798      	blx	r3
 8005492:	e7f4      	b.n	800547e <USBD_LL_SOF+0xa>

08005494 <USBD_LL_IsoINIncomplete>:
  * @param  epnum: Endpoint number
  * @retval status
  */
USBD_StatusTypeDef USBD_LL_IsoINIncomplete(USBD_HandleTypeDef *pdev,
                                           uint8_t epnum)
{
 8005494:	b508      	push	{r3, lr}
  if (pdev->pClass[pdev->classId] == NULL)
 8005496:	f8d0 32d4 	ldr.w	r3, [r0, #724]	@ 0x2d4
 800549a:	33ae      	adds	r3, #174	@ 0xae
 800549c:	f850 3023 	ldr.w	r3, [r0, r3, lsl #2]
 80054a0:	b153      	cbz	r3, 80054b8 <USBD_LL_IsoINIncomplete+0x24>
  {
    return USBD_FAIL;
  }

  if (pdev->dev_state == USBD_STATE_CONFIGURED)
 80054a2:	f890 229c 	ldrb.w	r2, [r0, #668]	@ 0x29c
 80054a6:	2a03      	cmp	r2, #3
 80054a8:	d001      	beq.n	80054ae <USBD_LL_IsoINIncomplete+0x1a>
    {
      (void)pdev->pClass[pdev->classId]->IsoINIncomplete(pdev, epnum);
    }
  }

  return USBD_OK;
 80054aa:	2000      	movs	r0, #0
}
 80054ac:	bd08      	pop	{r3, pc}
    if (pdev->pClass[pdev->classId]->IsoINIncomplete != NULL)
 80054ae:	6a1b      	ldr	r3, [r3, #32]
 80054b0:	b123      	cbz	r3, 80054bc <USBD_LL_IsoINIncomplete+0x28>
      (void)pdev->pClass[pdev->classId]->IsoINIncomplete(pdev, epnum);
 80054b2:	4798      	blx	r3
  return USBD_OK;
 80054b4:	2000      	movs	r0, #0
 80054b6:	e7f9      	b.n	80054ac <USBD_LL_IsoINIncomplete+0x18>
    return USBD_FAIL;
 80054b8:	2003      	movs	r0, #3
 80054ba:	e7f7      	b.n	80054ac <USBD_LL_IsoINIncomplete+0x18>
  return USBD_OK;
 80054bc:	2000      	movs	r0, #0
 80054be:	e7f5      	b.n	80054ac <USBD_LL_IsoINIncomplete+0x18>

080054c0 <USBD_LL_IsoOUTIncomplete>:
  * @param  epnum: Endpoint number
  * @retval status
  */
USBD_StatusTypeDef USBD_LL_IsoOUTIncomplete(USBD_HandleTypeDef *pdev,
                                            uint8_t epnum)
{
 80054c0:	b508      	push	{r3, lr}
  if (pdev->pClass[pdev->classId] == NULL)
 80054c2:	f8d0 32d4 	ldr.w	r3, [r0, #724]	@ 0x2d4
 80054c6:	33ae      	adds	r3, #174	@ 0xae
 80054c8:	f850 3023 	ldr.w	r3, [r0, r3, lsl #2]
 80054cc:	b153      	cbz	r3, 80054e4 <USBD_LL_IsoOUTIncomplete+0x24>
  {
    return USBD_FAIL;
  }

  if (pdev->dev_state == USBD_STATE_CONFIGURED)
 80054ce:	f890 229c 	ldrb.w	r2, [r0, #668]	@ 0x29c
 80054d2:	2a03      	cmp	r2, #3
 80054d4:	d001      	beq.n	80054da <USBD_LL_IsoOUTIncomplete+0x1a>
    {
      (void)pdev->pClass[pdev->classId]->IsoOUTIncomplete(pdev, epnum);
    }
  }

  return USBD_OK;
 80054d6:	2000      	movs	r0, #0
}
 80054d8:	bd08      	pop	{r3, pc}
    if (pdev->pClass[pdev->classId]->IsoOUTIncomplete != NULL)
 80054da:	6a5b      	ldr	r3, [r3, #36]	@ 0x24
 80054dc:	b123      	cbz	r3, 80054e8 <USBD_LL_IsoOUTIncomplete+0x28>
      (void)pdev->pClass[pdev->classId]->IsoOUTIncomplete(pdev, epnum);
 80054de:	4798      	blx	r3
  return USBD_OK;
 80054e0:	2000      	movs	r0, #0
 80054e2:	e7f9      	b.n	80054d8 <USBD_LL_IsoOUTIncomplete+0x18>
    return USBD_FAIL;
 80054e4:	2003      	movs	r0, #3
 80054e6:	e7f7      	b.n	80054d8 <USBD_LL_IsoOUTIncomplete+0x18>
  return USBD_OK;
 80054e8:	2000      	movs	r0, #0
 80054ea:	e7f5      	b.n	80054d8 <USBD_LL_IsoOUTIncomplete+0x18>

080054ec <USBD_LL_DevConnected>:
{
  /* Prevent unused argument compilation warning */
  UNUSED(pdev);

  return USBD_OK;
}
 80054ec:	2000      	movs	r0, #0
 80054ee:	4770      	bx	lr

080054f0 <USBD_LL_DevDisconnected>:
  *         Handle device disconnection event
  * @param  pdev: device instance
  * @retval status
  */
USBD_StatusTypeDef USBD_LL_DevDisconnected(USBD_HandleTypeDef *pdev)
{
 80054f0:	b508      	push	{r3, lr}
  USBD_StatusTypeDef   ret = USBD_OK;

  /* Free Class Resources */
  pdev->dev_state = USBD_STATE_DEFAULT;
 80054f2:	2301      	movs	r3, #1
 80054f4:	f880 329c 	strb.w	r3, [r0, #668]	@ 0x29c
        }
      }
    }
  }
#else
  if (pdev->pClass[0] != NULL)
 80054f8:	f8d0 32b8 	ldr.w	r3, [r0, #696]	@ 0x2b8
 80054fc:	b123      	cbz	r3, 8005508 <USBD_LL_DevDisconnected+0x18>
  {
    if (pdev->pClass[0]->DeInit(pdev, (uint8_t)pdev->dev_config) != 0U)
 80054fe:	685b      	ldr	r3, [r3, #4]
 8005500:	7901      	ldrb	r1, [r0, #4]
 8005502:	4798      	blx	r3
 8005504:	b910      	cbnz	r0, 800550c <USBD_LL_DevDisconnected+0x1c>
    }
  }
#endif /* USE_USBD_COMPOSITE */

  return ret;
}
 8005506:	bd08      	pop	{r3, pc}
  USBD_StatusTypeDef   ret = USBD_OK;
 8005508:	2000      	movs	r0, #0
 800550a:	e7fc      	b.n	8005506 <USBD_LL_DevDisconnected+0x16>
      ret = USBD_FAIL;
 800550c:	2003      	movs	r0, #3
 800550e:	e7fa      	b.n	8005506 <USBD_LL_DevDisconnected+0x16>

08005510 <USBD_CoreFindIF>:
  UNUSED(pdev);
  UNUSED(index);

  return 0x00U;
#endif /* USE_USBD_COMPOSITE */
}
 8005510:	2000      	movs	r0, #0
 8005512:	4770      	bx	lr

08005514 <USBD_CoreFindEP>:
  UNUSED(pdev);
  UNUSED(index);

  return 0x00U;
#endif /* USE_USBD_COMPOSITE */
}
 8005514:	2000      	movs	r0, #0
 8005516:	4770      	bx	lr

08005518 <USBD_LL_DataOutStage>:
{
 8005518:	b538      	push	{r3, r4, r5, lr}
 800551a:	4604      	mov	r4, r0
  if (epnum == 0U)
 800551c:	460d      	mov	r5, r1
 800551e:	2900      	cmp	r1, #0
 8005520:	d141      	bne.n	80055a6 <USBD_LL_DataOutStage+0x8e>
 8005522:	4613      	mov	r3, r2
    if (pdev->ep0_state == USBD_EP0_DATA_OUT)
 8005524:	f8d0 2294 	ldr.w	r2, [r0, #660]	@ 0x294
 8005528:	2a03      	cmp	r2, #3
 800552a:	d001      	beq.n	8005530 <USBD_LL_DataOutStage+0x18>
  return USBD_OK;
 800552c:	4608      	mov	r0, r1
}
 800552e:	bd38      	pop	{r3, r4, r5, pc}
      if (pep->rem_length > pep->maxpacket)
 8005530:	f8d0 115c 	ldr.w	r1, [r0, #348]	@ 0x15c
 8005534:	f8d0 2160 	ldr.w	r2, [r0, #352]	@ 0x160
 8005538:	4291      	cmp	r1, r2
 800553a:	d809      	bhi.n	8005550 <USBD_LL_DataOutStage+0x38>
        switch (pdev->request.bmRequest & 0x1FU)
 800553c:	f890 32aa 	ldrb.w	r3, [r0, #682]	@ 0x2aa
 8005540:	f003 031f 	and.w	r3, r3, #31
 8005544:	2b01      	cmp	r3, #1
 8005546:	d00e      	beq.n	8005566 <USBD_LL_DataOutStage+0x4e>
 8005548:	2b02      	cmp	r3, #2
 800554a:	d01a      	beq.n	8005582 <USBD_LL_DataOutStage+0x6a>
 800554c:	4628      	mov	r0, r5
 800554e:	e00f      	b.n	8005570 <USBD_LL_DataOutStage+0x58>
        pep->rem_length -= pep->maxpacket;
 8005550:	1a89      	subs	r1, r1, r2
 8005552:	f8c0 115c 	str.w	r1, [r0, #348]	@ 0x15c
        (void)USBD_CtlContinueRx(pdev, pdata, MIN(pep->rem_length, pep->maxpacket));
 8005556:	428a      	cmp	r2, r1
 8005558:	bf28      	it	cs
 800555a:	460a      	movcs	r2, r1
 800555c:	4619      	mov	r1, r3
 800555e:	f000 fd33 	bl	8005fc8 <USBD_CtlContinueRx>
  return USBD_OK;
 8005562:	4628      	mov	r0, r5
 8005564:	e7e3      	b.n	800552e <USBD_LL_DataOutStage+0x16>
            idx = USBD_CoreFindIF(pdev, LOBYTE(pdev->request.wIndex));
 8005566:	f890 12ae 	ldrb.w	r1, [r0, #686]	@ 0x2ae
 800556a:	f7ff ffd1 	bl	8005510 <USBD_CoreFindIF>
        if (idx < USBD_MAX_SUPPORTED_CLASS)
 800556e:	b918      	cbnz	r0, 8005578 <USBD_LL_DataOutStage+0x60>
          if (pdev->dev_state == USBD_STATE_CONFIGURED)
 8005570:	f894 329c 	ldrb.w	r3, [r4, #668]	@ 0x29c
 8005574:	2b03      	cmp	r3, #3
 8005576:	d009      	beq.n	800558c <USBD_LL_DataOutStage+0x74>
        (void)USBD_CtlSendStatus(pdev);
 8005578:	4620      	mov	r0, r4
 800557a:	f000 fd2d 	bl	8005fd8 <USBD_CtlSendStatus>
  return USBD_OK;
 800557e:	4628      	mov	r0, r5
 8005580:	e7d5      	b.n	800552e <USBD_LL_DataOutStage+0x16>
            idx = USBD_CoreFindEP(pdev, LOBYTE(pdev->request.wIndex));
 8005582:	f890 12ae 	ldrb.w	r1, [r0, #686]	@ 0x2ae
 8005586:	f7ff ffc5 	bl	8005514 <USBD_CoreFindEP>
            break;
 800558a:	e7f0      	b.n	800556e <USBD_LL_DataOutStage+0x56>
            if (pdev->pClass[idx]->EP0_RxReady != NULL)
 800558c:	f100 03ae 	add.w	r3, r0, #174	@ 0xae
 8005590:	f854 3023 	ldr.w	r3, [r4, r3, lsl #2]
 8005594:	691a      	ldr	r2, [r3, #16]
 8005596:	2a00      	cmp	r2, #0
 8005598:	d0ee      	beq.n	8005578 <USBD_LL_DataOutStage+0x60>
              pdev->classId = idx;
 800559a:	f8c4 02d4 	str.w	r0, [r4, #724]	@ 0x2d4
              pdev->pClass[idx]->EP0_RxReady(pdev);
 800559e:	691b      	ldr	r3, [r3, #16]
 80055a0:	4620      	mov	r0, r4
 80055a2:	4798      	blx	r3
 80055a4:	e7e8      	b.n	8005578 <USBD_LL_DataOutStage+0x60>
    idx = USBD_CoreFindEP(pdev, (epnum & 0x7FU));
 80055a6:	f001 017f 	and.w	r1, r1, #127	@ 0x7f
 80055aa:	f7ff ffb3 	bl	8005514 <USBD_CoreFindEP>
    if (((uint16_t)idx != 0xFFU) && (idx < USBD_MAX_SUPPORTED_CLASS))
 80055ae:	b988      	cbnz	r0, 80055d4 <USBD_LL_DataOutStage+0xbc>
      if (pdev->dev_state == USBD_STATE_CONFIGURED)
 80055b0:	f894 329c 	ldrb.w	r3, [r4, #668]	@ 0x29c
 80055b4:	2b03      	cmp	r3, #3
 80055b6:	d1ba      	bne.n	800552e <USBD_LL_DataOutStage+0x16>
        if (pdev->pClass[idx]->DataOut != NULL)
 80055b8:	f100 03ae 	add.w	r3, r0, #174	@ 0xae
 80055bc:	f854 3023 	ldr.w	r3, [r4, r3, lsl #2]
 80055c0:	699a      	ldr	r2, [r3, #24]
 80055c2:	2a00      	cmp	r2, #0
 80055c4:	d0b3      	beq.n	800552e <USBD_LL_DataOutStage+0x16>
          pdev->classId = idx;
 80055c6:	f8c4 02d4 	str.w	r0, [r4, #724]	@ 0x2d4
          ret = (USBD_StatusTypeDef)pdev->pClass[idx]->DataOut(pdev, epnum);
 80055ca:	699b      	ldr	r3, [r3, #24]
 80055cc:	4629      	mov	r1, r5
 80055ce:	4620      	mov	r0, r4
 80055d0:	4798      	blx	r3
      if (ret != USBD_OK)
 80055d2:	e7ac      	b.n	800552e <USBD_LL_DataOutStage+0x16>
  return USBD_OK;
 80055d4:	2000      	movs	r0, #0
 80055d6:	e7aa      	b.n	800552e <USBD_LL_DataOutStage+0x16>

080055d8 <USBD_LL_DataInStage>:
{
 80055d8:	b538      	push	{r3, r4, r5, lr}
 80055da:	4604      	mov	r4, r0
  if (epnum == 0U)
 80055dc:	460d      	mov	r5, r1
 80055de:	2900      	cmp	r1, #0
 80055e0:	d14a      	bne.n	8005678 <USBD_LL_DataInStage+0xa0>
 80055e2:	4613      	mov	r3, r2
    if (pdev->ep0_state == USBD_EP0_DATA_IN)
 80055e4:	f8d0 2294 	ldr.w	r2, [r0, #660]	@ 0x294
 80055e8:	2a02      	cmp	r2, #2
 80055ea:	d007      	beq.n	80055fc <USBD_LL_DataInStage+0x24>
    if (pdev->dev_test_mode != 0U)
 80055ec:	f894 02a0 	ldrb.w	r0, [r4, #672]	@ 0x2a0
 80055f0:	b118      	cbz	r0, 80055fa <USBD_LL_DataInStage+0x22>
      pdev->dev_test_mode = 0U;
 80055f2:	2300      	movs	r3, #0
 80055f4:	f884 32a0 	strb.w	r3, [r4, #672]	@ 0x2a0
  return USBD_OK;
 80055f8:	4628      	mov	r0, r5
}
 80055fa:	bd38      	pop	{r3, r4, r5, pc}
      if (pep->rem_length > pep->maxpacket)
 80055fc:	69c2      	ldr	r2, [r0, #28]
 80055fe:	6a01      	ldr	r1, [r0, #32]
 8005600:	428a      	cmp	r2, r1
 8005602:	d80d      	bhi.n	8005620 <USBD_LL_DataInStage+0x48>
        if ((pep->maxpacket == pep->rem_length) &&
 8005604:	428a      	cmp	r2, r1
 8005606:	d017      	beq.n	8005638 <USBD_LL_DataInStage+0x60>
          if (pdev->dev_state == USBD_STATE_CONFIGURED)
 8005608:	f894 329c 	ldrb.w	r3, [r4, #668]	@ 0x29c
 800560c:	2b03      	cmp	r3, #3
 800560e:	d027      	beq.n	8005660 <USBD_LL_DataInStage+0x88>
          (void)USBD_LL_StallEP(pdev, 0x80U);
 8005610:	2180      	movs	r1, #128	@ 0x80
 8005612:	4620      	mov	r0, r4
 8005614:	f7ff fe3e 	bl	8005294 <USBD_LL_StallEP>
          (void)USBD_CtlReceiveStatus(pdev);
 8005618:	4620      	mov	r0, r4
 800561a:	f000 fce8 	bl	8005fee <USBD_CtlReceiveStatus>
 800561e:	e7e5      	b.n	80055ec <USBD_LL_DataInStage+0x14>
        pep->rem_length -= pep->maxpacket;
 8005620:	1a52      	subs	r2, r2, r1
 8005622:	61c2      	str	r2, [r0, #28]
        (void)USBD_CtlContinueSendData(pdev, pdata, pep->rem_length);
 8005624:	4619      	mov	r1, r3
 8005626:	f000 fcb8 	bl	8005f9a <USBD_CtlContinueSendData>
        (void)USBD_LL_PrepareReceive(pdev, 0U, NULL, 0U);
 800562a:	2300      	movs	r3, #0
 800562c:	461a      	mov	r2, r3
 800562e:	4619      	mov	r1, r3
 8005630:	4620      	mov	r0, r4
 8005632:	f7ff fe4f 	bl	80052d4 <USBD_LL_PrepareReceive>
 8005636:	e7d9      	b.n	80055ec <USBD_LL_DataInStage+0x14>
            (pep->total_length >= pep->maxpacket) &&
 8005638:	6983      	ldr	r3, [r0, #24]
        if ((pep->maxpacket == pep->rem_length) &&
 800563a:	4299      	cmp	r1, r3
 800563c:	d8e4      	bhi.n	8005608 <USBD_LL_DataInStage+0x30>
            (pep->total_length < pdev->ep0_data_len))
 800563e:	f8d0 2298 	ldr.w	r2, [r0, #664]	@ 0x298
            (pep->total_length >= pep->maxpacket) &&
 8005642:	4293      	cmp	r3, r2
 8005644:	d2e0      	bcs.n	8005608 <USBD_LL_DataInStage+0x30>
          (void)USBD_CtlContinueSendData(pdev, NULL, 0U);
 8005646:	2200      	movs	r2, #0
 8005648:	4611      	mov	r1, r2
 800564a:	f000 fca6 	bl	8005f9a <USBD_CtlContinueSendData>
          pdev->ep0_data_len = 0U;
 800564e:	2100      	movs	r1, #0
 8005650:	f8c4 1298 	str.w	r1, [r4, #664]	@ 0x298
          (void)USBD_LL_PrepareReceive(pdev, 0U, NULL, 0U);
 8005654:	460b      	mov	r3, r1
 8005656:	460a      	mov	r2, r1
 8005658:	4620      	mov	r0, r4
 800565a:	f7ff fe3b 	bl	80052d4 <USBD_LL_PrepareReceive>
 800565e:	e7c5      	b.n	80055ec <USBD_LL_DataInStage+0x14>
            if (pdev->pClass[0]->EP0_TxSent != NULL)
 8005660:	f8d4 32b8 	ldr.w	r3, [r4, #696]	@ 0x2b8
 8005664:	68da      	ldr	r2, [r3, #12]
 8005666:	2a00      	cmp	r2, #0
 8005668:	d0d2      	beq.n	8005610 <USBD_LL_DataInStage+0x38>
              pdev->classId = 0U;
 800566a:	2200      	movs	r2, #0
 800566c:	f8c4 22d4 	str.w	r2, [r4, #724]	@ 0x2d4
              pdev->pClass[0]->EP0_TxSent(pdev);
 8005670:	68db      	ldr	r3, [r3, #12]
 8005672:	4620      	mov	r0, r4
 8005674:	4798      	blx	r3
 8005676:	e7cb      	b.n	8005610 <USBD_LL_DataInStage+0x38>
    idx = USBD_CoreFindEP(pdev, ((uint8_t)epnum | 0x80U));
 8005678:	f041 0180 	orr.w	r1, r1, #128	@ 0x80
 800567c:	f7ff ff4a 	bl	8005514 <USBD_CoreFindEP>
    if (((uint16_t)idx != 0xFFU) && (idx < USBD_MAX_SUPPORTED_CLASS))
 8005680:	b988      	cbnz	r0, 80056a6 <USBD_LL_DataInStage+0xce>
      if (pdev->dev_state == USBD_STATE_CONFIGURED)
 8005682:	f894 329c 	ldrb.w	r3, [r4, #668]	@ 0x29c
 8005686:	2b03      	cmp	r3, #3
 8005688:	d1b7      	bne.n	80055fa <USBD_LL_DataInStage+0x22>
        if (pdev->pClass[idx]->DataIn != NULL)
 800568a:	f100 03ae 	add.w	r3, r0, #174	@ 0xae
 800568e:	f854 3023 	ldr.w	r3, [r4, r3, lsl #2]
 8005692:	695a      	ldr	r2, [r3, #20]
 8005694:	2a00      	cmp	r2, #0
 8005696:	d0b0      	beq.n	80055fa <USBD_LL_DataInStage+0x22>
          pdev->classId = idx;
 8005698:	f8c4 02d4 	str.w	r0, [r4, #724]	@ 0x2d4
          ret = (USBD_StatusTypeDef)pdev->pClass[idx]->DataIn(pdev, epnum);
 800569c:	695b      	ldr	r3, [r3, #20]
 800569e:	4629      	mov	r1, r5
 80056a0:	4620      	mov	r0, r4
 80056a2:	4798      	blx	r3
          if (ret != USBD_OK)
 80056a4:	e7a9      	b.n	80055fa <USBD_LL_DataInStage+0x22>
  return USBD_OK;
 80056a6:	2000      	movs	r0, #0
 80056a8:	e7a7      	b.n	80055fa <USBD_LL_DataInStage+0x22>

080056aa <USBD_GetNextDesc>:
  */
USBD_DescHeaderTypeDef *USBD_GetNextDesc(uint8_t *pbuf, uint16_t *ptr)
{
  USBD_DescHeaderTypeDef *pnext = (USBD_DescHeaderTypeDef *)(void *)pbuf;

  *ptr += pnext->bLength;
 80056aa:	880b      	ldrh	r3, [r1, #0]
 80056ac:	7802      	ldrb	r2, [r0, #0]
 80056ae:	4413      	add	r3, r2
 80056b0:	800b      	strh	r3, [r1, #0]
  pnext = (USBD_DescHeaderTypeDef *)(void *)(pbuf + pnext->bLength);
 80056b2:	7803      	ldrb	r3, [r0, #0]

  return (pnext);
}
 80056b4:	4418      	add	r0, r3
 80056b6:	4770      	bx	lr

080056b8 <USBD_GetEpDesc>:
  if (desc->wTotalLength > desc->bLength)
 80056b8:	8842      	ldrh	r2, [r0, #2]
 80056ba:	7803      	ldrb	r3, [r0, #0]
 80056bc:	429a      	cmp	r2, r3
 80056be:	d918      	bls.n	80056f2 <USBD_GetEpDesc+0x3a>
{
 80056c0:	b530      	push	{r4, r5, lr}
 80056c2:	b083      	sub	sp, #12
 80056c4:	4604      	mov	r4, r0
 80056c6:	460d      	mov	r5, r1
    ptr = desc->bLength;
 80056c8:	f8ad 3006 	strh.w	r3, [sp, #6]
    while (ptr < desc->wTotalLength)
 80056cc:	8863      	ldrh	r3, [r4, #2]
 80056ce:	f8bd 2006 	ldrh.w	r2, [sp, #6]
 80056d2:	429a      	cmp	r2, r3
 80056d4:	d20a      	bcs.n	80056ec <USBD_GetEpDesc+0x34>
      pdesc = USBD_GetNextDesc((uint8_t *)pdesc, &ptr);
 80056d6:	f10d 0106 	add.w	r1, sp, #6
 80056da:	f7ff ffe6 	bl	80056aa <USBD_GetNextDesc>
      if (pdesc->bDescriptorType == USB_DESC_TYPE_ENDPOINT)
 80056de:	7843      	ldrb	r3, [r0, #1]
 80056e0:	2b05      	cmp	r3, #5
 80056e2:	d1f3      	bne.n	80056cc <USBD_GetEpDesc+0x14>
        if (pEpDesc->bEndpointAddress == EpAddr)
 80056e4:	7883      	ldrb	r3, [r0, #2]
 80056e6:	42ab      	cmp	r3, r5
 80056e8:	d1f0      	bne.n	80056cc <USBD_GetEpDesc+0x14>
 80056ea:	e000      	b.n	80056ee <USBD_GetEpDesc+0x36>
 80056ec:	2000      	movs	r0, #0
}
 80056ee:	b003      	add	sp, #12
 80056f0:	bd30      	pop	{r4, r5, pc}
  USBD_EpDescTypeDef *pEpDesc = NULL;
 80056f2:	2000      	movs	r0, #0
}
 80056f4:	4770      	bx	lr

080056f6 <USBD_GetLen>:
  *         return the string length
   * @param  buf : pointer to the ascii string buffer
  * @retval string length
  */
static uint8_t USBD_GetLen(uint8_t *buf)
{
 80056f6:	4603      	mov	r3, r0
  uint8_t  len = 0U;
 80056f8:	2000      	movs	r0, #0
  uint8_t *pbuff = buf;

  while (*pbuff != (uint8_t)'\0')
 80056fa:	e002      	b.n	8005702 <USBD_GetLen+0xc>
  {
    len++;
 80056fc:	3001      	adds	r0, #1
 80056fe:	b2c0      	uxtb	r0, r0
    pbuff++;
 8005700:	3301      	adds	r3, #1
  while (*pbuff != (uint8_t)'\0')
 8005702:	781a      	ldrb	r2, [r3, #0]
 8005704:	2a00      	cmp	r2, #0
 8005706:	d1f9      	bne.n	80056fc <USBD_GetLen+0x6>
  }

  return len;
}
 8005708:	4770      	bx	lr

0800570a <USBD_ParseSetupRequest>:
  req->bmRequest = *(uint8_t *)(pbuff);
 800570a:	780b      	ldrb	r3, [r1, #0]
 800570c:	7003      	strb	r3, [r0, #0]
  req->bRequest = *(uint8_t *)(pbuff);
 800570e:	784b      	ldrb	r3, [r1, #1]
 8005710:	7043      	strb	r3, [r0, #1]
  uint16_t _SwapVal;
  uint16_t _Byte1;
  uint16_t _Byte2;
  uint8_t *_pbuff = addr;

  _Byte1 = *(uint8_t *)_pbuff;
 8005712:	788b      	ldrb	r3, [r1, #2]
  _pbuff++;
  _Byte2 = *(uint8_t *)_pbuff;
 8005714:	78ca      	ldrb	r2, [r1, #3]

  _SwapVal = (_Byte2 << 8) | _Byte1;
 8005716:	ea43 2302 	orr.w	r3, r3, r2, lsl #8
  req->wValue = SWAPBYTE(pbuff);
 800571a:	8043      	strh	r3, [r0, #2]
  _Byte1 = *(uint8_t *)_pbuff;
 800571c:	790b      	ldrb	r3, [r1, #4]
  _Byte2 = *(uint8_t *)_pbuff;
 800571e:	794a      	ldrb	r2, [r1, #5]
  _SwapVal = (_Byte2 << 8) | _Byte1;
 8005720:	ea43 2302 	orr.w	r3, r3, r2, lsl #8
  req->wIndex = SWAPBYTE(pbuff);
 8005724:	8083      	strh	r3, [r0, #4]
  _Byte1 = *(uint8_t *)_pbuff;
 8005726:	798b      	ldrb	r3, [r1, #6]
  _Byte2 = *(uint8_t *)_pbuff;
 8005728:	79ca      	ldrb	r2, [r1, #7]
  _SwapVal = (_Byte2 << 8) | _Byte1;
 800572a:	ea43 2302 	orr.w	r3, r3, r2, lsl #8
  req->wLength = SWAPBYTE(pbuff);
 800572e:	80c3      	strh	r3, [r0, #6]
}
 8005730:	4770      	bx	lr

08005732 <USBD_CtlError>:
{
 8005732:	b510      	push	{r4, lr}
 8005734:	4604      	mov	r4, r0
  (void)USBD_LL_StallEP(pdev, 0x80U);
 8005736:	2180      	movs	r1, #128	@ 0x80
 8005738:	f7ff fdac 	bl	8005294 <USBD_LL_StallEP>
  (void)USBD_LL_StallEP(pdev, 0U);
 800573c:	2100      	movs	r1, #0
 800573e:	4620      	mov	r0, r4
 8005740:	f7ff fda8 	bl	8005294 <USBD_LL_StallEP>
}
 8005744:	bd10      	pop	{r4, pc}

08005746 <USBD_GetDescriptor>:
{
 8005746:	b530      	push	{r4, r5, lr}
 8005748:	b083      	sub	sp, #12
 800574a:	4605      	mov	r5, r0
 800574c:	460c      	mov	r4, r1
  uint16_t len = 0U;
 800574e:	2300      	movs	r3, #0
 8005750:	f8ad 3006 	strh.w	r3, [sp, #6]
  switch (req->wValue >> 8)
 8005754:	884a      	ldrh	r2, [r1, #2]
 8005756:	0a13      	lsrs	r3, r2, #8
 8005758:	3b01      	subs	r3, #1
 800575a:	2b0e      	cmp	r3, #14
 800575c:	f200 80bb 	bhi.w	80058d6 <USBD_GetDescriptor+0x190>
 8005760:	e8df f003 	tbb	[pc, r3]
 8005764:	b9432f15 	.word	0xb9432f15
 8005768:	b9aa9db9 	.word	0xb9aa9db9
 800576c:	b9b9b9b9 	.word	0xb9b9b9b9
 8005770:	b9b9      	.short	0xb9b9
 8005772:	08          	.byte	0x08
 8005773:	00          	.byte	0x00
      if (pdev->pDesc->GetBOSDescriptor != NULL)
 8005774:	f8d0 32b4 	ldr.w	r3, [r0, #692]	@ 0x2b4
 8005778:	69db      	ldr	r3, [r3, #28]
 800577a:	b123      	cbz	r3, 8005786 <USBD_GetDescriptor+0x40>
        pbuf = pdev->pDesc->GetBOSDescriptor(pdev->dev_speed, &len);
 800577c:	f10d 0106 	add.w	r1, sp, #6
 8005780:	7c00      	ldrb	r0, [r0, #16]
 8005782:	4798      	blx	r3
  if (err != 0U)
 8005784:	e00a      	b.n	800579c <USBD_GetDescriptor+0x56>
        USBD_CtlError(pdev, req);
 8005786:	4621      	mov	r1, r4
 8005788:	f7ff ffd3 	bl	8005732 <USBD_CtlError>
  if (err != 0U)
 800578c:	e0a6      	b.n	80058dc <USBD_GetDescriptor+0x196>
      pbuf = pdev->pDesc->GetDeviceDescriptor(pdev->dev_speed, &len);
 800578e:	f8d0 32b4 	ldr.w	r3, [r0, #692]	@ 0x2b4
 8005792:	681b      	ldr	r3, [r3, #0]
 8005794:	f10d 0106 	add.w	r1, sp, #6
 8005798:	7c00      	ldrb	r0, [r0, #16]
 800579a:	4798      	blx	r3
  if (req->wLength != 0U)
 800579c:	88e2      	ldrh	r2, [r4, #6]
 800579e:	2a00      	cmp	r2, #0
 80057a0:	f000 80a3 	beq.w	80058ea <USBD_GetDescriptor+0x1a4>
    if (len != 0U)
 80057a4:	f8bd 3006 	ldrh.w	r3, [sp, #6]
 80057a8:	2b00      	cmp	r3, #0
 80057aa:	f000 8099 	beq.w	80058e0 <USBD_GetDescriptor+0x19a>
      len = MIN(len, req->wLength);
 80057ae:	429a      	cmp	r2, r3
 80057b0:	bf28      	it	cs
 80057b2:	461a      	movcs	r2, r3
 80057b4:	f8ad 2006 	strh.w	r2, [sp, #6]
      (void)USBD_CtlSendData(pdev, pbuf, len);
 80057b8:	4601      	mov	r1, r0
 80057ba:	4628      	mov	r0, r5
 80057bc:	f000 fbe0 	bl	8005f80 <USBD_CtlSendData>
 80057c0:	e08c      	b.n	80058dc <USBD_GetDescriptor+0x196>
      if (pdev->dev_speed == USBD_SPEED_HIGH)
 80057c2:	7c03      	ldrb	r3, [r0, #16]
 80057c4:	b943      	cbnz	r3, 80057d8 <USBD_GetDescriptor+0x92>
          pbuf = (uint8_t *)pdev->pClass[0]->GetHSConfigDescriptor(&len);
 80057c6:	f8d0 32b8 	ldr.w	r3, [r0, #696]	@ 0x2b8
 80057ca:	6a9b      	ldr	r3, [r3, #40]	@ 0x28
 80057cc:	f10d 0006 	add.w	r0, sp, #6
 80057d0:	4798      	blx	r3
        pbuf[1] = USB_DESC_TYPE_CONFIGURATION;
 80057d2:	2302      	movs	r3, #2
 80057d4:	7043      	strb	r3, [r0, #1]
  if (err != 0U)
 80057d6:	e7e1      	b.n	800579c <USBD_GetDescriptor+0x56>
          pbuf = (uint8_t *)pdev->pClass[0]->GetFSConfigDescriptor(&len);
 80057d8:	f8d0 32b8 	ldr.w	r3, [r0, #696]	@ 0x2b8
 80057dc:	6adb      	ldr	r3, [r3, #44]	@ 0x2c
 80057de:	f10d 0006 	add.w	r0, sp, #6
 80057e2:	4798      	blx	r3
        pbuf[1] = USB_DESC_TYPE_CONFIGURATION;
 80057e4:	2302      	movs	r3, #2
 80057e6:	7043      	strb	r3, [r0, #1]
  if (err != 0U)
 80057e8:	e7d8      	b.n	800579c <USBD_GetDescriptor+0x56>
      switch ((uint8_t)(req->wValue))
 80057ea:	b2d2      	uxtb	r2, r2
 80057ec:	2a05      	cmp	r2, #5
 80057ee:	d852      	bhi.n	8005896 <USBD_GetDescriptor+0x150>
 80057f0:	e8df f002 	tbb	[pc, r2]
 80057f4:	2a1d1003 	.word	0x2a1d1003
 80057f8:	4437      	.short	0x4437
          if (pdev->pDesc->GetLangIDStrDescriptor != NULL)
 80057fa:	f8d0 32b4 	ldr.w	r3, [r0, #692]	@ 0x2b4
 80057fe:	685b      	ldr	r3, [r3, #4]
 8005800:	b123      	cbz	r3, 800580c <USBD_GetDescriptor+0xc6>
            pbuf = pdev->pDesc->GetLangIDStrDescriptor(pdev->dev_speed, &len);
 8005802:	f10d 0106 	add.w	r1, sp, #6
 8005806:	7c00      	ldrb	r0, [r0, #16]
 8005808:	4798      	blx	r3
  if (err != 0U)
 800580a:	e7c7      	b.n	800579c <USBD_GetDescriptor+0x56>
            USBD_CtlError(pdev, req);
 800580c:	4621      	mov	r1, r4
 800580e:	f7ff ff90 	bl	8005732 <USBD_CtlError>
  if (err != 0U)
 8005812:	e063      	b.n	80058dc <USBD_GetDescriptor+0x196>
          if (pdev->pDesc->GetManufacturerStrDescriptor != NULL)
 8005814:	f8d0 32b4 	ldr.w	r3, [r0, #692]	@ 0x2b4
 8005818:	689b      	ldr	r3, [r3, #8]
 800581a:	b123      	cbz	r3, 8005826 <USBD_GetDescriptor+0xe0>
            pbuf = pdev->pDesc->GetManufacturerStrDescriptor(pdev->dev_speed, &len);
 800581c:	f10d 0106 	add.w	r1, sp, #6
 8005820:	7c00      	ldrb	r0, [r0, #16]
 8005822:	4798      	blx	r3
  if (err != 0U)
 8005824:	e7ba      	b.n	800579c <USBD_GetDescriptor+0x56>
            USBD_CtlError(pdev, req);
 8005826:	4621      	mov	r1, r4
 8005828:	f7ff ff83 	bl	8005732 <USBD_CtlError>
  if (err != 0U)
 800582c:	e056      	b.n	80058dc <USBD_GetDescriptor+0x196>
          if (pdev->pDesc->GetProductStrDescriptor != NULL)
 800582e:	f8d0 32b4 	ldr.w	r3, [r0, #692]	@ 0x2b4
 8005832:	68db      	ldr	r3, [r3, #12]
 8005834:	b123      	cbz	r3, 8005840 <USBD_GetDescriptor+0xfa>
            pbuf = pdev->pDesc->GetProductStrDescriptor(pdev->dev_speed, &len);
 8005836:	f10d 0106 	add.w	r1, sp, #6
 800583a:	7c00      	ldrb	r0, [r0, #16]
 800583c:	4798      	blx	r3
  if (err != 0U)
 800583e:	e7ad      	b.n	800579c <USBD_GetDescriptor+0x56>
            USBD_CtlError(pdev, req);
 8005840:	4621      	mov	r1, r4
 8005842:	f7ff ff76 	bl	8005732 <USBD_CtlError>
  if (err != 0U)
 8005846:	e049      	b.n	80058dc <USBD_GetDescriptor+0x196>
          if (pdev->pDesc->GetSerialStrDescriptor != NULL)
 8005848:	f8d0 32b4 	ldr.w	r3, [r0, #692]	@ 0x2b4
 800584c:	691b      	ldr	r3, [r3, #16]
 800584e:	b123      	cbz	r3, 800585a <USBD_GetDescriptor+0x114>
            pbuf = pdev->pDesc->GetSerialStrDescriptor(pdev->dev_speed, &len);
 8005850:	f10d 0106 	add.w	r1, sp, #6
 8005854:	7c00      	ldrb	r0, [r0, #16]
 8005856:	4798      	blx	r3
  if (err != 0U)
 8005858:	e7a0      	b.n	800579c <USBD_GetDescriptor+0x56>
            USBD_CtlError(pdev, req);
 800585a:	4621      	mov	r1, r4
 800585c:	f7ff ff69 	bl	8005732 <USBD_CtlError>
  if (err != 0U)
 8005860:	e03c      	b.n	80058dc <USBD_GetDescriptor+0x196>
          if (pdev->pDesc->GetConfigurationStrDescriptor != NULL)
 8005862:	f8d0 32b4 	ldr.w	r3, [r0, #692]	@ 0x2b4
 8005866:	695b      	ldr	r3, [r3, #20]
 8005868:	b123      	cbz	r3, 8005874 <USBD_GetDescriptor+0x12e>
            pbuf = pdev->pDesc->GetConfigurationStrDescriptor(pdev->dev_speed, &len);
 800586a:	f10d 0106 	add.w	r1, sp, #6
 800586e:	7c00      	ldrb	r0, [r0, #16]
 8005870:	4798      	blx	r3
  if (err != 0U)
 8005872:	e793      	b.n	800579c <USBD_GetDescriptor+0x56>
            USBD_CtlError(pdev, req);
 8005874:	4621      	mov	r1, r4
 8005876:	f7ff ff5c 	bl	8005732 <USBD_CtlError>
  if (err != 0U)
 800587a:	e02f      	b.n	80058dc <USBD_GetDescriptor+0x196>
          if (pdev->pDesc->GetInterfaceStrDescriptor != NULL)
 800587c:	f8d0 32b4 	ldr.w	r3, [r0, #692]	@ 0x2b4
 8005880:	699b      	ldr	r3, [r3, #24]
 8005882:	b123      	cbz	r3, 800588e <USBD_GetDescriptor+0x148>
            pbuf = pdev->pDesc->GetInterfaceStrDescriptor(pdev->dev_speed, &len);
 8005884:	f10d 0106 	add.w	r1, sp, #6
 8005888:	7c00      	ldrb	r0, [r0, #16]
 800588a:	4798      	blx	r3
  if (err != 0U)
 800588c:	e786      	b.n	800579c <USBD_GetDescriptor+0x56>
            USBD_CtlError(pdev, req);
 800588e:	4621      	mov	r1, r4
 8005890:	f7ff ff4f 	bl	8005732 <USBD_CtlError>
  if (err != 0U)
 8005894:	e022      	b.n	80058dc <USBD_GetDescriptor+0x196>
          USBD_CtlError(pdev, req);
 8005896:	4621      	mov	r1, r4
 8005898:	f7ff ff4b 	bl	8005732 <USBD_CtlError>
  if (err != 0U)
 800589c:	e01e      	b.n	80058dc <USBD_GetDescriptor+0x196>
      if (pdev->dev_speed == USBD_SPEED_HIGH)
 800589e:	7c03      	ldrb	r3, [r0, #16]
 80058a0:	b933      	cbnz	r3, 80058b0 <USBD_GetDescriptor+0x16a>
          pbuf = (uint8_t *)pdev->pClass[0]->GetDeviceQualifierDescriptor(&len);
 80058a2:	f8d0 32b8 	ldr.w	r3, [r0, #696]	@ 0x2b8
 80058a6:	6b5b      	ldr	r3, [r3, #52]	@ 0x34
 80058a8:	f10d 0006 	add.w	r0, sp, #6
 80058ac:	4798      	blx	r3
  if (err != 0U)
 80058ae:	e775      	b.n	800579c <USBD_GetDescriptor+0x56>
        USBD_CtlError(pdev, req);
 80058b0:	4621      	mov	r1, r4
 80058b2:	f7ff ff3e 	bl	8005732 <USBD_CtlError>
  if (err != 0U)
 80058b6:	e011      	b.n	80058dc <USBD_GetDescriptor+0x196>
      if (pdev->dev_speed == USBD_SPEED_HIGH)
 80058b8:	7c03      	ldrb	r3, [r0, #16]
 80058ba:	b943      	cbnz	r3, 80058ce <USBD_GetDescriptor+0x188>
          pbuf = (uint8_t *)pdev->pClass[0]->GetOtherSpeedConfigDescriptor(&len);
 80058bc:	f8d0 32b8 	ldr.w	r3, [r0, #696]	@ 0x2b8
 80058c0:	6b1b      	ldr	r3, [r3, #48]	@ 0x30
 80058c2:	f10d 0006 	add.w	r0, sp, #6
 80058c6:	4798      	blx	r3
        pbuf[1] = USB_DESC_TYPE_OTHER_SPEED_CONFIGURATION;
 80058c8:	2307      	movs	r3, #7
 80058ca:	7043      	strb	r3, [r0, #1]
  if (err != 0U)
 80058cc:	e766      	b.n	800579c <USBD_GetDescriptor+0x56>
        USBD_CtlError(pdev, req);
 80058ce:	4621      	mov	r1, r4
 80058d0:	f7ff ff2f 	bl	8005732 <USBD_CtlError>
  if (err != 0U)
 80058d4:	e002      	b.n	80058dc <USBD_GetDescriptor+0x196>
      USBD_CtlError(pdev, req);
 80058d6:	4621      	mov	r1, r4
 80058d8:	f7ff ff2b 	bl	8005732 <USBD_CtlError>
}
 80058dc:	b003      	add	sp, #12
 80058de:	bd30      	pop	{r4, r5, pc}
      USBD_CtlError(pdev, req);
 80058e0:	4621      	mov	r1, r4
 80058e2:	4628      	mov	r0, r5
 80058e4:	f7ff ff25 	bl	8005732 <USBD_CtlError>
 80058e8:	e7f8      	b.n	80058dc <USBD_GetDescriptor+0x196>
    (void)USBD_CtlSendStatus(pdev);
 80058ea:	4628      	mov	r0, r5
 80058ec:	f000 fb74 	bl	8005fd8 <USBD_CtlSendStatus>
 80058f0:	e7f4      	b.n	80058dc <USBD_GetDescriptor+0x196>

080058f2 <USBD_SetAddress>:
{
 80058f2:	b538      	push	{r3, r4, r5, lr}
 80058f4:	4604      	mov	r4, r0
  if ((req->wIndex == 0U) && (req->wLength == 0U) && (req->wValue < 128U))
 80058f6:	888b      	ldrh	r3, [r1, #4]
 80058f8:	b9f3      	cbnz	r3, 8005938 <USBD_SetAddress+0x46>
 80058fa:	88cb      	ldrh	r3, [r1, #6]
 80058fc:	b9e3      	cbnz	r3, 8005938 <USBD_SetAddress+0x46>
 80058fe:	884b      	ldrh	r3, [r1, #2]
 8005900:	2b7f      	cmp	r3, #127	@ 0x7f
 8005902:	d819      	bhi.n	8005938 <USBD_SetAddress+0x46>
    dev_addr = (uint8_t)(req->wValue) & 0x7FU;
 8005904:	f003 057f 	and.w	r5, r3, #127	@ 0x7f
    if (pdev->dev_state == USBD_STATE_CONFIGURED)
 8005908:	f890 329c 	ldrb.w	r3, [r0, #668]	@ 0x29c
 800590c:	2b03      	cmp	r3, #3
 800590e:	d00c      	beq.n	800592a <USBD_SetAddress+0x38>
      pdev->dev_address = dev_addr;
 8005910:	f880 529e 	strb.w	r5, [r0, #670]	@ 0x29e
      (void)USBD_LL_SetUSBAddress(pdev, dev_addr);
 8005914:	4629      	mov	r1, r5
 8005916:	f7ff fccd 	bl	80052b4 <USBD_LL_SetUSBAddress>
      (void)USBD_CtlSendStatus(pdev);
 800591a:	4620      	mov	r0, r4
 800591c:	f000 fb5c 	bl	8005fd8 <USBD_CtlSendStatus>
      if (dev_addr != 0U)
 8005920:	b135      	cbz	r5, 8005930 <USBD_SetAddress+0x3e>
        pdev->dev_state = USBD_STATE_ADDRESSED;
 8005922:	2302      	movs	r3, #2
 8005924:	f884 329c 	strb.w	r3, [r4, #668]	@ 0x29c
 8005928:	e009      	b.n	800593e <USBD_SetAddress+0x4c>
      USBD_CtlError(pdev, req);
 800592a:	f7ff ff02 	bl	8005732 <USBD_CtlError>
 800592e:	e006      	b.n	800593e <USBD_SetAddress+0x4c>
        pdev->dev_state = USBD_STATE_DEFAULT;
 8005930:	2301      	movs	r3, #1
 8005932:	f884 329c 	strb.w	r3, [r4, #668]	@ 0x29c
 8005936:	e002      	b.n	800593e <USBD_SetAddress+0x4c>
    USBD_CtlError(pdev, req);
 8005938:	4620      	mov	r0, r4
 800593a:	f7ff fefa 	bl	8005732 <USBD_CtlError>
}
 800593e:	bd38      	pop	{r3, r4, r5, pc}

08005940 <USBD_SetConfig>:
{
 8005940:	b570      	push	{r4, r5, r6, lr}
 8005942:	4604      	mov	r4, r0
 8005944:	460e      	mov	r6, r1
  cfgidx = (uint8_t)(req->wValue);
 8005946:	788d      	ldrb	r5, [r1, #2]
 8005948:	4b2f      	ldr	r3, [pc, #188]	@ (8005a08 <USBD_SetConfig+0xc8>)
 800594a:	701d      	strb	r5, [r3, #0]
  if (cfgidx > USBD_MAX_NUM_CONFIGURATION)
 800594c:	2d01      	cmp	r5, #1
 800594e:	d810      	bhi.n	8005972 <USBD_SetConfig+0x32>
  switch (pdev->dev_state)
 8005950:	f890 329c 	ldrb.w	r3, [r0, #668]	@ 0x29c
 8005954:	b2da      	uxtb	r2, r3
 8005956:	2b02      	cmp	r3, #2
 8005958:	d00f      	beq.n	800597a <USBD_SetConfig+0x3a>
 800595a:	2a03      	cmp	r2, #3
 800595c:	d026      	beq.n	80059ac <USBD_SetConfig+0x6c>
      USBD_CtlError(pdev, req);
 800595e:	f7ff fee8 	bl	8005732 <USBD_CtlError>
      (void)USBD_ClrClassConfig(pdev, cfgidx);
 8005962:	4b29      	ldr	r3, [pc, #164]	@ (8005a08 <USBD_SetConfig+0xc8>)
 8005964:	7819      	ldrb	r1, [r3, #0]
 8005966:	4620      	mov	r0, r4
 8005968:	f7ff fd00 	bl	800536c <USBD_ClrClassConfig>
      ret = USBD_FAIL;
 800596c:	2503      	movs	r5, #3
}
 800596e:	4628      	mov	r0, r5
 8005970:	bd70      	pop	{r4, r5, r6, pc}
    USBD_CtlError(pdev, req);
 8005972:	f7ff fede 	bl	8005732 <USBD_CtlError>
    return USBD_FAIL;
 8005976:	2503      	movs	r5, #3
 8005978:	e7f9      	b.n	800596e <USBD_SetConfig+0x2e>
      if (cfgidx != 0U)
 800597a:	b1a5      	cbz	r5, 80059a6 <USBD_SetConfig+0x66>
        pdev->dev_config = cfgidx;
 800597c:	6045      	str	r5, [r0, #4]
        ret = USBD_SetClassConfig(pdev, cfgidx);
 800597e:	4629      	mov	r1, r5
 8005980:	f7ff fceb 	bl	800535a <USBD_SetClassConfig>
        if (ret != USBD_OK)
 8005984:	4605      	mov	r5, r0
 8005986:	b138      	cbz	r0, 8005998 <USBD_SetConfig+0x58>
          USBD_CtlError(pdev, req);
 8005988:	4631      	mov	r1, r6
 800598a:	4620      	mov	r0, r4
 800598c:	f7ff fed1 	bl	8005732 <USBD_CtlError>
          pdev->dev_state = USBD_STATE_ADDRESSED;
 8005990:	2302      	movs	r3, #2
 8005992:	f884 329c 	strb.w	r3, [r4, #668]	@ 0x29c
 8005996:	e7ea      	b.n	800596e <USBD_SetConfig+0x2e>
          (void)USBD_CtlSendStatus(pdev);
 8005998:	4620      	mov	r0, r4
 800599a:	f000 fb1d 	bl	8005fd8 <USBD_CtlSendStatus>
          pdev->dev_state = USBD_STATE_CONFIGURED;
 800599e:	2303      	movs	r3, #3
 80059a0:	f884 329c 	strb.w	r3, [r4, #668]	@ 0x29c
 80059a4:	e7e3      	b.n	800596e <USBD_SetConfig+0x2e>
        (void)USBD_CtlSendStatus(pdev);
 80059a6:	f000 fb17 	bl	8005fd8 <USBD_CtlSendStatus>
 80059aa:	e7e0      	b.n	800596e <USBD_SetConfig+0x2e>
      if (cfgidx == 0U)
 80059ac:	b1cd      	cbz	r5, 80059e2 <USBD_SetConfig+0xa2>
      else if (cfgidx != pdev->dev_config)
 80059ae:	6841      	ldr	r1, [r0, #4]
 80059b0:	428d      	cmp	r5, r1
 80059b2:	d025      	beq.n	8005a00 <USBD_SetConfig+0xc0>
        (void)USBD_ClrClassConfig(pdev, (uint8_t)pdev->dev_config);
 80059b4:	b2c9      	uxtb	r1, r1
 80059b6:	f7ff fcd9 	bl	800536c <USBD_ClrClassConfig>
        pdev->dev_config = cfgidx;
 80059ba:	4b13      	ldr	r3, [pc, #76]	@ (8005a08 <USBD_SetConfig+0xc8>)
 80059bc:	7819      	ldrb	r1, [r3, #0]
 80059be:	6061      	str	r1, [r4, #4]
        ret = USBD_SetClassConfig(pdev, cfgidx);
 80059c0:	4620      	mov	r0, r4
 80059c2:	f7ff fcca 	bl	800535a <USBD_SetClassConfig>
        if (ret != USBD_OK)
 80059c6:	4605      	mov	r5, r0
 80059c8:	b1b0      	cbz	r0, 80059f8 <USBD_SetConfig+0xb8>
          USBD_CtlError(pdev, req);
 80059ca:	4631      	mov	r1, r6
 80059cc:	4620      	mov	r0, r4
 80059ce:	f7ff feb0 	bl	8005732 <USBD_CtlError>
          (void)USBD_ClrClassConfig(pdev, (uint8_t)pdev->dev_config);
 80059d2:	7921      	ldrb	r1, [r4, #4]
 80059d4:	4620      	mov	r0, r4
 80059d6:	f7ff fcc9 	bl	800536c <USBD_ClrClassConfig>
          pdev->dev_state = USBD_STATE_ADDRESSED;
 80059da:	2302      	movs	r3, #2
 80059dc:	f884 329c 	strb.w	r3, [r4, #668]	@ 0x29c
 80059e0:	e7c5      	b.n	800596e <USBD_SetConfig+0x2e>
        pdev->dev_state = USBD_STATE_ADDRESSED;
 80059e2:	2302      	movs	r3, #2
 80059e4:	f880 329c 	strb.w	r3, [r0, #668]	@ 0x29c
        pdev->dev_config = cfgidx;
 80059e8:	6045      	str	r5, [r0, #4]
        (void)USBD_ClrClassConfig(pdev, cfgidx);
 80059ea:	4629      	mov	r1, r5
 80059ec:	f7ff fcbe 	bl	800536c <USBD_ClrClassConfig>
        (void)USBD_CtlSendStatus(pdev);
 80059f0:	4620      	mov	r0, r4
 80059f2:	f000 faf1 	bl	8005fd8 <USBD_CtlSendStatus>
 80059f6:	e7ba      	b.n	800596e <USBD_SetConfig+0x2e>
          (void)USBD_CtlSendStatus(pdev);
 80059f8:	4620      	mov	r0, r4
 80059fa:	f000 faed 	bl	8005fd8 <USBD_CtlSendStatus>
 80059fe:	e7b6      	b.n	800596e <USBD_SetConfig+0x2e>
        (void)USBD_CtlSendStatus(pdev);
 8005a00:	f000 faea 	bl	8005fd8 <USBD_CtlSendStatus>
  USBD_StatusTypeDef ret = USBD_OK;
 8005a04:	2500      	movs	r5, #0
 8005a06:	e7b2      	b.n	800596e <USBD_SetConfig+0x2e>
 8005a08:	20000dec 	.word	0x20000dec

08005a0c <USBD_GetConfig>:
{
 8005a0c:	b508      	push	{r3, lr}
  if (req->wLength != 1U)
 8005a0e:	88cb      	ldrh	r3, [r1, #6]
 8005a10:	2b01      	cmp	r3, #1
 8005a12:	d10b      	bne.n	8005a2c <USBD_GetConfig+0x20>
    switch (pdev->dev_state)
 8005a14:	f890 329c 	ldrb.w	r3, [r0, #668]	@ 0x29c
 8005a18:	b2da      	uxtb	r2, r3
 8005a1a:	2b02      	cmp	r3, #2
 8005a1c:	d909      	bls.n	8005a32 <USBD_GetConfig+0x26>
 8005a1e:	2a03      	cmp	r2, #3
 8005a20:	d111      	bne.n	8005a46 <USBD_GetConfig+0x3a>
        (void)USBD_CtlSendData(pdev, (uint8_t *)&pdev->dev_config, 1U);
 8005a22:	2201      	movs	r2, #1
 8005a24:	1d01      	adds	r1, r0, #4
 8005a26:	f000 faab 	bl	8005f80 <USBD_CtlSendData>
        break;
 8005a2a:	e001      	b.n	8005a30 <USBD_GetConfig+0x24>
    USBD_CtlError(pdev, req);
 8005a2c:	f7ff fe81 	bl	8005732 <USBD_CtlError>
}
 8005a30:	bd08      	pop	{r3, pc}
    switch (pdev->dev_state)
 8005a32:	b252      	sxtb	r2, r2
 8005a34:	b13a      	cbz	r2, 8005a46 <USBD_GetConfig+0x3a>
        pdev->dev_default_config = 0U;
 8005a36:	4601      	mov	r1, r0
 8005a38:	2300      	movs	r3, #0
 8005a3a:	f841 3f08 	str.w	r3, [r1, #8]!
        (void)USBD_CtlSendData(pdev, (uint8_t *)&pdev->dev_default_config, 1U);
 8005a3e:	2201      	movs	r2, #1
 8005a40:	f000 fa9e 	bl	8005f80 <USBD_CtlSendData>
        break;
 8005a44:	e7f4      	b.n	8005a30 <USBD_GetConfig+0x24>
        USBD_CtlError(pdev, req);
 8005a46:	f7ff fe74 	bl	8005732 <USBD_CtlError>
}
 8005a4a:	e7f1      	b.n	8005a30 <USBD_GetConfig+0x24>

08005a4c <USBD_GetStatus>:
{
 8005a4c:	b508      	push	{r3, lr}
  switch (pdev->dev_state)
 8005a4e:	f890 329c 	ldrb.w	r3, [r0, #668]	@ 0x29c
 8005a52:	3b01      	subs	r3, #1
 8005a54:	2b02      	cmp	r3, #2
 8005a56:	d812      	bhi.n	8005a7e <USBD_GetStatus+0x32>
      if (req->wLength != 0x2U)
 8005a58:	88cb      	ldrh	r3, [r1, #6]
 8005a5a:	2b02      	cmp	r3, #2
 8005a5c:	d10c      	bne.n	8005a78 <USBD_GetStatus+0x2c>
      pdev->dev_config_status = USB_CONFIG_SELF_POWERED;
 8005a5e:	2301      	movs	r3, #1
 8005a60:	60c3      	str	r3, [r0, #12]
      if (pdev->dev_remote_wakeup != 0U)
 8005a62:	f8d0 32a4 	ldr.w	r3, [r0, #676]	@ 0x2a4
 8005a66:	b10b      	cbz	r3, 8005a6c <USBD_GetStatus+0x20>
        pdev->dev_config_status |= USB_CONFIG_REMOTE_WAKEUP;
 8005a68:	2303      	movs	r3, #3
 8005a6a:	60c3      	str	r3, [r0, #12]
      (void)USBD_CtlSendData(pdev, (uint8_t *)&pdev->dev_config_status, 2U);
 8005a6c:	2202      	movs	r2, #2
 8005a6e:	f100 010c 	add.w	r1, r0, #12
 8005a72:	f000 fa85 	bl	8005f80 <USBD_CtlSendData>
}
 8005a76:	bd08      	pop	{r3, pc}
        USBD_CtlError(pdev, req);
 8005a78:	f7ff fe5b 	bl	8005732 <USBD_CtlError>
        break;
 8005a7c:	e7fb      	b.n	8005a76 <USBD_GetStatus+0x2a>
      USBD_CtlError(pdev, req);
 8005a7e:	f7ff fe58 	bl	8005732 <USBD_CtlError>
}
 8005a82:	e7f8      	b.n	8005a76 <USBD_GetStatus+0x2a>

08005a84 <USBD_SetFeature>:
{
 8005a84:	b508      	push	{r3, lr}
  if (req->wValue == USB_FEATURE_REMOTE_WAKEUP)
 8005a86:	884b      	ldrh	r3, [r1, #2]
 8005a88:	2b01      	cmp	r3, #1
 8005a8a:	d004      	beq.n	8005a96 <USBD_SetFeature+0x12>
  else if (req->wValue == USB_FEATURE_TEST_MODE)
 8005a8c:	2b02      	cmp	r3, #2
 8005a8e:	d007      	beq.n	8005aa0 <USBD_SetFeature+0x1c>
    USBD_CtlError(pdev, req);
 8005a90:	f7ff fe4f 	bl	8005732 <USBD_CtlError>
}
 8005a94:	bd08      	pop	{r3, pc}
    pdev->dev_remote_wakeup = 1U;
 8005a96:	f8c0 32a4 	str.w	r3, [r0, #676]	@ 0x2a4
    (void)USBD_CtlSendStatus(pdev);
 8005a9a:	f000 fa9d 	bl	8005fd8 <USBD_CtlSendStatus>
 8005a9e:	e7f9      	b.n	8005a94 <USBD_SetFeature+0x10>
    pdev->dev_test_mode = (uint8_t)(req->wIndex >> 8);
 8005aa0:	888b      	ldrh	r3, [r1, #4]
 8005aa2:	0a1b      	lsrs	r3, r3, #8
 8005aa4:	f880 32a0 	strb.w	r3, [r0, #672]	@ 0x2a0
    (void)USBD_CtlSendStatus(pdev);
 8005aa8:	f000 fa96 	bl	8005fd8 <USBD_CtlSendStatus>
 8005aac:	e7f2      	b.n	8005a94 <USBD_SetFeature+0x10>

08005aae <USBD_ClrFeature>:
{
 8005aae:	b508      	push	{r3, lr}
  switch (pdev->dev_state)
 8005ab0:	f890 329c 	ldrb.w	r3, [r0, #668]	@ 0x29c
 8005ab4:	3b01      	subs	r3, #1
 8005ab6:	2b02      	cmp	r3, #2
 8005ab8:	d809      	bhi.n	8005ace <USBD_ClrFeature+0x20>
      if (req->wValue == USB_FEATURE_REMOTE_WAKEUP)
 8005aba:	884b      	ldrh	r3, [r1, #2]
 8005abc:	2b01      	cmp	r3, #1
 8005abe:	d000      	beq.n	8005ac2 <USBD_ClrFeature+0x14>
}
 8005ac0:	bd08      	pop	{r3, pc}
        pdev->dev_remote_wakeup = 0U;
 8005ac2:	2300      	movs	r3, #0
 8005ac4:	f8c0 32a4 	str.w	r3, [r0, #676]	@ 0x2a4
        (void)USBD_CtlSendStatus(pdev);
 8005ac8:	f000 fa86 	bl	8005fd8 <USBD_CtlSendStatus>
 8005acc:	e7f8      	b.n	8005ac0 <USBD_ClrFeature+0x12>
      USBD_CtlError(pdev, req);
 8005ace:	f7ff fe30 	bl	8005732 <USBD_CtlError>
}
 8005ad2:	e7f5      	b.n	8005ac0 <USBD_ClrFeature+0x12>

08005ad4 <USBD_StdDevReq>:
{
 8005ad4:	b538      	push	{r3, r4, r5, lr}
  switch (req->bmRequest & USB_REQ_TYPE_MASK)
 8005ad6:	780c      	ldrb	r4, [r1, #0]
 8005ad8:	f004 0460 	and.w	r4, r4, #96	@ 0x60
 8005adc:	2c20      	cmp	r4, #32
 8005ade:	d006      	beq.n	8005aee <USBD_StdDevReq+0x1a>
 8005ae0:	2c40      	cmp	r4, #64	@ 0x40
 8005ae2:	d004      	beq.n	8005aee <USBD_StdDevReq+0x1a>
 8005ae4:	b16c      	cbz	r4, 8005b02 <USBD_StdDevReq+0x2e>
      USBD_CtlError(pdev, req);
 8005ae6:	f7ff fe24 	bl	8005732 <USBD_CtlError>
  USBD_StatusTypeDef ret = USBD_OK;
 8005aea:	2400      	movs	r4, #0
      break;
 8005aec:	e007      	b.n	8005afe <USBD_StdDevReq+0x2a>
      ret = (USBD_StatusTypeDef)pdev->pClass[pdev->classId]->Setup(pdev, req);
 8005aee:	f8d0 32d4 	ldr.w	r3, [r0, #724]	@ 0x2d4
 8005af2:	33ae      	adds	r3, #174	@ 0xae
 8005af4:	f850 3023 	ldr.w	r3, [r0, r3, lsl #2]
 8005af8:	689b      	ldr	r3, [r3, #8]
 8005afa:	4798      	blx	r3
 8005afc:	4604      	mov	r4, r0
}
 8005afe:	4620      	mov	r0, r4
 8005b00:	bd38      	pop	{r3, r4, r5, pc}
      switch (req->bRequest)
 8005b02:	784d      	ldrb	r5, [r1, #1]
 8005b04:	2d09      	cmp	r5, #9
 8005b06:	d81d      	bhi.n	8005b44 <USBD_StdDevReq+0x70>
 8005b08:	e8df f005 	tbb	[pc, r5]
 8005b0c:	161c1912 	.word	0x161c1912
 8005b10:	1c05081c 	.word	0x1c05081c
 8005b14:	0b0f      	.short	0x0b0f
          USBD_GetDescriptor(pdev, req);
 8005b16:	f7ff fe16 	bl	8005746 <USBD_GetDescriptor>
          break;
 8005b1a:	e7f0      	b.n	8005afe <USBD_StdDevReq+0x2a>
          USBD_SetAddress(pdev, req);
 8005b1c:	f7ff fee9 	bl	80058f2 <USBD_SetAddress>
          break;
 8005b20:	e7ed      	b.n	8005afe <USBD_StdDevReq+0x2a>
          ret = USBD_SetConfig(pdev, req);
 8005b22:	f7ff ff0d 	bl	8005940 <USBD_SetConfig>
 8005b26:	4604      	mov	r4, r0
          break;
 8005b28:	e7e9      	b.n	8005afe <USBD_StdDevReq+0x2a>
          USBD_GetConfig(pdev, req);
 8005b2a:	f7ff ff6f 	bl	8005a0c <USBD_GetConfig>
          break;
 8005b2e:	e7e6      	b.n	8005afe <USBD_StdDevReq+0x2a>
          USBD_GetStatus(pdev, req);
 8005b30:	f7ff ff8c 	bl	8005a4c <USBD_GetStatus>
  USBD_StatusTypeDef ret = USBD_OK;
 8005b34:	462c      	mov	r4, r5
          break;
 8005b36:	e7e2      	b.n	8005afe <USBD_StdDevReq+0x2a>
          USBD_SetFeature(pdev, req);
 8005b38:	f7ff ffa4 	bl	8005a84 <USBD_SetFeature>
          break;
 8005b3c:	e7df      	b.n	8005afe <USBD_StdDevReq+0x2a>
          USBD_ClrFeature(pdev, req);
 8005b3e:	f7ff ffb6 	bl	8005aae <USBD_ClrFeature>
          break;
 8005b42:	e7dc      	b.n	8005afe <USBD_StdDevReq+0x2a>
          USBD_CtlError(pdev, req);
 8005b44:	f7ff fdf5 	bl	8005732 <USBD_CtlError>
          break;
 8005b48:	e7d9      	b.n	8005afe <USBD_StdDevReq+0x2a>

08005b4a <USBD_StdItfReq>:
{
 8005b4a:	b570      	push	{r4, r5, r6, lr}
 8005b4c:	4605      	mov	r5, r0
 8005b4e:	460c      	mov	r4, r1
  switch (req->bmRequest & USB_REQ_TYPE_MASK)
 8005b50:	780b      	ldrb	r3, [r1, #0]
 8005b52:	f003 0360 	and.w	r3, r3, #96	@ 0x60
 8005b56:	2b20      	cmp	r3, #32
 8005b58:	d007      	beq.n	8005b6a <USBD_StdItfReq+0x20>
 8005b5a:	2b40      	cmp	r3, #64	@ 0x40
 8005b5c:	d005      	beq.n	8005b6a <USBD_StdItfReq+0x20>
 8005b5e:	b123      	cbz	r3, 8005b6a <USBD_StdItfReq+0x20>
      USBD_CtlError(pdev, req);
 8005b60:	f7ff fde7 	bl	8005732 <USBD_CtlError>
  USBD_StatusTypeDef ret = USBD_OK;
 8005b64:	2600      	movs	r6, #0
}
 8005b66:	4630      	mov	r0, r6
 8005b68:	bd70      	pop	{r4, r5, r6, pc}
      switch (pdev->dev_state)
 8005b6a:	f895 329c 	ldrb.w	r3, [r5, #668]	@ 0x29c
 8005b6e:	3b01      	subs	r3, #1
 8005b70:	2b02      	cmp	r3, #2
 8005b72:	d826      	bhi.n	8005bc2 <USBD_StdItfReq+0x78>
          if (LOBYTE(req->wIndex) <= USBD_MAX_NUM_INTERFACES)
 8005b74:	7921      	ldrb	r1, [r4, #4]
 8005b76:	2901      	cmp	r1, #1
 8005b78:	d905      	bls.n	8005b86 <USBD_StdItfReq+0x3c>
            USBD_CtlError(pdev, req);
 8005b7a:	4621      	mov	r1, r4
 8005b7c:	4628      	mov	r0, r5
 8005b7e:	f7ff fdd8 	bl	8005732 <USBD_CtlError>
  USBD_StatusTypeDef ret = USBD_OK;
 8005b82:	2600      	movs	r6, #0
 8005b84:	e7ef      	b.n	8005b66 <USBD_StdItfReq+0x1c>
            idx = USBD_CoreFindIF(pdev, LOBYTE(req->wIndex));
 8005b86:	4628      	mov	r0, r5
 8005b88:	f7ff fcc2 	bl	8005510 <USBD_CoreFindIF>
            if (((uint8_t)idx != 0xFFU) && (idx < USBD_MAX_SUPPORTED_CLASS))
 8005b8c:	b968      	cbnz	r0, 8005baa <USBD_StdItfReq+0x60>
              if (pdev->pClass[idx]->Setup != NULL)
 8005b8e:	f100 02ae 	add.w	r2, r0, #174	@ 0xae
 8005b92:	f855 2022 	ldr.w	r2, [r5, r2, lsl #2]
 8005b96:	6891      	ldr	r1, [r2, #8]
 8005b98:	b189      	cbz	r1, 8005bbe <USBD_StdItfReq+0x74>
                pdev->classId = idx;
 8005b9a:	f8c5 02d4 	str.w	r0, [r5, #724]	@ 0x2d4
                ret = (USBD_StatusTypeDef)(pdev->pClass[idx]->Setup(pdev, req));
 8005b9e:	6893      	ldr	r3, [r2, #8]
 8005ba0:	4621      	mov	r1, r4
 8005ba2:	4628      	mov	r0, r5
 8005ba4:	4798      	blx	r3
 8005ba6:	4606      	mov	r6, r0
 8005ba8:	e000      	b.n	8005bac <USBD_StdItfReq+0x62>
              ret = USBD_FAIL;
 8005baa:	2603      	movs	r6, #3
            if ((req->wLength == 0U) && (ret == USBD_OK))
 8005bac:	88e3      	ldrh	r3, [r4, #6]
 8005bae:	2b00      	cmp	r3, #0
 8005bb0:	d1d9      	bne.n	8005b66 <USBD_StdItfReq+0x1c>
 8005bb2:	2e00      	cmp	r6, #0
 8005bb4:	d1d7      	bne.n	8005b66 <USBD_StdItfReq+0x1c>
              (void)USBD_CtlSendStatus(pdev);
 8005bb6:	4628      	mov	r0, r5
 8005bb8:	f000 fa0e 	bl	8005fd8 <USBD_CtlSendStatus>
 8005bbc:	e7d3      	b.n	8005b66 <USBD_StdItfReq+0x1c>
                ret = USBD_FAIL;
 8005bbe:	2603      	movs	r6, #3
 8005bc0:	e7f4      	b.n	8005bac <USBD_StdItfReq+0x62>
          USBD_CtlError(pdev, req);
 8005bc2:	4621      	mov	r1, r4
 8005bc4:	4628      	mov	r0, r5
 8005bc6:	f7ff fdb4 	bl	8005732 <USBD_CtlError>
  USBD_StatusTypeDef ret = USBD_OK;
 8005bca:	2600      	movs	r6, #0
          break;
 8005bcc:	e7cb      	b.n	8005b66 <USBD_StdItfReq+0x1c>

08005bce <USBD_StdEPReq>:
{
 8005bce:	e92d 41f0 	stmdb	sp!, {r4, r5, r6, r7, r8, lr}
 8005bd2:	4606      	mov	r6, r0
 8005bd4:	460d      	mov	r5, r1
  ep_addr = LOBYTE(req->wIndex);
 8005bd6:	888b      	ldrh	r3, [r1, #4]
 8005bd8:	b2df      	uxtb	r7, r3
  switch (req->bmRequest & USB_REQ_TYPE_MASK)
 8005bda:	780c      	ldrb	r4, [r1, #0]
 8005bdc:	f004 0460 	and.w	r4, r4, #96	@ 0x60
 8005be0:	2c20      	cmp	r4, #32
 8005be2:	d008      	beq.n	8005bf6 <USBD_StdEPReq+0x28>
 8005be4:	2c40      	cmp	r4, #64	@ 0x40
 8005be6:	d006      	beq.n	8005bf6 <USBD_StdEPReq+0x28>
 8005be8:	b1dc      	cbz	r4, 8005c22 <USBD_StdEPReq+0x54>
      USBD_CtlError(pdev, req);
 8005bea:	f7ff fda2 	bl	8005732 <USBD_CtlError>
  USBD_StatusTypeDef ret = USBD_OK;
 8005bee:	2400      	movs	r4, #0
}
 8005bf0:	4620      	mov	r0, r4
 8005bf2:	e8bd 81f0 	ldmia.w	sp!, {r4, r5, r6, r7, r8, pc}
      idx = USBD_CoreFindEP(pdev, ep_addr);
 8005bf6:	4639      	mov	r1, r7
 8005bf8:	4630      	mov	r0, r6
 8005bfa:	f7ff fc8b 	bl	8005514 <USBD_CoreFindEP>
      if (((uint8_t)idx != 0xFFU) && (idx < USBD_MAX_SUPPORTED_CLASS))
 8005bfe:	4604      	mov	r4, r0
 8005c00:	2800      	cmp	r0, #0
 8005c02:	f040 80fd 	bne.w	8005e00 <USBD_StdEPReq+0x232>
        pdev->classId = idx;
 8005c06:	f8c6 02d4 	str.w	r0, [r6, #724]	@ 0x2d4
        if (pdev->pClass[idx]->Setup != NULL)
 8005c0a:	f100 03ae 	add.w	r3, r0, #174	@ 0xae
 8005c0e:	f856 3023 	ldr.w	r3, [r6, r3, lsl #2]
 8005c12:	689b      	ldr	r3, [r3, #8]
 8005c14:	2b00      	cmp	r3, #0
 8005c16:	d0eb      	beq.n	8005bf0 <USBD_StdEPReq+0x22>
          ret = (USBD_StatusTypeDef)pdev->pClass[idx]->Setup(pdev, req);
 8005c18:	4629      	mov	r1, r5
 8005c1a:	4630      	mov	r0, r6
 8005c1c:	4798      	blx	r3
 8005c1e:	4604      	mov	r4, r0
 8005c20:	e7e6      	b.n	8005bf0 <USBD_StdEPReq+0x22>
      switch (req->bRequest)
 8005c22:	f891 8001 	ldrb.w	r8, [r1, #1]
 8005c26:	f1b8 0f01 	cmp.w	r8, #1
 8005c2a:	d031      	beq.n	8005c90 <USBD_StdEPReq+0xc2>
 8005c2c:	f1b8 0f03 	cmp.w	r8, #3
 8005c30:	d005      	beq.n	8005c3e <USBD_StdEPReq+0x70>
 8005c32:	f1b8 0f00 	cmp.w	r8, #0
 8005c36:	d066      	beq.n	8005d06 <USBD_StdEPReq+0x138>
          USBD_CtlError(pdev, req);
 8005c38:	f7ff fd7b 	bl	8005732 <USBD_CtlError>
          break;
 8005c3c:	e7d8      	b.n	8005bf0 <USBD_StdEPReq+0x22>
          switch (pdev->dev_state)
 8005c3e:	f890 329c 	ldrb.w	r3, [r0, #668]	@ 0x29c
 8005c42:	b2da      	uxtb	r2, r3
 8005c44:	2b02      	cmp	r3, #2
 8005c46:	d004      	beq.n	8005c52 <USBD_StdEPReq+0x84>
 8005c48:	2a03      	cmp	r2, #3
 8005c4a:	d011      	beq.n	8005c70 <USBD_StdEPReq+0xa2>
              USBD_CtlError(pdev, req);
 8005c4c:	f7ff fd71 	bl	8005732 <USBD_CtlError>
              break;
 8005c50:	e7ce      	b.n	8005bf0 <USBD_StdEPReq+0x22>
              if ((ep_addr != 0x00U) && (ep_addr != 0x80U))
 8005c52:	2f00      	cmp	r7, #0
 8005c54:	bf18      	it	ne
 8005c56:	2f80      	cmpne	r7, #128	@ 0x80
 8005c58:	d007      	beq.n	8005c6a <USBD_StdEPReq+0x9c>
                (void)USBD_LL_StallEP(pdev, ep_addr);
 8005c5a:	4639      	mov	r1, r7
 8005c5c:	f7ff fb1a 	bl	8005294 <USBD_LL_StallEP>
                (void)USBD_LL_StallEP(pdev, 0x80U);
 8005c60:	2180      	movs	r1, #128	@ 0x80
 8005c62:	4630      	mov	r0, r6
 8005c64:	f7ff fb16 	bl	8005294 <USBD_LL_StallEP>
 8005c68:	e7c2      	b.n	8005bf0 <USBD_StdEPReq+0x22>
                USBD_CtlError(pdev, req);
 8005c6a:	f7ff fd62 	bl	8005732 <USBD_CtlError>
 8005c6e:	e7bf      	b.n	8005bf0 <USBD_StdEPReq+0x22>
              if (req->wValue == USB_FEATURE_EP_HALT)
 8005c70:	884b      	ldrh	r3, [r1, #2]
 8005c72:	b92b      	cbnz	r3, 8005c80 <USBD_StdEPReq+0xb2>
                if ((ep_addr != 0x00U) && (ep_addr != 0x80U) && (req->wLength == 0x00U))
 8005c74:	2f00      	cmp	r7, #0
 8005c76:	bf18      	it	ne
 8005c78:	2f80      	cmpne	r7, #128	@ 0x80
 8005c7a:	d001      	beq.n	8005c80 <USBD_StdEPReq+0xb2>
 8005c7c:	88cb      	ldrh	r3, [r1, #6]
 8005c7e:	b11b      	cbz	r3, 8005c88 <USBD_StdEPReq+0xba>
              (void)USBD_CtlSendStatus(pdev);
 8005c80:	4630      	mov	r0, r6
 8005c82:	f000 f9a9 	bl	8005fd8 <USBD_CtlSendStatus>
              break;
 8005c86:	e7b3      	b.n	8005bf0 <USBD_StdEPReq+0x22>
                  (void)USBD_LL_StallEP(pdev, ep_addr);
 8005c88:	4639      	mov	r1, r7
 8005c8a:	f7ff fb03 	bl	8005294 <USBD_LL_StallEP>
 8005c8e:	e7f7      	b.n	8005c80 <USBD_StdEPReq+0xb2>
          switch (pdev->dev_state)
 8005c90:	f890 329c 	ldrb.w	r3, [r0, #668]	@ 0x29c
 8005c94:	b2da      	uxtb	r2, r3
 8005c96:	2b02      	cmp	r3, #2
 8005c98:	d004      	beq.n	8005ca4 <USBD_StdEPReq+0xd6>
 8005c9a:	2a03      	cmp	r2, #3
 8005c9c:	d011      	beq.n	8005cc2 <USBD_StdEPReq+0xf4>
              USBD_CtlError(pdev, req);
 8005c9e:	f7ff fd48 	bl	8005732 <USBD_CtlError>
              break;
 8005ca2:	e7a5      	b.n	8005bf0 <USBD_StdEPReq+0x22>
              if ((ep_addr != 0x00U) && (ep_addr != 0x80U))
 8005ca4:	2f00      	cmp	r7, #0
 8005ca6:	bf18      	it	ne
 8005ca8:	2f80      	cmpne	r7, #128	@ 0x80
 8005caa:	d007      	beq.n	8005cbc <USBD_StdEPReq+0xee>
                (void)USBD_LL_StallEP(pdev, ep_addr);
 8005cac:	4639      	mov	r1, r7
 8005cae:	f7ff faf1 	bl	8005294 <USBD_LL_StallEP>
                (void)USBD_LL_StallEP(pdev, 0x80U);
 8005cb2:	2180      	movs	r1, #128	@ 0x80
 8005cb4:	4630      	mov	r0, r6
 8005cb6:	f7ff faed 	bl	8005294 <USBD_LL_StallEP>
 8005cba:	e799      	b.n	8005bf0 <USBD_StdEPReq+0x22>
                USBD_CtlError(pdev, req);
 8005cbc:	f7ff fd39 	bl	8005732 <USBD_CtlError>
 8005cc0:	e796      	b.n	8005bf0 <USBD_StdEPReq+0x22>
              if (req->wValue == USB_FEATURE_EP_HALT)
 8005cc2:	884b      	ldrh	r3, [r1, #2]
 8005cc4:	2b00      	cmp	r3, #0
 8005cc6:	d193      	bne.n	8005bf0 <USBD_StdEPReq+0x22>
                if ((ep_addr & 0x7FU) != 0x00U)
 8005cc8:	f017 0f7f 	tst.w	r7, #127	@ 0x7f
 8005ccc:	d117      	bne.n	8005cfe <USBD_StdEPReq+0x130>
                (void)USBD_CtlSendStatus(pdev);
 8005cce:	4630      	mov	r0, r6
 8005cd0:	f000 f982 	bl	8005fd8 <USBD_CtlSendStatus>
                idx = USBD_CoreFindEP(pdev, ep_addr);
 8005cd4:	4639      	mov	r1, r7
 8005cd6:	4630      	mov	r0, r6
 8005cd8:	f7ff fc1c 	bl	8005514 <USBD_CoreFindEP>
                if (((uint8_t)idx != 0xFFU) && (idx < USBD_MAX_SUPPORTED_CLASS))
 8005cdc:	2800      	cmp	r0, #0
 8005cde:	d187      	bne.n	8005bf0 <USBD_StdEPReq+0x22>
                  pdev->classId = idx;
 8005ce0:	f8c6 02d4 	str.w	r0, [r6, #724]	@ 0x2d4
                  if (pdev->pClass[idx]->Setup != NULL)
 8005ce4:	f100 02ae 	add.w	r2, r0, #174	@ 0xae
 8005ce8:	f856 2022 	ldr.w	r2, [r6, r2, lsl #2]
 8005cec:	6892      	ldr	r2, [r2, #8]
 8005cee:	2a00      	cmp	r2, #0
 8005cf0:	f000 8088 	beq.w	8005e04 <USBD_StdEPReq+0x236>
                    ret = (USBD_StatusTypeDef)(pdev->pClass[idx]->Setup(pdev, req));
 8005cf4:	4629      	mov	r1, r5
 8005cf6:	4630      	mov	r0, r6
 8005cf8:	4790      	blx	r2
 8005cfa:	4604      	mov	r4, r0
 8005cfc:	e778      	b.n	8005bf0 <USBD_StdEPReq+0x22>
                  (void)USBD_LL_ClearStallEP(pdev, ep_addr);
 8005cfe:	4639      	mov	r1, r7
 8005d00:	f7ff fad0 	bl	80052a4 <USBD_LL_ClearStallEP>
 8005d04:	e7e3      	b.n	8005cce <USBD_StdEPReq+0x100>
          switch (pdev->dev_state)
 8005d06:	f890 229c 	ldrb.w	r2, [r0, #668]	@ 0x29c
 8005d0a:	b2d1      	uxtb	r1, r2
 8005d0c:	2a02      	cmp	r2, #2
 8005d0e:	d006      	beq.n	8005d1e <USBD_StdEPReq+0x150>
 8005d10:	2903      	cmp	r1, #3
 8005d12:	d02a      	beq.n	8005d6a <USBD_StdEPReq+0x19c>
              USBD_CtlError(pdev, req);
 8005d14:	4629      	mov	r1, r5
 8005d16:	f7ff fd0c 	bl	8005732 <USBD_CtlError>
  USBD_StatusTypeDef ret = USBD_OK;
 8005d1a:	4644      	mov	r4, r8
              break;
 8005d1c:	e768      	b.n	8005bf0 <USBD_StdEPReq+0x22>
              if ((ep_addr != 0x00U) && (ep_addr != 0x80U))
 8005d1e:	2f00      	cmp	r7, #0
 8005d20:	bf18      	it	ne
 8005d22:	2f80      	cmpne	r7, #128	@ 0x80
 8005d24:	d113      	bne.n	8005d4e <USBD_StdEPReq+0x180>
              pep = ((ep_addr & 0x80U) == 0x80U) ? &pdev->ep_in[ep_addr & 0x7FU] : \
 8005d26:	f013 0f80 	tst.w	r3, #128	@ 0x80
 8005d2a:	d115      	bne.n	8005d58 <USBD_StdEPReq+0x18a>
                    &pdev->ep_out[ep_addr & 0x7FU];
 8005d2c:	f007 077f 	and.w	r7, r7, #127	@ 0x7f
              pep = ((ep_addr & 0x80U) == 0x80U) ? &pdev->ep_in[ep_addr & 0x7FU] : \
 8005d30:	eb07 0787 	add.w	r7, r7, r7, lsl #2
 8005d34:	00b9      	lsls	r1, r7, #2
 8005d36:	f501 71a8 	add.w	r1, r1, #336	@ 0x150
 8005d3a:	4401      	add	r1, r0
 8005d3c:	3104      	adds	r1, #4
              pep->status = 0x0000U;
 8005d3e:	2300      	movs	r3, #0
 8005d40:	600b      	str	r3, [r1, #0]
              (void)USBD_CtlSendData(pdev, (uint8_t *)&pep->status, 2U);
 8005d42:	2202      	movs	r2, #2
 8005d44:	4630      	mov	r0, r6
 8005d46:	f000 f91b 	bl	8005f80 <USBD_CtlSendData>
  USBD_StatusTypeDef ret = USBD_OK;
 8005d4a:	4644      	mov	r4, r8
              break;
 8005d4c:	e750      	b.n	8005bf0 <USBD_StdEPReq+0x22>
                USBD_CtlError(pdev, req);
 8005d4e:	4629      	mov	r1, r5
 8005d50:	f7ff fcef 	bl	8005732 <USBD_CtlError>
  USBD_StatusTypeDef ret = USBD_OK;
 8005d54:	4644      	mov	r4, r8
                break;
 8005d56:	e74b      	b.n	8005bf0 <USBD_StdEPReq+0x22>
              pep = ((ep_addr & 0x80U) == 0x80U) ? &pdev->ep_in[ep_addr & 0x7FU] : \
 8005d58:	f007 077f 	and.w	r7, r7, #127	@ 0x7f
 8005d5c:	eb07 0787 	add.w	r7, r7, r7, lsl #2
 8005d60:	00b9      	lsls	r1, r7, #2
 8005d62:	3110      	adds	r1, #16
 8005d64:	4401      	add	r1, r0
 8005d66:	3104      	adds	r1, #4
 8005d68:	e7e9      	b.n	8005d3e <USBD_StdEPReq+0x170>
              if ((ep_addr & 0x80U) == 0x80U)
 8005d6a:	b25b      	sxtb	r3, r3
 8005d6c:	2b00      	cmp	r3, #0
 8005d6e:	db20      	blt.n	8005db2 <USBD_StdEPReq+0x1e4>
                if (pdev->ep_out[ep_addr & 0xFU].is_used == 0U)
 8005d70:	f007 020f 	and.w	r2, r7, #15
 8005d74:	eb02 0282 	add.w	r2, r2, r2, lsl #2
 8005d78:	eb00 0282 	add.w	r2, r0, r2, lsl #2
 8005d7c:	f8b2 2164 	ldrh.w	r2, [r2, #356]	@ 0x164
 8005d80:	b32a      	cbz	r2, 8005dce <USBD_StdEPReq+0x200>
              pep = ((ep_addr & 0x80U) == 0x80U) ? &pdev->ep_in[ep_addr & 0x7FU] : \
 8005d82:	2b00      	cmp	r3, #0
 8005d84:	db28      	blt.n	8005dd8 <USBD_StdEPReq+0x20a>
                    &pdev->ep_out[ep_addr & 0x7FU];
 8005d86:	f007 037f 	and.w	r3, r7, #127	@ 0x7f
              pep = ((ep_addr & 0x80U) == 0x80U) ? &pdev->ep_in[ep_addr & 0x7FU] : \
 8005d8a:	eb03 0383 	add.w	r3, r3, r3, lsl #2
 8005d8e:	009c      	lsls	r4, r3, #2
 8005d90:	f504 74a8 	add.w	r4, r4, #336	@ 0x150
 8005d94:	4434      	add	r4, r6
 8005d96:	3404      	adds	r4, #4
              if ((ep_addr == 0x00U) || (ep_addr == 0x80U))
 8005d98:	2f80      	cmp	r7, #128	@ 0x80
 8005d9a:	bf18      	it	ne
 8005d9c:	2f00      	cmpne	r7, #0
 8005d9e:	d124      	bne.n	8005dea <USBD_StdEPReq+0x21c>
                pep->status = 0x0000U;
 8005da0:	2300      	movs	r3, #0
 8005da2:	6023      	str	r3, [r4, #0]
              (void)USBD_CtlSendData(pdev, (uint8_t *)&pep->status, 2U);
 8005da4:	2202      	movs	r2, #2
 8005da6:	4621      	mov	r1, r4
 8005da8:	4630      	mov	r0, r6
 8005daa:	f000 f8e9 	bl	8005f80 <USBD_CtlSendData>
  USBD_StatusTypeDef ret = USBD_OK;
 8005dae:	4644      	mov	r4, r8
              break;
 8005db0:	e71e      	b.n	8005bf0 <USBD_StdEPReq+0x22>
                if (pdev->ep_in[ep_addr & 0xFU].is_used == 0U)
 8005db2:	f007 020f 	and.w	r2, r7, #15
 8005db6:	eb02 0282 	add.w	r2, r2, r2, lsl #2
 8005dba:	eb00 0282 	add.w	r2, r0, r2, lsl #2
 8005dbe:	8c92      	ldrh	r2, [r2, #36]	@ 0x24
 8005dc0:	2a00      	cmp	r2, #0
 8005dc2:	d1de      	bne.n	8005d82 <USBD_StdEPReq+0x1b4>
                  USBD_CtlError(pdev, req);
 8005dc4:	4629      	mov	r1, r5
 8005dc6:	f7ff fcb4 	bl	8005732 <USBD_CtlError>
  USBD_StatusTypeDef ret = USBD_OK;
 8005dca:	4644      	mov	r4, r8
                  break;
 8005dcc:	e710      	b.n	8005bf0 <USBD_StdEPReq+0x22>
                  USBD_CtlError(pdev, req);
 8005dce:	4629      	mov	r1, r5
 8005dd0:	f7ff fcaf 	bl	8005732 <USBD_CtlError>
  USBD_StatusTypeDef ret = USBD_OK;
 8005dd4:	4644      	mov	r4, r8
                  break;
 8005dd6:	e70b      	b.n	8005bf0 <USBD_StdEPReq+0x22>
              pep = ((ep_addr & 0x80U) == 0x80U) ? &pdev->ep_in[ep_addr & 0x7FU] : \
 8005dd8:	f007 037f 	and.w	r3, r7, #127	@ 0x7f
 8005ddc:	eb03 0383 	add.w	r3, r3, r3, lsl #2
 8005de0:	009c      	lsls	r4, r3, #2
 8005de2:	3410      	adds	r4, #16
 8005de4:	4434      	add	r4, r6
 8005de6:	3404      	adds	r4, #4
 8005de8:	e7d6      	b.n	8005d98 <USBD_StdEPReq+0x1ca>
              else if (USBD_LL_IsStallEP(pdev, ep_addr) != 0U)
 8005dea:	4639      	mov	r1, r7
 8005dec:	4630      	mov	r0, r6
 8005dee:	f7ff fa0b 	bl	8005208 <USBD_LL_IsStallEP>
 8005df2:	b110      	cbz	r0, 8005dfa <USBD_StdEPReq+0x22c>
                pep->status = 0x0001U;
 8005df4:	2301      	movs	r3, #1
 8005df6:	6023      	str	r3, [r4, #0]
 8005df8:	e7d4      	b.n	8005da4 <USBD_StdEPReq+0x1d6>
                pep->status = 0x0000U;
 8005dfa:	2300      	movs	r3, #0
 8005dfc:	6023      	str	r3, [r4, #0]
 8005dfe:	e7d1      	b.n	8005da4 <USBD_StdEPReq+0x1d6>
  USBD_StatusTypeDef ret = USBD_OK;
 8005e00:	2400      	movs	r4, #0
 8005e02:	e6f5      	b.n	8005bf0 <USBD_StdEPReq+0x22>
 8005e04:	4604      	mov	r4, r0
 8005e06:	e6f3      	b.n	8005bf0 <USBD_StdEPReq+0x22>

08005e08 <USBD_GetString>:
  if (desc == NULL)
 8005e08:	b1f0      	cbz	r0, 8005e48 <USBD_GetString+0x40>
{
 8005e0a:	b570      	push	{r4, r5, r6, lr}
 8005e0c:	460d      	mov	r5, r1
 8005e0e:	4616      	mov	r6, r2
 8005e10:	4604      	mov	r4, r0
  *len = MIN(USBD_MAX_STR_DESC_SIZ, ((uint16_t)USBD_GetLen(pdesc) * 2U) + 2U);
 8005e12:	f7ff fc70 	bl	80056f6 <USBD_GetLen>
 8005e16:	3001      	adds	r0, #1
 8005e18:	0043      	lsls	r3, r0, #1
 8005e1a:	2b40      	cmp	r3, #64	@ 0x40
 8005e1c:	d806      	bhi.n	8005e2c <USBD_GetString+0x24>
 8005e1e:	b29b      	uxth	r3, r3
 8005e20:	8033      	strh	r3, [r6, #0]
  unicode[idx] = *(uint8_t *)len;
 8005e22:	702b      	strb	r3, [r5, #0]
  unicode[idx] = USB_DESC_TYPE_STRING;
 8005e24:	2303      	movs	r3, #3
 8005e26:	706b      	strb	r3, [r5, #1]
  idx++;
 8005e28:	2302      	movs	r3, #2
  while (*pdesc != (uint8_t)'\0')
 8005e2a:	e009      	b.n	8005e40 <USBD_GetString+0x38>
  *len = MIN(USBD_MAX_STR_DESC_SIZ, ((uint16_t)USBD_GetLen(pdesc) * 2U) + 2U);
 8005e2c:	2340      	movs	r3, #64	@ 0x40
 8005e2e:	e7f7      	b.n	8005e20 <USBD_GetString+0x18>
    unicode[idx] = *pdesc;
 8005e30:	54ea      	strb	r2, [r5, r3]
    pdesc++;
 8005e32:	3401      	adds	r4, #1
    idx++;
 8005e34:	1c5a      	adds	r2, r3, #1
 8005e36:	b2d2      	uxtb	r2, r2
    unicode[idx] = 0U;
 8005e38:	2100      	movs	r1, #0
 8005e3a:	54a9      	strb	r1, [r5, r2]
    idx++;
 8005e3c:	3302      	adds	r3, #2
 8005e3e:	b2db      	uxtb	r3, r3
  while (*pdesc != (uint8_t)'\0')
 8005e40:	7822      	ldrb	r2, [r4, #0]
 8005e42:	2a00      	cmp	r2, #0
 8005e44:	d1f4      	bne.n	8005e30 <USBD_GetString+0x28>
}
 8005e46:	bd70      	pop	{r4, r5, r6, pc}
 8005e48:	4770      	bx	lr
	...

08005e4c <USBD_FS_DeviceDescriptor>:
  * @retval Pointer to descriptor buffer
  */
uint8_t * USBD_FS_DeviceDescriptor(USBD_SpeedTypeDef speed, uint16_t *length)
{
  UNUSED(speed);
  *length = sizeof(USBD_FS_DeviceDesc);
 8005e4c:	2312      	movs	r3, #18
 8005e4e:	800b      	strh	r3, [r1, #0]
  return USBD_FS_DeviceDesc;
}
 8005e50:	4800      	ldr	r0, [pc, #0]	@ (8005e54 <USBD_FS_DeviceDescriptor+0x8>)
 8005e52:	4770      	bx	lr
 8005e54:	200000cc 	.word	0x200000cc

08005e58 <USBD_FS_LangIDStrDescriptor>:
  * @retval Pointer to descriptor buffer
  */
uint8_t * USBD_FS_LangIDStrDescriptor(USBD_SpeedTypeDef speed, uint16_t *length)
{
  UNUSED(speed);
  *length = sizeof(USBD_LangIDDesc);
 8005e58:	2304      	movs	r3, #4
 8005e5a:	800b      	strh	r3, [r1, #0]
  return USBD_LangIDDesc;
}
 8005e5c:	4800      	ldr	r0, [pc, #0]	@ (8005e60 <USBD_FS_LangIDStrDescriptor+0x8>)
 8005e5e:	4770      	bx	lr
 8005e60:	200000c8 	.word	0x200000c8

08005e64 <IntToUnicode>:
  */
static void IntToUnicode(uint32_t value, uint8_t * pbuf, uint8_t len)
{
  uint8_t idx = 0;

  for (idx = 0; idx < len; idx++)
 8005e64:	2300      	movs	r3, #0
 8005e66:	4293      	cmp	r3, r2
 8005e68:	d21e      	bcs.n	8005ea8 <IntToUnicode+0x44>
{
 8005e6a:	b500      	push	{lr}
 8005e6c:	e010      	b.n	8005e90 <IntToUnicode+0x2c>
    {
      pbuf[2 * idx] = (value >> 28) + '0';
    }
    else
    {
      pbuf[2 * idx] = (value >> 28) + 'A' - 10;
 8005e6e:	f10c 0c37 	add.w	ip, ip, #55	@ 0x37
 8005e72:	f801 c013 	strb.w	ip, [r1, r3, lsl #1]
    }

    value = value << 4;
 8005e76:	0100      	lsls	r0, r0, #4

    pbuf[2 * idx + 1] = 0;
 8005e78:	ea4f 0c43 	mov.w	ip, r3, lsl #1
 8005e7c:	f10c 0c01 	add.w	ip, ip, #1
 8005e80:	f04f 0e00 	mov.w	lr, #0
 8005e84:	f801 e00c 	strb.w	lr, [r1, ip]
  for (idx = 0; idx < len; idx++)
 8005e88:	3301      	adds	r3, #1
 8005e8a:	b2db      	uxtb	r3, r3
 8005e8c:	4293      	cmp	r3, r2
 8005e8e:	d209      	bcs.n	8005ea4 <IntToUnicode+0x40>
    if (((value >> 28)) < 0xA)
 8005e90:	ea4f 7c10 	mov.w	ip, r0, lsr #28
 8005e94:	f1b0 4f20 	cmp.w	r0, #2684354560	@ 0xa0000000
 8005e98:	d2e9      	bcs.n	8005e6e <IntToUnicode+0xa>
      pbuf[2 * idx] = (value >> 28) + '0';
 8005e9a:	f10c 0c30 	add.w	ip, ip, #48	@ 0x30
 8005e9e:	f801 c013 	strb.w	ip, [r1, r3, lsl #1]
 8005ea2:	e7e8      	b.n	8005e76 <IntToUnicode+0x12>
  }
}
 8005ea4:	f85d fb04 	ldr.w	pc, [sp], #4
 8005ea8:	4770      	bx	lr
	...

08005eac <Get_SerialNum>:
{
 8005eac:	b538      	push	{r3, r4, r5, lr}
  deviceserial0 = *(uint32_t *) DEVICE_ID1;
 8005eae:	4b0b      	ldr	r3, [pc, #44]	@ (8005edc <Get_SerialNum+0x30>)
 8005eb0:	f8d3 0800 	ldr.w	r0, [r3, #2048]	@ 0x800
  deviceserial1 = *(uint32_t *) DEVICE_ID2;
 8005eb4:	f8d3 4804 	ldr.w	r4, [r3, #2052]	@ 0x804
  deviceserial2 = *(uint32_t *) DEVICE_ID3;
 8005eb8:	f8d3 3808 	ldr.w	r3, [r3, #2056]	@ 0x808
  if (deviceserial0 != 0)
 8005ebc:	18c0      	adds	r0, r0, r3
 8005ebe:	d100      	bne.n	8005ec2 <Get_SerialNum+0x16>
}
 8005ec0:	bd38      	pop	{r3, r4, r5, pc}
    IntToUnicode(deviceserial0, &USBD_StringSerial[2], 8);
 8005ec2:	4d07      	ldr	r5, [pc, #28]	@ (8005ee0 <Get_SerialNum+0x34>)
 8005ec4:	2208      	movs	r2, #8
 8005ec6:	4629      	mov	r1, r5
 8005ec8:	f7ff ffcc 	bl	8005e64 <IntToUnicode>
    IntToUnicode(deviceserial1, &USBD_StringSerial[18], 4);
 8005ecc:	2204      	movs	r2, #4
 8005ece:	f105 0110 	add.w	r1, r5, #16
 8005ed2:	4620      	mov	r0, r4
 8005ed4:	f7ff ffc6 	bl	8005e64 <IntToUnicode>
}
 8005ed8:	e7f2      	b.n	8005ec0 <Get_SerialNum+0x14>
 8005eda:	bf00      	nop
 8005edc:	1ff1e000 	.word	0x1ff1e000
 8005ee0:	200000ae 	.word	0x200000ae

08005ee4 <USBD_FS_SerialStrDescriptor>:
{
 8005ee4:	b508      	push	{r3, lr}
  *length = USB_SIZ_STRING_SERIAL;
 8005ee6:	231a      	movs	r3, #26
 8005ee8:	800b      	strh	r3, [r1, #0]
  Get_SerialNum();
 8005eea:	f7ff ffdf 	bl	8005eac <Get_SerialNum>
}
 8005eee:	4801      	ldr	r0, [pc, #4]	@ (8005ef4 <USBD_FS_SerialStrDescriptor+0x10>)
 8005ef0:	bd08      	pop	{r3, pc}
 8005ef2:	bf00      	nop
 8005ef4:	200000ac 	.word	0x200000ac

08005ef8 <USBD_FS_ProductStrDescriptor>:
{
 8005ef8:	b508      	push	{r3, lr}
 8005efa:	460a      	mov	r2, r1
  if(speed == 0)
 8005efc:	b928      	cbnz	r0, 8005f0a <USBD_FS_ProductStrDescriptor+0x12>
    USBD_GetString((uint8_t *)USBD_PRODUCT_STRING_FS, USBD_StrDesc, length);
 8005efe:	4905      	ldr	r1, [pc, #20]	@ (8005f14 <USBD_FS_ProductStrDescriptor+0x1c>)
 8005f00:	4805      	ldr	r0, [pc, #20]	@ (8005f18 <USBD_FS_ProductStrDescriptor+0x20>)
 8005f02:	f7ff ff81 	bl	8005e08 <USBD_GetString>
}
 8005f06:	4803      	ldr	r0, [pc, #12]	@ (8005f14 <USBD_FS_ProductStrDescriptor+0x1c>)
 8005f08:	bd08      	pop	{r3, pc}
    USBD_GetString((uint8_t *)USBD_PRODUCT_STRING_FS, USBD_StrDesc, length);
 8005f0a:	4902      	ldr	r1, [pc, #8]	@ (8005f14 <USBD_FS_ProductStrDescriptor+0x1c>)
 8005f0c:	4802      	ldr	r0, [pc, #8]	@ (8005f18 <USBD_FS_ProductStrDescriptor+0x20>)
 8005f0e:	f7ff ff7b 	bl	8005e08 <USBD_GetString>
 8005f12:	e7f8      	b.n	8005f06 <USBD_FS_ProductStrDescriptor+0xe>
 8005f14:	20000df0 	.word	0x20000df0
 8005f18:	08006144 	.word	0x08006144

08005f1c <USBD_FS_ManufacturerStrDescriptor>:
{
 8005f1c:	b510      	push	{r4, lr}
 8005f1e:	460a      	mov	r2, r1
  USBD_GetString((uint8_t *)USBD_MANUFACTURER_STRING, USBD_StrDesc, length);
 8005f20:	4c03      	ldr	r4, [pc, #12]	@ (8005f30 <USBD_FS_ManufacturerStrDescriptor+0x14>)
 8005f22:	4621      	mov	r1, r4
 8005f24:	4803      	ldr	r0, [pc, #12]	@ (8005f34 <USBD_FS_ManufacturerStrDescriptor+0x18>)
 8005f26:	f7ff ff6f 	bl	8005e08 <USBD_GetString>
}
 8005f2a:	4620      	mov	r0, r4
 8005f2c:	bd10      	pop	{r4, pc}
 8005f2e:	bf00      	nop
 8005f30:	20000df0 	.word	0x20000df0
 8005f34:	0800615c 	.word	0x0800615c

08005f38 <USBD_FS_ConfigStrDescriptor>:
{
 8005f38:	b508      	push	{r3, lr}
 8005f3a:	460a      	mov	r2, r1
  if(speed == USBD_SPEED_HIGH)
 8005f3c:	b928      	cbnz	r0, 8005f4a <USBD_FS_ConfigStrDescriptor+0x12>
    USBD_GetString((uint8_t *)USBD_CONFIGURATION_STRING_FS, USBD_StrDesc, length);
 8005f3e:	4905      	ldr	r1, [pc, #20]	@ (8005f54 <USBD_FS_ConfigStrDescriptor+0x1c>)
 8005f40:	4805      	ldr	r0, [pc, #20]	@ (8005f58 <USBD_FS_ConfigStrDescriptor+0x20>)
 8005f42:	f7ff ff61 	bl	8005e08 <USBD_GetString>
}
 8005f46:	4803      	ldr	r0, [pc, #12]	@ (8005f54 <USBD_FS_ConfigStrDescriptor+0x1c>)
 8005f48:	bd08      	pop	{r3, pc}
    USBD_GetString((uint8_t *)USBD_CONFIGURATION_STRING_FS, USBD_StrDesc, length);
 8005f4a:	4902      	ldr	r1, [pc, #8]	@ (8005f54 <USBD_FS_ConfigStrDescriptor+0x1c>)
 8005f4c:	4802      	ldr	r0, [pc, #8]	@ (8005f58 <USBD_FS_ConfigStrDescriptor+0x20>)
 8005f4e:	f7ff ff5b 	bl	8005e08 <USBD_GetString>
 8005f52:	e7f8      	b.n	8005f46 <USBD_FS_ConfigStrDescriptor+0xe>
 8005f54:	20000df0 	.word	0x20000df0
 8005f58:	08006170 	.word	0x08006170

08005f5c <USBD_FS_InterfaceStrDescriptor>:
{
 8005f5c:	b508      	push	{r3, lr}
 8005f5e:	460a      	mov	r2, r1
  if(speed == 0)
 8005f60:	b928      	cbnz	r0, 8005f6e <USBD_FS_InterfaceStrDescriptor+0x12>
    USBD_GetString((uint8_t *)USBD_INTERFACE_STRING_FS, USBD_StrDesc, length);
 8005f62:	4905      	ldr	r1, [pc, #20]	@ (8005f78 <USBD_FS_InterfaceStrDescriptor+0x1c>)
 8005f64:	4805      	ldr	r0, [pc, #20]	@ (8005f7c <USBD_FS_InterfaceStrDescriptor+0x20>)
 8005f66:	f7ff ff4f 	bl	8005e08 <USBD_GetString>
}
 8005f6a:	4803      	ldr	r0, [pc, #12]	@ (8005f78 <USBD_FS_InterfaceStrDescriptor+0x1c>)
 8005f6c:	bd08      	pop	{r3, pc}
    USBD_GetString((uint8_t *)USBD_INTERFACE_STRING_FS, USBD_StrDesc, length);
 8005f6e:	4902      	ldr	r1, [pc, #8]	@ (8005f78 <USBD_FS_InterfaceStrDescriptor+0x1c>)
 8005f70:	4802      	ldr	r0, [pc, #8]	@ (8005f7c <USBD_FS_InterfaceStrDescriptor+0x20>)
 8005f72:	f7ff ff49 	bl	8005e08 <USBD_GetString>
 8005f76:	e7f8      	b.n	8005f6a <USBD_FS_InterfaceStrDescriptor+0xe>
 8005f78:	20000df0 	.word	0x20000df0
 8005f7c:	0800617c 	.word	0x0800617c

08005f80 <USBD_CtlSendData>:
  * @param  len: length of data to be sent
  * @retval status
  */
USBD_StatusTypeDef USBD_CtlSendData(USBD_HandleTypeDef *pdev,
                                    uint8_t *pbuf, uint32_t len)
{
 8005f80:	b508      	push	{r3, lr}
 8005f82:	4613      	mov	r3, r2
  /* Set EP0 State */
  pdev->ep0_state = USBD_EP0_DATA_IN;
 8005f84:	2202      	movs	r2, #2
 8005f86:	f8c0 2294 	str.w	r2, [r0, #660]	@ 0x294
  pdev->ep_in[0].total_length = len;
 8005f8a:	6183      	str	r3, [r0, #24]

#ifdef USBD_AVOID_PACKET_SPLIT_MPS
  pdev->ep_in[0].rem_length = 0U;
#else
  pdev->ep_in[0].rem_length = len;
 8005f8c:	61c3      	str	r3, [r0, #28]
#endif /* USBD_AVOID_PACKET_SPLIT_MPS */

  /* Start the transfer */
  (void)USBD_LL_Transmit(pdev, 0x00U, pbuf, len);
 8005f8e:	460a      	mov	r2, r1
 8005f90:	2100      	movs	r1, #0
 8005f92:	f7ff f997 	bl	80052c4 <USBD_LL_Transmit>

  return USBD_OK;
}
 8005f96:	2000      	movs	r0, #0
 8005f98:	bd08      	pop	{r3, pc}

08005f9a <USBD_CtlContinueSendData>:
  * @param  len: length of data to be sent
  * @retval status
  */
USBD_StatusTypeDef USBD_CtlContinueSendData(USBD_HandleTypeDef *pdev,
                                            uint8_t *pbuf, uint32_t len)
{
 8005f9a:	b508      	push	{r3, lr}
 8005f9c:	4613      	mov	r3, r2
  /* Start the next transfer */
  (void)USBD_LL_Transmit(pdev, 0x00U, pbuf, len);
 8005f9e:	460a      	mov	r2, r1
 8005fa0:	2100      	movs	r1, #0
 8005fa2:	f7ff f98f 	bl	80052c4 <USBD_LL_Transmit>

  return USBD_OK;
}
 8005fa6:	2000      	movs	r0, #0
 8005fa8:	bd08      	pop	{r3, pc}

08005faa <USBD_CtlPrepareRx>:
  * @param  len: length of data to be received
  * @retval status
  */
USBD_StatusTypeDef USBD_CtlPrepareRx(USBD_HandleTypeDef *pdev,
                                     uint8_t *pbuf, uint32_t len)
{
 8005faa:	b508      	push	{r3, lr}
 8005fac:	4613      	mov	r3, r2
  /* Set EP0 State */
  pdev->ep0_state = USBD_EP0_DATA_OUT;
 8005fae:	2203      	movs	r2, #3
 8005fb0:	f8c0 2294 	str.w	r2, [r0, #660]	@ 0x294
  pdev->ep_out[0].total_length = len;
 8005fb4:	f8c0 3158 	str.w	r3, [r0, #344]	@ 0x158

#ifdef USBD_AVOID_PACKET_SPLIT_MPS
  pdev->ep_out[0].rem_length = 0U;
#else
  pdev->ep_out[0].rem_length = len;
 8005fb8:	f8c0 315c 	str.w	r3, [r0, #348]	@ 0x15c
#endif /* USBD_AVOID_PACKET_SPLIT_MPS */

  /* Start the transfer */
  (void)USBD_LL_PrepareReceive(pdev, 0U, pbuf, len);
 8005fbc:	460a      	mov	r2, r1
 8005fbe:	2100      	movs	r1, #0
 8005fc0:	f7ff f988 	bl	80052d4 <USBD_LL_PrepareReceive>

  return USBD_OK;
}
 8005fc4:	2000      	movs	r0, #0
 8005fc6:	bd08      	pop	{r3, pc}

08005fc8 <USBD_CtlContinueRx>:
  * @param  len: length of data to be received
  * @retval status
  */
USBD_StatusTypeDef USBD_CtlContinueRx(USBD_HandleTypeDef *pdev,
                                      uint8_t *pbuf, uint32_t len)
{
 8005fc8:	b508      	push	{r3, lr}
 8005fca:	4613      	mov	r3, r2
  (void)USBD_LL_PrepareReceive(pdev, 0U, pbuf, len);
 8005fcc:	460a      	mov	r2, r1
 8005fce:	2100      	movs	r1, #0
 8005fd0:	f7ff f980 	bl	80052d4 <USBD_LL_PrepareReceive>

  return USBD_OK;
}
 8005fd4:	2000      	movs	r0, #0
 8005fd6:	bd08      	pop	{r3, pc}

08005fd8 <USBD_CtlSendStatus>:
  *         send zero lzngth packet on the ctl pipe
  * @param  pdev: device instance
  * @retval status
  */
USBD_StatusTypeDef USBD_CtlSendStatus(USBD_HandleTypeDef *pdev)
{
 8005fd8:	b508      	push	{r3, lr}
  /* Set EP0 State */
  pdev->ep0_state = USBD_EP0_STATUS_IN;
 8005fda:	2204      	movs	r2, #4
 8005fdc:	f8c0 2294 	str.w	r2, [r0, #660]	@ 0x294

  /* Start the transfer */
  (void)USBD_LL_Transmit(pdev, 0x00U, NULL, 0U);
 8005fe0:	2300      	movs	r3, #0
 8005fe2:	461a      	mov	r2, r3
 8005fe4:	4619      	mov	r1, r3
 8005fe6:	f7ff f96d 	bl	80052c4 <USBD_LL_Transmit>

  return USBD_OK;
}
 8005fea:	2000      	movs	r0, #0
 8005fec:	bd08      	pop	{r3, pc}

08005fee <USBD_CtlReceiveStatus>:
  *         receive zero lzngth packet on the ctl pipe
  * @param  pdev: device instance
  * @retval status
  */
USBD_StatusTypeDef USBD_CtlReceiveStatus(USBD_HandleTypeDef *pdev)
{
 8005fee:	b508      	push	{r3, lr}
  /* Set EP0 State */
  pdev->ep0_state = USBD_EP0_STATUS_OUT;
 8005ff0:	2205      	movs	r2, #5
 8005ff2:	f8c0 2294 	str.w	r2, [r0, #660]	@ 0x294

  /* Start the transfer */
  (void)USBD_LL_PrepareReceive(pdev, 0U, NULL, 0U);
 8005ff6:	2300      	movs	r3, #0
 8005ff8:	461a      	mov	r2, r3
 8005ffa:	4619      	mov	r1, r3
 8005ffc:	f7ff f96a 	bl	80052d4 <USBD_LL_PrepareReceive>

  return USBD_OK;
}
 8006000:	2000      	movs	r0, #0
 8006002:	bd08      	pop	{r3, pc}

08006004 <Reset_Handler>:

    .section  .text.Reset_Handler
  .weak  Reset_Handler
  .type  Reset_Handler, %function
Reset_Handler:
  ldr   sp, =_estack      /* set stack pointer */
 8006004:	f8df d038 	ldr.w	sp, [pc, #56]	@ 8006040 <LoopFillZerobss+0xe>

/* Call the ExitRun0Mode function to configure the power supply */
  bl  ExitRun0Mode
 8006008:	f7fe fd0a 	bl	8004a20 <ExitRun0Mode>
/* Call the clock system initialization function.*/
  bl  SystemInit
 800600c:	f7fe fc90 	bl	8004930 <SystemInit>

/* Copy the data segment initializers from flash to SRAM */
  ldr r0, =_sdata
 8006010:	480c      	ldr	r0, [pc, #48]	@ (8006044 <LoopFillZerobss+0x12>)
  ldr r1, =_edata
 8006012:	490d      	ldr	r1, [pc, #52]	@ (8006048 <LoopFillZerobss+0x16>)
  ldr r2, =_sidata
 8006014:	4a0d      	ldr	r2, [pc, #52]	@ (800604c <LoopFillZerobss+0x1a>)
  movs r3, #0
 8006016:	2300      	movs	r3, #0
  b LoopCopyDataInit
 8006018:	e002      	b.n	8006020 <LoopCopyDataInit>

0800601a <CopyDataInit>:

CopyDataInit:
  ldr r4, [r2, r3]
 800601a:	58d4      	ldr	r4, [r2, r3]
  str r4, [r0, r3]
 800601c:	50c4      	str	r4, [r0, r3]
  adds r3, r3, #4
 800601e:	3304      	adds	r3, #4

08006020 <LoopCopyDataInit>:

LoopCopyDataInit:
  adds r4, r0, r3
 8006020:	18c4      	adds	r4, r0, r3
  cmp r4, r1
 8006022:	428c      	cmp	r4, r1
  bcc CopyDataInit
 8006024:	d3f9      	bcc.n	800601a <CopyDataInit>
/* Zero fill the bss segment. */
  ldr r2, =_sbss
 8006026:	4a0a      	ldr	r2, [pc, #40]	@ (8006050 <LoopFillZerobss+0x1e>)
  ldr r4, =_ebss
 8006028:	4c0a      	ldr	r4, [pc, #40]	@ (8006054 <LoopFillZerobss+0x22>)
  movs r3, #0
 800602a:	2300      	movs	r3, #0
  b LoopFillZerobss
 800602c:	e001      	b.n	8006032 <LoopFillZerobss>

0800602e <FillZerobss>:

FillZerobss:
  str  r3, [r2]
 800602e:	6013      	str	r3, [r2, #0]
  adds r2, r2, #4
 8006030:	3204      	adds	r2, #4

08006032 <LoopFillZerobss>:

LoopFillZerobss:
  cmp r2, r4
 8006032:	42a2      	cmp	r2, r4
  bcc FillZerobss
 8006034:	d3fb      	bcc.n	800602e <FillZerobss>

/* Call static constructors */
    bl __libc_init_array
 8006036:	f000 f819 	bl	800606c <__libc_init_array>
/* Call the application's entry point.*/
  bl  main
 800603a:	f7fa fa6f 	bl	800051c <main>
  bx  lr
 800603e:	4770      	bx	lr
  ldr   sp, =_estack      /* set stack pointer */
 8006040:	20020000 	.word	0x20020000
  ldr r0, =_sdata
 8006044:	20000000 	.word	0x20000000
  ldr r1, =_edata
 8006048:	20000100 	.word	0x20000100
  ldr r2, =_sidata
 800604c:	080061a4 	.word	0x080061a4
  ldr r2, =_sbss
 8006050:	20000100 	.word	0x20000100
  ldr r4, =_ebss
 8006054:	20000e30 	.word	0x20000e30

08006058 <ADC3_IRQHandler>:
 * @retval None
*/
    .section  .text.Default_Handler,"ax",%progbits
Default_Handler:
Infinite_Loop:
  b  Infinite_Loop
 8006058:	e7fe      	b.n	8006058 <ADC3_IRQHandler>

0800605a <memset>:
 800605a:	4402      	add	r2, r0
 800605c:	4603      	mov	r3, r0
 800605e:	4293      	cmp	r3, r2
 8006060:	d100      	bne.n	8006064 <memset+0xa>
 8006062:	4770      	bx	lr
 8006064:	f803 1b01 	strb.w	r1, [r3], #1
 8006068:	e7f9      	b.n	800605e <memset+0x4>
	...

0800606c <__libc_init_array>:
 800606c:	b570      	push	{r4, r5, r6, lr}
 800606e:	4b0d      	ldr	r3, [pc, #52]	@ (80060a4 <__libc_init_array+0x38>)
 8006070:	4d0d      	ldr	r5, [pc, #52]	@ (80060a8 <__libc_init_array+0x3c>)
 8006072:	1b5b      	subs	r3, r3, r5
 8006074:	109c      	asrs	r4, r3, #2
 8006076:	2600      	movs	r6, #0
 8006078:	42a6      	cmp	r6, r4
 800607a:	d109      	bne.n	8006090 <__libc_init_array+0x24>
 800607c:	f000 f828 	bl	80060d0 <_init>
 8006080:	4d0a      	ldr	r5, [pc, #40]	@ (80060ac <__libc_init_array+0x40>)
 8006082:	4b0b      	ldr	r3, [pc, #44]	@ (80060b0 <__libc_init_array+0x44>)
 8006084:	1b5b      	subs	r3, r3, r5
 8006086:	109c      	asrs	r4, r3, #2
 8006088:	2600      	movs	r6, #0
 800608a:	42a6      	cmp	r6, r4
 800608c:	d105      	bne.n	800609a <__libc_init_array+0x2e>
 800608e:	bd70      	pop	{r4, r5, r6, pc}
 8006090:	f855 3b04 	ldr.w	r3, [r5], #4
 8006094:	4798      	blx	r3
 8006096:	3601      	adds	r6, #1
 8006098:	e7ee      	b.n	8006078 <__libc_init_array+0xc>
 800609a:	f855 3b04 	ldr.w	r3, [r5], #4
 800609e:	4798      	blx	r3
 80060a0:	3601      	adds	r6, #1
 80060a2:	e7f2      	b.n	800608a <__libc_init_array+0x1e>
 80060a4:	0800619c 	.word	0x0800619c
 80060a8:	0800619c 	.word	0x0800619c
 80060ac:	0800619c 	.word	0x0800619c
 80060b0:	080061a0 	.word	0x080061a0

080060b4 <memcpy>:
 80060b4:	440a      	add	r2, r1
 80060b6:	4291      	cmp	r1, r2
 80060b8:	f100 33ff 	add.w	r3, r0, #4294967295
 80060bc:	d100      	bne.n	80060c0 <memcpy+0xc>
 80060be:	4770      	bx	lr
 80060c0:	b510      	push	{r4, lr}
 80060c2:	f811 4b01 	ldrb.w	r4, [r1], #1
 80060c6:	f803 4f01 	strb.w	r4, [r3, #1]!
 80060ca:	4291      	cmp	r1, r2
 80060cc:	d1f9      	bne.n	80060c2 <memcpy+0xe>
 80060ce:	bd10      	pop	{r4, pc}

080060d0 <_init>:
 80060d0:	b5f8      	push	{r3, r4, r5, r6, r7, lr}
 80060d2:	bf00      	nop
 80060d4:	bcf8      	pop	{r3, r4, r5, r6, r7}
 80060d6:	bc08      	pop	{r3}
 80060d8:	469e      	mov	lr, r3
 80060da:	4770      	bx	lr

080060dc <_fini>:
 80060dc:	b5f8      	push	{r3, r4, r5, r6, r7, lr}
 80060de:	bf00      	nop
 80060e0:	bcf8      	pop	{r3, r4, r5, r6, r7}
 80060e2:	bc08      	pop	{r3}
 80060e4:	469e      	mov	lr, r3
 80060e6:	4770      	bx	lr
