ARM GAS  C:\Users\aticl\AppData\Local\Temp\ccIb54je.s 			page 1


   1              		.cpu cortex-m7
   2              		.arch armv7e-m
   3              		.fpu fpv5-d16
   4              		.eabi_attribute 28, 1
   5              		.eabi_attribute 20, 1
   6              		.eabi_attribute 21, 1
   7              		.eabi_attribute 23, 3
   8              		.eabi_attribute 24, 1
   9              		.eabi_attribute 25, 1
  10              		.eabi_attribute 26, 1
  11              		.eabi_attribute 30, 1
  12              		.eabi_attribute 34, 1
  13              		.eabi_attribute 18, 4
  14              		.file	"stm32h7xx_hal_msp.c"
  15              		.text
  16              	.Ltext0:
  17              		.cfi_sections	.debug_frame
  18              		.file 1 "Core/Src/stm32h7xx_hal_msp.c"
  19              		.section	.text.HAL_MspInit,"ax",%progbits
  20              		.align	1
  21              		.global	HAL_MspInit
  22              		.syntax unified
  23              		.thumb
  24              		.thumb_func
  26              	HAL_MspInit:
  27              	.LFB144:
   1:Core/Src/stm32h7xx_hal_msp.c **** /* USER CODE BEGIN Header */
   2:Core/Src/stm32h7xx_hal_msp.c **** /**
   3:Core/Src/stm32h7xx_hal_msp.c ****   ******************************************************************************
   4:Core/Src/stm32h7xx_hal_msp.c ****   * @file         stm32h7xx_hal_msp.c
   5:Core/Src/stm32h7xx_hal_msp.c ****   * @brief        This file provides code for the MSP Initialization
   6:Core/Src/stm32h7xx_hal_msp.c ****   *               and de-Initialization codes.
   7:Core/Src/stm32h7xx_hal_msp.c ****   ******************************************************************************
   8:Core/Src/stm32h7xx_hal_msp.c ****   * @attention
   9:Core/Src/stm32h7xx_hal_msp.c ****   *
  10:Core/Src/stm32h7xx_hal_msp.c ****   * Copyright (c) 2025 STMicroelectronics.
  11:Core/Src/stm32h7xx_hal_msp.c ****   * All rights reserved.
  12:Core/Src/stm32h7xx_hal_msp.c ****   *
  13:Core/Src/stm32h7xx_hal_msp.c ****   * This software is licensed under terms that can be found in the LICENSE file
  14:Core/Src/stm32h7xx_hal_msp.c ****   * in the root directory of this software component.
  15:Core/Src/stm32h7xx_hal_msp.c ****   * If no LICENSE file comes with this software, it is provided AS-IS.
  16:Core/Src/stm32h7xx_hal_msp.c ****   *
  17:Core/Src/stm32h7xx_hal_msp.c ****   ******************************************************************************
  18:Core/Src/stm32h7xx_hal_msp.c ****   */
  19:Core/Src/stm32h7xx_hal_msp.c **** /* USER CODE END Header */
  20:Core/Src/stm32h7xx_hal_msp.c **** 
  21:Core/Src/stm32h7xx_hal_msp.c **** /* Includes ------------------------------------------------------------------*/
  22:Core/Src/stm32h7xx_hal_msp.c **** #include "main.h"
  23:Core/Src/stm32h7xx_hal_msp.c **** /* USER CODE BEGIN Includes */
  24:Core/Src/stm32h7xx_hal_msp.c **** 
  25:Core/Src/stm32h7xx_hal_msp.c **** /* USER CODE END Includes */
  26:Core/Src/stm32h7xx_hal_msp.c **** 
  27:Core/Src/stm32h7xx_hal_msp.c **** /* Private typedef -----------------------------------------------------------*/
  28:Core/Src/stm32h7xx_hal_msp.c **** /* USER CODE BEGIN TD */
  29:Core/Src/stm32h7xx_hal_msp.c **** 
  30:Core/Src/stm32h7xx_hal_msp.c **** /* USER CODE END TD */
  31:Core/Src/stm32h7xx_hal_msp.c **** 
ARM GAS  C:\Users\aticl\AppData\Local\Temp\ccIb54je.s 			page 2


  32:Core/Src/stm32h7xx_hal_msp.c **** /* Private define ------------------------------------------------------------*/
  33:Core/Src/stm32h7xx_hal_msp.c **** /* USER CODE BEGIN Define */
  34:Core/Src/stm32h7xx_hal_msp.c **** 
  35:Core/Src/stm32h7xx_hal_msp.c **** /* USER CODE END Define */
  36:Core/Src/stm32h7xx_hal_msp.c **** 
  37:Core/Src/stm32h7xx_hal_msp.c **** /* Private macro -------------------------------------------------------------*/
  38:Core/Src/stm32h7xx_hal_msp.c **** /* USER CODE BEGIN Macro */
  39:Core/Src/stm32h7xx_hal_msp.c **** 
  40:Core/Src/stm32h7xx_hal_msp.c **** /* USER CODE END Macro */
  41:Core/Src/stm32h7xx_hal_msp.c **** 
  42:Core/Src/stm32h7xx_hal_msp.c **** /* Private variables ---------------------------------------------------------*/
  43:Core/Src/stm32h7xx_hal_msp.c **** /* USER CODE BEGIN PV */
  44:Core/Src/stm32h7xx_hal_msp.c **** 
  45:Core/Src/stm32h7xx_hal_msp.c **** /* USER CODE END PV */
  46:Core/Src/stm32h7xx_hal_msp.c **** 
  47:Core/Src/stm32h7xx_hal_msp.c **** /* Private function prototypes -----------------------------------------------*/
  48:Core/Src/stm32h7xx_hal_msp.c **** /* USER CODE BEGIN PFP */
  49:Core/Src/stm32h7xx_hal_msp.c **** 
  50:Core/Src/stm32h7xx_hal_msp.c **** /* USER CODE END PFP */
  51:Core/Src/stm32h7xx_hal_msp.c **** 
  52:Core/Src/stm32h7xx_hal_msp.c **** /* External functions --------------------------------------------------------*/
  53:Core/Src/stm32h7xx_hal_msp.c **** /* USER CODE BEGIN ExternalFunctions */
  54:Core/Src/stm32h7xx_hal_msp.c **** 
  55:Core/Src/stm32h7xx_hal_msp.c **** /* USER CODE END ExternalFunctions */
  56:Core/Src/stm32h7xx_hal_msp.c **** 
  57:Core/Src/stm32h7xx_hal_msp.c **** /* USER CODE BEGIN 0 */
  58:Core/Src/stm32h7xx_hal_msp.c **** 
  59:Core/Src/stm32h7xx_hal_msp.c **** /* USER CODE END 0 */
  60:Core/Src/stm32h7xx_hal_msp.c **** 
  61:Core/Src/stm32h7xx_hal_msp.c **** void HAL_TIM_MspPostInit(TIM_HandleTypeDef *htim);
  62:Core/Src/stm32h7xx_hal_msp.c ****                     /**
  63:Core/Src/stm32h7xx_hal_msp.c ****   * Initializes the Global MSP.
  64:Core/Src/stm32h7xx_hal_msp.c ****   */
  65:Core/Src/stm32h7xx_hal_msp.c **** void HAL_MspInit(void)
  66:Core/Src/stm32h7xx_hal_msp.c **** {
  28              		.loc 1 66 1 view -0
  29              		.cfi_startproc
  30              		@ args = 0, pretend = 0, frame = 8
  31              		@ frame_needed = 0, uses_anonymous_args = 0
  32              		@ link register save eliminated.
  33 0000 82B0     		sub	sp, sp, #8
  34              		.cfi_def_cfa_offset 8
  67:Core/Src/stm32h7xx_hal_msp.c **** 
  68:Core/Src/stm32h7xx_hal_msp.c ****   /* USER CODE BEGIN MspInit 0 */
  69:Core/Src/stm32h7xx_hal_msp.c **** 
  70:Core/Src/stm32h7xx_hal_msp.c ****   /* USER CODE END MspInit 0 */
  71:Core/Src/stm32h7xx_hal_msp.c **** 
  72:Core/Src/stm32h7xx_hal_msp.c ****   __HAL_RCC_SYSCFG_CLK_ENABLE();
  35              		.loc 1 72 3 view .LVU1
  36              	.LBB2:
  37              		.loc 1 72 3 view .LVU2
  38              		.loc 1 72 3 view .LVU3
  39 0002 074B     		ldr	r3, .L3
  40 0004 D3F8F420 		ldr	r2, [r3, #244]
  41 0008 42F00202 		orr	r2, r2, #2
  42 000c C3F8F420 		str	r2, [r3, #244]
  43              		.loc 1 72 3 view .LVU4
ARM GAS  C:\Users\aticl\AppData\Local\Temp\ccIb54je.s 			page 3


  44 0010 D3F8F430 		ldr	r3, [r3, #244]
  45 0014 03F00203 		and	r3, r3, #2
  46 0018 0193     		str	r3, [sp, #4]
  47              		.loc 1 72 3 view .LVU5
  48 001a 019B     		ldr	r3, [sp, #4]
  49              	.LBE2:
  50              		.loc 1 72 3 view .LVU6
  73:Core/Src/stm32h7xx_hal_msp.c **** 
  74:Core/Src/stm32h7xx_hal_msp.c ****   /* System interrupt init*/
  75:Core/Src/stm32h7xx_hal_msp.c **** 
  76:Core/Src/stm32h7xx_hal_msp.c ****   /* USER CODE BEGIN MspInit 1 */
  77:Core/Src/stm32h7xx_hal_msp.c **** 
  78:Core/Src/stm32h7xx_hal_msp.c ****   /* USER CODE END MspInit 1 */
  79:Core/Src/stm32h7xx_hal_msp.c **** }
  51              		.loc 1 79 1 is_stmt 0 view .LVU7
  52 001c 02B0     		add	sp, sp, #8
  53              		.cfi_def_cfa_offset 0
  54              		@ sp needed
  55 001e 7047     		bx	lr
  56              	.L4:
  57              		.align	2
  58              	.L3:
  59 0020 00440258 		.word	1476543488
  60              		.cfi_endproc
  61              	.LFE144:
  63              		.section	.text.HAL_FDCAN_MspInit,"ax",%progbits
  64              		.align	1
  65              		.global	HAL_FDCAN_MspInit
  66              		.syntax unified
  67              		.thumb
  68              		.thumb_func
  70              	HAL_FDCAN_MspInit:
  71              	.LVL0:
  72              	.LFB145:
  80:Core/Src/stm32h7xx_hal_msp.c **** 
  81:Core/Src/stm32h7xx_hal_msp.c **** /**
  82:Core/Src/stm32h7xx_hal_msp.c ****   * @brief FDCAN MSP Initialization
  83:Core/Src/stm32h7xx_hal_msp.c ****   * This function configures the hardware resources used in this example
  84:Core/Src/stm32h7xx_hal_msp.c ****   * @param hfdcan: FDCAN handle pointer
  85:Core/Src/stm32h7xx_hal_msp.c ****   * @retval None
  86:Core/Src/stm32h7xx_hal_msp.c ****   */
  87:Core/Src/stm32h7xx_hal_msp.c **** void HAL_FDCAN_MspInit(FDCAN_HandleTypeDef* hfdcan)
  88:Core/Src/stm32h7xx_hal_msp.c **** {
  73              		.loc 1 88 1 is_stmt 1 view -0
  74              		.cfi_startproc
  75              		@ args = 0, pretend = 0, frame = 224
  76              		@ frame_needed = 0, uses_anonymous_args = 0
  77              		.loc 1 88 1 is_stmt 0 view .LVU9
  78 0000 10B5     		push	{r4, lr}
  79              		.cfi_def_cfa_offset 8
  80              		.cfi_offset 4, -8
  81              		.cfi_offset 14, -4
  82 0002 B8B0     		sub	sp, sp, #224
  83              		.cfi_def_cfa_offset 232
  84 0004 0446     		mov	r4, r0
  89:Core/Src/stm32h7xx_hal_msp.c ****   GPIO_InitTypeDef GPIO_InitStruct = {0};
  85              		.loc 1 89 3 is_stmt 1 view .LVU10
ARM GAS  C:\Users\aticl\AppData\Local\Temp\ccIb54je.s 			page 4


  86              		.loc 1 89 20 is_stmt 0 view .LVU11
  87 0006 0021     		movs	r1, #0
  88 0008 3391     		str	r1, [sp, #204]
  89 000a 3491     		str	r1, [sp, #208]
  90 000c 3591     		str	r1, [sp, #212]
  91 000e 3691     		str	r1, [sp, #216]
  92 0010 3791     		str	r1, [sp, #220]
  90:Core/Src/stm32h7xx_hal_msp.c ****   RCC_PeriphCLKInitTypeDef PeriphClkInitStruct = {0};
  93              		.loc 1 90 3 is_stmt 1 view .LVU12
  94              		.loc 1 90 28 is_stmt 0 view .LVU13
  95 0012 C022     		movs	r2, #192
  96 0014 02A8     		add	r0, sp, #8
  97              	.LVL1:
  98              		.loc 1 90 28 view .LVU14
  99 0016 FFF7FEFF 		bl	memset
 100              	.LVL2:
  91:Core/Src/stm32h7xx_hal_msp.c ****   if(hfdcan->Instance==FDCAN1)
 101              		.loc 1 91 3 is_stmt 1 view .LVU15
 102              		.loc 1 91 12 is_stmt 0 view .LVU16
 103 001a 2268     		ldr	r2, [r4]
 104              		.loc 1 91 5 view .LVU17
 105 001c 274B     		ldr	r3, .L11
 106 001e 9A42     		cmp	r2, r3
 107 0020 01D0     		beq	.L9
 108              	.LVL3:
 109              	.L5:
  92:Core/Src/stm32h7xx_hal_msp.c ****   {
  93:Core/Src/stm32h7xx_hal_msp.c ****     /* USER CODE BEGIN FDCAN1_MspInit 0 */
  94:Core/Src/stm32h7xx_hal_msp.c **** 
  95:Core/Src/stm32h7xx_hal_msp.c ****     /* USER CODE END FDCAN1_MspInit 0 */
  96:Core/Src/stm32h7xx_hal_msp.c **** 
  97:Core/Src/stm32h7xx_hal_msp.c ****   /** Initializes the peripherals clock
  98:Core/Src/stm32h7xx_hal_msp.c ****   */
  99:Core/Src/stm32h7xx_hal_msp.c ****     PeriphClkInitStruct.PeriphClockSelection = RCC_PERIPHCLK_FDCAN;
 100:Core/Src/stm32h7xx_hal_msp.c ****     PeriphClkInitStruct.PLL2.PLL2M = 2;
 101:Core/Src/stm32h7xx_hal_msp.c ****     PeriphClkInitStruct.PLL2.PLL2N = 12;
 102:Core/Src/stm32h7xx_hal_msp.c ****     PeriphClkInitStruct.PLL2.PLL2P = 2;
 103:Core/Src/stm32h7xx_hal_msp.c ****     PeriphClkInitStruct.PLL2.PLL2Q = 3;
 104:Core/Src/stm32h7xx_hal_msp.c ****     PeriphClkInitStruct.PLL2.PLL2R = 2;
 105:Core/Src/stm32h7xx_hal_msp.c ****     PeriphClkInitStruct.PLL2.PLL2RGE = RCC_PLL2VCIRANGE_3;
 106:Core/Src/stm32h7xx_hal_msp.c ****     PeriphClkInitStruct.PLL2.PLL2VCOSEL = RCC_PLL2VCOMEDIUM;
 107:Core/Src/stm32h7xx_hal_msp.c ****     PeriphClkInitStruct.PLL2.PLL2FRACN = 0;
 108:Core/Src/stm32h7xx_hal_msp.c ****     PeriphClkInitStruct.FdcanClockSelection = RCC_FDCANCLKSOURCE_PLL2;
 109:Core/Src/stm32h7xx_hal_msp.c ****     if (HAL_RCCEx_PeriphCLKConfig(&PeriphClkInitStruct) != HAL_OK)
 110:Core/Src/stm32h7xx_hal_msp.c ****     {
 111:Core/Src/stm32h7xx_hal_msp.c ****       Error_Handler();
 112:Core/Src/stm32h7xx_hal_msp.c ****     }
 113:Core/Src/stm32h7xx_hal_msp.c **** 
 114:Core/Src/stm32h7xx_hal_msp.c ****     /* Peripheral clock enable */
 115:Core/Src/stm32h7xx_hal_msp.c ****     __HAL_RCC_FDCAN_CLK_ENABLE();
 116:Core/Src/stm32h7xx_hal_msp.c **** 
 117:Core/Src/stm32h7xx_hal_msp.c ****     __HAL_RCC_GPIOD_CLK_ENABLE();
 118:Core/Src/stm32h7xx_hal_msp.c ****     /**FDCAN1 GPIO Configuration
 119:Core/Src/stm32h7xx_hal_msp.c ****     PD0     ------> FDCAN1_RX
 120:Core/Src/stm32h7xx_hal_msp.c ****     PD1     ------> FDCAN1_TX
 121:Core/Src/stm32h7xx_hal_msp.c ****     */
 122:Core/Src/stm32h7xx_hal_msp.c ****     GPIO_InitStruct.Pin = GPIO_PIN_0|GPIO_PIN_1;
ARM GAS  C:\Users\aticl\AppData\Local\Temp\ccIb54je.s 			page 5


 123:Core/Src/stm32h7xx_hal_msp.c ****     GPIO_InitStruct.Mode = GPIO_MODE_AF_PP;
 124:Core/Src/stm32h7xx_hal_msp.c ****     GPIO_InitStruct.Pull = GPIO_NOPULL;
 125:Core/Src/stm32h7xx_hal_msp.c ****     GPIO_InitStruct.Speed = GPIO_SPEED_FREQ_LOW;
 126:Core/Src/stm32h7xx_hal_msp.c ****     GPIO_InitStruct.Alternate = GPIO_AF9_FDCAN1;
 127:Core/Src/stm32h7xx_hal_msp.c ****     HAL_GPIO_Init(GPIOD, &GPIO_InitStruct);
 128:Core/Src/stm32h7xx_hal_msp.c **** 
 129:Core/Src/stm32h7xx_hal_msp.c ****     /* FDCAN1 interrupt Init */
 130:Core/Src/stm32h7xx_hal_msp.c ****     HAL_NVIC_SetPriority(FDCAN1_IT0_IRQn, 0, 0);
 131:Core/Src/stm32h7xx_hal_msp.c ****     HAL_NVIC_EnableIRQ(FDCAN1_IT0_IRQn);
 132:Core/Src/stm32h7xx_hal_msp.c ****     /* USER CODE BEGIN FDCAN1_MspInit 1 */
 133:Core/Src/stm32h7xx_hal_msp.c **** 
 134:Core/Src/stm32h7xx_hal_msp.c ****     /* USER CODE END FDCAN1_MspInit 1 */
 135:Core/Src/stm32h7xx_hal_msp.c **** 
 136:Core/Src/stm32h7xx_hal_msp.c ****   }
 137:Core/Src/stm32h7xx_hal_msp.c **** 
 138:Core/Src/stm32h7xx_hal_msp.c **** }
 110              		.loc 1 138 1 view .LVU18
 111 0022 38B0     		add	sp, sp, #224
 112              		.cfi_remember_state
 113              		.cfi_def_cfa_offset 8
 114              		@ sp needed
 115 0024 10BD     		pop	{r4, pc}
 116              	.LVL4:
 117              	.L9:
 118              		.cfi_restore_state
  99:Core/Src/stm32h7xx_hal_msp.c ****     PeriphClkInitStruct.PLL2.PLL2M = 2;
 119              		.loc 1 99 5 is_stmt 1 view .LVU19
  99:Core/Src/stm32h7xx_hal_msp.c ****     PeriphClkInitStruct.PLL2.PLL2M = 2;
 120              		.loc 1 99 46 is_stmt 0 view .LVU20
 121 0026 4FF40042 		mov	r2, #32768
 122 002a 0023     		movs	r3, #0
 123 002c CDE90223 		strd	r2, [sp, #8]
 100:Core/Src/stm32h7xx_hal_msp.c ****     PeriphClkInitStruct.PLL2.PLL2N = 12;
 124              		.loc 1 100 5 is_stmt 1 view .LVU21
 100:Core/Src/stm32h7xx_hal_msp.c ****     PeriphClkInitStruct.PLL2.PLL2N = 12;
 125              		.loc 1 100 36 is_stmt 0 view .LVU22
 126 0030 0223     		movs	r3, #2
 127 0032 0493     		str	r3, [sp, #16]
 101:Core/Src/stm32h7xx_hal_msp.c ****     PeriphClkInitStruct.PLL2.PLL2P = 2;
 128              		.loc 1 101 5 is_stmt 1 view .LVU23
 101:Core/Src/stm32h7xx_hal_msp.c ****     PeriphClkInitStruct.PLL2.PLL2P = 2;
 129              		.loc 1 101 36 is_stmt 0 view .LVU24
 130 0034 0C22     		movs	r2, #12
 131 0036 0592     		str	r2, [sp, #20]
 102:Core/Src/stm32h7xx_hal_msp.c ****     PeriphClkInitStruct.PLL2.PLL2Q = 3;
 132              		.loc 1 102 5 is_stmt 1 view .LVU25
 102:Core/Src/stm32h7xx_hal_msp.c ****     PeriphClkInitStruct.PLL2.PLL2Q = 3;
 133              		.loc 1 102 36 is_stmt 0 view .LVU26
 134 0038 0693     		str	r3, [sp, #24]
 103:Core/Src/stm32h7xx_hal_msp.c ****     PeriphClkInitStruct.PLL2.PLL2R = 2;
 135              		.loc 1 103 5 is_stmt 1 view .LVU27
 103:Core/Src/stm32h7xx_hal_msp.c ****     PeriphClkInitStruct.PLL2.PLL2R = 2;
 136              		.loc 1 103 36 is_stmt 0 view .LVU28
 137 003a 0322     		movs	r2, #3
 138 003c 0792     		str	r2, [sp, #28]
 104:Core/Src/stm32h7xx_hal_msp.c ****     PeriphClkInitStruct.PLL2.PLL2RGE = RCC_PLL2VCIRANGE_3;
 139              		.loc 1 104 5 is_stmt 1 view .LVU29
ARM GAS  C:\Users\aticl\AppData\Local\Temp\ccIb54je.s 			page 6


 104:Core/Src/stm32h7xx_hal_msp.c ****     PeriphClkInitStruct.PLL2.PLL2RGE = RCC_PLL2VCIRANGE_3;
 140              		.loc 1 104 36 is_stmt 0 view .LVU30
 141 003e 0893     		str	r3, [sp, #32]
 105:Core/Src/stm32h7xx_hal_msp.c ****     PeriphClkInitStruct.PLL2.PLL2VCOSEL = RCC_PLL2VCOMEDIUM;
 142              		.loc 1 105 5 is_stmt 1 view .LVU31
 105:Core/Src/stm32h7xx_hal_msp.c ****     PeriphClkInitStruct.PLL2.PLL2VCOSEL = RCC_PLL2VCOMEDIUM;
 143              		.loc 1 105 38 is_stmt 0 view .LVU32
 144 0040 C023     		movs	r3, #192
 145 0042 0993     		str	r3, [sp, #36]
 106:Core/Src/stm32h7xx_hal_msp.c ****     PeriphClkInitStruct.PLL2.PLL2FRACN = 0;
 146              		.loc 1 106 5 is_stmt 1 view .LVU33
 106:Core/Src/stm32h7xx_hal_msp.c ****     PeriphClkInitStruct.PLL2.PLL2FRACN = 0;
 147              		.loc 1 106 41 is_stmt 0 view .LVU34
 148 0044 2023     		movs	r3, #32
 149 0046 0A93     		str	r3, [sp, #40]
 107:Core/Src/stm32h7xx_hal_msp.c ****     PeriphClkInitStruct.FdcanClockSelection = RCC_FDCANCLKSOURCE_PLL2;
 150              		.loc 1 107 5 is_stmt 1 view .LVU35
 108:Core/Src/stm32h7xx_hal_msp.c ****     if (HAL_RCCEx_PeriphCLKConfig(&PeriphClkInitStruct) != HAL_OK)
 151              		.loc 1 108 5 view .LVU36
 108:Core/Src/stm32h7xx_hal_msp.c ****     if (HAL_RCCEx_PeriphCLKConfig(&PeriphClkInitStruct) != HAL_OK)
 152              		.loc 1 108 45 is_stmt 0 view .LVU37
 153 0048 4FF00053 		mov	r3, #536870912
 154 004c 1E93     		str	r3, [sp, #120]
 109:Core/Src/stm32h7xx_hal_msp.c ****     {
 155              		.loc 1 109 5 is_stmt 1 view .LVU38
 109:Core/Src/stm32h7xx_hal_msp.c ****     {
 156              		.loc 1 109 9 is_stmt 0 view .LVU39
 157 004e 02A8     		add	r0, sp, #8
 158 0050 FFF7FEFF 		bl	HAL_RCCEx_PeriphCLKConfig
 159              	.LVL5:
 109:Core/Src/stm32h7xx_hal_msp.c ****     {
 160              		.loc 1 109 8 discriminator 1 view .LVU40
 161 0054 70BB     		cbnz	r0, .L10
 162              	.L7:
 115:Core/Src/stm32h7xx_hal_msp.c **** 
 163              		.loc 1 115 5 is_stmt 1 view .LVU41
 164              	.LBB3:
 115:Core/Src/stm32h7xx_hal_msp.c **** 
 165              		.loc 1 115 5 view .LVU42
 115:Core/Src/stm32h7xx_hal_msp.c **** 
 166              		.loc 1 115 5 view .LVU43
 167 0056 1A4B     		ldr	r3, .L11+4
 168 0058 D3F8EC20 		ldr	r2, [r3, #236]
 169 005c 42F48072 		orr	r2, r2, #256
 170 0060 C3F8EC20 		str	r2, [r3, #236]
 115:Core/Src/stm32h7xx_hal_msp.c **** 
 171              		.loc 1 115 5 view .LVU44
 172 0064 D3F8EC20 		ldr	r2, [r3, #236]
 173 0068 02F48072 		and	r2, r2, #256
 174 006c 0092     		str	r2, [sp]
 115:Core/Src/stm32h7xx_hal_msp.c **** 
 175              		.loc 1 115 5 view .LVU45
 176 006e 009A     		ldr	r2, [sp]
 177              	.LBE3:
 115:Core/Src/stm32h7xx_hal_msp.c **** 
 178              		.loc 1 115 5 view .LVU46
 117:Core/Src/stm32h7xx_hal_msp.c ****     /**FDCAN1 GPIO Configuration
ARM GAS  C:\Users\aticl\AppData\Local\Temp\ccIb54je.s 			page 7


 179              		.loc 1 117 5 view .LVU47
 180              	.LBB4:
 117:Core/Src/stm32h7xx_hal_msp.c ****     /**FDCAN1 GPIO Configuration
 181              		.loc 1 117 5 view .LVU48
 117:Core/Src/stm32h7xx_hal_msp.c ****     /**FDCAN1 GPIO Configuration
 182              		.loc 1 117 5 view .LVU49
 183 0070 D3F8E020 		ldr	r2, [r3, #224]
 184 0074 42F00802 		orr	r2, r2, #8
 185 0078 C3F8E020 		str	r2, [r3, #224]
 117:Core/Src/stm32h7xx_hal_msp.c ****     /**FDCAN1 GPIO Configuration
 186              		.loc 1 117 5 view .LVU50
 187 007c D3F8E030 		ldr	r3, [r3, #224]
 188 0080 03F00803 		and	r3, r3, #8
 189 0084 0193     		str	r3, [sp, #4]
 117:Core/Src/stm32h7xx_hal_msp.c ****     /**FDCAN1 GPIO Configuration
 190              		.loc 1 117 5 view .LVU51
 191 0086 019B     		ldr	r3, [sp, #4]
 192              	.LBE4:
 117:Core/Src/stm32h7xx_hal_msp.c ****     /**FDCAN1 GPIO Configuration
 193              		.loc 1 117 5 view .LVU52
 122:Core/Src/stm32h7xx_hal_msp.c ****     GPIO_InitStruct.Mode = GPIO_MODE_AF_PP;
 194              		.loc 1 122 5 view .LVU53
 122:Core/Src/stm32h7xx_hal_msp.c ****     GPIO_InitStruct.Mode = GPIO_MODE_AF_PP;
 195              		.loc 1 122 25 is_stmt 0 view .LVU54
 196 0088 0323     		movs	r3, #3
 197 008a 3393     		str	r3, [sp, #204]
 123:Core/Src/stm32h7xx_hal_msp.c ****     GPIO_InitStruct.Pull = GPIO_NOPULL;
 198              		.loc 1 123 5 is_stmt 1 view .LVU55
 123:Core/Src/stm32h7xx_hal_msp.c ****     GPIO_InitStruct.Pull = GPIO_NOPULL;
 199              		.loc 1 123 26 is_stmt 0 view .LVU56
 200 008c 0223     		movs	r3, #2
 201 008e 3493     		str	r3, [sp, #208]
 124:Core/Src/stm32h7xx_hal_msp.c ****     GPIO_InitStruct.Speed = GPIO_SPEED_FREQ_LOW;
 202              		.loc 1 124 5 is_stmt 1 view .LVU57
 124:Core/Src/stm32h7xx_hal_msp.c ****     GPIO_InitStruct.Speed = GPIO_SPEED_FREQ_LOW;
 203              		.loc 1 124 26 is_stmt 0 view .LVU58
 204 0090 0024     		movs	r4, #0
 205              	.LVL6:
 124:Core/Src/stm32h7xx_hal_msp.c ****     GPIO_InitStruct.Speed = GPIO_SPEED_FREQ_LOW;
 206              		.loc 1 124 26 view .LVU59
 207 0092 3594     		str	r4, [sp, #212]
 125:Core/Src/stm32h7xx_hal_msp.c ****     GPIO_InitStruct.Alternate = GPIO_AF9_FDCAN1;
 208              		.loc 1 125 5 is_stmt 1 view .LVU60
 125:Core/Src/stm32h7xx_hal_msp.c ****     GPIO_InitStruct.Alternate = GPIO_AF9_FDCAN1;
 209              		.loc 1 125 27 is_stmt 0 view .LVU61
 210 0094 3694     		str	r4, [sp, #216]
 126:Core/Src/stm32h7xx_hal_msp.c ****     HAL_GPIO_Init(GPIOD, &GPIO_InitStruct);
 211              		.loc 1 126 5 is_stmt 1 view .LVU62
 126:Core/Src/stm32h7xx_hal_msp.c ****     HAL_GPIO_Init(GPIOD, &GPIO_InitStruct);
 212              		.loc 1 126 31 is_stmt 0 view .LVU63
 213 0096 0923     		movs	r3, #9
 214 0098 3793     		str	r3, [sp, #220]
 127:Core/Src/stm32h7xx_hal_msp.c **** 
 215              		.loc 1 127 5 is_stmt 1 view .LVU64
 216 009a 33A9     		add	r1, sp, #204
 217 009c 0948     		ldr	r0, .L11+8
 218 009e FFF7FEFF 		bl	HAL_GPIO_Init
ARM GAS  C:\Users\aticl\AppData\Local\Temp\ccIb54je.s 			page 8


 219              	.LVL7:
 130:Core/Src/stm32h7xx_hal_msp.c ****     HAL_NVIC_EnableIRQ(FDCAN1_IT0_IRQn);
 220              		.loc 1 130 5 view .LVU65
 221 00a2 2246     		mov	r2, r4
 222 00a4 2146     		mov	r1, r4
 223 00a6 1320     		movs	r0, #19
 224 00a8 FFF7FEFF 		bl	HAL_NVIC_SetPriority
 225              	.LVL8:
 131:Core/Src/stm32h7xx_hal_msp.c ****     /* USER CODE BEGIN FDCAN1_MspInit 1 */
 226              		.loc 1 131 5 view .LVU66
 227 00ac 1320     		movs	r0, #19
 228 00ae FFF7FEFF 		bl	HAL_NVIC_EnableIRQ
 229              	.LVL9:
 230              		.loc 1 138 1 is_stmt 0 view .LVU67
 231 00b2 B6E7     		b	.L5
 232              	.LVL10:
 233              	.L10:
 111:Core/Src/stm32h7xx_hal_msp.c ****     }
 234              		.loc 1 111 7 is_stmt 1 view .LVU68
 235 00b4 FFF7FEFF 		bl	Error_Handler
 236              	.LVL11:
 237 00b8 CDE7     		b	.L7
 238              	.L12:
 239 00ba 00BF     		.align	2
 240              	.L11:
 241 00bc 00A00040 		.word	1073782784
 242 00c0 00440258 		.word	1476543488
 243 00c4 000C0258 		.word	1476529152
 244              		.cfi_endproc
 245              	.LFE145:
 247              		.section	.text.HAL_FDCAN_MspDeInit,"ax",%progbits
 248              		.align	1
 249              		.global	HAL_FDCAN_MspDeInit
 250              		.syntax unified
 251              		.thumb
 252              		.thumb_func
 254              	HAL_FDCAN_MspDeInit:
 255              	.LVL12:
 256              	.LFB146:
 139:Core/Src/stm32h7xx_hal_msp.c **** 
 140:Core/Src/stm32h7xx_hal_msp.c **** /**
 141:Core/Src/stm32h7xx_hal_msp.c ****   * @brief FDCAN MSP De-Initialization
 142:Core/Src/stm32h7xx_hal_msp.c ****   * This function freeze the hardware resources used in this example
 143:Core/Src/stm32h7xx_hal_msp.c ****   * @param hfdcan: FDCAN handle pointer
 144:Core/Src/stm32h7xx_hal_msp.c ****   * @retval None
 145:Core/Src/stm32h7xx_hal_msp.c ****   */
 146:Core/Src/stm32h7xx_hal_msp.c **** void HAL_FDCAN_MspDeInit(FDCAN_HandleTypeDef* hfdcan)
 147:Core/Src/stm32h7xx_hal_msp.c **** {
 257              		.loc 1 147 1 view -0
 258              		.cfi_startproc
 259              		@ args = 0, pretend = 0, frame = 0
 260              		@ frame_needed = 0, uses_anonymous_args = 0
 261              		.loc 1 147 1 is_stmt 0 view .LVU70
 262 0000 08B5     		push	{r3, lr}
 263              		.cfi_def_cfa_offset 8
 264              		.cfi_offset 3, -8
 265              		.cfi_offset 14, -4
ARM GAS  C:\Users\aticl\AppData\Local\Temp\ccIb54je.s 			page 9


 148:Core/Src/stm32h7xx_hal_msp.c ****   if(hfdcan->Instance==FDCAN1)
 266              		.loc 1 148 3 is_stmt 1 view .LVU71
 267              		.loc 1 148 12 is_stmt 0 view .LVU72
 268 0002 0268     		ldr	r2, [r0]
 269              		.loc 1 148 5 view .LVU73
 270 0004 094B     		ldr	r3, .L17
 271 0006 9A42     		cmp	r2, r3
 272 0008 00D0     		beq	.L16
 273              	.LVL13:
 274              	.L13:
 149:Core/Src/stm32h7xx_hal_msp.c ****   {
 150:Core/Src/stm32h7xx_hal_msp.c ****     /* USER CODE BEGIN FDCAN1_MspDeInit 0 */
 151:Core/Src/stm32h7xx_hal_msp.c **** 
 152:Core/Src/stm32h7xx_hal_msp.c ****     /* USER CODE END FDCAN1_MspDeInit 0 */
 153:Core/Src/stm32h7xx_hal_msp.c ****     /* Peripheral clock disable */
 154:Core/Src/stm32h7xx_hal_msp.c ****     __HAL_RCC_FDCAN_CLK_DISABLE();
 155:Core/Src/stm32h7xx_hal_msp.c **** 
 156:Core/Src/stm32h7xx_hal_msp.c ****     /**FDCAN1 GPIO Configuration
 157:Core/Src/stm32h7xx_hal_msp.c ****     PD0     ------> FDCAN1_RX
 158:Core/Src/stm32h7xx_hal_msp.c ****     PD1     ------> FDCAN1_TX
 159:Core/Src/stm32h7xx_hal_msp.c ****     */
 160:Core/Src/stm32h7xx_hal_msp.c ****     HAL_GPIO_DeInit(GPIOD, GPIO_PIN_0|GPIO_PIN_1);
 161:Core/Src/stm32h7xx_hal_msp.c **** 
 162:Core/Src/stm32h7xx_hal_msp.c ****     /* FDCAN1 interrupt DeInit */
 163:Core/Src/stm32h7xx_hal_msp.c ****     HAL_NVIC_DisableIRQ(FDCAN1_IT0_IRQn);
 164:Core/Src/stm32h7xx_hal_msp.c ****     /* USER CODE BEGIN FDCAN1_MspDeInit 1 */
 165:Core/Src/stm32h7xx_hal_msp.c **** 
 166:Core/Src/stm32h7xx_hal_msp.c ****     /* USER CODE END FDCAN1_MspDeInit 1 */
 167:Core/Src/stm32h7xx_hal_msp.c ****   }
 168:Core/Src/stm32h7xx_hal_msp.c **** 
 169:Core/Src/stm32h7xx_hal_msp.c **** }
 275              		.loc 1 169 1 view .LVU74
 276 000a 08BD     		pop	{r3, pc}
 277              	.LVL14:
 278              	.L16:
 154:Core/Src/stm32h7xx_hal_msp.c **** 
 279              		.loc 1 154 5 is_stmt 1 view .LVU75
 280 000c 084A     		ldr	r2, .L17+4
 281 000e D2F8EC30 		ldr	r3, [r2, #236]
 282 0012 23F48073 		bic	r3, r3, #256
 283 0016 C2F8EC30 		str	r3, [r2, #236]
 160:Core/Src/stm32h7xx_hal_msp.c **** 
 284              		.loc 1 160 5 view .LVU76
 285 001a 0321     		movs	r1, #3
 286 001c 0548     		ldr	r0, .L17+8
 287              	.LVL15:
 160:Core/Src/stm32h7xx_hal_msp.c **** 
 288              		.loc 1 160 5 is_stmt 0 view .LVU77
 289 001e FFF7FEFF 		bl	HAL_GPIO_DeInit
 290              	.LVL16:
 163:Core/Src/stm32h7xx_hal_msp.c ****     /* USER CODE BEGIN FDCAN1_MspDeInit 1 */
 291              		.loc 1 163 5 is_stmt 1 view .LVU78
 292 0022 1320     		movs	r0, #19
 293 0024 FFF7FEFF 		bl	HAL_NVIC_DisableIRQ
 294              	.LVL17:
 295              		.loc 1 169 1 is_stmt 0 view .LVU79
 296 0028 EFE7     		b	.L13
ARM GAS  C:\Users\aticl\AppData\Local\Temp\ccIb54je.s 			page 10


 297              	.L18:
 298 002a 00BF     		.align	2
 299              	.L17:
 300 002c 00A00040 		.word	1073782784
 301 0030 00440258 		.word	1476543488
 302 0034 000C0258 		.word	1476529152
 303              		.cfi_endproc
 304              	.LFE146:
 306              		.section	.text.HAL_TIM_PWM_MspInit,"ax",%progbits
 307              		.align	1
 308              		.global	HAL_TIM_PWM_MspInit
 309              		.syntax unified
 310              		.thumb
 311              		.thumb_func
 313              	HAL_TIM_PWM_MspInit:
 314              	.LVL18:
 315              	.LFB147:
 170:Core/Src/stm32h7xx_hal_msp.c **** 
 171:Core/Src/stm32h7xx_hal_msp.c **** /**
 172:Core/Src/stm32h7xx_hal_msp.c ****   * @brief TIM_PWM MSP Initialization
 173:Core/Src/stm32h7xx_hal_msp.c ****   * This function configures the hardware resources used in this example
 174:Core/Src/stm32h7xx_hal_msp.c ****   * @param htim_pwm: TIM_PWM handle pointer
 175:Core/Src/stm32h7xx_hal_msp.c ****   * @retval None
 176:Core/Src/stm32h7xx_hal_msp.c ****   */
 177:Core/Src/stm32h7xx_hal_msp.c **** void HAL_TIM_PWM_MspInit(TIM_HandleTypeDef* htim_pwm)
 178:Core/Src/stm32h7xx_hal_msp.c **** {
 316              		.loc 1 178 1 is_stmt 1 view -0
 317              		.cfi_startproc
 318              		@ args = 0, pretend = 0, frame = 8
 319              		@ frame_needed = 0, uses_anonymous_args = 0
 320              		@ link register save eliminated.
 179:Core/Src/stm32h7xx_hal_msp.c ****   if(htim_pwm->Instance==TIM2)
 321              		.loc 1 179 3 view .LVU81
 322              		.loc 1 179 14 is_stmt 0 view .LVU82
 323 0000 0368     		ldr	r3, [r0]
 324              		.loc 1 179 5 view .LVU83
 325 0002 B3F1804F 		cmp	r3, #1073741824
 326 0006 00D0     		beq	.L25
 327 0008 7047     		bx	lr
 328              	.L25:
 178:Core/Src/stm32h7xx_hal_msp.c ****   if(htim_pwm->Instance==TIM2)
 329              		.loc 1 178 1 view .LVU84
 330 000a 82B0     		sub	sp, sp, #8
 331              		.cfi_def_cfa_offset 8
 180:Core/Src/stm32h7xx_hal_msp.c ****   {
 181:Core/Src/stm32h7xx_hal_msp.c ****     /* USER CODE BEGIN TIM2_MspInit 0 */
 182:Core/Src/stm32h7xx_hal_msp.c **** 
 183:Core/Src/stm32h7xx_hal_msp.c ****     /* USER CODE END TIM2_MspInit 0 */
 184:Core/Src/stm32h7xx_hal_msp.c ****     /* Peripheral clock enable */
 185:Core/Src/stm32h7xx_hal_msp.c ****     __HAL_RCC_TIM2_CLK_ENABLE();
 332              		.loc 1 185 5 is_stmt 1 view .LVU85
 333              	.LBB5:
 334              		.loc 1 185 5 view .LVU86
 335              		.loc 1 185 5 view .LVU87
 336 000c 074B     		ldr	r3, .L26
 337 000e D3F8E820 		ldr	r2, [r3, #232]
 338 0012 42F00102 		orr	r2, r2, #1
ARM GAS  C:\Users\aticl\AppData\Local\Temp\ccIb54je.s 			page 11


 339 0016 C3F8E820 		str	r2, [r3, #232]
 340              		.loc 1 185 5 view .LVU88
 341 001a D3F8E830 		ldr	r3, [r3, #232]
 342 001e 03F00103 		and	r3, r3, #1
 343 0022 0193     		str	r3, [sp, #4]
 344              		.loc 1 185 5 view .LVU89
 345 0024 019B     		ldr	r3, [sp, #4]
 346              	.LBE5:
 347              		.loc 1 185 5 discriminator 1 view .LVU90
 186:Core/Src/stm32h7xx_hal_msp.c ****     /* USER CODE BEGIN TIM2_MspInit 1 */
 187:Core/Src/stm32h7xx_hal_msp.c **** 
 188:Core/Src/stm32h7xx_hal_msp.c ****     /* USER CODE END TIM2_MspInit 1 */
 189:Core/Src/stm32h7xx_hal_msp.c **** 
 190:Core/Src/stm32h7xx_hal_msp.c ****   }
 191:Core/Src/stm32h7xx_hal_msp.c **** 
 192:Core/Src/stm32h7xx_hal_msp.c **** }
 348              		.loc 1 192 1 is_stmt 0 view .LVU91
 349 0026 02B0     		add	sp, sp, #8
 350              		.cfi_def_cfa_offset 0
 351              		@ sp needed
 352 0028 7047     		bx	lr
 353              	.L27:
 354 002a 00BF     		.align	2
 355              	.L26:
 356 002c 00440258 		.word	1476543488
 357              		.cfi_endproc
 358              	.LFE147:
 360              		.section	.text.HAL_TIM_MspPostInit,"ax",%progbits
 361              		.align	1
 362              		.global	HAL_TIM_MspPostInit
 363              		.syntax unified
 364              		.thumb
 365              		.thumb_func
 367              	HAL_TIM_MspPostInit:
 368              	.LVL19:
 369              	.LFB148:
 193:Core/Src/stm32h7xx_hal_msp.c **** 
 194:Core/Src/stm32h7xx_hal_msp.c **** void HAL_TIM_MspPostInit(TIM_HandleTypeDef* htim)
 195:Core/Src/stm32h7xx_hal_msp.c **** {
 370              		.loc 1 195 1 is_stmt 1 view -0
 371              		.cfi_startproc
 372              		@ args = 0, pretend = 0, frame = 24
 373              		@ frame_needed = 0, uses_anonymous_args = 0
 374              		.loc 1 195 1 is_stmt 0 view .LVU93
 375 0000 00B5     		push	{lr}
 376              		.cfi_def_cfa_offset 4
 377              		.cfi_offset 14, -4
 378 0002 87B0     		sub	sp, sp, #28
 379              		.cfi_def_cfa_offset 32
 196:Core/Src/stm32h7xx_hal_msp.c ****   GPIO_InitTypeDef GPIO_InitStruct = {0};
 380              		.loc 1 196 3 is_stmt 1 view .LVU94
 381              		.loc 1 196 20 is_stmt 0 view .LVU95
 382 0004 0023     		movs	r3, #0
 383 0006 0193     		str	r3, [sp, #4]
 384 0008 0293     		str	r3, [sp, #8]
 385 000a 0393     		str	r3, [sp, #12]
 386 000c 0493     		str	r3, [sp, #16]
ARM GAS  C:\Users\aticl\AppData\Local\Temp\ccIb54je.s 			page 12


 387 000e 0593     		str	r3, [sp, #20]
 197:Core/Src/stm32h7xx_hal_msp.c ****   if(htim->Instance==TIM2)
 388              		.loc 1 197 3 is_stmt 1 view .LVU96
 389              		.loc 1 197 10 is_stmt 0 view .LVU97
 390 0010 0368     		ldr	r3, [r0]
 391              		.loc 1 197 5 view .LVU98
 392 0012 B3F1804F 		cmp	r3, #1073741824
 393 0016 02D0     		beq	.L31
 394              	.LVL20:
 395              	.L28:
 198:Core/Src/stm32h7xx_hal_msp.c ****   {
 199:Core/Src/stm32h7xx_hal_msp.c ****     /* USER CODE BEGIN TIM2_MspPostInit 0 */
 200:Core/Src/stm32h7xx_hal_msp.c **** 
 201:Core/Src/stm32h7xx_hal_msp.c ****     /* USER CODE END TIM2_MspPostInit 0 */
 202:Core/Src/stm32h7xx_hal_msp.c **** 
 203:Core/Src/stm32h7xx_hal_msp.c ****     __HAL_RCC_GPIOA_CLK_ENABLE();
 204:Core/Src/stm32h7xx_hal_msp.c ****     /**TIM2 GPIO Configuration
 205:Core/Src/stm32h7xx_hal_msp.c ****     PA3     ------> TIM2_CH4
 206:Core/Src/stm32h7xx_hal_msp.c ****     */
 207:Core/Src/stm32h7xx_hal_msp.c ****     GPIO_InitStruct.Pin = GPIO_PIN_3;
 208:Core/Src/stm32h7xx_hal_msp.c ****     GPIO_InitStruct.Mode = GPIO_MODE_AF_PP;
 209:Core/Src/stm32h7xx_hal_msp.c ****     GPIO_InitStruct.Pull = GPIO_NOPULL;
 210:Core/Src/stm32h7xx_hal_msp.c ****     GPIO_InitStruct.Speed = GPIO_SPEED_FREQ_LOW;
 211:Core/Src/stm32h7xx_hal_msp.c ****     GPIO_InitStruct.Alternate = GPIO_AF1_TIM2;
 212:Core/Src/stm32h7xx_hal_msp.c ****     HAL_GPIO_Init(GPIOA, &GPIO_InitStruct);
 213:Core/Src/stm32h7xx_hal_msp.c **** 
 214:Core/Src/stm32h7xx_hal_msp.c ****     /* USER CODE BEGIN TIM2_MspPostInit 1 */
 215:Core/Src/stm32h7xx_hal_msp.c **** 
 216:Core/Src/stm32h7xx_hal_msp.c ****     /* USER CODE END TIM2_MspPostInit 1 */
 217:Core/Src/stm32h7xx_hal_msp.c ****   }
 218:Core/Src/stm32h7xx_hal_msp.c **** 
 219:Core/Src/stm32h7xx_hal_msp.c **** }
 396              		.loc 1 219 1 view .LVU99
 397 0018 07B0     		add	sp, sp, #28
 398              		.cfi_remember_state
 399              		.cfi_def_cfa_offset 4
 400              		@ sp needed
 401 001a 5DF804FB 		ldr	pc, [sp], #4
 402              	.LVL21:
 403              	.L31:
 404              		.cfi_restore_state
 203:Core/Src/stm32h7xx_hal_msp.c ****     /**TIM2 GPIO Configuration
 405              		.loc 1 203 5 is_stmt 1 view .LVU100
 406              	.LBB6:
 203:Core/Src/stm32h7xx_hal_msp.c ****     /**TIM2 GPIO Configuration
 407              		.loc 1 203 5 view .LVU101
 203:Core/Src/stm32h7xx_hal_msp.c ****     /**TIM2 GPIO Configuration
 408              		.loc 1 203 5 view .LVU102
 409 001e 0C4B     		ldr	r3, .L32
 410 0020 D3F8E020 		ldr	r2, [r3, #224]
 411 0024 42F00102 		orr	r2, r2, #1
 412 0028 C3F8E020 		str	r2, [r3, #224]
 203:Core/Src/stm32h7xx_hal_msp.c ****     /**TIM2 GPIO Configuration
 413              		.loc 1 203 5 view .LVU103
 414 002c D3F8E030 		ldr	r3, [r3, #224]
 415 0030 03F00103 		and	r3, r3, #1
 416 0034 0093     		str	r3, [sp]
ARM GAS  C:\Users\aticl\AppData\Local\Temp\ccIb54je.s 			page 13


 203:Core/Src/stm32h7xx_hal_msp.c ****     /**TIM2 GPIO Configuration
 417              		.loc 1 203 5 view .LVU104
 418 0036 009B     		ldr	r3, [sp]
 419              	.LBE6:
 203:Core/Src/stm32h7xx_hal_msp.c ****     /**TIM2 GPIO Configuration
 420              		.loc 1 203 5 view .LVU105
 207:Core/Src/stm32h7xx_hal_msp.c ****     GPIO_InitStruct.Mode = GPIO_MODE_AF_PP;
 421              		.loc 1 207 5 view .LVU106
 207:Core/Src/stm32h7xx_hal_msp.c ****     GPIO_InitStruct.Mode = GPIO_MODE_AF_PP;
 422              		.loc 1 207 25 is_stmt 0 view .LVU107
 423 0038 0823     		movs	r3, #8
 424 003a 0193     		str	r3, [sp, #4]
 208:Core/Src/stm32h7xx_hal_msp.c ****     GPIO_InitStruct.Pull = GPIO_NOPULL;
 425              		.loc 1 208 5 is_stmt 1 view .LVU108
 208:Core/Src/stm32h7xx_hal_msp.c ****     GPIO_InitStruct.Pull = GPIO_NOPULL;
 426              		.loc 1 208 26 is_stmt 0 view .LVU109
 427 003c 0223     		movs	r3, #2
 428 003e 0293     		str	r3, [sp, #8]
 209:Core/Src/stm32h7xx_hal_msp.c ****     GPIO_InitStruct.Speed = GPIO_SPEED_FREQ_LOW;
 429              		.loc 1 209 5 is_stmt 1 view .LVU110
 210:Core/Src/stm32h7xx_hal_msp.c ****     GPIO_InitStruct.Alternate = GPIO_AF1_TIM2;
 430              		.loc 1 210 5 view .LVU111
 211:Core/Src/stm32h7xx_hal_msp.c ****     HAL_GPIO_Init(GPIOA, &GPIO_InitStruct);
 431              		.loc 1 211 5 view .LVU112
 211:Core/Src/stm32h7xx_hal_msp.c ****     HAL_GPIO_Init(GPIOA, &GPIO_InitStruct);
 432              		.loc 1 211 31 is_stmt 0 view .LVU113
 433 0040 0123     		movs	r3, #1
 434 0042 0593     		str	r3, [sp, #20]
 212:Core/Src/stm32h7xx_hal_msp.c **** 
 435              		.loc 1 212 5 is_stmt 1 view .LVU114
 436 0044 01A9     		add	r1, sp, #4
 437 0046 0348     		ldr	r0, .L32+4
 438              	.LVL22:
 212:Core/Src/stm32h7xx_hal_msp.c **** 
 439              		.loc 1 212 5 is_stmt 0 view .LVU115
 440 0048 FFF7FEFF 		bl	HAL_GPIO_Init
 441              	.LVL23:
 442              		.loc 1 219 1 view .LVU116
 443 004c E4E7     		b	.L28
 444              	.L33:
 445 004e 00BF     		.align	2
 446              	.L32:
 447 0050 00440258 		.word	1476543488
 448 0054 00000258 		.word	1476526080
 449              		.cfi_endproc
 450              	.LFE148:
 452              		.section	.text.HAL_TIM_PWM_MspDeInit,"ax",%progbits
 453              		.align	1
 454              		.global	HAL_TIM_PWM_MspDeInit
 455              		.syntax unified
 456              		.thumb
 457              		.thumb_func
 459              	HAL_TIM_PWM_MspDeInit:
 460              	.LVL24:
 461              	.LFB149:
 220:Core/Src/stm32h7xx_hal_msp.c **** /**
 221:Core/Src/stm32h7xx_hal_msp.c ****   * @brief TIM_PWM MSP De-Initialization
ARM GAS  C:\Users\aticl\AppData\Local\Temp\ccIb54je.s 			page 14


 222:Core/Src/stm32h7xx_hal_msp.c ****   * This function freeze the hardware resources used in this example
 223:Core/Src/stm32h7xx_hal_msp.c ****   * @param htim_pwm: TIM_PWM handle pointer
 224:Core/Src/stm32h7xx_hal_msp.c ****   * @retval None
 225:Core/Src/stm32h7xx_hal_msp.c ****   */
 226:Core/Src/stm32h7xx_hal_msp.c **** void HAL_TIM_PWM_MspDeInit(TIM_HandleTypeDef* htim_pwm)
 227:Core/Src/stm32h7xx_hal_msp.c **** {
 462              		.loc 1 227 1 is_stmt 1 view -0
 463              		.cfi_startproc
 464              		@ args = 0, pretend = 0, frame = 0
 465              		@ frame_needed = 0, uses_anonymous_args = 0
 466              		@ link register save eliminated.
 228:Core/Src/stm32h7xx_hal_msp.c ****   if(htim_pwm->Instance==TIM2)
 467              		.loc 1 228 3 view .LVU118
 468              		.loc 1 228 14 is_stmt 0 view .LVU119
 469 0000 0368     		ldr	r3, [r0]
 470              		.loc 1 228 5 view .LVU120
 471 0002 B3F1804F 		cmp	r3, #1073741824
 472 0006 00D0     		beq	.L36
 473              	.L34:
 229:Core/Src/stm32h7xx_hal_msp.c ****   {
 230:Core/Src/stm32h7xx_hal_msp.c ****     /* USER CODE BEGIN TIM2_MspDeInit 0 */
 231:Core/Src/stm32h7xx_hal_msp.c **** 
 232:Core/Src/stm32h7xx_hal_msp.c ****     /* USER CODE END TIM2_MspDeInit 0 */
 233:Core/Src/stm32h7xx_hal_msp.c ****     /* Peripheral clock disable */
 234:Core/Src/stm32h7xx_hal_msp.c ****     __HAL_RCC_TIM2_CLK_DISABLE();
 235:Core/Src/stm32h7xx_hal_msp.c ****     /* USER CODE BEGIN TIM2_MspDeInit 1 */
 236:Core/Src/stm32h7xx_hal_msp.c **** 
 237:Core/Src/stm32h7xx_hal_msp.c ****     /* USER CODE END TIM2_MspDeInit 1 */
 238:Core/Src/stm32h7xx_hal_msp.c ****   }
 239:Core/Src/stm32h7xx_hal_msp.c **** 
 240:Core/Src/stm32h7xx_hal_msp.c **** }
 474              		.loc 1 240 1 view .LVU121
 475 0008 7047     		bx	lr
 476              	.L36:
 234:Core/Src/stm32h7xx_hal_msp.c ****     /* USER CODE BEGIN TIM2_MspDeInit 1 */
 477              		.loc 1 234 5 is_stmt 1 view .LVU122
 478 000a 044A     		ldr	r2, .L37
 479 000c D2F8E830 		ldr	r3, [r2, #232]
 480 0010 23F00103 		bic	r3, r3, #1
 481 0014 C2F8E830 		str	r3, [r2, #232]
 482              		.loc 1 240 1 is_stmt 0 view .LVU123
 483 0018 F6E7     		b	.L34
 484              	.L38:
 485 001a 00BF     		.align	2
 486              	.L37:
 487 001c 00440258 		.word	1476543488
 488              		.cfi_endproc
 489              	.LFE149:
 491              		.text
 492              	.Letext0:
 493              		.file 2 "Drivers/CMSIS/Device/ST/STM32H7xx/Include/stm32h750xx.h"
 494              		.file 3 "C:/Users/aticl/AppData/Roaming/Code/User/globalStorage/bmd.stm32-for-vscode/@xpack-dev-to
 495              		.file 4 "C:/Users/aticl/AppData/Roaming/Code/User/globalStorage/bmd.stm32-for-vscode/@xpack-dev-to
 496              		.file 5 "Drivers/CMSIS/Device/ST/STM32H7xx/Include/stm32h7xx.h"
 497              		.file 6 "Drivers/STM32H7xx_HAL_Driver/Inc/stm32h7xx_hal_def.h"
 498              		.file 7 "Drivers/STM32H7xx_HAL_Driver/Inc/stm32h7xx_hal_rcc_ex.h"
 499              		.file 8 "Drivers/STM32H7xx_HAL_Driver/Inc/stm32h7xx_hal_gpio.h"
ARM GAS  C:\Users\aticl\AppData\Local\Temp\ccIb54je.s 			page 15


 500              		.file 9 "Drivers/STM32H7xx_HAL_Driver/Inc/stm32h7xx_hal_dma.h"
 501              		.file 10 "Drivers/STM32H7xx_HAL_Driver/Inc/stm32h7xx_hal_fdcan.h"
 502              		.file 11 "Drivers/STM32H7xx_HAL_Driver/Inc/stm32h7xx_hal_tim.h"
 503              		.file 12 "Drivers/STM32H7xx_HAL_Driver/Inc/stm32h7xx_hal_cortex.h"
 504              		.file 13 "Core/Inc/main.h"
 505              		.file 14 "<built-in>"
ARM GAS  C:\Users\aticl\AppData\Local\Temp\ccIb54je.s 			page 16

