ARM GAS  C:\Users\aticl\AppData\Local\Temp\ccHflrtd.s 			page 1


   1              		.cpu cortex-m7
   2              		.arch armv7e-m
   3              		.fpu fpv5-d16
   4              		.eabi_attribute 28, 1
   5              		.eabi_attribute 20, 1
   6              		.eabi_attribute 21, 1
   7              		.eabi_attribute 23, 3
   8              		.eabi_attribute 24, 1
   9              		.eabi_attribute 25, 1
  10              		.eabi_attribute 26, 1
  11              		.eabi_attribute 30, 1
  12              		.eabi_attribute 34, 1
  13              		.eabi_attribute 18, 4
  14              		.file	"usbd_core.c"
  15              		.text
  16              	.Ltext0:
  17              		.cfi_sections	.debug_frame
  18              		.file 1 "Middlewares/ST/STM32_USB_Device_Library/Core/Src/usbd_core.c"
  19              		.section	.text.USBD_Init,"ax",%progbits
  20              		.align	1
  21              		.global	USBD_Init
  22              		.syntax unified
  23              		.thumb
  24              		.thumb_func
  26              	USBD_Init:
  27              	.LVL0:
  28              	.LFB148:
   1:Middlewares/ST/STM32_USB_Device_Library/Core/Src/usbd_core.c **** /**
   2:Middlewares/ST/STM32_USB_Device_Library/Core/Src/usbd_core.c ****   ******************************************************************************
   3:Middlewares/ST/STM32_USB_Device_Library/Core/Src/usbd_core.c ****   * @file    usbd_core.c
   4:Middlewares/ST/STM32_USB_Device_Library/Core/Src/usbd_core.c ****   * @author  MCD Application Team
   5:Middlewares/ST/STM32_USB_Device_Library/Core/Src/usbd_core.c ****   * @brief   This file provides all the USBD core functions.
   6:Middlewares/ST/STM32_USB_Device_Library/Core/Src/usbd_core.c ****   ******************************************************************************
   7:Middlewares/ST/STM32_USB_Device_Library/Core/Src/usbd_core.c ****   * @attention
   8:Middlewares/ST/STM32_USB_Device_Library/Core/Src/usbd_core.c ****   *
   9:Middlewares/ST/STM32_USB_Device_Library/Core/Src/usbd_core.c ****   * Copyright (c) 2015 STMicroelectronics.
  10:Middlewares/ST/STM32_USB_Device_Library/Core/Src/usbd_core.c ****   * All rights reserved.
  11:Middlewares/ST/STM32_USB_Device_Library/Core/Src/usbd_core.c ****   *
  12:Middlewares/ST/STM32_USB_Device_Library/Core/Src/usbd_core.c ****   * This software is licensed under terms that can be found in the LICENSE file
  13:Middlewares/ST/STM32_USB_Device_Library/Core/Src/usbd_core.c ****   * in the root directory of this software component.
  14:Middlewares/ST/STM32_USB_Device_Library/Core/Src/usbd_core.c ****   * If no LICENSE file comes with this software, it is provided AS-IS.
  15:Middlewares/ST/STM32_USB_Device_Library/Core/Src/usbd_core.c ****   *
  16:Middlewares/ST/STM32_USB_Device_Library/Core/Src/usbd_core.c ****   ******************************************************************************
  17:Middlewares/ST/STM32_USB_Device_Library/Core/Src/usbd_core.c ****   */
  18:Middlewares/ST/STM32_USB_Device_Library/Core/Src/usbd_core.c **** 
  19:Middlewares/ST/STM32_USB_Device_Library/Core/Src/usbd_core.c **** /* Includes ------------------------------------------------------------------*/
  20:Middlewares/ST/STM32_USB_Device_Library/Core/Src/usbd_core.c **** #include "usbd_core.h"
  21:Middlewares/ST/STM32_USB_Device_Library/Core/Src/usbd_core.c **** 
  22:Middlewares/ST/STM32_USB_Device_Library/Core/Src/usbd_core.c **** #ifdef USE_USBD_COMPOSITE
  23:Middlewares/ST/STM32_USB_Device_Library/Core/Src/usbd_core.c **** #include "usbd_composite_builder.h"
  24:Middlewares/ST/STM32_USB_Device_Library/Core/Src/usbd_core.c **** #endif /* USE_USBD_COMPOSITE */
  25:Middlewares/ST/STM32_USB_Device_Library/Core/Src/usbd_core.c **** 
  26:Middlewares/ST/STM32_USB_Device_Library/Core/Src/usbd_core.c **** /** @addtogroup STM32_USBD_DEVICE_LIBRARY
  27:Middlewares/ST/STM32_USB_Device_Library/Core/Src/usbd_core.c ****   * @{
  28:Middlewares/ST/STM32_USB_Device_Library/Core/Src/usbd_core.c ****   */
  29:Middlewares/ST/STM32_USB_Device_Library/Core/Src/usbd_core.c **** 
  30:Middlewares/ST/STM32_USB_Device_Library/Core/Src/usbd_core.c **** 
ARM GAS  C:\Users\aticl\AppData\Local\Temp\ccHflrtd.s 			page 2


  31:Middlewares/ST/STM32_USB_Device_Library/Core/Src/usbd_core.c **** /** @defgroup USBD_CORE
  32:Middlewares/ST/STM32_USB_Device_Library/Core/Src/usbd_core.c ****   * @brief usbd core module
  33:Middlewares/ST/STM32_USB_Device_Library/Core/Src/usbd_core.c ****   * @{
  34:Middlewares/ST/STM32_USB_Device_Library/Core/Src/usbd_core.c ****   */
  35:Middlewares/ST/STM32_USB_Device_Library/Core/Src/usbd_core.c **** 
  36:Middlewares/ST/STM32_USB_Device_Library/Core/Src/usbd_core.c **** /** @defgroup USBD_CORE_Private_TypesDefinitions
  37:Middlewares/ST/STM32_USB_Device_Library/Core/Src/usbd_core.c ****   * @{
  38:Middlewares/ST/STM32_USB_Device_Library/Core/Src/usbd_core.c ****   */
  39:Middlewares/ST/STM32_USB_Device_Library/Core/Src/usbd_core.c **** 
  40:Middlewares/ST/STM32_USB_Device_Library/Core/Src/usbd_core.c **** /**
  41:Middlewares/ST/STM32_USB_Device_Library/Core/Src/usbd_core.c ****   * @}
  42:Middlewares/ST/STM32_USB_Device_Library/Core/Src/usbd_core.c ****   */
  43:Middlewares/ST/STM32_USB_Device_Library/Core/Src/usbd_core.c **** 
  44:Middlewares/ST/STM32_USB_Device_Library/Core/Src/usbd_core.c **** 
  45:Middlewares/ST/STM32_USB_Device_Library/Core/Src/usbd_core.c **** /** @defgroup USBD_CORE_Private_Defines
  46:Middlewares/ST/STM32_USB_Device_Library/Core/Src/usbd_core.c ****   * @{
  47:Middlewares/ST/STM32_USB_Device_Library/Core/Src/usbd_core.c ****   */
  48:Middlewares/ST/STM32_USB_Device_Library/Core/Src/usbd_core.c **** 
  49:Middlewares/ST/STM32_USB_Device_Library/Core/Src/usbd_core.c **** /**
  50:Middlewares/ST/STM32_USB_Device_Library/Core/Src/usbd_core.c ****   * @}
  51:Middlewares/ST/STM32_USB_Device_Library/Core/Src/usbd_core.c ****   */
  52:Middlewares/ST/STM32_USB_Device_Library/Core/Src/usbd_core.c **** 
  53:Middlewares/ST/STM32_USB_Device_Library/Core/Src/usbd_core.c **** 
  54:Middlewares/ST/STM32_USB_Device_Library/Core/Src/usbd_core.c **** /** @defgroup USBD_CORE_Private_Macros
  55:Middlewares/ST/STM32_USB_Device_Library/Core/Src/usbd_core.c ****   * @{
  56:Middlewares/ST/STM32_USB_Device_Library/Core/Src/usbd_core.c ****   */
  57:Middlewares/ST/STM32_USB_Device_Library/Core/Src/usbd_core.c **** 
  58:Middlewares/ST/STM32_USB_Device_Library/Core/Src/usbd_core.c **** /**
  59:Middlewares/ST/STM32_USB_Device_Library/Core/Src/usbd_core.c ****   * @}
  60:Middlewares/ST/STM32_USB_Device_Library/Core/Src/usbd_core.c ****   */
  61:Middlewares/ST/STM32_USB_Device_Library/Core/Src/usbd_core.c **** 
  62:Middlewares/ST/STM32_USB_Device_Library/Core/Src/usbd_core.c **** 
  63:Middlewares/ST/STM32_USB_Device_Library/Core/Src/usbd_core.c **** /** @defgroup USBD_CORE_Private_FunctionPrototypes
  64:Middlewares/ST/STM32_USB_Device_Library/Core/Src/usbd_core.c ****   * @{
  65:Middlewares/ST/STM32_USB_Device_Library/Core/Src/usbd_core.c ****   */
  66:Middlewares/ST/STM32_USB_Device_Library/Core/Src/usbd_core.c **** 
  67:Middlewares/ST/STM32_USB_Device_Library/Core/Src/usbd_core.c **** /**
  68:Middlewares/ST/STM32_USB_Device_Library/Core/Src/usbd_core.c ****   * @}
  69:Middlewares/ST/STM32_USB_Device_Library/Core/Src/usbd_core.c ****   */
  70:Middlewares/ST/STM32_USB_Device_Library/Core/Src/usbd_core.c **** 
  71:Middlewares/ST/STM32_USB_Device_Library/Core/Src/usbd_core.c **** /** @defgroup USBD_CORE_Private_Variables
  72:Middlewares/ST/STM32_USB_Device_Library/Core/Src/usbd_core.c ****   * @{
  73:Middlewares/ST/STM32_USB_Device_Library/Core/Src/usbd_core.c ****   */
  74:Middlewares/ST/STM32_USB_Device_Library/Core/Src/usbd_core.c **** 
  75:Middlewares/ST/STM32_USB_Device_Library/Core/Src/usbd_core.c **** /**
  76:Middlewares/ST/STM32_USB_Device_Library/Core/Src/usbd_core.c ****   * @}
  77:Middlewares/ST/STM32_USB_Device_Library/Core/Src/usbd_core.c ****   */
  78:Middlewares/ST/STM32_USB_Device_Library/Core/Src/usbd_core.c **** 
  79:Middlewares/ST/STM32_USB_Device_Library/Core/Src/usbd_core.c **** 
  80:Middlewares/ST/STM32_USB_Device_Library/Core/Src/usbd_core.c **** /** @defgroup USBD_CORE_Private_Functions
  81:Middlewares/ST/STM32_USB_Device_Library/Core/Src/usbd_core.c ****   * @{
  82:Middlewares/ST/STM32_USB_Device_Library/Core/Src/usbd_core.c ****   */
  83:Middlewares/ST/STM32_USB_Device_Library/Core/Src/usbd_core.c **** 
  84:Middlewares/ST/STM32_USB_Device_Library/Core/Src/usbd_core.c **** /**
  85:Middlewares/ST/STM32_USB_Device_Library/Core/Src/usbd_core.c ****   * @brief  USBD_Init
  86:Middlewares/ST/STM32_USB_Device_Library/Core/Src/usbd_core.c ****   *         Initialize the device stack and load the class driver
  87:Middlewares/ST/STM32_USB_Device_Library/Core/Src/usbd_core.c ****   * @param  pdev: device instance
ARM GAS  C:\Users\aticl\AppData\Local\Temp\ccHflrtd.s 			page 3


  88:Middlewares/ST/STM32_USB_Device_Library/Core/Src/usbd_core.c ****   * @param  pdesc: Descriptor structure address
  89:Middlewares/ST/STM32_USB_Device_Library/Core/Src/usbd_core.c ****   * @param  id: Low level core index
  90:Middlewares/ST/STM32_USB_Device_Library/Core/Src/usbd_core.c ****   * @retval status: USBD Status
  91:Middlewares/ST/STM32_USB_Device_Library/Core/Src/usbd_core.c ****   */
  92:Middlewares/ST/STM32_USB_Device_Library/Core/Src/usbd_core.c **** USBD_StatusTypeDef USBD_Init(USBD_HandleTypeDef *pdev,
  93:Middlewares/ST/STM32_USB_Device_Library/Core/Src/usbd_core.c ****                              USBD_DescriptorsTypeDef *pdesc, uint8_t id)
  94:Middlewares/ST/STM32_USB_Device_Library/Core/Src/usbd_core.c **** {
  29              		.loc 1 94 1 view -0
  30              		.cfi_startproc
  31              		@ args = 0, pretend = 0, frame = 0
  32              		@ frame_needed = 0, uses_anonymous_args = 0
  95:Middlewares/ST/STM32_USB_Device_Library/Core/Src/usbd_core.c ****   USBD_StatusTypeDef ret;
  33              		.loc 1 95 3 view .LVU1
  96:Middlewares/ST/STM32_USB_Device_Library/Core/Src/usbd_core.c **** 
  97:Middlewares/ST/STM32_USB_Device_Library/Core/Src/usbd_core.c ****   /* Check whether the USB Host handle is valid */
  98:Middlewares/ST/STM32_USB_Device_Library/Core/Src/usbd_core.c ****   if (pdev == NULL)
  34              		.loc 1 98 3 view .LVU2
  35              		.loc 1 98 6 is_stmt 0 view .LVU3
  36 0000 98B1     		cbz	r0, .L4
  94:Middlewares/ST/STM32_USB_Device_Library/Core/Src/usbd_core.c ****   USBD_StatusTypeDef ret;
  37              		.loc 1 94 1 view .LVU4
  38 0002 08B5     		push	{r3, lr}
  39              		.cfi_def_cfa_offset 8
  40              		.cfi_offset 3, -8
  41              		.cfi_offset 14, -4
  42 0004 0346     		mov	r3, r0
  99:Middlewares/ST/STM32_USB_Device_Library/Core/Src/usbd_core.c ****   {
 100:Middlewares/ST/STM32_USB_Device_Library/Core/Src/usbd_core.c **** #if (USBD_DEBUG_LEVEL > 1U)
 101:Middlewares/ST/STM32_USB_Device_Library/Core/Src/usbd_core.c ****     USBD_ErrLog("Invalid Device handle");
 102:Middlewares/ST/STM32_USB_Device_Library/Core/Src/usbd_core.c **** #endif /* (USBD_DEBUG_LEVEL > 1U) */
 103:Middlewares/ST/STM32_USB_Device_Library/Core/Src/usbd_core.c ****     return USBD_FAIL;
 104:Middlewares/ST/STM32_USB_Device_Library/Core/Src/usbd_core.c ****   }
 105:Middlewares/ST/STM32_USB_Device_Library/Core/Src/usbd_core.c **** 
 106:Middlewares/ST/STM32_USB_Device_Library/Core/Src/usbd_core.c **** #ifdef USE_USBD_COMPOSITE
 107:Middlewares/ST/STM32_USB_Device_Library/Core/Src/usbd_core.c ****   /* Parse the table of classes in use */
 108:Middlewares/ST/STM32_USB_Device_Library/Core/Src/usbd_core.c ****   for (uint32_t i = 0; i < USBD_MAX_SUPPORTED_CLASS; i++)
 109:Middlewares/ST/STM32_USB_Device_Library/Core/Src/usbd_core.c ****   {
 110:Middlewares/ST/STM32_USB_Device_Library/Core/Src/usbd_core.c ****     /* Unlink previous class*/
 111:Middlewares/ST/STM32_USB_Device_Library/Core/Src/usbd_core.c ****     pdev->pClass[i] = NULL;
 112:Middlewares/ST/STM32_USB_Device_Library/Core/Src/usbd_core.c ****     pdev->pUserData[i] = NULL;
 113:Middlewares/ST/STM32_USB_Device_Library/Core/Src/usbd_core.c **** 
 114:Middlewares/ST/STM32_USB_Device_Library/Core/Src/usbd_core.c ****     /* Set class as inactive */
 115:Middlewares/ST/STM32_USB_Device_Library/Core/Src/usbd_core.c ****     pdev->tclasslist[i].Active = 0;
 116:Middlewares/ST/STM32_USB_Device_Library/Core/Src/usbd_core.c ****     pdev->NumClasses = 0;
 117:Middlewares/ST/STM32_USB_Device_Library/Core/Src/usbd_core.c ****     pdev->classId = 0;
 118:Middlewares/ST/STM32_USB_Device_Library/Core/Src/usbd_core.c ****   }
 119:Middlewares/ST/STM32_USB_Device_Library/Core/Src/usbd_core.c **** #else
 120:Middlewares/ST/STM32_USB_Device_Library/Core/Src/usbd_core.c ****   /* Unlink previous class*/
 121:Middlewares/ST/STM32_USB_Device_Library/Core/Src/usbd_core.c ****   pdev->pClass[0] = NULL;
  43              		.loc 1 121 3 is_stmt 1 view .LVU5
  44              		.loc 1 121 19 is_stmt 0 view .LVU6
  45 0006 0020     		movs	r0, #0
  46              	.LVL1:
  47              		.loc 1 121 19 view .LVU7
  48 0008 C3F8B802 		str	r0, [r3, #696]
 122:Middlewares/ST/STM32_USB_Device_Library/Core/Src/usbd_core.c ****   pdev->pUserData[0] = NULL;
  49              		.loc 1 122 3 is_stmt 1 view .LVU8
ARM GAS  C:\Users\aticl\AppData\Local\Temp\ccHflrtd.s 			page 4


  50              		.loc 1 122 22 is_stmt 0 view .LVU9
  51 000c C3F8C402 		str	r0, [r3, #708]
 123:Middlewares/ST/STM32_USB_Device_Library/Core/Src/usbd_core.c **** #endif /* USE_USBD_COMPOSITE */
 124:Middlewares/ST/STM32_USB_Device_Library/Core/Src/usbd_core.c **** 
 125:Middlewares/ST/STM32_USB_Device_Library/Core/Src/usbd_core.c ****   pdev->pConfDesc = NULL;
  52              		.loc 1 125 3 is_stmt 1 view .LVU10
  53              		.loc 1 125 19 is_stmt 0 view .LVU11
  54 0010 C3F8D002 		str	r0, [r3, #720]
 126:Middlewares/ST/STM32_USB_Device_Library/Core/Src/usbd_core.c **** 
 127:Middlewares/ST/STM32_USB_Device_Library/Core/Src/usbd_core.c ****   /* Assign USBD Descriptors */
 128:Middlewares/ST/STM32_USB_Device_Library/Core/Src/usbd_core.c ****   if (pdesc != NULL)
  55              		.loc 1 128 3 is_stmt 1 view .LVU12
  56              		.loc 1 128 6 is_stmt 0 view .LVU13
  57 0014 09B1     		cbz	r1, .L3
 129:Middlewares/ST/STM32_USB_Device_Library/Core/Src/usbd_core.c ****   {
 130:Middlewares/ST/STM32_USB_Device_Library/Core/Src/usbd_core.c ****     pdev->pDesc = pdesc;
  58              		.loc 1 130 5 is_stmt 1 view .LVU14
  59              		.loc 1 130 17 is_stmt 0 view .LVU15
  60 0016 C3F8B412 		str	r1, [r3, #692]
  61              	.L3:
 131:Middlewares/ST/STM32_USB_Device_Library/Core/Src/usbd_core.c ****   }
 132:Middlewares/ST/STM32_USB_Device_Library/Core/Src/usbd_core.c **** 
 133:Middlewares/ST/STM32_USB_Device_Library/Core/Src/usbd_core.c ****   /* Set Device initial State */
 134:Middlewares/ST/STM32_USB_Device_Library/Core/Src/usbd_core.c ****   pdev->dev_state = USBD_STATE_DEFAULT;
  62              		.loc 1 134 3 is_stmt 1 view .LVU16
  63              		.loc 1 134 19 is_stmt 0 view .LVU17
  64 001a 0121     		movs	r1, #1
  65              	.LVL2:
  66              		.loc 1 134 19 view .LVU18
  67 001c 83F89C12 		strb	r1, [r3, #668]
 135:Middlewares/ST/STM32_USB_Device_Library/Core/Src/usbd_core.c ****   pdev->id = id;
  68              		.loc 1 135 3 is_stmt 1 view .LVU19
  69              		.loc 1 135 12 is_stmt 0 view .LVU20
  70 0020 1A70     		strb	r2, [r3]
 136:Middlewares/ST/STM32_USB_Device_Library/Core/Src/usbd_core.c **** 
 137:Middlewares/ST/STM32_USB_Device_Library/Core/Src/usbd_core.c ****   /* Initialize low level driver */
 138:Middlewares/ST/STM32_USB_Device_Library/Core/Src/usbd_core.c ****   ret = USBD_LL_Init(pdev);
  71              		.loc 1 138 3 is_stmt 1 view .LVU21
  72              		.loc 1 138 9 is_stmt 0 view .LVU22
  73 0022 1846     		mov	r0, r3
  74 0024 FFF7FEFF 		bl	USBD_LL_Init
  75              	.LVL3:
 139:Middlewares/ST/STM32_USB_Device_Library/Core/Src/usbd_core.c **** 
 140:Middlewares/ST/STM32_USB_Device_Library/Core/Src/usbd_core.c ****   return ret;
  76              		.loc 1 140 3 is_stmt 1 view .LVU23
 141:Middlewares/ST/STM32_USB_Device_Library/Core/Src/usbd_core.c **** }
  77              		.loc 1 141 1 is_stmt 0 view .LVU24
  78 0028 08BD     		pop	{r3, pc}
  79              	.LVL4:
  80              	.L4:
  81              		.cfi_def_cfa_offset 0
  82              		.cfi_restore 3
  83              		.cfi_restore 14
 103:Middlewares/ST/STM32_USB_Device_Library/Core/Src/usbd_core.c ****   }
  84              		.loc 1 103 12 view .LVU25
  85 002a 0320     		movs	r0, #3
  86              	.LVL5:
ARM GAS  C:\Users\aticl\AppData\Local\Temp\ccHflrtd.s 			page 5


  87              		.loc 1 141 1 view .LVU26
  88 002c 7047     		bx	lr
  89              		.cfi_endproc
  90              	.LFE148:
  92              		.section	.text.USBD_DeInit,"ax",%progbits
  93              		.align	1
  94              		.global	USBD_DeInit
  95              		.syntax unified
  96              		.thumb
  97              		.thumb_func
  99              	USBD_DeInit:
 100              	.LVL6:
 101              	.LFB149:
 142:Middlewares/ST/STM32_USB_Device_Library/Core/Src/usbd_core.c **** 
 143:Middlewares/ST/STM32_USB_Device_Library/Core/Src/usbd_core.c **** /**
 144:Middlewares/ST/STM32_USB_Device_Library/Core/Src/usbd_core.c ****   * @brief  USBD_DeInit
 145:Middlewares/ST/STM32_USB_Device_Library/Core/Src/usbd_core.c ****   *         De-Initialize the device library
 146:Middlewares/ST/STM32_USB_Device_Library/Core/Src/usbd_core.c ****   * @param  pdev: device instance
 147:Middlewares/ST/STM32_USB_Device_Library/Core/Src/usbd_core.c ****   * @retval status: USBD Status
 148:Middlewares/ST/STM32_USB_Device_Library/Core/Src/usbd_core.c ****   */
 149:Middlewares/ST/STM32_USB_Device_Library/Core/Src/usbd_core.c **** USBD_StatusTypeDef USBD_DeInit(USBD_HandleTypeDef *pdev)
 150:Middlewares/ST/STM32_USB_Device_Library/Core/Src/usbd_core.c **** {
 102              		.loc 1 150 1 is_stmt 1 view -0
 103              		.cfi_startproc
 104              		@ args = 0, pretend = 0, frame = 0
 105              		@ frame_needed = 0, uses_anonymous_args = 0
 106              		.loc 1 150 1 is_stmt 0 view .LVU28
 107 0000 10B5     		push	{r4, lr}
 108              		.cfi_def_cfa_offset 8
 109              		.cfi_offset 4, -8
 110              		.cfi_offset 14, -4
 111 0002 0446     		mov	r4, r0
 151:Middlewares/ST/STM32_USB_Device_Library/Core/Src/usbd_core.c ****   USBD_StatusTypeDef ret;
 112              		.loc 1 151 3 is_stmt 1 view .LVU29
 152:Middlewares/ST/STM32_USB_Device_Library/Core/Src/usbd_core.c **** 
 153:Middlewares/ST/STM32_USB_Device_Library/Core/Src/usbd_core.c ****   /* Disconnect the USB Device */
 154:Middlewares/ST/STM32_USB_Device_Library/Core/Src/usbd_core.c ****   (void)USBD_LL_Stop(pdev);
 113              		.loc 1 154 3 view .LVU30
 114              		.loc 1 154 9 is_stmt 0 view .LVU31
 115 0004 FFF7FEFF 		bl	USBD_LL_Stop
 116              	.LVL7:
 155:Middlewares/ST/STM32_USB_Device_Library/Core/Src/usbd_core.c **** 
 156:Middlewares/ST/STM32_USB_Device_Library/Core/Src/usbd_core.c ****   /* Set Default State */
 157:Middlewares/ST/STM32_USB_Device_Library/Core/Src/usbd_core.c ****   pdev->dev_state = USBD_STATE_DEFAULT;
 117              		.loc 1 157 3 is_stmt 1 view .LVU32
 118              		.loc 1 157 19 is_stmt 0 view .LVU33
 119 0008 0123     		movs	r3, #1
 120 000a 84F89C32 		strb	r3, [r4, #668]
 158:Middlewares/ST/STM32_USB_Device_Library/Core/Src/usbd_core.c **** 
 159:Middlewares/ST/STM32_USB_Device_Library/Core/Src/usbd_core.c **** #ifdef USE_USBD_COMPOSITE
 160:Middlewares/ST/STM32_USB_Device_Library/Core/Src/usbd_core.c ****   /* Parse the table of classes in use */
 161:Middlewares/ST/STM32_USB_Device_Library/Core/Src/usbd_core.c ****   for (uint32_t i = 0; i < USBD_MAX_SUPPORTED_CLASS; i++)
 162:Middlewares/ST/STM32_USB_Device_Library/Core/Src/usbd_core.c ****   {
 163:Middlewares/ST/STM32_USB_Device_Library/Core/Src/usbd_core.c ****     /* Check if current class is in use */
 164:Middlewares/ST/STM32_USB_Device_Library/Core/Src/usbd_core.c ****     if ((pdev->tclasslist[i].Active) == 1U)
 165:Middlewares/ST/STM32_USB_Device_Library/Core/Src/usbd_core.c ****     {
 166:Middlewares/ST/STM32_USB_Device_Library/Core/Src/usbd_core.c ****       if (pdev->pClass[i] != NULL)
ARM GAS  C:\Users\aticl\AppData\Local\Temp\ccHflrtd.s 			page 6


 167:Middlewares/ST/STM32_USB_Device_Library/Core/Src/usbd_core.c ****       {
 168:Middlewares/ST/STM32_USB_Device_Library/Core/Src/usbd_core.c ****         pdev->classId = i;
 169:Middlewares/ST/STM32_USB_Device_Library/Core/Src/usbd_core.c ****         /* Free Class Resources */
 170:Middlewares/ST/STM32_USB_Device_Library/Core/Src/usbd_core.c ****         pdev->pClass[i]->DeInit(pdev, (uint8_t)pdev->dev_config);
 171:Middlewares/ST/STM32_USB_Device_Library/Core/Src/usbd_core.c ****       }
 172:Middlewares/ST/STM32_USB_Device_Library/Core/Src/usbd_core.c ****     }
 173:Middlewares/ST/STM32_USB_Device_Library/Core/Src/usbd_core.c ****   }
 174:Middlewares/ST/STM32_USB_Device_Library/Core/Src/usbd_core.c **** #else
 175:Middlewares/ST/STM32_USB_Device_Library/Core/Src/usbd_core.c ****   /* Free Class Resources */
 176:Middlewares/ST/STM32_USB_Device_Library/Core/Src/usbd_core.c ****   if (pdev->pClass[0] != NULL)
 121              		.loc 1 176 3 is_stmt 1 view .LVU34
 122              		.loc 1 176 19 is_stmt 0 view .LVU35
 123 000e D4F8B832 		ldr	r3, [r4, #696]
 124              		.loc 1 176 6 view .LVU36
 125 0012 1BB1     		cbz	r3, .L10
 177:Middlewares/ST/STM32_USB_Device_Library/Core/Src/usbd_core.c ****   {
 178:Middlewares/ST/STM32_USB_Device_Library/Core/Src/usbd_core.c ****     pdev->pClass[0]->DeInit(pdev, (uint8_t)pdev->dev_config);
 126              		.loc 1 178 5 is_stmt 1 view .LVU37
 127              		.loc 1 178 20 is_stmt 0 view .LVU38
 128 0014 5B68     		ldr	r3, [r3, #4]
 129              		.loc 1 178 5 view .LVU39
 130 0016 2179     		ldrb	r1, [r4, #4]	@ zero_extendqisi2
 131 0018 2046     		mov	r0, r4
 132 001a 9847     		blx	r3
 133              	.LVL8:
 134              	.L10:
 179:Middlewares/ST/STM32_USB_Device_Library/Core/Src/usbd_core.c ****   }
 180:Middlewares/ST/STM32_USB_Device_Library/Core/Src/usbd_core.c **** 
 181:Middlewares/ST/STM32_USB_Device_Library/Core/Src/usbd_core.c ****   pdev->pUserData[0] = NULL;
 135              		.loc 1 181 3 is_stmt 1 view .LVU40
 136              		.loc 1 181 22 is_stmt 0 view .LVU41
 137 001c 0023     		movs	r3, #0
 138 001e C4F8C432 		str	r3, [r4, #708]
 182:Middlewares/ST/STM32_USB_Device_Library/Core/Src/usbd_core.c **** 
 183:Middlewares/ST/STM32_USB_Device_Library/Core/Src/usbd_core.c **** #endif /* USE_USBD_COMPOSITE */
 184:Middlewares/ST/STM32_USB_Device_Library/Core/Src/usbd_core.c **** 
 185:Middlewares/ST/STM32_USB_Device_Library/Core/Src/usbd_core.c ****   /* Free Device descriptors resources */
 186:Middlewares/ST/STM32_USB_Device_Library/Core/Src/usbd_core.c ****   pdev->pDesc = NULL;
 139              		.loc 1 186 3 is_stmt 1 view .LVU42
 140              		.loc 1 186 15 is_stmt 0 view .LVU43
 141 0022 C4F8B432 		str	r3, [r4, #692]
 187:Middlewares/ST/STM32_USB_Device_Library/Core/Src/usbd_core.c ****   pdev->pConfDesc = NULL;
 142              		.loc 1 187 3 is_stmt 1 view .LVU44
 143              		.loc 1 187 19 is_stmt 0 view .LVU45
 144 0026 C4F8D032 		str	r3, [r4, #720]
 188:Middlewares/ST/STM32_USB_Device_Library/Core/Src/usbd_core.c **** 
 189:Middlewares/ST/STM32_USB_Device_Library/Core/Src/usbd_core.c ****   /* DeInitialize low level driver */
 190:Middlewares/ST/STM32_USB_Device_Library/Core/Src/usbd_core.c ****   ret = USBD_LL_DeInit(pdev);
 145              		.loc 1 190 3 is_stmt 1 view .LVU46
 146              		.loc 1 190 9 is_stmt 0 view .LVU47
 147 002a 2046     		mov	r0, r4
 148 002c FFF7FEFF 		bl	USBD_LL_DeInit
 149              	.LVL9:
 191:Middlewares/ST/STM32_USB_Device_Library/Core/Src/usbd_core.c **** 
 192:Middlewares/ST/STM32_USB_Device_Library/Core/Src/usbd_core.c ****   return ret;
 150              		.loc 1 192 3 is_stmt 1 view .LVU48
 193:Middlewares/ST/STM32_USB_Device_Library/Core/Src/usbd_core.c **** }
ARM GAS  C:\Users\aticl\AppData\Local\Temp\ccHflrtd.s 			page 7


 151              		.loc 1 193 1 is_stmt 0 view .LVU49
 152 0030 10BD     		pop	{r4, pc}
 153              		.loc 1 193 1 view .LVU50
 154              		.cfi_endproc
 155              	.LFE149:
 157              		.section	.text.USBD_RegisterClass,"ax",%progbits
 158              		.align	1
 159              		.global	USBD_RegisterClass
 160              		.syntax unified
 161              		.thumb
 162              		.thumb_func
 164              	USBD_RegisterClass:
 165              	.LVL10:
 166              	.LFB150:
 194:Middlewares/ST/STM32_USB_Device_Library/Core/Src/usbd_core.c **** 
 195:Middlewares/ST/STM32_USB_Device_Library/Core/Src/usbd_core.c **** /**
 196:Middlewares/ST/STM32_USB_Device_Library/Core/Src/usbd_core.c ****   * @brief  USBD_RegisterClass
 197:Middlewares/ST/STM32_USB_Device_Library/Core/Src/usbd_core.c ****   *         Link class driver to Device Core.
 198:Middlewares/ST/STM32_USB_Device_Library/Core/Src/usbd_core.c ****   * @param  pdev: Device Handle
 199:Middlewares/ST/STM32_USB_Device_Library/Core/Src/usbd_core.c ****   * @param  pclass: Class handle
 200:Middlewares/ST/STM32_USB_Device_Library/Core/Src/usbd_core.c ****   * @retval USBD Status
 201:Middlewares/ST/STM32_USB_Device_Library/Core/Src/usbd_core.c ****   */
 202:Middlewares/ST/STM32_USB_Device_Library/Core/Src/usbd_core.c **** USBD_StatusTypeDef USBD_RegisterClass(USBD_HandleTypeDef *pdev, USBD_ClassTypeDef *pclass)
 203:Middlewares/ST/STM32_USB_Device_Library/Core/Src/usbd_core.c **** {
 167              		.loc 1 203 1 is_stmt 1 view -0
 168              		.cfi_startproc
 169              		@ args = 0, pretend = 0, frame = 8
 170              		@ frame_needed = 0, uses_anonymous_args = 0
 171              		.loc 1 203 1 is_stmt 0 view .LVU52
 172 0000 10B5     		push	{r4, lr}
 173              		.cfi_def_cfa_offset 8
 174              		.cfi_offset 4, -8
 175              		.cfi_offset 14, -4
 176 0002 82B0     		sub	sp, sp, #8
 177              		.cfi_def_cfa_offset 16
 204:Middlewares/ST/STM32_USB_Device_Library/Core/Src/usbd_core.c ****   uint16_t len = 0U;
 178              		.loc 1 204 3 is_stmt 1 view .LVU53
 179              		.loc 1 204 12 is_stmt 0 view .LVU54
 180 0004 0023     		movs	r3, #0
 181 0006 ADF80630 		strh	r3, [sp, #6]	@ movhi
 205:Middlewares/ST/STM32_USB_Device_Library/Core/Src/usbd_core.c **** 
 206:Middlewares/ST/STM32_USB_Device_Library/Core/Src/usbd_core.c ****   if (pclass == NULL)
 182              		.loc 1 206 3 is_stmt 1 view .LVU55
 183              		.loc 1 206 6 is_stmt 0 view .LVU56
 184 000a B9B1     		cbz	r1, .L15
 185 000c 0446     		mov	r4, r0
 207:Middlewares/ST/STM32_USB_Device_Library/Core/Src/usbd_core.c ****   {
 208:Middlewares/ST/STM32_USB_Device_Library/Core/Src/usbd_core.c **** #if (USBD_DEBUG_LEVEL > 1U)
 209:Middlewares/ST/STM32_USB_Device_Library/Core/Src/usbd_core.c ****     USBD_ErrLog("Invalid Class handle");
 210:Middlewares/ST/STM32_USB_Device_Library/Core/Src/usbd_core.c **** #endif /* (USBD_DEBUG_LEVEL > 1U) */
 211:Middlewares/ST/STM32_USB_Device_Library/Core/Src/usbd_core.c ****     return USBD_FAIL;
 212:Middlewares/ST/STM32_USB_Device_Library/Core/Src/usbd_core.c ****   }
 213:Middlewares/ST/STM32_USB_Device_Library/Core/Src/usbd_core.c **** 
 214:Middlewares/ST/STM32_USB_Device_Library/Core/Src/usbd_core.c ****   /* link the class to the USB Device handle */
 215:Middlewares/ST/STM32_USB_Device_Library/Core/Src/usbd_core.c ****   pdev->pClass[0] = pclass;
 186              		.loc 1 215 3 is_stmt 1 view .LVU57
 187              		.loc 1 215 19 is_stmt 0 view .LVU58
ARM GAS  C:\Users\aticl\AppData\Local\Temp\ccHflrtd.s 			page 8


 188 000e C0F8B812 		str	r1, [r0, #696]
 216:Middlewares/ST/STM32_USB_Device_Library/Core/Src/usbd_core.c **** 
 217:Middlewares/ST/STM32_USB_Device_Library/Core/Src/usbd_core.c ****   /* Get Device Configuration Descriptor */
 218:Middlewares/ST/STM32_USB_Device_Library/Core/Src/usbd_core.c **** #ifdef USE_USB_HS
 219:Middlewares/ST/STM32_USB_Device_Library/Core/Src/usbd_core.c ****   if (pdev->pClass[pdev->classId]->GetHSConfigDescriptor != NULL)
 220:Middlewares/ST/STM32_USB_Device_Library/Core/Src/usbd_core.c ****   {
 221:Middlewares/ST/STM32_USB_Device_Library/Core/Src/usbd_core.c ****     pdev->pConfDesc = (void *)pdev->pClass[pdev->classId]->GetHSConfigDescriptor(&len);
 222:Middlewares/ST/STM32_USB_Device_Library/Core/Src/usbd_core.c ****   }
 223:Middlewares/ST/STM32_USB_Device_Library/Core/Src/usbd_core.c **** #else /* Default USE_USB_FS */
 224:Middlewares/ST/STM32_USB_Device_Library/Core/Src/usbd_core.c ****   if (pdev->pClass[pdev->classId]->GetFSConfigDescriptor != NULL)
 189              		.loc 1 224 3 is_stmt 1 view .LVU59
 190              		.loc 1 224 24 is_stmt 0 view .LVU60
 191 0012 D0F8D422 		ldr	r2, [r0, #724]
 192              		.loc 1 224 34 view .LVU61
 193 0016 CB6A     		ldr	r3, [r1, #44]
 194              		.loc 1 224 6 view .LVU62
 195 0018 43B1     		cbz	r3, .L14
 225:Middlewares/ST/STM32_USB_Device_Library/Core/Src/usbd_core.c ****   {
 226:Middlewares/ST/STM32_USB_Device_Library/Core/Src/usbd_core.c ****     pdev->pConfDesc = (void *)pdev->pClass[pdev->classId]->GetFSConfigDescriptor(&len);
 196              		.loc 1 226 5 is_stmt 1 view .LVU63
 197              		.loc 1 226 43 is_stmt 0 view .LVU64
 198 001a AE32     		adds	r2, r2, #174
 199 001c 50F82230 		ldr	r3, [r0, r2, lsl #2]
 200              		.loc 1 226 58 view .LVU65
 201 0020 DB6A     		ldr	r3, [r3, #44]
 202              		.loc 1 226 31 view .LVU66
 203 0022 0DF10600 		add	r0, sp, #6
 204              	.LVL11:
 205              		.loc 1 226 31 view .LVU67
 206 0026 9847     		blx	r3
 207              	.LVL12:
 208              		.loc 1 226 21 discriminator 1 view .LVU68
 209 0028 C4F8D002 		str	r0, [r4, #720]
 210              	.L14:
 227:Middlewares/ST/STM32_USB_Device_Library/Core/Src/usbd_core.c ****   }
 228:Middlewares/ST/STM32_USB_Device_Library/Core/Src/usbd_core.c **** #endif /* USE_USB_FS */
 229:Middlewares/ST/STM32_USB_Device_Library/Core/Src/usbd_core.c **** 
 230:Middlewares/ST/STM32_USB_Device_Library/Core/Src/usbd_core.c ****   /* Increment the NumClasses */
 231:Middlewares/ST/STM32_USB_Device_Library/Core/Src/usbd_core.c ****   pdev->NumClasses++;
 211              		.loc 1 231 3 is_stmt 1 view .LVU69
 212              		.loc 1 231 7 is_stmt 0 view .LVU70
 213 002c D4F8D832 		ldr	r3, [r4, #728]
 214              		.loc 1 231 19 view .LVU71
 215 0030 0133     		adds	r3, r3, #1
 216 0032 C4F8D832 		str	r3, [r4, #728]
 232:Middlewares/ST/STM32_USB_Device_Library/Core/Src/usbd_core.c **** 
 233:Middlewares/ST/STM32_USB_Device_Library/Core/Src/usbd_core.c ****   return USBD_OK;
 217              		.loc 1 233 3 is_stmt 1 view .LVU72
 218              		.loc 1 233 10 is_stmt 0 view .LVU73
 219 0036 0020     		movs	r0, #0
 220              	.LVL13:
 221              	.L13:
 234:Middlewares/ST/STM32_USB_Device_Library/Core/Src/usbd_core.c **** }
 222              		.loc 1 234 1 view .LVU74
 223 0038 02B0     		add	sp, sp, #8
 224              		.cfi_remember_state
 225              		.cfi_def_cfa_offset 8
ARM GAS  C:\Users\aticl\AppData\Local\Temp\ccHflrtd.s 			page 9


 226              		@ sp needed
 227 003a 10BD     		pop	{r4, pc}
 228              	.LVL14:
 229              	.L15:
 230              		.cfi_restore_state
 211:Middlewares/ST/STM32_USB_Device_Library/Core/Src/usbd_core.c ****   }
 231              		.loc 1 211 12 view .LVU75
 232 003c 0320     		movs	r0, #3
 233              	.LVL15:
 211:Middlewares/ST/STM32_USB_Device_Library/Core/Src/usbd_core.c ****   }
 234              		.loc 1 211 12 view .LVU76
 235 003e FBE7     		b	.L13
 236              		.cfi_endproc
 237              	.LFE150:
 239              		.section	.text.USBD_Start,"ax",%progbits
 240              		.align	1
 241              		.global	USBD_Start
 242              		.syntax unified
 243              		.thumb
 244              		.thumb_func
 246              	USBD_Start:
 247              	.LVL16:
 248              	.LFB151:
 235:Middlewares/ST/STM32_USB_Device_Library/Core/Src/usbd_core.c **** 
 236:Middlewares/ST/STM32_USB_Device_Library/Core/Src/usbd_core.c **** #ifdef USE_USBD_COMPOSITE
 237:Middlewares/ST/STM32_USB_Device_Library/Core/Src/usbd_core.c **** /**
 238:Middlewares/ST/STM32_USB_Device_Library/Core/Src/usbd_core.c ****   * @brief  USBD_RegisterClassComposite
 239:Middlewares/ST/STM32_USB_Device_Library/Core/Src/usbd_core.c ****   *         Link class driver to Device Core.
 240:Middlewares/ST/STM32_USB_Device_Library/Core/Src/usbd_core.c ****   * @param  pdev : Device Handle
 241:Middlewares/ST/STM32_USB_Device_Library/Core/Src/usbd_core.c ****   * @param  pclass: Class handle
 242:Middlewares/ST/STM32_USB_Device_Library/Core/Src/usbd_core.c ****   * @param  classtype: Class type
 243:Middlewares/ST/STM32_USB_Device_Library/Core/Src/usbd_core.c ****   * @param  EpAddr: Endpoint Address handle
 244:Middlewares/ST/STM32_USB_Device_Library/Core/Src/usbd_core.c ****   * @retval USBD Status
 245:Middlewares/ST/STM32_USB_Device_Library/Core/Src/usbd_core.c ****   */
 246:Middlewares/ST/STM32_USB_Device_Library/Core/Src/usbd_core.c **** USBD_StatusTypeDef USBD_RegisterClassComposite(USBD_HandleTypeDef *pdev, USBD_ClassTypeDef *pclass,
 247:Middlewares/ST/STM32_USB_Device_Library/Core/Src/usbd_core.c ****                                                USBD_CompositeClassTypeDef classtype, uint8_t *EpAdd
 248:Middlewares/ST/STM32_USB_Device_Library/Core/Src/usbd_core.c **** {
 249:Middlewares/ST/STM32_USB_Device_Library/Core/Src/usbd_core.c ****   USBD_StatusTypeDef ret = USBD_OK;
 250:Middlewares/ST/STM32_USB_Device_Library/Core/Src/usbd_core.c ****   uint16_t len = 0U;
 251:Middlewares/ST/STM32_USB_Device_Library/Core/Src/usbd_core.c **** 
 252:Middlewares/ST/STM32_USB_Device_Library/Core/Src/usbd_core.c ****   if ((pdev->classId < USBD_MAX_SUPPORTED_CLASS) && (pdev->NumClasses < USBD_MAX_SUPPORTED_CLASS))
 253:Middlewares/ST/STM32_USB_Device_Library/Core/Src/usbd_core.c ****   {
 254:Middlewares/ST/STM32_USB_Device_Library/Core/Src/usbd_core.c ****     if ((uint32_t)pclass != 0U)
 255:Middlewares/ST/STM32_USB_Device_Library/Core/Src/usbd_core.c ****     {
 256:Middlewares/ST/STM32_USB_Device_Library/Core/Src/usbd_core.c ****       /* Link the class to the USB Device handle */
 257:Middlewares/ST/STM32_USB_Device_Library/Core/Src/usbd_core.c ****       pdev->pClass[pdev->classId] = pclass;
 258:Middlewares/ST/STM32_USB_Device_Library/Core/Src/usbd_core.c ****       ret = USBD_OK;
 259:Middlewares/ST/STM32_USB_Device_Library/Core/Src/usbd_core.c **** 
 260:Middlewares/ST/STM32_USB_Device_Library/Core/Src/usbd_core.c ****       pdev->tclasslist[pdev->classId].EpAdd = EpAddr;
 261:Middlewares/ST/STM32_USB_Device_Library/Core/Src/usbd_core.c **** 
 262:Middlewares/ST/STM32_USB_Device_Library/Core/Src/usbd_core.c ****       /* Call the composite class builder */
 263:Middlewares/ST/STM32_USB_Device_Library/Core/Src/usbd_core.c ****       (void)USBD_CMPSIT_AddClass(pdev, pclass, classtype, 0);
 264:Middlewares/ST/STM32_USB_Device_Library/Core/Src/usbd_core.c **** 
 265:Middlewares/ST/STM32_USB_Device_Library/Core/Src/usbd_core.c ****       /* Increment the ClassId for the next occurrence */
 266:Middlewares/ST/STM32_USB_Device_Library/Core/Src/usbd_core.c ****       pdev->classId ++;
 267:Middlewares/ST/STM32_USB_Device_Library/Core/Src/usbd_core.c ****       pdev->NumClasses ++;
 268:Middlewares/ST/STM32_USB_Device_Library/Core/Src/usbd_core.c ****     }
ARM GAS  C:\Users\aticl\AppData\Local\Temp\ccHflrtd.s 			page 10


 269:Middlewares/ST/STM32_USB_Device_Library/Core/Src/usbd_core.c ****     else
 270:Middlewares/ST/STM32_USB_Device_Library/Core/Src/usbd_core.c ****     {
 271:Middlewares/ST/STM32_USB_Device_Library/Core/Src/usbd_core.c **** #if (USBD_DEBUG_LEVEL > 1U)
 272:Middlewares/ST/STM32_USB_Device_Library/Core/Src/usbd_core.c ****       USBD_ErrLog("Invalid Class handle");
 273:Middlewares/ST/STM32_USB_Device_Library/Core/Src/usbd_core.c **** #endif /* (USBD_DEBUG_LEVEL > 1U) */
 274:Middlewares/ST/STM32_USB_Device_Library/Core/Src/usbd_core.c ****       ret = USBD_FAIL;
 275:Middlewares/ST/STM32_USB_Device_Library/Core/Src/usbd_core.c ****     }
 276:Middlewares/ST/STM32_USB_Device_Library/Core/Src/usbd_core.c ****   }
 277:Middlewares/ST/STM32_USB_Device_Library/Core/Src/usbd_core.c **** 
 278:Middlewares/ST/STM32_USB_Device_Library/Core/Src/usbd_core.c ****   if (ret == USBD_OK)
 279:Middlewares/ST/STM32_USB_Device_Library/Core/Src/usbd_core.c ****   {
 280:Middlewares/ST/STM32_USB_Device_Library/Core/Src/usbd_core.c ****     /* Get Device Configuration Descriptor */
 281:Middlewares/ST/STM32_USB_Device_Library/Core/Src/usbd_core.c **** #ifdef USE_USB_HS
 282:Middlewares/ST/STM32_USB_Device_Library/Core/Src/usbd_core.c ****     pdev->pConfDesc = USBD_CMPSIT.GetHSConfigDescriptor(&len);
 283:Middlewares/ST/STM32_USB_Device_Library/Core/Src/usbd_core.c **** #else /* Default USE_USB_FS */
 284:Middlewares/ST/STM32_USB_Device_Library/Core/Src/usbd_core.c ****     pdev->pConfDesc = USBD_CMPSIT.GetFSConfigDescriptor(&len);
 285:Middlewares/ST/STM32_USB_Device_Library/Core/Src/usbd_core.c **** #endif /* USE_USB_FS */
 286:Middlewares/ST/STM32_USB_Device_Library/Core/Src/usbd_core.c ****   }
 287:Middlewares/ST/STM32_USB_Device_Library/Core/Src/usbd_core.c **** 
 288:Middlewares/ST/STM32_USB_Device_Library/Core/Src/usbd_core.c ****   return ret;
 289:Middlewares/ST/STM32_USB_Device_Library/Core/Src/usbd_core.c **** }
 290:Middlewares/ST/STM32_USB_Device_Library/Core/Src/usbd_core.c **** 
 291:Middlewares/ST/STM32_USB_Device_Library/Core/Src/usbd_core.c **** /**
 292:Middlewares/ST/STM32_USB_Device_Library/Core/Src/usbd_core.c ****   * @brief  USBD_UnRegisterClassComposite
 293:Middlewares/ST/STM32_USB_Device_Library/Core/Src/usbd_core.c ****   *         UnLink all composite class drivers from Device Core.
 294:Middlewares/ST/STM32_USB_Device_Library/Core/Src/usbd_core.c ****   * @param  pdev: Device Handle
 295:Middlewares/ST/STM32_USB_Device_Library/Core/Src/usbd_core.c ****   * @retval USBD Status
 296:Middlewares/ST/STM32_USB_Device_Library/Core/Src/usbd_core.c ****   */
 297:Middlewares/ST/STM32_USB_Device_Library/Core/Src/usbd_core.c **** USBD_StatusTypeDef  USBD_UnRegisterClassComposite(USBD_HandleTypeDef *pdev)
 298:Middlewares/ST/STM32_USB_Device_Library/Core/Src/usbd_core.c **** {
 299:Middlewares/ST/STM32_USB_Device_Library/Core/Src/usbd_core.c ****   USBD_StatusTypeDef   ret = USBD_FAIL;
 300:Middlewares/ST/STM32_USB_Device_Library/Core/Src/usbd_core.c ****   uint8_t idx1;
 301:Middlewares/ST/STM32_USB_Device_Library/Core/Src/usbd_core.c ****   uint8_t idx2;
 302:Middlewares/ST/STM32_USB_Device_Library/Core/Src/usbd_core.c **** 
 303:Middlewares/ST/STM32_USB_Device_Library/Core/Src/usbd_core.c ****   /* Unroll all activated classes */
 304:Middlewares/ST/STM32_USB_Device_Library/Core/Src/usbd_core.c ****   for (idx1 = 0; idx1 < pdev->NumClasses; idx1++)
 305:Middlewares/ST/STM32_USB_Device_Library/Core/Src/usbd_core.c ****   {
 306:Middlewares/ST/STM32_USB_Device_Library/Core/Src/usbd_core.c ****     /* Check if the class correspond to the requested type and if it is active */
 307:Middlewares/ST/STM32_USB_Device_Library/Core/Src/usbd_core.c ****     if (pdev->tclasslist[idx1].Active == 1U)
 308:Middlewares/ST/STM32_USB_Device_Library/Core/Src/usbd_core.c ****     {
 309:Middlewares/ST/STM32_USB_Device_Library/Core/Src/usbd_core.c ****       /* Set the new class ID */
 310:Middlewares/ST/STM32_USB_Device_Library/Core/Src/usbd_core.c ****       pdev->classId = idx1;
 311:Middlewares/ST/STM32_USB_Device_Library/Core/Src/usbd_core.c **** 
 312:Middlewares/ST/STM32_USB_Device_Library/Core/Src/usbd_core.c ****       /* Free resources used by the selected class */
 313:Middlewares/ST/STM32_USB_Device_Library/Core/Src/usbd_core.c ****       if (pdev->pClass[pdev->classId] != NULL)
 314:Middlewares/ST/STM32_USB_Device_Library/Core/Src/usbd_core.c ****       {
 315:Middlewares/ST/STM32_USB_Device_Library/Core/Src/usbd_core.c ****         /* Free Class Resources */
 316:Middlewares/ST/STM32_USB_Device_Library/Core/Src/usbd_core.c ****         if (pdev->pClass[pdev->classId]->DeInit(pdev, (uint8_t)pdev->dev_config) != 0U)
 317:Middlewares/ST/STM32_USB_Device_Library/Core/Src/usbd_core.c ****         {
 318:Middlewares/ST/STM32_USB_Device_Library/Core/Src/usbd_core.c **** #if (USBD_DEBUG_LEVEL > 1U)
 319:Middlewares/ST/STM32_USB_Device_Library/Core/Src/usbd_core.c ****           USBD_ErrLog("Class DeInit didn't succeed!, can't unregister selected class");
 320:Middlewares/ST/STM32_USB_Device_Library/Core/Src/usbd_core.c **** #endif /* (USBD_DEBUG_LEVEL > 1U) */
 321:Middlewares/ST/STM32_USB_Device_Library/Core/Src/usbd_core.c **** 
 322:Middlewares/ST/STM32_USB_Device_Library/Core/Src/usbd_core.c ****           ret = USBD_FAIL;
 323:Middlewares/ST/STM32_USB_Device_Library/Core/Src/usbd_core.c ****         }
 324:Middlewares/ST/STM32_USB_Device_Library/Core/Src/usbd_core.c ****       }
 325:Middlewares/ST/STM32_USB_Device_Library/Core/Src/usbd_core.c **** 
ARM GAS  C:\Users\aticl\AppData\Local\Temp\ccHflrtd.s 			page 11


 326:Middlewares/ST/STM32_USB_Device_Library/Core/Src/usbd_core.c ****       /* Free the class pointer */
 327:Middlewares/ST/STM32_USB_Device_Library/Core/Src/usbd_core.c ****       pdev->pClass[pdev->classId] = NULL;
 328:Middlewares/ST/STM32_USB_Device_Library/Core/Src/usbd_core.c **** 
 329:Middlewares/ST/STM32_USB_Device_Library/Core/Src/usbd_core.c ****       /* Free the class location in classes table and reset its parameters to zero */
 330:Middlewares/ST/STM32_USB_Device_Library/Core/Src/usbd_core.c ****       pdev->tclasslist[pdev->classId].ClassType = CLASS_TYPE_NONE;
 331:Middlewares/ST/STM32_USB_Device_Library/Core/Src/usbd_core.c ****       pdev->tclasslist[pdev->classId].ClassId = 0U;
 332:Middlewares/ST/STM32_USB_Device_Library/Core/Src/usbd_core.c ****       pdev->tclasslist[pdev->classId].Active = 0U;
 333:Middlewares/ST/STM32_USB_Device_Library/Core/Src/usbd_core.c ****       pdev->tclasslist[pdev->classId].NumEps = 0U;
 334:Middlewares/ST/STM32_USB_Device_Library/Core/Src/usbd_core.c ****       pdev->tclasslist[pdev->classId].NumIf = 0U;
 335:Middlewares/ST/STM32_USB_Device_Library/Core/Src/usbd_core.c ****       pdev->tclasslist[pdev->classId].CurrPcktSze = 0U;
 336:Middlewares/ST/STM32_USB_Device_Library/Core/Src/usbd_core.c **** 
 337:Middlewares/ST/STM32_USB_Device_Library/Core/Src/usbd_core.c ****       for (idx2 = 0U; idx2 < USBD_MAX_CLASS_ENDPOINTS; idx2++)
 338:Middlewares/ST/STM32_USB_Device_Library/Core/Src/usbd_core.c ****       {
 339:Middlewares/ST/STM32_USB_Device_Library/Core/Src/usbd_core.c ****         pdev->tclasslist[pdev->classId].Eps[idx2].add = 0U;
 340:Middlewares/ST/STM32_USB_Device_Library/Core/Src/usbd_core.c ****         pdev->tclasslist[pdev->classId].Eps[idx2].type = 0U;
 341:Middlewares/ST/STM32_USB_Device_Library/Core/Src/usbd_core.c ****         pdev->tclasslist[pdev->classId].Eps[idx2].size = 0U;
 342:Middlewares/ST/STM32_USB_Device_Library/Core/Src/usbd_core.c ****         pdev->tclasslist[pdev->classId].Eps[idx2].is_used = 0U;
 343:Middlewares/ST/STM32_USB_Device_Library/Core/Src/usbd_core.c ****       }
 344:Middlewares/ST/STM32_USB_Device_Library/Core/Src/usbd_core.c **** 
 345:Middlewares/ST/STM32_USB_Device_Library/Core/Src/usbd_core.c ****       for (idx2 = 0U; idx2 < USBD_MAX_CLASS_INTERFACES; idx2++)
 346:Middlewares/ST/STM32_USB_Device_Library/Core/Src/usbd_core.c ****       {
 347:Middlewares/ST/STM32_USB_Device_Library/Core/Src/usbd_core.c ****         pdev->tclasslist[pdev->classId].Ifs[idx2] = 0U;
 348:Middlewares/ST/STM32_USB_Device_Library/Core/Src/usbd_core.c ****       }
 349:Middlewares/ST/STM32_USB_Device_Library/Core/Src/usbd_core.c ****     }
 350:Middlewares/ST/STM32_USB_Device_Library/Core/Src/usbd_core.c ****   }
 351:Middlewares/ST/STM32_USB_Device_Library/Core/Src/usbd_core.c **** 
 352:Middlewares/ST/STM32_USB_Device_Library/Core/Src/usbd_core.c ****   /* Reset the configuration descriptor */
 353:Middlewares/ST/STM32_USB_Device_Library/Core/Src/usbd_core.c ****   (void)USBD_CMPST_ClearConfDesc(pdev);
 354:Middlewares/ST/STM32_USB_Device_Library/Core/Src/usbd_core.c **** 
 355:Middlewares/ST/STM32_USB_Device_Library/Core/Src/usbd_core.c ****   /* Reset the class ID and number of classes */
 356:Middlewares/ST/STM32_USB_Device_Library/Core/Src/usbd_core.c ****   pdev->classId = 0U;
 357:Middlewares/ST/STM32_USB_Device_Library/Core/Src/usbd_core.c ****   pdev->NumClasses = 0U;
 358:Middlewares/ST/STM32_USB_Device_Library/Core/Src/usbd_core.c **** 
 359:Middlewares/ST/STM32_USB_Device_Library/Core/Src/usbd_core.c ****   return ret;
 360:Middlewares/ST/STM32_USB_Device_Library/Core/Src/usbd_core.c **** }
 361:Middlewares/ST/STM32_USB_Device_Library/Core/Src/usbd_core.c **** #endif /* USE_USBD_COMPOSITE */
 362:Middlewares/ST/STM32_USB_Device_Library/Core/Src/usbd_core.c **** 
 363:Middlewares/ST/STM32_USB_Device_Library/Core/Src/usbd_core.c **** #if (USBD_USER_REGISTER_CALLBACK == 1U)
 364:Middlewares/ST/STM32_USB_Device_Library/Core/Src/usbd_core.c **** /**
 365:Middlewares/ST/STM32_USB_Device_Library/Core/Src/usbd_core.c ****   * @brief  USBD_RegisterDevStateCallback
 366:Middlewares/ST/STM32_USB_Device_Library/Core/Src/usbd_core.c ****   * @param  pdev : Device Handle
 367:Middlewares/ST/STM32_USB_Device_Library/Core/Src/usbd_core.c ****   * @param  pUserCallback: User Callback
 368:Middlewares/ST/STM32_USB_Device_Library/Core/Src/usbd_core.c ****   * @retval USBD Status
 369:Middlewares/ST/STM32_USB_Device_Library/Core/Src/usbd_core.c ****   */
 370:Middlewares/ST/STM32_USB_Device_Library/Core/Src/usbd_core.c **** USBD_StatusTypeDef USBD_RegisterDevStateCallback(USBD_HandleTypeDef *pdev, USBD_DevStateCallbackTyp
 371:Middlewares/ST/STM32_USB_Device_Library/Core/Src/usbd_core.c **** {
 372:Middlewares/ST/STM32_USB_Device_Library/Core/Src/usbd_core.c ****   pdev->DevStateCallback = pUserCallback;
 373:Middlewares/ST/STM32_USB_Device_Library/Core/Src/usbd_core.c **** 
 374:Middlewares/ST/STM32_USB_Device_Library/Core/Src/usbd_core.c ****   return USBD_OK;
 375:Middlewares/ST/STM32_USB_Device_Library/Core/Src/usbd_core.c **** }
 376:Middlewares/ST/STM32_USB_Device_Library/Core/Src/usbd_core.c **** #endif /* USBD_USER_REGISTER_CALLBACK */
 377:Middlewares/ST/STM32_USB_Device_Library/Core/Src/usbd_core.c **** 
 378:Middlewares/ST/STM32_USB_Device_Library/Core/Src/usbd_core.c **** /**
 379:Middlewares/ST/STM32_USB_Device_Library/Core/Src/usbd_core.c ****   * @brief  USBD_Start
 380:Middlewares/ST/STM32_USB_Device_Library/Core/Src/usbd_core.c ****   *         Start the USB Device Core.
 381:Middlewares/ST/STM32_USB_Device_Library/Core/Src/usbd_core.c ****   * @param  pdev: Device Handle
 382:Middlewares/ST/STM32_USB_Device_Library/Core/Src/usbd_core.c ****   * @retval USBD Status
ARM GAS  C:\Users\aticl\AppData\Local\Temp\ccHflrtd.s 			page 12


 383:Middlewares/ST/STM32_USB_Device_Library/Core/Src/usbd_core.c ****   */
 384:Middlewares/ST/STM32_USB_Device_Library/Core/Src/usbd_core.c **** USBD_StatusTypeDef USBD_Start(USBD_HandleTypeDef *pdev)
 385:Middlewares/ST/STM32_USB_Device_Library/Core/Src/usbd_core.c **** {
 249              		.loc 1 385 1 is_stmt 1 view -0
 250              		.cfi_startproc
 251              		@ args = 0, pretend = 0, frame = 0
 252              		@ frame_needed = 0, uses_anonymous_args = 0
 253              		.loc 1 385 1 is_stmt 0 view .LVU78
 254 0000 08B5     		push	{r3, lr}
 255              		.cfi_def_cfa_offset 8
 256              		.cfi_offset 3, -8
 257              		.cfi_offset 14, -4
 386:Middlewares/ST/STM32_USB_Device_Library/Core/Src/usbd_core.c **** #ifdef USE_USBD_COMPOSITE
 387:Middlewares/ST/STM32_USB_Device_Library/Core/Src/usbd_core.c ****   pdev->classId = 0U;
 388:Middlewares/ST/STM32_USB_Device_Library/Core/Src/usbd_core.c **** #endif /* USE_USBD_COMPOSITE */
 389:Middlewares/ST/STM32_USB_Device_Library/Core/Src/usbd_core.c **** 
 390:Middlewares/ST/STM32_USB_Device_Library/Core/Src/usbd_core.c ****   /* Start the low level driver  */
 391:Middlewares/ST/STM32_USB_Device_Library/Core/Src/usbd_core.c ****   return USBD_LL_Start(pdev);
 258              		.loc 1 391 3 is_stmt 1 view .LVU79
 259              		.loc 1 391 10 is_stmt 0 view .LVU80
 260 0002 FFF7FEFF 		bl	USBD_LL_Start
 261              	.LVL17:
 392:Middlewares/ST/STM32_USB_Device_Library/Core/Src/usbd_core.c **** }
 262              		.loc 1 392 1 view .LVU81
 263 0006 08BD     		pop	{r3, pc}
 264              		.cfi_endproc
 265              	.LFE151:
 267              		.section	.text.USBD_Stop,"ax",%progbits
 268              		.align	1
 269              		.global	USBD_Stop
 270              		.syntax unified
 271              		.thumb
 272              		.thumb_func
 274              	USBD_Stop:
 275              	.LVL18:
 276              	.LFB152:
 393:Middlewares/ST/STM32_USB_Device_Library/Core/Src/usbd_core.c **** 
 394:Middlewares/ST/STM32_USB_Device_Library/Core/Src/usbd_core.c **** /**
 395:Middlewares/ST/STM32_USB_Device_Library/Core/Src/usbd_core.c ****   * @brief  USBD_Stop
 396:Middlewares/ST/STM32_USB_Device_Library/Core/Src/usbd_core.c ****   *         Stop the USB Device Core.
 397:Middlewares/ST/STM32_USB_Device_Library/Core/Src/usbd_core.c ****   * @param  pdev: Device Handle
 398:Middlewares/ST/STM32_USB_Device_Library/Core/Src/usbd_core.c ****   * @retval USBD Status
 399:Middlewares/ST/STM32_USB_Device_Library/Core/Src/usbd_core.c ****   */
 400:Middlewares/ST/STM32_USB_Device_Library/Core/Src/usbd_core.c **** USBD_StatusTypeDef USBD_Stop(USBD_HandleTypeDef *pdev)
 401:Middlewares/ST/STM32_USB_Device_Library/Core/Src/usbd_core.c **** {
 277              		.loc 1 401 1 is_stmt 1 view -0
 278              		.cfi_startproc
 279              		@ args = 0, pretend = 0, frame = 0
 280              		@ frame_needed = 0, uses_anonymous_args = 0
 281              		.loc 1 401 1 is_stmt 0 view .LVU83
 282 0000 10B5     		push	{r4, lr}
 283              		.cfi_def_cfa_offset 8
 284              		.cfi_offset 4, -8
 285              		.cfi_offset 14, -4
 286 0002 0446     		mov	r4, r0
 402:Middlewares/ST/STM32_USB_Device_Library/Core/Src/usbd_core.c ****   /* Disconnect USB Device */
 403:Middlewares/ST/STM32_USB_Device_Library/Core/Src/usbd_core.c ****   (void)USBD_LL_Stop(pdev);
ARM GAS  C:\Users\aticl\AppData\Local\Temp\ccHflrtd.s 			page 13


 287              		.loc 1 403 3 is_stmt 1 view .LVU84
 288              		.loc 1 403 9 is_stmt 0 view .LVU85
 289 0004 FFF7FEFF 		bl	USBD_LL_Stop
 290              	.LVL19:
 404:Middlewares/ST/STM32_USB_Device_Library/Core/Src/usbd_core.c **** 
 405:Middlewares/ST/STM32_USB_Device_Library/Core/Src/usbd_core.c ****   /* Free Class Resources */
 406:Middlewares/ST/STM32_USB_Device_Library/Core/Src/usbd_core.c **** #ifdef USE_USBD_COMPOSITE
 407:Middlewares/ST/STM32_USB_Device_Library/Core/Src/usbd_core.c ****   /* Parse the table of classes in use */
 408:Middlewares/ST/STM32_USB_Device_Library/Core/Src/usbd_core.c ****   for (uint32_t i = 0U; i < USBD_MAX_SUPPORTED_CLASS; i++)
 409:Middlewares/ST/STM32_USB_Device_Library/Core/Src/usbd_core.c ****   {
 410:Middlewares/ST/STM32_USB_Device_Library/Core/Src/usbd_core.c ****     /* Check if current class is in use */
 411:Middlewares/ST/STM32_USB_Device_Library/Core/Src/usbd_core.c ****     if ((pdev->tclasslist[i].Active) == 1U)
 412:Middlewares/ST/STM32_USB_Device_Library/Core/Src/usbd_core.c ****     {
 413:Middlewares/ST/STM32_USB_Device_Library/Core/Src/usbd_core.c ****       if (pdev->pClass[i] != NULL)
 414:Middlewares/ST/STM32_USB_Device_Library/Core/Src/usbd_core.c ****       {
 415:Middlewares/ST/STM32_USB_Device_Library/Core/Src/usbd_core.c ****         pdev->classId = i;
 416:Middlewares/ST/STM32_USB_Device_Library/Core/Src/usbd_core.c ****         /* Free Class Resources */
 417:Middlewares/ST/STM32_USB_Device_Library/Core/Src/usbd_core.c ****         (void)pdev->pClass[i]->DeInit(pdev, (uint8_t)pdev->dev_config);
 418:Middlewares/ST/STM32_USB_Device_Library/Core/Src/usbd_core.c ****       }
 419:Middlewares/ST/STM32_USB_Device_Library/Core/Src/usbd_core.c ****     }
 420:Middlewares/ST/STM32_USB_Device_Library/Core/Src/usbd_core.c ****   }
 421:Middlewares/ST/STM32_USB_Device_Library/Core/Src/usbd_core.c **** 
 422:Middlewares/ST/STM32_USB_Device_Library/Core/Src/usbd_core.c ****   /* Reset the class ID */
 423:Middlewares/ST/STM32_USB_Device_Library/Core/Src/usbd_core.c ****   pdev->classId = 0U;
 424:Middlewares/ST/STM32_USB_Device_Library/Core/Src/usbd_core.c **** #else
 425:Middlewares/ST/STM32_USB_Device_Library/Core/Src/usbd_core.c ****   if (pdev->pClass[0] != NULL)
 291              		.loc 1 425 3 is_stmt 1 view .LVU86
 292              		.loc 1 425 19 is_stmt 0 view .LVU87
 293 0008 D4F8B832 		ldr	r3, [r4, #696]
 294              		.loc 1 425 6 view .LVU88
 295 000c 1BB1     		cbz	r3, .L20
 426:Middlewares/ST/STM32_USB_Device_Library/Core/Src/usbd_core.c ****   {
 427:Middlewares/ST/STM32_USB_Device_Library/Core/Src/usbd_core.c ****     (void)pdev->pClass[0]->DeInit(pdev, (uint8_t)pdev->dev_config);
 296              		.loc 1 427 5 is_stmt 1 view .LVU89
 297              		.loc 1 427 26 is_stmt 0 view .LVU90
 298 000e 5B68     		ldr	r3, [r3, #4]
 299              		.loc 1 427 11 view .LVU91
 300 0010 2179     		ldrb	r1, [r4, #4]	@ zero_extendqisi2
 301 0012 2046     		mov	r0, r4
 302 0014 9847     		blx	r3
 303              	.LVL20:
 304              	.L20:
 428:Middlewares/ST/STM32_USB_Device_Library/Core/Src/usbd_core.c ****   }
 429:Middlewares/ST/STM32_USB_Device_Library/Core/Src/usbd_core.c **** #endif /* USE_USBD_COMPOSITE */
 430:Middlewares/ST/STM32_USB_Device_Library/Core/Src/usbd_core.c **** 
 431:Middlewares/ST/STM32_USB_Device_Library/Core/Src/usbd_core.c ****   return USBD_OK;
 305              		.loc 1 431 3 is_stmt 1 view .LVU92
 432:Middlewares/ST/STM32_USB_Device_Library/Core/Src/usbd_core.c **** }
 306              		.loc 1 432 1 is_stmt 0 view .LVU93
 307 0016 0020     		movs	r0, #0
 308 0018 10BD     		pop	{r4, pc}
 309              		.loc 1 432 1 view .LVU94
 310              		.cfi_endproc
 311              	.LFE152:
 313              		.section	.text.USBD_RunTestMode,"ax",%progbits
 314              		.align	1
 315              		.global	USBD_RunTestMode
ARM GAS  C:\Users\aticl\AppData\Local\Temp\ccHflrtd.s 			page 14


 316              		.syntax unified
 317              		.thumb
 318              		.thumb_func
 320              	USBD_RunTestMode:
 321              	.LVL21:
 322              	.LFB153:
 433:Middlewares/ST/STM32_USB_Device_Library/Core/Src/usbd_core.c **** 
 434:Middlewares/ST/STM32_USB_Device_Library/Core/Src/usbd_core.c **** /**
 435:Middlewares/ST/STM32_USB_Device_Library/Core/Src/usbd_core.c ****   * @brief  USBD_RunTestMode
 436:Middlewares/ST/STM32_USB_Device_Library/Core/Src/usbd_core.c ****   *         Launch test mode process
 437:Middlewares/ST/STM32_USB_Device_Library/Core/Src/usbd_core.c ****   * @param  pdev: device instance
 438:Middlewares/ST/STM32_USB_Device_Library/Core/Src/usbd_core.c ****   * @retval status
 439:Middlewares/ST/STM32_USB_Device_Library/Core/Src/usbd_core.c ****   */
 440:Middlewares/ST/STM32_USB_Device_Library/Core/Src/usbd_core.c **** USBD_StatusTypeDef USBD_RunTestMode(USBD_HandleTypeDef *pdev)
 441:Middlewares/ST/STM32_USB_Device_Library/Core/Src/usbd_core.c **** {
 323              		.loc 1 441 1 is_stmt 1 view -0
 324              		.cfi_startproc
 325              		@ args = 0, pretend = 0, frame = 0
 326              		@ frame_needed = 0, uses_anonymous_args = 0
 327              		@ link register save eliminated.
 442:Middlewares/ST/STM32_USB_Device_Library/Core/Src/usbd_core.c **** #ifdef USBD_HS_TESTMODE_ENABLE
 443:Middlewares/ST/STM32_USB_Device_Library/Core/Src/usbd_core.c ****   USBD_StatusTypeDef ret;
 444:Middlewares/ST/STM32_USB_Device_Library/Core/Src/usbd_core.c **** 
 445:Middlewares/ST/STM32_USB_Device_Library/Core/Src/usbd_core.c ****   /* Run USB HS test mode */
 446:Middlewares/ST/STM32_USB_Device_Library/Core/Src/usbd_core.c ****   ret = USBD_LL_SetTestMode(pdev, pdev->dev_test_mode);
 447:Middlewares/ST/STM32_USB_Device_Library/Core/Src/usbd_core.c **** 
 448:Middlewares/ST/STM32_USB_Device_Library/Core/Src/usbd_core.c ****   return ret;
 449:Middlewares/ST/STM32_USB_Device_Library/Core/Src/usbd_core.c **** #else
 450:Middlewares/ST/STM32_USB_Device_Library/Core/Src/usbd_core.c ****   /* Prevent unused argument compilation warning */
 451:Middlewares/ST/STM32_USB_Device_Library/Core/Src/usbd_core.c ****   UNUSED(pdev);
 328              		.loc 1 451 3 view .LVU96
 452:Middlewares/ST/STM32_USB_Device_Library/Core/Src/usbd_core.c **** 
 453:Middlewares/ST/STM32_USB_Device_Library/Core/Src/usbd_core.c ****   return USBD_OK;
 329              		.loc 1 453 3 view .LVU97
 454:Middlewares/ST/STM32_USB_Device_Library/Core/Src/usbd_core.c **** #endif /* USBD_HS_TESTMODE_ENABLE */
 455:Middlewares/ST/STM32_USB_Device_Library/Core/Src/usbd_core.c **** }
 330              		.loc 1 455 1 is_stmt 0 view .LVU98
 331 0000 0020     		movs	r0, #0
 332              	.LVL22:
 333              		.loc 1 455 1 view .LVU99
 334 0002 7047     		bx	lr
 335              		.cfi_endproc
 336              	.LFE153:
 338              		.section	.text.USBD_SetClassConfig,"ax",%progbits
 339              		.align	1
 340              		.global	USBD_SetClassConfig
 341              		.syntax unified
 342              		.thumb
 343              		.thumb_func
 345              	USBD_SetClassConfig:
 346              	.LVL23:
 347              	.LFB154:
 456:Middlewares/ST/STM32_USB_Device_Library/Core/Src/usbd_core.c **** 
 457:Middlewares/ST/STM32_USB_Device_Library/Core/Src/usbd_core.c **** /**
 458:Middlewares/ST/STM32_USB_Device_Library/Core/Src/usbd_core.c ****   * @brief  USBD_SetClassConfig
 459:Middlewares/ST/STM32_USB_Device_Library/Core/Src/usbd_core.c ****   *        Configure device and start the interface
 460:Middlewares/ST/STM32_USB_Device_Library/Core/Src/usbd_core.c ****   * @param  pdev: device instance
ARM GAS  C:\Users\aticl\AppData\Local\Temp\ccHflrtd.s 			page 15


 461:Middlewares/ST/STM32_USB_Device_Library/Core/Src/usbd_core.c ****   * @param  cfgidx: configuration index
 462:Middlewares/ST/STM32_USB_Device_Library/Core/Src/usbd_core.c ****   * @retval status
 463:Middlewares/ST/STM32_USB_Device_Library/Core/Src/usbd_core.c ****   */
 464:Middlewares/ST/STM32_USB_Device_Library/Core/Src/usbd_core.c **** 
 465:Middlewares/ST/STM32_USB_Device_Library/Core/Src/usbd_core.c **** USBD_StatusTypeDef USBD_SetClassConfig(USBD_HandleTypeDef *pdev, uint8_t cfgidx)
 466:Middlewares/ST/STM32_USB_Device_Library/Core/Src/usbd_core.c **** {
 348              		.loc 1 466 1 is_stmt 1 view -0
 349              		.cfi_startproc
 350              		@ args = 0, pretend = 0, frame = 0
 351              		@ frame_needed = 0, uses_anonymous_args = 0
 352              		.loc 1 466 1 is_stmt 0 view .LVU101
 353 0000 08B5     		push	{r3, lr}
 354              		.cfi_def_cfa_offset 8
 355              		.cfi_offset 3, -8
 356              		.cfi_offset 14, -4
 467:Middlewares/ST/STM32_USB_Device_Library/Core/Src/usbd_core.c ****   USBD_StatusTypeDef ret = USBD_OK;
 357              		.loc 1 467 3 is_stmt 1 view .LVU102
 358              	.LVL24:
 468:Middlewares/ST/STM32_USB_Device_Library/Core/Src/usbd_core.c **** 
 469:Middlewares/ST/STM32_USB_Device_Library/Core/Src/usbd_core.c **** #ifdef USE_USBD_COMPOSITE
 470:Middlewares/ST/STM32_USB_Device_Library/Core/Src/usbd_core.c ****   /* Parse the table of classes in use */
 471:Middlewares/ST/STM32_USB_Device_Library/Core/Src/usbd_core.c ****   for (uint32_t i = 0U; i < USBD_MAX_SUPPORTED_CLASS; i++)
 472:Middlewares/ST/STM32_USB_Device_Library/Core/Src/usbd_core.c ****   {
 473:Middlewares/ST/STM32_USB_Device_Library/Core/Src/usbd_core.c ****     /* Check if current class is in use */
 474:Middlewares/ST/STM32_USB_Device_Library/Core/Src/usbd_core.c ****     if ((pdev->tclasslist[i].Active) == 1U)
 475:Middlewares/ST/STM32_USB_Device_Library/Core/Src/usbd_core.c ****     {
 476:Middlewares/ST/STM32_USB_Device_Library/Core/Src/usbd_core.c ****       if (pdev->pClass[i] != NULL)
 477:Middlewares/ST/STM32_USB_Device_Library/Core/Src/usbd_core.c ****       {
 478:Middlewares/ST/STM32_USB_Device_Library/Core/Src/usbd_core.c ****         pdev->classId = i;
 479:Middlewares/ST/STM32_USB_Device_Library/Core/Src/usbd_core.c ****         /* Set configuration  and Start the Class*/
 480:Middlewares/ST/STM32_USB_Device_Library/Core/Src/usbd_core.c ****         if (pdev->pClass[i]->Init(pdev, cfgidx) != 0U)
 481:Middlewares/ST/STM32_USB_Device_Library/Core/Src/usbd_core.c ****         {
 482:Middlewares/ST/STM32_USB_Device_Library/Core/Src/usbd_core.c ****           ret = USBD_FAIL;
 483:Middlewares/ST/STM32_USB_Device_Library/Core/Src/usbd_core.c ****         }
 484:Middlewares/ST/STM32_USB_Device_Library/Core/Src/usbd_core.c ****       }
 485:Middlewares/ST/STM32_USB_Device_Library/Core/Src/usbd_core.c ****     }
 486:Middlewares/ST/STM32_USB_Device_Library/Core/Src/usbd_core.c ****   }
 487:Middlewares/ST/STM32_USB_Device_Library/Core/Src/usbd_core.c **** #else
 488:Middlewares/ST/STM32_USB_Device_Library/Core/Src/usbd_core.c ****   if (pdev->pClass[0] != NULL)
 359              		.loc 1 488 3 view .LVU103
 360              		.loc 1 488 19 is_stmt 0 view .LVU104
 361 0002 D0F8B832 		ldr	r3, [r0, #696]
 362              		.loc 1 488 6 view .LVU105
 363 0006 13B1     		cbz	r3, .L25
 489:Middlewares/ST/STM32_USB_Device_Library/Core/Src/usbd_core.c ****   {
 490:Middlewares/ST/STM32_USB_Device_Library/Core/Src/usbd_core.c ****     /* Set configuration and Start the Class */
 491:Middlewares/ST/STM32_USB_Device_Library/Core/Src/usbd_core.c ****     ret = (USBD_StatusTypeDef)pdev->pClass[0]->Init(pdev, cfgidx);
 364              		.loc 1 491 5 is_stmt 1 view .LVU106
 365              		.loc 1 491 46 is_stmt 0 view .LVU107
 366 0008 1B68     		ldr	r3, [r3]
 367              		.loc 1 491 31 view .LVU108
 368 000a 9847     		blx	r3
 369              	.LVL25:
 370              	.L24:
 492:Middlewares/ST/STM32_USB_Device_Library/Core/Src/usbd_core.c ****   }
 493:Middlewares/ST/STM32_USB_Device_Library/Core/Src/usbd_core.c **** #endif /* USE_USBD_COMPOSITE */
 494:Middlewares/ST/STM32_USB_Device_Library/Core/Src/usbd_core.c **** 
ARM GAS  C:\Users\aticl\AppData\Local\Temp\ccHflrtd.s 			page 16


 495:Middlewares/ST/STM32_USB_Device_Library/Core/Src/usbd_core.c ****   return ret;
 371              		.loc 1 495 3 is_stmt 1 view .LVU109
 496:Middlewares/ST/STM32_USB_Device_Library/Core/Src/usbd_core.c **** }
 372              		.loc 1 496 1 is_stmt 0 view .LVU110
 373 000c 08BD     		pop	{r3, pc}
 374              	.LVL26:
 375              	.L25:
 467:Middlewares/ST/STM32_USB_Device_Library/Core/Src/usbd_core.c **** 
 376              		.loc 1 467 22 view .LVU111
 377 000e 0020     		movs	r0, #0
 378              	.LVL27:
 467:Middlewares/ST/STM32_USB_Device_Library/Core/Src/usbd_core.c **** 
 379              		.loc 1 467 22 view .LVU112
 380 0010 FCE7     		b	.L24
 381              		.cfi_endproc
 382              	.LFE154:
 384              		.section	.text.USBD_ClrClassConfig,"ax",%progbits
 385              		.align	1
 386              		.global	USBD_ClrClassConfig
 387              		.syntax unified
 388              		.thumb
 389              		.thumb_func
 391              	USBD_ClrClassConfig:
 392              	.LVL28:
 393              	.LFB155:
 497:Middlewares/ST/STM32_USB_Device_Library/Core/Src/usbd_core.c **** 
 498:Middlewares/ST/STM32_USB_Device_Library/Core/Src/usbd_core.c **** /**
 499:Middlewares/ST/STM32_USB_Device_Library/Core/Src/usbd_core.c ****   * @brief  USBD_ClrClassConfig
 500:Middlewares/ST/STM32_USB_Device_Library/Core/Src/usbd_core.c ****   *         Clear current configuration
 501:Middlewares/ST/STM32_USB_Device_Library/Core/Src/usbd_core.c ****   * @param  pdev: device instance
 502:Middlewares/ST/STM32_USB_Device_Library/Core/Src/usbd_core.c ****   * @param  cfgidx: configuration index
 503:Middlewares/ST/STM32_USB_Device_Library/Core/Src/usbd_core.c ****   * @retval status
 504:Middlewares/ST/STM32_USB_Device_Library/Core/Src/usbd_core.c ****   */
 505:Middlewares/ST/STM32_USB_Device_Library/Core/Src/usbd_core.c **** USBD_StatusTypeDef USBD_ClrClassConfig(USBD_HandleTypeDef *pdev, uint8_t cfgidx)
 506:Middlewares/ST/STM32_USB_Device_Library/Core/Src/usbd_core.c **** {
 394              		.loc 1 506 1 is_stmt 1 view -0
 395              		.cfi_startproc
 396              		@ args = 0, pretend = 0, frame = 0
 397              		@ frame_needed = 0, uses_anonymous_args = 0
 398              		.loc 1 506 1 is_stmt 0 view .LVU114
 399 0000 08B5     		push	{r3, lr}
 400              		.cfi_def_cfa_offset 8
 401              		.cfi_offset 3, -8
 402              		.cfi_offset 14, -4
 507:Middlewares/ST/STM32_USB_Device_Library/Core/Src/usbd_core.c ****   USBD_StatusTypeDef ret = USBD_OK;
 403              		.loc 1 507 3 is_stmt 1 view .LVU115
 404              	.LVL29:
 508:Middlewares/ST/STM32_USB_Device_Library/Core/Src/usbd_core.c **** 
 509:Middlewares/ST/STM32_USB_Device_Library/Core/Src/usbd_core.c **** #ifdef USE_USBD_COMPOSITE
 510:Middlewares/ST/STM32_USB_Device_Library/Core/Src/usbd_core.c ****   /* Parse the table of classes in use */
 511:Middlewares/ST/STM32_USB_Device_Library/Core/Src/usbd_core.c ****   for (uint32_t i = 0U; i < USBD_MAX_SUPPORTED_CLASS; i++)
 512:Middlewares/ST/STM32_USB_Device_Library/Core/Src/usbd_core.c ****   {
 513:Middlewares/ST/STM32_USB_Device_Library/Core/Src/usbd_core.c ****     /* Check if current class is in use */
 514:Middlewares/ST/STM32_USB_Device_Library/Core/Src/usbd_core.c ****     if ((pdev->tclasslist[i].Active) == 1U)
 515:Middlewares/ST/STM32_USB_Device_Library/Core/Src/usbd_core.c ****     {
 516:Middlewares/ST/STM32_USB_Device_Library/Core/Src/usbd_core.c ****       if (pdev->pClass[i] != NULL)
 517:Middlewares/ST/STM32_USB_Device_Library/Core/Src/usbd_core.c ****       {
ARM GAS  C:\Users\aticl\AppData\Local\Temp\ccHflrtd.s 			page 17


 518:Middlewares/ST/STM32_USB_Device_Library/Core/Src/usbd_core.c ****         pdev->classId = i;
 519:Middlewares/ST/STM32_USB_Device_Library/Core/Src/usbd_core.c ****         /* Clear configuration  and De-initialize the Class process */
 520:Middlewares/ST/STM32_USB_Device_Library/Core/Src/usbd_core.c ****         if (pdev->pClass[i]->DeInit(pdev, cfgidx) != 0U)
 521:Middlewares/ST/STM32_USB_Device_Library/Core/Src/usbd_core.c ****         {
 522:Middlewares/ST/STM32_USB_Device_Library/Core/Src/usbd_core.c ****           ret = USBD_FAIL;
 523:Middlewares/ST/STM32_USB_Device_Library/Core/Src/usbd_core.c ****         }
 524:Middlewares/ST/STM32_USB_Device_Library/Core/Src/usbd_core.c ****       }
 525:Middlewares/ST/STM32_USB_Device_Library/Core/Src/usbd_core.c ****     }
 526:Middlewares/ST/STM32_USB_Device_Library/Core/Src/usbd_core.c ****   }
 527:Middlewares/ST/STM32_USB_Device_Library/Core/Src/usbd_core.c **** #else
 528:Middlewares/ST/STM32_USB_Device_Library/Core/Src/usbd_core.c ****   /* Clear configuration  and De-initialize the Class process */
 529:Middlewares/ST/STM32_USB_Device_Library/Core/Src/usbd_core.c ****   if (pdev->pClass[0]->DeInit(pdev, cfgidx) != 0U)
 405              		.loc 1 529 3 view .LVU116
 406              		.loc 1 529 19 is_stmt 0 view .LVU117
 407 0002 D0F8B832 		ldr	r3, [r0, #696]
 408              		.loc 1 529 22 view .LVU118
 409 0006 5B68     		ldr	r3, [r3, #4]
 410              		.loc 1 529 7 view .LVU119
 411 0008 9847     		blx	r3
 412              	.LVL30:
 413              		.loc 1 529 6 discriminator 1 view .LVU120
 414 000a 00B9     		cbnz	r0, .L31
 415              	.L28:
 416              	.LVL31:
 530:Middlewares/ST/STM32_USB_Device_Library/Core/Src/usbd_core.c ****   {
 531:Middlewares/ST/STM32_USB_Device_Library/Core/Src/usbd_core.c ****     ret = USBD_FAIL;
 532:Middlewares/ST/STM32_USB_Device_Library/Core/Src/usbd_core.c ****   }
 533:Middlewares/ST/STM32_USB_Device_Library/Core/Src/usbd_core.c **** #endif /* USE_USBD_COMPOSITE */
 534:Middlewares/ST/STM32_USB_Device_Library/Core/Src/usbd_core.c **** 
 535:Middlewares/ST/STM32_USB_Device_Library/Core/Src/usbd_core.c ****   return ret;
 417              		.loc 1 535 3 is_stmt 1 view .LVU121
 536:Middlewares/ST/STM32_USB_Device_Library/Core/Src/usbd_core.c **** }
 418              		.loc 1 536 1 is_stmt 0 view .LVU122
 419 000c 08BD     		pop	{r3, pc}
 420              	.LVL32:
 421              	.L31:
 531:Middlewares/ST/STM32_USB_Device_Library/Core/Src/usbd_core.c ****   }
 422              		.loc 1 531 9 view .LVU123
 423 000e 0320     		movs	r0, #3
 424 0010 FCE7     		b	.L28
 425              		.cfi_endproc
 426              	.LFE155:
 428              		.section	.text.USBD_LL_SetupStage,"ax",%progbits
 429              		.align	1
 430              		.global	USBD_LL_SetupStage
 431              		.syntax unified
 432              		.thumb
 433              		.thumb_func
 435              	USBD_LL_SetupStage:
 436              	.LVL33:
 437              	.LFB156:
 537:Middlewares/ST/STM32_USB_Device_Library/Core/Src/usbd_core.c **** 
 538:Middlewares/ST/STM32_USB_Device_Library/Core/Src/usbd_core.c **** 
 539:Middlewares/ST/STM32_USB_Device_Library/Core/Src/usbd_core.c **** /**
 540:Middlewares/ST/STM32_USB_Device_Library/Core/Src/usbd_core.c ****   * @brief  USBD_LL_SetupStage
 541:Middlewares/ST/STM32_USB_Device_Library/Core/Src/usbd_core.c ****   *         Handle the setup stage
 542:Middlewares/ST/STM32_USB_Device_Library/Core/Src/usbd_core.c ****   * @param  pdev: device instance
ARM GAS  C:\Users\aticl\AppData\Local\Temp\ccHflrtd.s 			page 18


 543:Middlewares/ST/STM32_USB_Device_Library/Core/Src/usbd_core.c ****   * @param  psetup: setup packet buffer pointer
 544:Middlewares/ST/STM32_USB_Device_Library/Core/Src/usbd_core.c ****   * @retval status
 545:Middlewares/ST/STM32_USB_Device_Library/Core/Src/usbd_core.c ****   */
 546:Middlewares/ST/STM32_USB_Device_Library/Core/Src/usbd_core.c **** USBD_StatusTypeDef USBD_LL_SetupStage(USBD_HandleTypeDef *pdev, uint8_t *psetup)
 547:Middlewares/ST/STM32_USB_Device_Library/Core/Src/usbd_core.c **** {
 438              		.loc 1 547 1 is_stmt 1 view -0
 439              		.cfi_startproc
 440              		@ args = 0, pretend = 0, frame = 0
 441              		@ frame_needed = 0, uses_anonymous_args = 0
 442              		.loc 1 547 1 is_stmt 0 view .LVU125
 443 0000 38B5     		push	{r3, r4, r5, lr}
 444              		.cfi_def_cfa_offset 16
 445              		.cfi_offset 3, -16
 446              		.cfi_offset 4, -12
 447              		.cfi_offset 5, -8
 448              		.cfi_offset 14, -4
 449 0002 0446     		mov	r4, r0
 548:Middlewares/ST/STM32_USB_Device_Library/Core/Src/usbd_core.c ****   USBD_StatusTypeDef ret;
 450              		.loc 1 548 3 is_stmt 1 view .LVU126
 549:Middlewares/ST/STM32_USB_Device_Library/Core/Src/usbd_core.c **** 
 550:Middlewares/ST/STM32_USB_Device_Library/Core/Src/usbd_core.c ****   USBD_ParseSetupRequest(&pdev->request, psetup);
 451              		.loc 1 550 3 view .LVU127
 452 0004 00F2AA25 		addw	r5, r0, #682
 453 0008 2846     		mov	r0, r5
 454              	.LVL34:
 455              		.loc 1 550 3 is_stmt 0 view .LVU128
 456 000a FFF7FEFF 		bl	USBD_ParseSetupRequest
 457              	.LVL35:
 551:Middlewares/ST/STM32_USB_Device_Library/Core/Src/usbd_core.c **** 
 552:Middlewares/ST/STM32_USB_Device_Library/Core/Src/usbd_core.c ****   pdev->ep0_state = USBD_EP0_SETUP;
 458              		.loc 1 552 3 is_stmt 1 view .LVU129
 459              		.loc 1 552 19 is_stmt 0 view .LVU130
 460 000e 0123     		movs	r3, #1
 461 0010 C4F89432 		str	r3, [r4, #660]
 553:Middlewares/ST/STM32_USB_Device_Library/Core/Src/usbd_core.c **** 
 554:Middlewares/ST/STM32_USB_Device_Library/Core/Src/usbd_core.c ****   pdev->ep0_data_len = pdev->request.wLength;
 462              		.loc 1 554 3 is_stmt 1 view .LVU131
 463              		.loc 1 554 37 is_stmt 0 view .LVU132
 464 0014 B4F8B032 		ldrh	r3, [r4, #688]
 465              		.loc 1 554 22 view .LVU133
 466 0018 C4F89832 		str	r3, [r4, #664]
 555:Middlewares/ST/STM32_USB_Device_Library/Core/Src/usbd_core.c **** 
 556:Middlewares/ST/STM32_USB_Device_Library/Core/Src/usbd_core.c ****   switch (pdev->request.bmRequest & 0x1FU)
 467              		.loc 1 556 3 is_stmt 1 view .LVU134
 468              		.loc 1 556 24 is_stmt 0 view .LVU135
 469 001c 94F8AA12 		ldrb	r1, [r4, #682]	@ zero_extendqisi2
 470 0020 01F01F03 		and	r3, r1, #31
 471              		.loc 1 556 3 view .LVU136
 472 0024 012B     		cmp	r3, #1
 473 0026 07D0     		beq	.L33
 474 0028 022B     		cmp	r3, #2
 475 002a 0AD0     		beq	.L34
 476 002c 73B9     		cbnz	r3, .L35
 557:Middlewares/ST/STM32_USB_Device_Library/Core/Src/usbd_core.c ****   {
 558:Middlewares/ST/STM32_USB_Device_Library/Core/Src/usbd_core.c ****     case USB_REQ_RECIPIENT_DEVICE:
 559:Middlewares/ST/STM32_USB_Device_Library/Core/Src/usbd_core.c ****       ret = USBD_StdDevReq(pdev, &pdev->request);
 477              		.loc 1 559 7 is_stmt 1 view .LVU137
ARM GAS  C:\Users\aticl\AppData\Local\Temp\ccHflrtd.s 			page 19


 478              		.loc 1 559 13 is_stmt 0 view .LVU138
 479 002e 2946     		mov	r1, r5
 480 0030 2046     		mov	r0, r4
 481 0032 FFF7FEFF 		bl	USBD_StdDevReq
 482              	.LVL36:
 560:Middlewares/ST/STM32_USB_Device_Library/Core/Src/usbd_core.c ****       break;
 483              		.loc 1 560 7 is_stmt 1 view .LVU139
 484              	.L36:
 561:Middlewares/ST/STM32_USB_Device_Library/Core/Src/usbd_core.c **** 
 562:Middlewares/ST/STM32_USB_Device_Library/Core/Src/usbd_core.c ****     case USB_REQ_RECIPIENT_INTERFACE:
 563:Middlewares/ST/STM32_USB_Device_Library/Core/Src/usbd_core.c ****       ret = USBD_StdItfReq(pdev, &pdev->request);
 564:Middlewares/ST/STM32_USB_Device_Library/Core/Src/usbd_core.c ****       break;
 565:Middlewares/ST/STM32_USB_Device_Library/Core/Src/usbd_core.c **** 
 566:Middlewares/ST/STM32_USB_Device_Library/Core/Src/usbd_core.c ****     case USB_REQ_RECIPIENT_ENDPOINT:
 567:Middlewares/ST/STM32_USB_Device_Library/Core/Src/usbd_core.c ****       ret = USBD_StdEPReq(pdev, &pdev->request);
 568:Middlewares/ST/STM32_USB_Device_Library/Core/Src/usbd_core.c ****       break;
 569:Middlewares/ST/STM32_USB_Device_Library/Core/Src/usbd_core.c **** 
 570:Middlewares/ST/STM32_USB_Device_Library/Core/Src/usbd_core.c ****     default:
 571:Middlewares/ST/STM32_USB_Device_Library/Core/Src/usbd_core.c ****       ret = USBD_LL_StallEP(pdev, (pdev->request.bmRequest & 0x80U));
 572:Middlewares/ST/STM32_USB_Device_Library/Core/Src/usbd_core.c ****       break;
 573:Middlewares/ST/STM32_USB_Device_Library/Core/Src/usbd_core.c ****   }
 574:Middlewares/ST/STM32_USB_Device_Library/Core/Src/usbd_core.c **** 
 575:Middlewares/ST/STM32_USB_Device_Library/Core/Src/usbd_core.c ****   return ret;
 485              		.loc 1 575 3 view .LVU140
 576:Middlewares/ST/STM32_USB_Device_Library/Core/Src/usbd_core.c **** }
 486              		.loc 1 576 1 is_stmt 0 view .LVU141
 487 0036 38BD     		pop	{r3, r4, r5, pc}
 488              	.LVL37:
 489              	.L33:
 563:Middlewares/ST/STM32_USB_Device_Library/Core/Src/usbd_core.c ****       break;
 490              		.loc 1 563 7 is_stmt 1 view .LVU142
 563:Middlewares/ST/STM32_USB_Device_Library/Core/Src/usbd_core.c ****       break;
 491              		.loc 1 563 13 is_stmt 0 view .LVU143
 492 0038 2946     		mov	r1, r5
 493 003a 2046     		mov	r0, r4
 494 003c FFF7FEFF 		bl	USBD_StdItfReq
 495              	.LVL38:
 564:Middlewares/ST/STM32_USB_Device_Library/Core/Src/usbd_core.c **** 
 496              		.loc 1 564 7 is_stmt 1 view .LVU144
 497 0040 F9E7     		b	.L36
 498              	.LVL39:
 499              	.L34:
 567:Middlewares/ST/STM32_USB_Device_Library/Core/Src/usbd_core.c ****       break;
 500              		.loc 1 567 7 view .LVU145
 567:Middlewares/ST/STM32_USB_Device_Library/Core/Src/usbd_core.c ****       break;
 501              		.loc 1 567 13 is_stmt 0 view .LVU146
 502 0042 2946     		mov	r1, r5
 503 0044 2046     		mov	r0, r4
 504 0046 FFF7FEFF 		bl	USBD_StdEPReq
 505              	.LVL40:
 568:Middlewares/ST/STM32_USB_Device_Library/Core/Src/usbd_core.c **** 
 506              		.loc 1 568 7 is_stmt 1 view .LVU147
 507 004a F4E7     		b	.L36
 508              	.LVL41:
 509              	.L35:
 571:Middlewares/ST/STM32_USB_Device_Library/Core/Src/usbd_core.c ****       break;
 510              		.loc 1 571 7 view .LVU148
ARM GAS  C:\Users\aticl\AppData\Local\Temp\ccHflrtd.s 			page 20


 571:Middlewares/ST/STM32_USB_Device_Library/Core/Src/usbd_core.c ****       break;
 511              		.loc 1 571 13 is_stmt 0 view .LVU149
 512 004c 01F08001 		and	r1, r1, #128
 513 0050 2046     		mov	r0, r4
 514 0052 FFF7FEFF 		bl	USBD_LL_StallEP
 515              	.LVL42:
 572:Middlewares/ST/STM32_USB_Device_Library/Core/Src/usbd_core.c ****   }
 516              		.loc 1 572 7 is_stmt 1 view .LVU150
 517 0056 EEE7     		b	.L36
 518              		.cfi_endproc
 519              	.LFE156:
 521              		.section	.text.USBD_LL_Reset,"ax",%progbits
 522              		.align	1
 523              		.global	USBD_LL_Reset
 524              		.syntax unified
 525              		.thumb
 526              		.thumb_func
 528              	USBD_LL_Reset:
 529              	.LVL43:
 530              	.LFB159:
 577:Middlewares/ST/STM32_USB_Device_Library/Core/Src/usbd_core.c **** 
 578:Middlewares/ST/STM32_USB_Device_Library/Core/Src/usbd_core.c **** /**
 579:Middlewares/ST/STM32_USB_Device_Library/Core/Src/usbd_core.c ****   * @brief  USBD_LL_DataOutStage
 580:Middlewares/ST/STM32_USB_Device_Library/Core/Src/usbd_core.c ****   *         Handle data OUT stage
 581:Middlewares/ST/STM32_USB_Device_Library/Core/Src/usbd_core.c ****   * @param  pdev: device instance
 582:Middlewares/ST/STM32_USB_Device_Library/Core/Src/usbd_core.c ****   * @param  epnum: endpoint index
 583:Middlewares/ST/STM32_USB_Device_Library/Core/Src/usbd_core.c ****   * @param  pdata: data pointer
 584:Middlewares/ST/STM32_USB_Device_Library/Core/Src/usbd_core.c ****   * @retval status
 585:Middlewares/ST/STM32_USB_Device_Library/Core/Src/usbd_core.c ****   */
 586:Middlewares/ST/STM32_USB_Device_Library/Core/Src/usbd_core.c **** USBD_StatusTypeDef USBD_LL_DataOutStage(USBD_HandleTypeDef *pdev,
 587:Middlewares/ST/STM32_USB_Device_Library/Core/Src/usbd_core.c ****                                         uint8_t epnum, uint8_t *pdata)
 588:Middlewares/ST/STM32_USB_Device_Library/Core/Src/usbd_core.c **** {
 589:Middlewares/ST/STM32_USB_Device_Library/Core/Src/usbd_core.c ****   USBD_EndpointTypeDef *pep;
 590:Middlewares/ST/STM32_USB_Device_Library/Core/Src/usbd_core.c ****   USBD_StatusTypeDef ret = USBD_OK;
 591:Middlewares/ST/STM32_USB_Device_Library/Core/Src/usbd_core.c ****   uint8_t idx;
 592:Middlewares/ST/STM32_USB_Device_Library/Core/Src/usbd_core.c **** 
 593:Middlewares/ST/STM32_USB_Device_Library/Core/Src/usbd_core.c ****   if (epnum == 0U)
 594:Middlewares/ST/STM32_USB_Device_Library/Core/Src/usbd_core.c ****   {
 595:Middlewares/ST/STM32_USB_Device_Library/Core/Src/usbd_core.c ****     pep = &pdev->ep_out[0];
 596:Middlewares/ST/STM32_USB_Device_Library/Core/Src/usbd_core.c **** 
 597:Middlewares/ST/STM32_USB_Device_Library/Core/Src/usbd_core.c ****     if (pdev->ep0_state == USBD_EP0_DATA_OUT)
 598:Middlewares/ST/STM32_USB_Device_Library/Core/Src/usbd_core.c ****     {
 599:Middlewares/ST/STM32_USB_Device_Library/Core/Src/usbd_core.c ****       if (pep->rem_length > pep->maxpacket)
 600:Middlewares/ST/STM32_USB_Device_Library/Core/Src/usbd_core.c ****       {
 601:Middlewares/ST/STM32_USB_Device_Library/Core/Src/usbd_core.c ****         pep->rem_length -= pep->maxpacket;
 602:Middlewares/ST/STM32_USB_Device_Library/Core/Src/usbd_core.c **** 
 603:Middlewares/ST/STM32_USB_Device_Library/Core/Src/usbd_core.c ****         (void)USBD_CtlContinueRx(pdev, pdata, MIN(pep->rem_length, pep->maxpacket));
 604:Middlewares/ST/STM32_USB_Device_Library/Core/Src/usbd_core.c ****       }
 605:Middlewares/ST/STM32_USB_Device_Library/Core/Src/usbd_core.c ****       else
 606:Middlewares/ST/STM32_USB_Device_Library/Core/Src/usbd_core.c ****       {
 607:Middlewares/ST/STM32_USB_Device_Library/Core/Src/usbd_core.c ****         /* Find the class ID relative to the current request */
 608:Middlewares/ST/STM32_USB_Device_Library/Core/Src/usbd_core.c ****         switch (pdev->request.bmRequest & 0x1FU)
 609:Middlewares/ST/STM32_USB_Device_Library/Core/Src/usbd_core.c ****         {
 610:Middlewares/ST/STM32_USB_Device_Library/Core/Src/usbd_core.c ****           case USB_REQ_RECIPIENT_DEVICE:
 611:Middlewares/ST/STM32_USB_Device_Library/Core/Src/usbd_core.c ****             /* Device requests must be managed by the first instantiated class
 612:Middlewares/ST/STM32_USB_Device_Library/Core/Src/usbd_core.c ****                (or duplicated by all classes for simplicity) */
 613:Middlewares/ST/STM32_USB_Device_Library/Core/Src/usbd_core.c ****             idx = 0U;
ARM GAS  C:\Users\aticl\AppData\Local\Temp\ccHflrtd.s 			page 21


 614:Middlewares/ST/STM32_USB_Device_Library/Core/Src/usbd_core.c ****             break;
 615:Middlewares/ST/STM32_USB_Device_Library/Core/Src/usbd_core.c **** 
 616:Middlewares/ST/STM32_USB_Device_Library/Core/Src/usbd_core.c ****           case USB_REQ_RECIPIENT_INTERFACE:
 617:Middlewares/ST/STM32_USB_Device_Library/Core/Src/usbd_core.c ****             idx = USBD_CoreFindIF(pdev, LOBYTE(pdev->request.wIndex));
 618:Middlewares/ST/STM32_USB_Device_Library/Core/Src/usbd_core.c ****             break;
 619:Middlewares/ST/STM32_USB_Device_Library/Core/Src/usbd_core.c **** 
 620:Middlewares/ST/STM32_USB_Device_Library/Core/Src/usbd_core.c ****           case USB_REQ_RECIPIENT_ENDPOINT:
 621:Middlewares/ST/STM32_USB_Device_Library/Core/Src/usbd_core.c ****             idx = USBD_CoreFindEP(pdev, LOBYTE(pdev->request.wIndex));
 622:Middlewares/ST/STM32_USB_Device_Library/Core/Src/usbd_core.c ****             break;
 623:Middlewares/ST/STM32_USB_Device_Library/Core/Src/usbd_core.c **** 
 624:Middlewares/ST/STM32_USB_Device_Library/Core/Src/usbd_core.c ****           default:
 625:Middlewares/ST/STM32_USB_Device_Library/Core/Src/usbd_core.c ****             /* Back to the first class in case of doubt */
 626:Middlewares/ST/STM32_USB_Device_Library/Core/Src/usbd_core.c ****             idx = 0U;
 627:Middlewares/ST/STM32_USB_Device_Library/Core/Src/usbd_core.c ****             break;
 628:Middlewares/ST/STM32_USB_Device_Library/Core/Src/usbd_core.c ****         }
 629:Middlewares/ST/STM32_USB_Device_Library/Core/Src/usbd_core.c **** 
 630:Middlewares/ST/STM32_USB_Device_Library/Core/Src/usbd_core.c ****         if (idx < USBD_MAX_SUPPORTED_CLASS)
 631:Middlewares/ST/STM32_USB_Device_Library/Core/Src/usbd_core.c ****         {
 632:Middlewares/ST/STM32_USB_Device_Library/Core/Src/usbd_core.c ****           /* Setup the class ID and route the request to the relative class function */
 633:Middlewares/ST/STM32_USB_Device_Library/Core/Src/usbd_core.c ****           if (pdev->dev_state == USBD_STATE_CONFIGURED)
 634:Middlewares/ST/STM32_USB_Device_Library/Core/Src/usbd_core.c ****           {
 635:Middlewares/ST/STM32_USB_Device_Library/Core/Src/usbd_core.c ****             if (pdev->pClass[idx]->EP0_RxReady != NULL)
 636:Middlewares/ST/STM32_USB_Device_Library/Core/Src/usbd_core.c ****             {
 637:Middlewares/ST/STM32_USB_Device_Library/Core/Src/usbd_core.c ****               pdev->classId = idx;
 638:Middlewares/ST/STM32_USB_Device_Library/Core/Src/usbd_core.c ****               pdev->pClass[idx]->EP0_RxReady(pdev);
 639:Middlewares/ST/STM32_USB_Device_Library/Core/Src/usbd_core.c ****             }
 640:Middlewares/ST/STM32_USB_Device_Library/Core/Src/usbd_core.c ****           }
 641:Middlewares/ST/STM32_USB_Device_Library/Core/Src/usbd_core.c ****         }
 642:Middlewares/ST/STM32_USB_Device_Library/Core/Src/usbd_core.c **** 
 643:Middlewares/ST/STM32_USB_Device_Library/Core/Src/usbd_core.c ****         (void)USBD_CtlSendStatus(pdev);
 644:Middlewares/ST/STM32_USB_Device_Library/Core/Src/usbd_core.c ****       }
 645:Middlewares/ST/STM32_USB_Device_Library/Core/Src/usbd_core.c ****     }
 646:Middlewares/ST/STM32_USB_Device_Library/Core/Src/usbd_core.c ****   }
 647:Middlewares/ST/STM32_USB_Device_Library/Core/Src/usbd_core.c ****   else
 648:Middlewares/ST/STM32_USB_Device_Library/Core/Src/usbd_core.c ****   {
 649:Middlewares/ST/STM32_USB_Device_Library/Core/Src/usbd_core.c ****     /* Get the class index relative to this interface */
 650:Middlewares/ST/STM32_USB_Device_Library/Core/Src/usbd_core.c ****     idx = USBD_CoreFindEP(pdev, (epnum & 0x7FU));
 651:Middlewares/ST/STM32_USB_Device_Library/Core/Src/usbd_core.c **** 
 652:Middlewares/ST/STM32_USB_Device_Library/Core/Src/usbd_core.c ****     if (((uint16_t)idx != 0xFFU) && (idx < USBD_MAX_SUPPORTED_CLASS))
 653:Middlewares/ST/STM32_USB_Device_Library/Core/Src/usbd_core.c ****     {
 654:Middlewares/ST/STM32_USB_Device_Library/Core/Src/usbd_core.c ****       /* Call the class data out function to manage the request */
 655:Middlewares/ST/STM32_USB_Device_Library/Core/Src/usbd_core.c ****       if (pdev->dev_state == USBD_STATE_CONFIGURED)
 656:Middlewares/ST/STM32_USB_Device_Library/Core/Src/usbd_core.c ****       {
 657:Middlewares/ST/STM32_USB_Device_Library/Core/Src/usbd_core.c ****         if (pdev->pClass[idx]->DataOut != NULL)
 658:Middlewares/ST/STM32_USB_Device_Library/Core/Src/usbd_core.c ****         {
 659:Middlewares/ST/STM32_USB_Device_Library/Core/Src/usbd_core.c ****           pdev->classId = idx;
 660:Middlewares/ST/STM32_USB_Device_Library/Core/Src/usbd_core.c ****           ret = (USBD_StatusTypeDef)pdev->pClass[idx]->DataOut(pdev, epnum);
 661:Middlewares/ST/STM32_USB_Device_Library/Core/Src/usbd_core.c ****         }
 662:Middlewares/ST/STM32_USB_Device_Library/Core/Src/usbd_core.c ****       }
 663:Middlewares/ST/STM32_USB_Device_Library/Core/Src/usbd_core.c ****       if (ret != USBD_OK)
 664:Middlewares/ST/STM32_USB_Device_Library/Core/Src/usbd_core.c ****       {
 665:Middlewares/ST/STM32_USB_Device_Library/Core/Src/usbd_core.c ****         return ret;
 666:Middlewares/ST/STM32_USB_Device_Library/Core/Src/usbd_core.c ****       }
 667:Middlewares/ST/STM32_USB_Device_Library/Core/Src/usbd_core.c ****     }
 668:Middlewares/ST/STM32_USB_Device_Library/Core/Src/usbd_core.c ****   }
 669:Middlewares/ST/STM32_USB_Device_Library/Core/Src/usbd_core.c **** 
 670:Middlewares/ST/STM32_USB_Device_Library/Core/Src/usbd_core.c ****   return USBD_OK;
ARM GAS  C:\Users\aticl\AppData\Local\Temp\ccHflrtd.s 			page 22


 671:Middlewares/ST/STM32_USB_Device_Library/Core/Src/usbd_core.c **** }
 672:Middlewares/ST/STM32_USB_Device_Library/Core/Src/usbd_core.c **** 
 673:Middlewares/ST/STM32_USB_Device_Library/Core/Src/usbd_core.c **** /**
 674:Middlewares/ST/STM32_USB_Device_Library/Core/Src/usbd_core.c ****   * @brief  USBD_LL_DataInStage
 675:Middlewares/ST/STM32_USB_Device_Library/Core/Src/usbd_core.c ****   *         Handle data in stage
 676:Middlewares/ST/STM32_USB_Device_Library/Core/Src/usbd_core.c ****   * @param  pdev: device instance
 677:Middlewares/ST/STM32_USB_Device_Library/Core/Src/usbd_core.c ****   * @param  epnum: endpoint index
 678:Middlewares/ST/STM32_USB_Device_Library/Core/Src/usbd_core.c ****   * @param  pdata: data pointer
 679:Middlewares/ST/STM32_USB_Device_Library/Core/Src/usbd_core.c ****   * @retval status
 680:Middlewares/ST/STM32_USB_Device_Library/Core/Src/usbd_core.c ****   */
 681:Middlewares/ST/STM32_USB_Device_Library/Core/Src/usbd_core.c **** USBD_StatusTypeDef USBD_LL_DataInStage(USBD_HandleTypeDef *pdev,
 682:Middlewares/ST/STM32_USB_Device_Library/Core/Src/usbd_core.c ****                                        uint8_t epnum, uint8_t *pdata)
 683:Middlewares/ST/STM32_USB_Device_Library/Core/Src/usbd_core.c **** {
 684:Middlewares/ST/STM32_USB_Device_Library/Core/Src/usbd_core.c ****   USBD_EndpointTypeDef *pep;
 685:Middlewares/ST/STM32_USB_Device_Library/Core/Src/usbd_core.c ****   USBD_StatusTypeDef ret;
 686:Middlewares/ST/STM32_USB_Device_Library/Core/Src/usbd_core.c ****   uint8_t idx;
 687:Middlewares/ST/STM32_USB_Device_Library/Core/Src/usbd_core.c **** 
 688:Middlewares/ST/STM32_USB_Device_Library/Core/Src/usbd_core.c ****   if (epnum == 0U)
 689:Middlewares/ST/STM32_USB_Device_Library/Core/Src/usbd_core.c ****   {
 690:Middlewares/ST/STM32_USB_Device_Library/Core/Src/usbd_core.c ****     pep = &pdev->ep_in[0];
 691:Middlewares/ST/STM32_USB_Device_Library/Core/Src/usbd_core.c **** 
 692:Middlewares/ST/STM32_USB_Device_Library/Core/Src/usbd_core.c ****     if (pdev->ep0_state == USBD_EP0_DATA_IN)
 693:Middlewares/ST/STM32_USB_Device_Library/Core/Src/usbd_core.c ****     {
 694:Middlewares/ST/STM32_USB_Device_Library/Core/Src/usbd_core.c ****       if (pep->rem_length > pep->maxpacket)
 695:Middlewares/ST/STM32_USB_Device_Library/Core/Src/usbd_core.c ****       {
 696:Middlewares/ST/STM32_USB_Device_Library/Core/Src/usbd_core.c ****         pep->rem_length -= pep->maxpacket;
 697:Middlewares/ST/STM32_USB_Device_Library/Core/Src/usbd_core.c **** 
 698:Middlewares/ST/STM32_USB_Device_Library/Core/Src/usbd_core.c ****         (void)USBD_CtlContinueSendData(pdev, pdata, pep->rem_length);
 699:Middlewares/ST/STM32_USB_Device_Library/Core/Src/usbd_core.c **** 
 700:Middlewares/ST/STM32_USB_Device_Library/Core/Src/usbd_core.c ****         /* Prepare endpoint for premature end of transfer */
 701:Middlewares/ST/STM32_USB_Device_Library/Core/Src/usbd_core.c ****         (void)USBD_LL_PrepareReceive(pdev, 0U, NULL, 0U);
 702:Middlewares/ST/STM32_USB_Device_Library/Core/Src/usbd_core.c ****       }
 703:Middlewares/ST/STM32_USB_Device_Library/Core/Src/usbd_core.c ****       else
 704:Middlewares/ST/STM32_USB_Device_Library/Core/Src/usbd_core.c ****       {
 705:Middlewares/ST/STM32_USB_Device_Library/Core/Src/usbd_core.c ****         /* last packet is MPS multiple, so send ZLP packet */
 706:Middlewares/ST/STM32_USB_Device_Library/Core/Src/usbd_core.c ****         if ((pep->maxpacket == pep->rem_length) &&
 707:Middlewares/ST/STM32_USB_Device_Library/Core/Src/usbd_core.c ****             (pep->total_length >= pep->maxpacket) &&
 708:Middlewares/ST/STM32_USB_Device_Library/Core/Src/usbd_core.c ****             (pep->total_length < pdev->ep0_data_len))
 709:Middlewares/ST/STM32_USB_Device_Library/Core/Src/usbd_core.c ****         {
 710:Middlewares/ST/STM32_USB_Device_Library/Core/Src/usbd_core.c ****           (void)USBD_CtlContinueSendData(pdev, NULL, 0U);
 711:Middlewares/ST/STM32_USB_Device_Library/Core/Src/usbd_core.c ****           pdev->ep0_data_len = 0U;
 712:Middlewares/ST/STM32_USB_Device_Library/Core/Src/usbd_core.c **** 
 713:Middlewares/ST/STM32_USB_Device_Library/Core/Src/usbd_core.c ****           /* Prepare endpoint for premature end of transfer */
 714:Middlewares/ST/STM32_USB_Device_Library/Core/Src/usbd_core.c ****           (void)USBD_LL_PrepareReceive(pdev, 0U, NULL, 0U);
 715:Middlewares/ST/STM32_USB_Device_Library/Core/Src/usbd_core.c ****         }
 716:Middlewares/ST/STM32_USB_Device_Library/Core/Src/usbd_core.c ****         else
 717:Middlewares/ST/STM32_USB_Device_Library/Core/Src/usbd_core.c ****         {
 718:Middlewares/ST/STM32_USB_Device_Library/Core/Src/usbd_core.c ****           if (pdev->dev_state == USBD_STATE_CONFIGURED)
 719:Middlewares/ST/STM32_USB_Device_Library/Core/Src/usbd_core.c ****           {
 720:Middlewares/ST/STM32_USB_Device_Library/Core/Src/usbd_core.c ****             if (pdev->pClass[0]->EP0_TxSent != NULL)
 721:Middlewares/ST/STM32_USB_Device_Library/Core/Src/usbd_core.c ****             {
 722:Middlewares/ST/STM32_USB_Device_Library/Core/Src/usbd_core.c ****               pdev->classId = 0U;
 723:Middlewares/ST/STM32_USB_Device_Library/Core/Src/usbd_core.c ****               pdev->pClass[0]->EP0_TxSent(pdev);
 724:Middlewares/ST/STM32_USB_Device_Library/Core/Src/usbd_core.c ****             }
 725:Middlewares/ST/STM32_USB_Device_Library/Core/Src/usbd_core.c ****           }
 726:Middlewares/ST/STM32_USB_Device_Library/Core/Src/usbd_core.c ****           (void)USBD_LL_StallEP(pdev, 0x80U);
 727:Middlewares/ST/STM32_USB_Device_Library/Core/Src/usbd_core.c ****           (void)USBD_CtlReceiveStatus(pdev);
ARM GAS  C:\Users\aticl\AppData\Local\Temp\ccHflrtd.s 			page 23


 728:Middlewares/ST/STM32_USB_Device_Library/Core/Src/usbd_core.c ****         }
 729:Middlewares/ST/STM32_USB_Device_Library/Core/Src/usbd_core.c ****       }
 730:Middlewares/ST/STM32_USB_Device_Library/Core/Src/usbd_core.c ****     }
 731:Middlewares/ST/STM32_USB_Device_Library/Core/Src/usbd_core.c **** 
 732:Middlewares/ST/STM32_USB_Device_Library/Core/Src/usbd_core.c ****     if (pdev->dev_test_mode != 0U)
 733:Middlewares/ST/STM32_USB_Device_Library/Core/Src/usbd_core.c ****     {
 734:Middlewares/ST/STM32_USB_Device_Library/Core/Src/usbd_core.c ****       (void)USBD_RunTestMode(pdev);
 735:Middlewares/ST/STM32_USB_Device_Library/Core/Src/usbd_core.c ****       pdev->dev_test_mode = 0U;
 736:Middlewares/ST/STM32_USB_Device_Library/Core/Src/usbd_core.c ****     }
 737:Middlewares/ST/STM32_USB_Device_Library/Core/Src/usbd_core.c ****   }
 738:Middlewares/ST/STM32_USB_Device_Library/Core/Src/usbd_core.c ****   else
 739:Middlewares/ST/STM32_USB_Device_Library/Core/Src/usbd_core.c ****   {
 740:Middlewares/ST/STM32_USB_Device_Library/Core/Src/usbd_core.c ****     /* Get the class index relative to this interface */
 741:Middlewares/ST/STM32_USB_Device_Library/Core/Src/usbd_core.c ****     idx = USBD_CoreFindEP(pdev, ((uint8_t)epnum | 0x80U));
 742:Middlewares/ST/STM32_USB_Device_Library/Core/Src/usbd_core.c **** 
 743:Middlewares/ST/STM32_USB_Device_Library/Core/Src/usbd_core.c ****     if (((uint16_t)idx != 0xFFU) && (idx < USBD_MAX_SUPPORTED_CLASS))
 744:Middlewares/ST/STM32_USB_Device_Library/Core/Src/usbd_core.c ****     {
 745:Middlewares/ST/STM32_USB_Device_Library/Core/Src/usbd_core.c ****       /* Call the class data out function to manage the request */
 746:Middlewares/ST/STM32_USB_Device_Library/Core/Src/usbd_core.c ****       if (pdev->dev_state == USBD_STATE_CONFIGURED)
 747:Middlewares/ST/STM32_USB_Device_Library/Core/Src/usbd_core.c ****       {
 748:Middlewares/ST/STM32_USB_Device_Library/Core/Src/usbd_core.c ****         if (pdev->pClass[idx]->DataIn != NULL)
 749:Middlewares/ST/STM32_USB_Device_Library/Core/Src/usbd_core.c ****         {
 750:Middlewares/ST/STM32_USB_Device_Library/Core/Src/usbd_core.c ****           pdev->classId = idx;
 751:Middlewares/ST/STM32_USB_Device_Library/Core/Src/usbd_core.c ****           ret = (USBD_StatusTypeDef)pdev->pClass[idx]->DataIn(pdev, epnum);
 752:Middlewares/ST/STM32_USB_Device_Library/Core/Src/usbd_core.c **** 
 753:Middlewares/ST/STM32_USB_Device_Library/Core/Src/usbd_core.c ****           if (ret != USBD_OK)
 754:Middlewares/ST/STM32_USB_Device_Library/Core/Src/usbd_core.c ****           {
 755:Middlewares/ST/STM32_USB_Device_Library/Core/Src/usbd_core.c ****             return ret;
 756:Middlewares/ST/STM32_USB_Device_Library/Core/Src/usbd_core.c ****           }
 757:Middlewares/ST/STM32_USB_Device_Library/Core/Src/usbd_core.c ****         }
 758:Middlewares/ST/STM32_USB_Device_Library/Core/Src/usbd_core.c ****       }
 759:Middlewares/ST/STM32_USB_Device_Library/Core/Src/usbd_core.c ****     }
 760:Middlewares/ST/STM32_USB_Device_Library/Core/Src/usbd_core.c ****   }
 761:Middlewares/ST/STM32_USB_Device_Library/Core/Src/usbd_core.c **** 
 762:Middlewares/ST/STM32_USB_Device_Library/Core/Src/usbd_core.c ****   return USBD_OK;
 763:Middlewares/ST/STM32_USB_Device_Library/Core/Src/usbd_core.c **** }
 764:Middlewares/ST/STM32_USB_Device_Library/Core/Src/usbd_core.c **** 
 765:Middlewares/ST/STM32_USB_Device_Library/Core/Src/usbd_core.c **** /**
 766:Middlewares/ST/STM32_USB_Device_Library/Core/Src/usbd_core.c ****   * @brief  USBD_LL_Reset
 767:Middlewares/ST/STM32_USB_Device_Library/Core/Src/usbd_core.c ****   *         Handle Reset event
 768:Middlewares/ST/STM32_USB_Device_Library/Core/Src/usbd_core.c ****   * @param  pdev: device instance
 769:Middlewares/ST/STM32_USB_Device_Library/Core/Src/usbd_core.c ****   * @retval status
 770:Middlewares/ST/STM32_USB_Device_Library/Core/Src/usbd_core.c ****   */
 771:Middlewares/ST/STM32_USB_Device_Library/Core/Src/usbd_core.c **** USBD_StatusTypeDef USBD_LL_Reset(USBD_HandleTypeDef *pdev)
 772:Middlewares/ST/STM32_USB_Device_Library/Core/Src/usbd_core.c **** {
 531              		.loc 1 772 1 view -0
 532              		.cfi_startproc
 533              		@ args = 0, pretend = 0, frame = 0
 534              		@ frame_needed = 0, uses_anonymous_args = 0
 535              		.loc 1 772 1 is_stmt 0 view .LVU152
 536 0000 F8B5     		push	{r3, r4, r5, r6, r7, lr}
 537              		.cfi_def_cfa_offset 24
 538              		.cfi_offset 3, -24
 539              		.cfi_offset 4, -20
 540              		.cfi_offset 5, -16
 541              		.cfi_offset 6, -12
 542              		.cfi_offset 7, -8
ARM GAS  C:\Users\aticl\AppData\Local\Temp\ccHflrtd.s 			page 24


 543              		.cfi_offset 14, -4
 544 0002 0446     		mov	r4, r0
 773:Middlewares/ST/STM32_USB_Device_Library/Core/Src/usbd_core.c ****   USBD_StatusTypeDef ret = USBD_OK;
 545              		.loc 1 773 3 is_stmt 1 view .LVU153
 546              	.LVL44:
 774:Middlewares/ST/STM32_USB_Device_Library/Core/Src/usbd_core.c **** 
 775:Middlewares/ST/STM32_USB_Device_Library/Core/Src/usbd_core.c ****   /* Upon Reset call user call back */
 776:Middlewares/ST/STM32_USB_Device_Library/Core/Src/usbd_core.c ****   pdev->dev_state = USBD_STATE_DEFAULT;
 547              		.loc 1 776 3 view .LVU154
 548              		.loc 1 776 19 is_stmt 0 view .LVU155
 549 0004 0123     		movs	r3, #1
 550 0006 80F89C32 		strb	r3, [r0, #668]
 777:Middlewares/ST/STM32_USB_Device_Library/Core/Src/usbd_core.c ****   pdev->ep0_state = USBD_EP0_IDLE;
 551              		.loc 1 777 3 is_stmt 1 view .LVU156
 552              		.loc 1 777 19 is_stmt 0 view .LVU157
 553 000a 0023     		movs	r3, #0
 554 000c C0F89432 		str	r3, [r0, #660]
 778:Middlewares/ST/STM32_USB_Device_Library/Core/Src/usbd_core.c ****   pdev->dev_config = 0U;
 555              		.loc 1 778 3 is_stmt 1 view .LVU158
 556              		.loc 1 778 20 is_stmt 0 view .LVU159
 557 0010 4360     		str	r3, [r0, #4]
 779:Middlewares/ST/STM32_USB_Device_Library/Core/Src/usbd_core.c ****   pdev->dev_remote_wakeup = 0U;
 558              		.loc 1 779 3 is_stmt 1 view .LVU160
 559              		.loc 1 779 27 is_stmt 0 view .LVU161
 560 0012 C0F8A432 		str	r3, [r0, #676]
 780:Middlewares/ST/STM32_USB_Device_Library/Core/Src/usbd_core.c ****   pdev->dev_test_mode = 0U;
 561              		.loc 1 780 3 is_stmt 1 view .LVU162
 562              		.loc 1 780 23 is_stmt 0 view .LVU163
 563 0016 80F8A032 		strb	r3, [r0, #672]
 781:Middlewares/ST/STM32_USB_Device_Library/Core/Src/usbd_core.c **** 
 782:Middlewares/ST/STM32_USB_Device_Library/Core/Src/usbd_core.c **** #ifdef USE_USBD_COMPOSITE
 783:Middlewares/ST/STM32_USB_Device_Library/Core/Src/usbd_core.c ****   /* Parse the table of classes in use */
 784:Middlewares/ST/STM32_USB_Device_Library/Core/Src/usbd_core.c ****   for (uint32_t i = 0U; i < USBD_MAX_SUPPORTED_CLASS; i++)
 785:Middlewares/ST/STM32_USB_Device_Library/Core/Src/usbd_core.c ****   {
 786:Middlewares/ST/STM32_USB_Device_Library/Core/Src/usbd_core.c ****     /* Check if current class is in use */
 787:Middlewares/ST/STM32_USB_Device_Library/Core/Src/usbd_core.c ****     if ((pdev->tclasslist[i].Active) == 1U)
 788:Middlewares/ST/STM32_USB_Device_Library/Core/Src/usbd_core.c ****     {
 789:Middlewares/ST/STM32_USB_Device_Library/Core/Src/usbd_core.c ****       if (pdev->pClass[i] != NULL)
 790:Middlewares/ST/STM32_USB_Device_Library/Core/Src/usbd_core.c ****       {
 791:Middlewares/ST/STM32_USB_Device_Library/Core/Src/usbd_core.c ****         pdev->classId = i;
 792:Middlewares/ST/STM32_USB_Device_Library/Core/Src/usbd_core.c ****         /* Clear configuration  and De-initialize the Class process*/
 793:Middlewares/ST/STM32_USB_Device_Library/Core/Src/usbd_core.c **** 
 794:Middlewares/ST/STM32_USB_Device_Library/Core/Src/usbd_core.c ****         if (pdev->pClass[i]->DeInit != NULL)
 795:Middlewares/ST/STM32_USB_Device_Library/Core/Src/usbd_core.c ****         {
 796:Middlewares/ST/STM32_USB_Device_Library/Core/Src/usbd_core.c ****           if (pdev->pClass[i]->DeInit(pdev, (uint8_t)pdev->dev_config) != USBD_OK)
 797:Middlewares/ST/STM32_USB_Device_Library/Core/Src/usbd_core.c ****           {
 798:Middlewares/ST/STM32_USB_Device_Library/Core/Src/usbd_core.c ****             ret = USBD_FAIL;
 799:Middlewares/ST/STM32_USB_Device_Library/Core/Src/usbd_core.c ****           }
 800:Middlewares/ST/STM32_USB_Device_Library/Core/Src/usbd_core.c ****         }
 801:Middlewares/ST/STM32_USB_Device_Library/Core/Src/usbd_core.c ****       }
 802:Middlewares/ST/STM32_USB_Device_Library/Core/Src/usbd_core.c ****     }
 803:Middlewares/ST/STM32_USB_Device_Library/Core/Src/usbd_core.c ****   }
 804:Middlewares/ST/STM32_USB_Device_Library/Core/Src/usbd_core.c **** #else
 805:Middlewares/ST/STM32_USB_Device_Library/Core/Src/usbd_core.c **** 
 806:Middlewares/ST/STM32_USB_Device_Library/Core/Src/usbd_core.c ****   if (pdev->pClass[0] != NULL)
 564              		.loc 1 806 3 is_stmt 1 view .LVU164
 565              		.loc 1 806 19 is_stmt 0 view .LVU165
ARM GAS  C:\Users\aticl\AppData\Local\Temp\ccHflrtd.s 			page 25


 566 001a D0F8B832 		ldr	r3, [r0, #696]
 567              		.loc 1 806 6 view .LVU166
 568 001e DBB1     		cbz	r3, .L40
 807:Middlewares/ST/STM32_USB_Device_Library/Core/Src/usbd_core.c ****   {
 808:Middlewares/ST/STM32_USB_Device_Library/Core/Src/usbd_core.c ****     if (pdev->pClass[0]->DeInit != NULL)
 569              		.loc 1 808 5 is_stmt 1 view .LVU167
 570              		.loc 1 808 24 is_stmt 0 view .LVU168
 571 0020 5B68     		ldr	r3, [r3, #4]
 572              		.loc 1 808 8 view .LVU169
 573 0022 DBB1     		cbz	r3, .L41
 809:Middlewares/ST/STM32_USB_Device_Library/Core/Src/usbd_core.c ****     {
 810:Middlewares/ST/STM32_USB_Device_Library/Core/Src/usbd_core.c ****       if (pdev->pClass[0]->DeInit(pdev, (uint8_t)pdev->dev_config) != USBD_OK)
 574              		.loc 1 810 7 is_stmt 1 view .LVU170
 575              		.loc 1 810 11 is_stmt 0 view .LVU171
 576 0024 0021     		movs	r1, #0
 577 0026 9847     		blx	r3
 578              	.LVL45:
 579              		.loc 1 810 10 discriminator 1 view .LVU172
 580 0028 0746     		mov	r7, r0
 581 002a C8B9     		cbnz	r0, .L44
 582              	.L39:
 583              	.LVL46:
 811:Middlewares/ST/STM32_USB_Device_Library/Core/Src/usbd_core.c ****       {
 812:Middlewares/ST/STM32_USB_Device_Library/Core/Src/usbd_core.c ****         ret = USBD_FAIL;
 813:Middlewares/ST/STM32_USB_Device_Library/Core/Src/usbd_core.c ****       }
 814:Middlewares/ST/STM32_USB_Device_Library/Core/Src/usbd_core.c ****     }
 815:Middlewares/ST/STM32_USB_Device_Library/Core/Src/usbd_core.c ****   }
 816:Middlewares/ST/STM32_USB_Device_Library/Core/Src/usbd_core.c **** #endif /* USE_USBD_COMPOSITE */
 817:Middlewares/ST/STM32_USB_Device_Library/Core/Src/usbd_core.c **** 
 818:Middlewares/ST/STM32_USB_Device_Library/Core/Src/usbd_core.c ****   /* Open EP0 OUT */
 819:Middlewares/ST/STM32_USB_Device_Library/Core/Src/usbd_core.c ****   (void)USBD_LL_OpenEP(pdev, 0x00U, USBD_EP_TYPE_CTRL, USB_MAX_EP0_SIZE);
 584              		.loc 1 819 3 is_stmt 1 view .LVU173
 585              		.loc 1 819 9 is_stmt 0 view .LVU174
 586 002c 4023     		movs	r3, #64
 587 002e 0022     		movs	r2, #0
 588 0030 1146     		mov	r1, r2
 589 0032 2046     		mov	r0, r4
 590 0034 FFF7FEFF 		bl	USBD_LL_OpenEP
 591              	.LVL47:
 820:Middlewares/ST/STM32_USB_Device_Library/Core/Src/usbd_core.c ****   pdev->ep_out[0x00U & 0xFU].is_used = 1U;
 592              		.loc 1 820 3 is_stmt 1 view .LVU175
 593              		.loc 1 820 38 is_stmt 0 view .LVU176
 594 0038 0126     		movs	r6, #1
 595 003a A4F86461 		strh	r6, [r4, #356]	@ movhi
 821:Middlewares/ST/STM32_USB_Device_Library/Core/Src/usbd_core.c **** 
 822:Middlewares/ST/STM32_USB_Device_Library/Core/Src/usbd_core.c ****   pdev->ep_out[0].maxpacket = USB_MAX_EP0_SIZE;
 596              		.loc 1 822 3 is_stmt 1 view .LVU177
 597              		.loc 1 822 29 is_stmt 0 view .LVU178
 598 003e 4025     		movs	r5, #64
 599 0040 C4F86051 		str	r5, [r4, #352]
 823:Middlewares/ST/STM32_USB_Device_Library/Core/Src/usbd_core.c **** 
 824:Middlewares/ST/STM32_USB_Device_Library/Core/Src/usbd_core.c ****   /* Open EP0 IN */
 825:Middlewares/ST/STM32_USB_Device_Library/Core/Src/usbd_core.c ****   (void)USBD_LL_OpenEP(pdev, 0x80U, USBD_EP_TYPE_CTRL, USB_MAX_EP0_SIZE);
 600              		.loc 1 825 3 is_stmt 1 view .LVU179
 601              		.loc 1 825 9 is_stmt 0 view .LVU180
 602 0044 2B46     		mov	r3, r5
 603 0046 0022     		movs	r2, #0
ARM GAS  C:\Users\aticl\AppData\Local\Temp\ccHflrtd.s 			page 26


 604 0048 8021     		movs	r1, #128
 605 004a 2046     		mov	r0, r4
 606 004c FFF7FEFF 		bl	USBD_LL_OpenEP
 607              	.LVL48:
 826:Middlewares/ST/STM32_USB_Device_Library/Core/Src/usbd_core.c ****   pdev->ep_in[0x80U & 0xFU].is_used = 1U;
 608              		.loc 1 826 3 is_stmt 1 view .LVU181
 609              		.loc 1 826 37 is_stmt 0 view .LVU182
 610 0050 A684     		strh	r6, [r4, #36]	@ movhi
 827:Middlewares/ST/STM32_USB_Device_Library/Core/Src/usbd_core.c **** 
 828:Middlewares/ST/STM32_USB_Device_Library/Core/Src/usbd_core.c ****   pdev->ep_in[0].maxpacket = USB_MAX_EP0_SIZE;
 611              		.loc 1 828 3 is_stmt 1 view .LVU183
 612              		.loc 1 828 28 is_stmt 0 view .LVU184
 613 0052 2562     		str	r5, [r4, #32]
 829:Middlewares/ST/STM32_USB_Device_Library/Core/Src/usbd_core.c **** 
 830:Middlewares/ST/STM32_USB_Device_Library/Core/Src/usbd_core.c ****   return ret;
 614              		.loc 1 830 3 is_stmt 1 view .LVU185
 831:Middlewares/ST/STM32_USB_Device_Library/Core/Src/usbd_core.c **** }
 615              		.loc 1 831 1 is_stmt 0 view .LVU186
 616 0054 3846     		mov	r0, r7
 617 0056 F8BD     		pop	{r3, r4, r5, r6, r7, pc}
 618              	.LVL49:
 619              	.L40:
 773:Middlewares/ST/STM32_USB_Device_Library/Core/Src/usbd_core.c **** 
 620              		.loc 1 773 22 view .LVU187
 621 0058 0027     		movs	r7, #0
 622 005a E7E7     		b	.L39
 623              	.L41:
 624 005c 0027     		movs	r7, #0
 625 005e E5E7     		b	.L39
 626              	.LVL50:
 627              	.L44:
 812:Middlewares/ST/STM32_USB_Device_Library/Core/Src/usbd_core.c ****       }
 628              		.loc 1 812 13 view .LVU188
 629 0060 0327     		movs	r7, #3
 630 0062 E3E7     		b	.L39
 631              		.cfi_endproc
 632              	.LFE159:
 634              		.section	.text.USBD_LL_SetSpeed,"ax",%progbits
 635              		.align	1
 636              		.global	USBD_LL_SetSpeed
 637              		.syntax unified
 638              		.thumb
 639              		.thumb_func
 641              	USBD_LL_SetSpeed:
 642              	.LVL51:
 643              	.LFB160:
 832:Middlewares/ST/STM32_USB_Device_Library/Core/Src/usbd_core.c **** 
 833:Middlewares/ST/STM32_USB_Device_Library/Core/Src/usbd_core.c **** /**
 834:Middlewares/ST/STM32_USB_Device_Library/Core/Src/usbd_core.c ****   * @brief  USBD_LL_SetSpeed
 835:Middlewares/ST/STM32_USB_Device_Library/Core/Src/usbd_core.c ****   *         Handle Reset event
 836:Middlewares/ST/STM32_USB_Device_Library/Core/Src/usbd_core.c ****   * @param  pdev: device instance
 837:Middlewares/ST/STM32_USB_Device_Library/Core/Src/usbd_core.c ****   * @retval status
 838:Middlewares/ST/STM32_USB_Device_Library/Core/Src/usbd_core.c ****   */
 839:Middlewares/ST/STM32_USB_Device_Library/Core/Src/usbd_core.c **** USBD_StatusTypeDef USBD_LL_SetSpeed(USBD_HandleTypeDef *pdev,
 840:Middlewares/ST/STM32_USB_Device_Library/Core/Src/usbd_core.c ****                                     USBD_SpeedTypeDef speed)
 841:Middlewares/ST/STM32_USB_Device_Library/Core/Src/usbd_core.c **** {
 644              		.loc 1 841 1 is_stmt 1 view -0
ARM GAS  C:\Users\aticl\AppData\Local\Temp\ccHflrtd.s 			page 27


 645              		.cfi_startproc
 646              		@ args = 0, pretend = 0, frame = 0
 647              		@ frame_needed = 0, uses_anonymous_args = 0
 648              		@ link register save eliminated.
 842:Middlewares/ST/STM32_USB_Device_Library/Core/Src/usbd_core.c ****   pdev->dev_speed = speed;
 649              		.loc 1 842 3 view .LVU190
 650              		.loc 1 842 19 is_stmt 0 view .LVU191
 651 0000 0174     		strb	r1, [r0, #16]
 843:Middlewares/ST/STM32_USB_Device_Library/Core/Src/usbd_core.c **** 
 844:Middlewares/ST/STM32_USB_Device_Library/Core/Src/usbd_core.c ****   return USBD_OK;
 652              		.loc 1 844 3 is_stmt 1 view .LVU192
 845:Middlewares/ST/STM32_USB_Device_Library/Core/Src/usbd_core.c **** }
 653              		.loc 1 845 1 is_stmt 0 view .LVU193
 654 0002 0020     		movs	r0, #0
 655              	.LVL52:
 656              		.loc 1 845 1 view .LVU194
 657 0004 7047     		bx	lr
 658              		.cfi_endproc
 659              	.LFE160:
 661              		.section	.text.USBD_LL_Suspend,"ax",%progbits
 662              		.align	1
 663              		.global	USBD_LL_Suspend
 664              		.syntax unified
 665              		.thumb
 666              		.thumb_func
 668              	USBD_LL_Suspend:
 669              	.LVL53:
 670              	.LFB161:
 846:Middlewares/ST/STM32_USB_Device_Library/Core/Src/usbd_core.c **** 
 847:Middlewares/ST/STM32_USB_Device_Library/Core/Src/usbd_core.c **** /**
 848:Middlewares/ST/STM32_USB_Device_Library/Core/Src/usbd_core.c ****   * @brief  USBD_LL_Suspend
 849:Middlewares/ST/STM32_USB_Device_Library/Core/Src/usbd_core.c ****   *         Handle Suspend event
 850:Middlewares/ST/STM32_USB_Device_Library/Core/Src/usbd_core.c ****   * @param  pdev: device instance
 851:Middlewares/ST/STM32_USB_Device_Library/Core/Src/usbd_core.c ****   * @retval status
 852:Middlewares/ST/STM32_USB_Device_Library/Core/Src/usbd_core.c ****   */
 853:Middlewares/ST/STM32_USB_Device_Library/Core/Src/usbd_core.c **** USBD_StatusTypeDef USBD_LL_Suspend(USBD_HandleTypeDef *pdev)
 854:Middlewares/ST/STM32_USB_Device_Library/Core/Src/usbd_core.c **** {
 671              		.loc 1 854 1 is_stmt 1 view -0
 672              		.cfi_startproc
 673              		@ args = 0, pretend = 0, frame = 0
 674              		@ frame_needed = 0, uses_anonymous_args = 0
 675              		@ link register save eliminated.
 855:Middlewares/ST/STM32_USB_Device_Library/Core/Src/usbd_core.c ****   if (pdev->dev_state != USBD_STATE_SUSPENDED)
 676              		.loc 1 855 3 view .LVU196
 677              		.loc 1 855 11 is_stmt 0 view .LVU197
 678 0000 90F89C32 		ldrb	r3, [r0, #668]	@ zero_extendqisi2
 679              		.loc 1 855 6 view .LVU198
 680 0004 042B     		cmp	r3, #4
 681 0006 04D0     		beq	.L47
 856:Middlewares/ST/STM32_USB_Device_Library/Core/Src/usbd_core.c ****   {
 857:Middlewares/ST/STM32_USB_Device_Library/Core/Src/usbd_core.c ****     pdev->dev_old_state = pdev->dev_state;
 682              		.loc 1 857 5 is_stmt 1 view .LVU199
 683              		.loc 1 857 31 is_stmt 0 view .LVU200
 684 0008 90F89C32 		ldrb	r3, [r0, #668]	@ zero_extendqisi2
 685 000c DBB2     		uxtb	r3, r3
 686              		.loc 1 857 25 view .LVU201
 687 000e 80F89D32 		strb	r3, [r0, #669]
ARM GAS  C:\Users\aticl\AppData\Local\Temp\ccHflrtd.s 			page 28


 688              	.L47:
 858:Middlewares/ST/STM32_USB_Device_Library/Core/Src/usbd_core.c ****   }
 859:Middlewares/ST/STM32_USB_Device_Library/Core/Src/usbd_core.c **** 
 860:Middlewares/ST/STM32_USB_Device_Library/Core/Src/usbd_core.c ****   pdev->dev_state = USBD_STATE_SUSPENDED;
 689              		.loc 1 860 3 is_stmt 1 view .LVU202
 690              		.loc 1 860 19 is_stmt 0 view .LVU203
 691 0012 0423     		movs	r3, #4
 692 0014 80F89C32 		strb	r3, [r0, #668]
 861:Middlewares/ST/STM32_USB_Device_Library/Core/Src/usbd_core.c **** 
 862:Middlewares/ST/STM32_USB_Device_Library/Core/Src/usbd_core.c ****   return USBD_OK;
 693              		.loc 1 862 3 is_stmt 1 view .LVU204
 863:Middlewares/ST/STM32_USB_Device_Library/Core/Src/usbd_core.c **** }
 694              		.loc 1 863 1 is_stmt 0 view .LVU205
 695 0018 0020     		movs	r0, #0
 696              	.LVL54:
 697              		.loc 1 863 1 view .LVU206
 698 001a 7047     		bx	lr
 699              		.cfi_endproc
 700              	.LFE161:
 702              		.section	.text.USBD_LL_Resume,"ax",%progbits
 703              		.align	1
 704              		.global	USBD_LL_Resume
 705              		.syntax unified
 706              		.thumb
 707              		.thumb_func
 709              	USBD_LL_Resume:
 710              	.LVL55:
 711              	.LFB162:
 864:Middlewares/ST/STM32_USB_Device_Library/Core/Src/usbd_core.c **** 
 865:Middlewares/ST/STM32_USB_Device_Library/Core/Src/usbd_core.c **** /**
 866:Middlewares/ST/STM32_USB_Device_Library/Core/Src/usbd_core.c ****   * @brief  USBD_LL_Resume
 867:Middlewares/ST/STM32_USB_Device_Library/Core/Src/usbd_core.c ****   *         Handle Resume event
 868:Middlewares/ST/STM32_USB_Device_Library/Core/Src/usbd_core.c ****   * @param  pdev: device instance
 869:Middlewares/ST/STM32_USB_Device_Library/Core/Src/usbd_core.c ****   * @retval status
 870:Middlewares/ST/STM32_USB_Device_Library/Core/Src/usbd_core.c ****   */
 871:Middlewares/ST/STM32_USB_Device_Library/Core/Src/usbd_core.c **** USBD_StatusTypeDef USBD_LL_Resume(USBD_HandleTypeDef *pdev)
 872:Middlewares/ST/STM32_USB_Device_Library/Core/Src/usbd_core.c **** {
 712              		.loc 1 872 1 is_stmt 1 view -0
 713              		.cfi_startproc
 714              		@ args = 0, pretend = 0, frame = 0
 715              		@ frame_needed = 0, uses_anonymous_args = 0
 716              		@ link register save eliminated.
 873:Middlewares/ST/STM32_USB_Device_Library/Core/Src/usbd_core.c ****   if (pdev->dev_state == USBD_STATE_SUSPENDED)
 717              		.loc 1 873 3 view .LVU208
 718              		.loc 1 873 11 is_stmt 0 view .LVU209
 719 0000 90F89C32 		ldrb	r3, [r0, #668]	@ zero_extendqisi2
 720              		.loc 1 873 6 view .LVU210
 721 0004 042B     		cmp	r3, #4
 722 0006 01D0     		beq	.L50
 723              	.L49:
 874:Middlewares/ST/STM32_USB_Device_Library/Core/Src/usbd_core.c ****   {
 875:Middlewares/ST/STM32_USB_Device_Library/Core/Src/usbd_core.c ****     pdev->dev_state = pdev->dev_old_state;
 876:Middlewares/ST/STM32_USB_Device_Library/Core/Src/usbd_core.c ****   }
 877:Middlewares/ST/STM32_USB_Device_Library/Core/Src/usbd_core.c **** 
 878:Middlewares/ST/STM32_USB_Device_Library/Core/Src/usbd_core.c ****   return USBD_OK;
 724              		.loc 1 878 3 is_stmt 1 view .LVU211
 879:Middlewares/ST/STM32_USB_Device_Library/Core/Src/usbd_core.c **** }
ARM GAS  C:\Users\aticl\AppData\Local\Temp\ccHflrtd.s 			page 29


 725              		.loc 1 879 1 is_stmt 0 view .LVU212
 726 0008 0020     		movs	r0, #0
 727              	.LVL56:
 728              		.loc 1 879 1 view .LVU213
 729 000a 7047     		bx	lr
 730              	.LVL57:
 731              	.L50:
 875:Middlewares/ST/STM32_USB_Device_Library/Core/Src/usbd_core.c ****   }
 732              		.loc 1 875 5 is_stmt 1 view .LVU214
 875:Middlewares/ST/STM32_USB_Device_Library/Core/Src/usbd_core.c ****   }
 733              		.loc 1 875 27 is_stmt 0 view .LVU215
 734 000c 90F89D32 		ldrb	r3, [r0, #669]	@ zero_extendqisi2
 735 0010 DBB2     		uxtb	r3, r3
 875:Middlewares/ST/STM32_USB_Device_Library/Core/Src/usbd_core.c ****   }
 736              		.loc 1 875 21 view .LVU216
 737 0012 80F89C32 		strb	r3, [r0, #668]
 738 0016 F7E7     		b	.L49
 739              		.cfi_endproc
 740              	.LFE162:
 742              		.section	.text.USBD_LL_SOF,"ax",%progbits
 743              		.align	1
 744              		.global	USBD_LL_SOF
 745              		.syntax unified
 746              		.thumb
 747              		.thumb_func
 749              	USBD_LL_SOF:
 750              	.LVL58:
 751              	.LFB163:
 880:Middlewares/ST/STM32_USB_Device_Library/Core/Src/usbd_core.c **** 
 881:Middlewares/ST/STM32_USB_Device_Library/Core/Src/usbd_core.c **** /**
 882:Middlewares/ST/STM32_USB_Device_Library/Core/Src/usbd_core.c ****   * @brief  USBD_LL_SOF
 883:Middlewares/ST/STM32_USB_Device_Library/Core/Src/usbd_core.c ****   *         Handle SOF event
 884:Middlewares/ST/STM32_USB_Device_Library/Core/Src/usbd_core.c ****   * @param  pdev: device instance
 885:Middlewares/ST/STM32_USB_Device_Library/Core/Src/usbd_core.c ****   * @retval status
 886:Middlewares/ST/STM32_USB_Device_Library/Core/Src/usbd_core.c ****   */
 887:Middlewares/ST/STM32_USB_Device_Library/Core/Src/usbd_core.c **** USBD_StatusTypeDef USBD_LL_SOF(USBD_HandleTypeDef *pdev)
 888:Middlewares/ST/STM32_USB_Device_Library/Core/Src/usbd_core.c **** {
 752              		.loc 1 888 1 is_stmt 1 view -0
 753              		.cfi_startproc
 754              		@ args = 0, pretend = 0, frame = 0
 755              		@ frame_needed = 0, uses_anonymous_args = 0
 756              		.loc 1 888 1 is_stmt 0 view .LVU218
 757 0000 08B5     		push	{r3, lr}
 758              		.cfi_def_cfa_offset 8
 759              		.cfi_offset 3, -8
 760              		.cfi_offset 14, -4
 889:Middlewares/ST/STM32_USB_Device_Library/Core/Src/usbd_core.c ****   /* The SOF event can be distributed for all classes that support it */
 890:Middlewares/ST/STM32_USB_Device_Library/Core/Src/usbd_core.c ****   if (pdev->dev_state == USBD_STATE_CONFIGURED)
 761              		.loc 1 890 3 is_stmt 1 view .LVU219
 762              		.loc 1 890 11 is_stmt 0 view .LVU220
 763 0002 90F89C32 		ldrb	r3, [r0, #668]	@ zero_extendqisi2
 764              		.loc 1 890 6 view .LVU221
 765 0006 032B     		cmp	r3, #3
 766 0008 01D0     		beq	.L54
 767              	.LVL59:
 768              	.L52:
 891:Middlewares/ST/STM32_USB_Device_Library/Core/Src/usbd_core.c ****   {
ARM GAS  C:\Users\aticl\AppData\Local\Temp\ccHflrtd.s 			page 30


 892:Middlewares/ST/STM32_USB_Device_Library/Core/Src/usbd_core.c **** #ifdef USE_USBD_COMPOSITE
 893:Middlewares/ST/STM32_USB_Device_Library/Core/Src/usbd_core.c ****     /* Parse the table of classes in use */
 894:Middlewares/ST/STM32_USB_Device_Library/Core/Src/usbd_core.c ****     for (uint32_t i = 0; i < USBD_MAX_SUPPORTED_CLASS; i++)
 895:Middlewares/ST/STM32_USB_Device_Library/Core/Src/usbd_core.c ****     {
 896:Middlewares/ST/STM32_USB_Device_Library/Core/Src/usbd_core.c ****       /* Check if current class is in use */
 897:Middlewares/ST/STM32_USB_Device_Library/Core/Src/usbd_core.c ****       if ((pdev->tclasslist[i].Active) == 1U)
 898:Middlewares/ST/STM32_USB_Device_Library/Core/Src/usbd_core.c ****       {
 899:Middlewares/ST/STM32_USB_Device_Library/Core/Src/usbd_core.c ****         if (pdev->pClass[i] != NULL)
 900:Middlewares/ST/STM32_USB_Device_Library/Core/Src/usbd_core.c ****         {
 901:Middlewares/ST/STM32_USB_Device_Library/Core/Src/usbd_core.c ****           if (pdev->pClass[i]->SOF != NULL)
 902:Middlewares/ST/STM32_USB_Device_Library/Core/Src/usbd_core.c ****           {
 903:Middlewares/ST/STM32_USB_Device_Library/Core/Src/usbd_core.c ****             pdev->classId = i;
 904:Middlewares/ST/STM32_USB_Device_Library/Core/Src/usbd_core.c ****             (void)pdev->pClass[i]->SOF(pdev);
 905:Middlewares/ST/STM32_USB_Device_Library/Core/Src/usbd_core.c ****           }
 906:Middlewares/ST/STM32_USB_Device_Library/Core/Src/usbd_core.c ****         }
 907:Middlewares/ST/STM32_USB_Device_Library/Core/Src/usbd_core.c ****       }
 908:Middlewares/ST/STM32_USB_Device_Library/Core/Src/usbd_core.c ****     }
 909:Middlewares/ST/STM32_USB_Device_Library/Core/Src/usbd_core.c **** #else
 910:Middlewares/ST/STM32_USB_Device_Library/Core/Src/usbd_core.c ****     if (pdev->pClass[0] != NULL)
 911:Middlewares/ST/STM32_USB_Device_Library/Core/Src/usbd_core.c ****     {
 912:Middlewares/ST/STM32_USB_Device_Library/Core/Src/usbd_core.c ****       if (pdev->pClass[0]->SOF != NULL)
 913:Middlewares/ST/STM32_USB_Device_Library/Core/Src/usbd_core.c ****       {
 914:Middlewares/ST/STM32_USB_Device_Library/Core/Src/usbd_core.c ****         (void)pdev->pClass[0]->SOF(pdev);
 915:Middlewares/ST/STM32_USB_Device_Library/Core/Src/usbd_core.c ****       }
 916:Middlewares/ST/STM32_USB_Device_Library/Core/Src/usbd_core.c ****     }
 917:Middlewares/ST/STM32_USB_Device_Library/Core/Src/usbd_core.c **** #endif /* USE_USBD_COMPOSITE */
 918:Middlewares/ST/STM32_USB_Device_Library/Core/Src/usbd_core.c ****   }
 919:Middlewares/ST/STM32_USB_Device_Library/Core/Src/usbd_core.c **** 
 920:Middlewares/ST/STM32_USB_Device_Library/Core/Src/usbd_core.c ****   return USBD_OK;
 769              		.loc 1 920 3 is_stmt 1 view .LVU222
 921:Middlewares/ST/STM32_USB_Device_Library/Core/Src/usbd_core.c **** }
 770              		.loc 1 921 1 is_stmt 0 view .LVU223
 771 000a 0020     		movs	r0, #0
 772 000c 08BD     		pop	{r3, pc}
 773              	.LVL60:
 774              	.L54:
 910:Middlewares/ST/STM32_USB_Device_Library/Core/Src/usbd_core.c ****     {
 775              		.loc 1 910 5 is_stmt 1 view .LVU224
 910:Middlewares/ST/STM32_USB_Device_Library/Core/Src/usbd_core.c ****     {
 776              		.loc 1 910 21 is_stmt 0 view .LVU225
 777 000e D0F8B832 		ldr	r3, [r0, #696]
 910:Middlewares/ST/STM32_USB_Device_Library/Core/Src/usbd_core.c ****     {
 778              		.loc 1 910 8 view .LVU226
 779 0012 002B     		cmp	r3, #0
 780 0014 F9D0     		beq	.L52
 912:Middlewares/ST/STM32_USB_Device_Library/Core/Src/usbd_core.c ****       {
 781              		.loc 1 912 7 is_stmt 1 view .LVU227
 912:Middlewares/ST/STM32_USB_Device_Library/Core/Src/usbd_core.c ****       {
 782              		.loc 1 912 26 is_stmt 0 view .LVU228
 783 0016 DB69     		ldr	r3, [r3, #28]
 912:Middlewares/ST/STM32_USB_Device_Library/Core/Src/usbd_core.c ****       {
 784              		.loc 1 912 10 view .LVU229
 785 0018 002B     		cmp	r3, #0
 786 001a F6D0     		beq	.L52
 914:Middlewares/ST/STM32_USB_Device_Library/Core/Src/usbd_core.c ****       }
 787              		.loc 1 914 9 is_stmt 1 view .LVU230
 914:Middlewares/ST/STM32_USB_Device_Library/Core/Src/usbd_core.c ****       }
ARM GAS  C:\Users\aticl\AppData\Local\Temp\ccHflrtd.s 			page 31


 788              		.loc 1 914 15 is_stmt 0 view .LVU231
 789 001c 9847     		blx	r3
 790              	.LVL61:
 914:Middlewares/ST/STM32_USB_Device_Library/Core/Src/usbd_core.c ****       }
 791              		.loc 1 914 15 view .LVU232
 792 001e F4E7     		b	.L52
 793              		.cfi_endproc
 794              	.LFE163:
 796              		.section	.text.USBD_LL_IsoINIncomplete,"ax",%progbits
 797              		.align	1
 798              		.global	USBD_LL_IsoINIncomplete
 799              		.syntax unified
 800              		.thumb
 801              		.thumb_func
 803              	USBD_LL_IsoINIncomplete:
 804              	.LVL62:
 805              	.LFB164:
 922:Middlewares/ST/STM32_USB_Device_Library/Core/Src/usbd_core.c **** 
 923:Middlewares/ST/STM32_USB_Device_Library/Core/Src/usbd_core.c **** /**
 924:Middlewares/ST/STM32_USB_Device_Library/Core/Src/usbd_core.c ****   * @brief  USBD_LL_IsoINIncomplete
 925:Middlewares/ST/STM32_USB_Device_Library/Core/Src/usbd_core.c ****   *         Handle iso in incomplete event
 926:Middlewares/ST/STM32_USB_Device_Library/Core/Src/usbd_core.c ****   * @param  pdev: device instance
 927:Middlewares/ST/STM32_USB_Device_Library/Core/Src/usbd_core.c ****   * @param  epnum: Endpoint number
 928:Middlewares/ST/STM32_USB_Device_Library/Core/Src/usbd_core.c ****   * @retval status
 929:Middlewares/ST/STM32_USB_Device_Library/Core/Src/usbd_core.c ****   */
 930:Middlewares/ST/STM32_USB_Device_Library/Core/Src/usbd_core.c **** USBD_StatusTypeDef USBD_LL_IsoINIncomplete(USBD_HandleTypeDef *pdev,
 931:Middlewares/ST/STM32_USB_Device_Library/Core/Src/usbd_core.c ****                                            uint8_t epnum)
 932:Middlewares/ST/STM32_USB_Device_Library/Core/Src/usbd_core.c **** {
 806              		.loc 1 932 1 is_stmt 1 view -0
 807              		.cfi_startproc
 808              		@ args = 0, pretend = 0, frame = 0
 809              		@ frame_needed = 0, uses_anonymous_args = 0
 810              		.loc 1 932 1 is_stmt 0 view .LVU234
 811 0000 08B5     		push	{r3, lr}
 812              		.cfi_def_cfa_offset 8
 813              		.cfi_offset 3, -8
 814              		.cfi_offset 14, -4
 933:Middlewares/ST/STM32_USB_Device_Library/Core/Src/usbd_core.c ****   if (pdev->pClass[pdev->classId] == NULL)
 815              		.loc 1 933 3 is_stmt 1 view .LVU235
 816              		.loc 1 933 24 is_stmt 0 view .LVU236
 817 0002 D0F8D432 		ldr	r3, [r0, #724]
 818              		.loc 1 933 19 view .LVU237
 819 0006 AE33     		adds	r3, r3, #174
 820 0008 50F82330 		ldr	r3, [r0, r3, lsl #2]
 821              		.loc 1 933 6 view .LVU238
 822 000c 53B1     		cbz	r3, .L57
 934:Middlewares/ST/STM32_USB_Device_Library/Core/Src/usbd_core.c ****   {
 935:Middlewares/ST/STM32_USB_Device_Library/Core/Src/usbd_core.c ****     return USBD_FAIL;
 936:Middlewares/ST/STM32_USB_Device_Library/Core/Src/usbd_core.c ****   }
 937:Middlewares/ST/STM32_USB_Device_Library/Core/Src/usbd_core.c **** 
 938:Middlewares/ST/STM32_USB_Device_Library/Core/Src/usbd_core.c ****   if (pdev->dev_state == USBD_STATE_CONFIGURED)
 823              		.loc 1 938 3 is_stmt 1 view .LVU239
 824              		.loc 1 938 11 is_stmt 0 view .LVU240
 825 000e 90F89C22 		ldrb	r2, [r0, #668]	@ zero_extendqisi2
 826              		.loc 1 938 6 view .LVU241
 827 0012 032A     		cmp	r2, #3
 828 0014 01D0     		beq	.L61
ARM GAS  C:\Users\aticl\AppData\Local\Temp\ccHflrtd.s 			page 32


 939:Middlewares/ST/STM32_USB_Device_Library/Core/Src/usbd_core.c ****   {
 940:Middlewares/ST/STM32_USB_Device_Library/Core/Src/usbd_core.c ****     if (pdev->pClass[pdev->classId]->IsoINIncomplete != NULL)
 941:Middlewares/ST/STM32_USB_Device_Library/Core/Src/usbd_core.c ****     {
 942:Middlewares/ST/STM32_USB_Device_Library/Core/Src/usbd_core.c ****       (void)pdev->pClass[pdev->classId]->IsoINIncomplete(pdev, epnum);
 943:Middlewares/ST/STM32_USB_Device_Library/Core/Src/usbd_core.c ****     }
 944:Middlewares/ST/STM32_USB_Device_Library/Core/Src/usbd_core.c ****   }
 945:Middlewares/ST/STM32_USB_Device_Library/Core/Src/usbd_core.c **** 
 946:Middlewares/ST/STM32_USB_Device_Library/Core/Src/usbd_core.c ****   return USBD_OK;
 829              		.loc 1 946 10 view .LVU242
 830 0016 0020     		movs	r0, #0
 831              	.LVL63:
 832              	.L56:
 947:Middlewares/ST/STM32_USB_Device_Library/Core/Src/usbd_core.c **** }
 833              		.loc 1 947 1 view .LVU243
 834 0018 08BD     		pop	{r3, pc}
 835              	.LVL64:
 836              	.L61:
 940:Middlewares/ST/STM32_USB_Device_Library/Core/Src/usbd_core.c ****     {
 837              		.loc 1 940 5 is_stmt 1 view .LVU244
 940:Middlewares/ST/STM32_USB_Device_Library/Core/Src/usbd_core.c ****     {
 838              		.loc 1 940 36 is_stmt 0 view .LVU245
 839 001a 1B6A     		ldr	r3, [r3, #32]
 940:Middlewares/ST/STM32_USB_Device_Library/Core/Src/usbd_core.c ****     {
 840              		.loc 1 940 8 view .LVU246
 841 001c 23B1     		cbz	r3, .L59
 942:Middlewares/ST/STM32_USB_Device_Library/Core/Src/usbd_core.c ****     }
 842              		.loc 1 942 7 is_stmt 1 view .LVU247
 942:Middlewares/ST/STM32_USB_Device_Library/Core/Src/usbd_core.c ****     }
 843              		.loc 1 942 13 is_stmt 0 view .LVU248
 844 001e 9847     		blx	r3
 845              	.LVL65:
 946:Middlewares/ST/STM32_USB_Device_Library/Core/Src/usbd_core.c **** }
 846              		.loc 1 946 10 view .LVU249
 847 0020 0020     		movs	r0, #0
 848 0022 F9E7     		b	.L56
 849              	.LVL66:
 850              	.L57:
 935:Middlewares/ST/STM32_USB_Device_Library/Core/Src/usbd_core.c ****   }
 851              		.loc 1 935 12 view .LVU250
 852 0024 0320     		movs	r0, #3
 853              	.LVL67:
 935:Middlewares/ST/STM32_USB_Device_Library/Core/Src/usbd_core.c ****   }
 854              		.loc 1 935 12 view .LVU251
 855 0026 F7E7     		b	.L56
 856              	.LVL68:
 857              	.L59:
 946:Middlewares/ST/STM32_USB_Device_Library/Core/Src/usbd_core.c **** }
 858              		.loc 1 946 10 view .LVU252
 859 0028 0020     		movs	r0, #0
 860              	.LVL69:
 946:Middlewares/ST/STM32_USB_Device_Library/Core/Src/usbd_core.c **** }
 861              		.loc 1 946 10 view .LVU253
 862 002a F5E7     		b	.L56
 863              		.cfi_endproc
 864              	.LFE164:
 866              		.section	.text.USBD_LL_IsoOUTIncomplete,"ax",%progbits
 867              		.align	1
ARM GAS  C:\Users\aticl\AppData\Local\Temp\ccHflrtd.s 			page 33


 868              		.global	USBD_LL_IsoOUTIncomplete
 869              		.syntax unified
 870              		.thumb
 871              		.thumb_func
 873              	USBD_LL_IsoOUTIncomplete:
 874              	.LVL70:
 875              	.LFB165:
 948:Middlewares/ST/STM32_USB_Device_Library/Core/Src/usbd_core.c **** 
 949:Middlewares/ST/STM32_USB_Device_Library/Core/Src/usbd_core.c **** /**
 950:Middlewares/ST/STM32_USB_Device_Library/Core/Src/usbd_core.c ****   * @brief  USBD_LL_IsoOUTIncomplete
 951:Middlewares/ST/STM32_USB_Device_Library/Core/Src/usbd_core.c ****   *         Handle iso out incomplete event
 952:Middlewares/ST/STM32_USB_Device_Library/Core/Src/usbd_core.c ****   * @param  pdev: device instance
 953:Middlewares/ST/STM32_USB_Device_Library/Core/Src/usbd_core.c ****   * @param  epnum: Endpoint number
 954:Middlewares/ST/STM32_USB_Device_Library/Core/Src/usbd_core.c ****   * @retval status
 955:Middlewares/ST/STM32_USB_Device_Library/Core/Src/usbd_core.c ****   */
 956:Middlewares/ST/STM32_USB_Device_Library/Core/Src/usbd_core.c **** USBD_StatusTypeDef USBD_LL_IsoOUTIncomplete(USBD_HandleTypeDef *pdev,
 957:Middlewares/ST/STM32_USB_Device_Library/Core/Src/usbd_core.c ****                                             uint8_t epnum)
 958:Middlewares/ST/STM32_USB_Device_Library/Core/Src/usbd_core.c **** {
 876              		.loc 1 958 1 is_stmt 1 view -0
 877              		.cfi_startproc
 878              		@ args = 0, pretend = 0, frame = 0
 879              		@ frame_needed = 0, uses_anonymous_args = 0
 880              		.loc 1 958 1 is_stmt 0 view .LVU255
 881 0000 08B5     		push	{r3, lr}
 882              		.cfi_def_cfa_offset 8
 883              		.cfi_offset 3, -8
 884              		.cfi_offset 14, -4
 959:Middlewares/ST/STM32_USB_Device_Library/Core/Src/usbd_core.c ****   if (pdev->pClass[pdev->classId] == NULL)
 885              		.loc 1 959 3 is_stmt 1 view .LVU256
 886              		.loc 1 959 24 is_stmt 0 view .LVU257
 887 0002 D0F8D432 		ldr	r3, [r0, #724]
 888              		.loc 1 959 19 view .LVU258
 889 0006 AE33     		adds	r3, r3, #174
 890 0008 50F82330 		ldr	r3, [r0, r3, lsl #2]
 891              		.loc 1 959 6 view .LVU259
 892 000c 53B1     		cbz	r3, .L64
 960:Middlewares/ST/STM32_USB_Device_Library/Core/Src/usbd_core.c ****   {
 961:Middlewares/ST/STM32_USB_Device_Library/Core/Src/usbd_core.c ****     return USBD_FAIL;
 962:Middlewares/ST/STM32_USB_Device_Library/Core/Src/usbd_core.c ****   }
 963:Middlewares/ST/STM32_USB_Device_Library/Core/Src/usbd_core.c **** 
 964:Middlewares/ST/STM32_USB_Device_Library/Core/Src/usbd_core.c ****   if (pdev->dev_state == USBD_STATE_CONFIGURED)
 893              		.loc 1 964 3 is_stmt 1 view .LVU260
 894              		.loc 1 964 11 is_stmt 0 view .LVU261
 895 000e 90F89C22 		ldrb	r2, [r0, #668]	@ zero_extendqisi2
 896              		.loc 1 964 6 view .LVU262
 897 0012 032A     		cmp	r2, #3
 898 0014 01D0     		beq	.L68
 965:Middlewares/ST/STM32_USB_Device_Library/Core/Src/usbd_core.c ****   {
 966:Middlewares/ST/STM32_USB_Device_Library/Core/Src/usbd_core.c ****     if (pdev->pClass[pdev->classId]->IsoOUTIncomplete != NULL)
 967:Middlewares/ST/STM32_USB_Device_Library/Core/Src/usbd_core.c ****     {
 968:Middlewares/ST/STM32_USB_Device_Library/Core/Src/usbd_core.c ****       (void)pdev->pClass[pdev->classId]->IsoOUTIncomplete(pdev, epnum);
 969:Middlewares/ST/STM32_USB_Device_Library/Core/Src/usbd_core.c ****     }
 970:Middlewares/ST/STM32_USB_Device_Library/Core/Src/usbd_core.c ****   }
 971:Middlewares/ST/STM32_USB_Device_Library/Core/Src/usbd_core.c **** 
 972:Middlewares/ST/STM32_USB_Device_Library/Core/Src/usbd_core.c ****   return USBD_OK;
 899              		.loc 1 972 10 view .LVU263
 900 0016 0020     		movs	r0, #0
ARM GAS  C:\Users\aticl\AppData\Local\Temp\ccHflrtd.s 			page 34


 901              	.LVL71:
 902              	.L63:
 973:Middlewares/ST/STM32_USB_Device_Library/Core/Src/usbd_core.c **** }
 903              		.loc 1 973 1 view .LVU264
 904 0018 08BD     		pop	{r3, pc}
 905              	.LVL72:
 906              	.L68:
 966:Middlewares/ST/STM32_USB_Device_Library/Core/Src/usbd_core.c ****     {
 907              		.loc 1 966 5 is_stmt 1 view .LVU265
 966:Middlewares/ST/STM32_USB_Device_Library/Core/Src/usbd_core.c ****     {
 908              		.loc 1 966 36 is_stmt 0 view .LVU266
 909 001a 5B6A     		ldr	r3, [r3, #36]
 966:Middlewares/ST/STM32_USB_Device_Library/Core/Src/usbd_core.c ****     {
 910              		.loc 1 966 8 view .LVU267
 911 001c 23B1     		cbz	r3, .L66
 968:Middlewares/ST/STM32_USB_Device_Library/Core/Src/usbd_core.c ****     }
 912              		.loc 1 968 7 is_stmt 1 view .LVU268
 968:Middlewares/ST/STM32_USB_Device_Library/Core/Src/usbd_core.c ****     }
 913              		.loc 1 968 13 is_stmt 0 view .LVU269
 914 001e 9847     		blx	r3
 915              	.LVL73:
 972:Middlewares/ST/STM32_USB_Device_Library/Core/Src/usbd_core.c **** }
 916              		.loc 1 972 10 view .LVU270
 917 0020 0020     		movs	r0, #0
 918 0022 F9E7     		b	.L63
 919              	.LVL74:
 920              	.L64:
 961:Middlewares/ST/STM32_USB_Device_Library/Core/Src/usbd_core.c ****   }
 921              		.loc 1 961 12 view .LVU271
 922 0024 0320     		movs	r0, #3
 923              	.LVL75:
 961:Middlewares/ST/STM32_USB_Device_Library/Core/Src/usbd_core.c ****   }
 924              		.loc 1 961 12 view .LVU272
 925 0026 F7E7     		b	.L63
 926              	.LVL76:
 927              	.L66:
 972:Middlewares/ST/STM32_USB_Device_Library/Core/Src/usbd_core.c **** }
 928              		.loc 1 972 10 view .LVU273
 929 0028 0020     		movs	r0, #0
 930              	.LVL77:
 972:Middlewares/ST/STM32_USB_Device_Library/Core/Src/usbd_core.c **** }
 931              		.loc 1 972 10 view .LVU274
 932 002a F5E7     		b	.L63
 933              		.cfi_endproc
 934              	.LFE165:
 936              		.section	.text.USBD_LL_DevConnected,"ax",%progbits
 937              		.align	1
 938              		.global	USBD_LL_DevConnected
 939              		.syntax unified
 940              		.thumb
 941              		.thumb_func
 943              	USBD_LL_DevConnected:
 944              	.LVL78:
 945              	.LFB166:
 974:Middlewares/ST/STM32_USB_Device_Library/Core/Src/usbd_core.c **** 
 975:Middlewares/ST/STM32_USB_Device_Library/Core/Src/usbd_core.c **** /**
 976:Middlewares/ST/STM32_USB_Device_Library/Core/Src/usbd_core.c ****   * @brief  USBD_LL_DevConnected
ARM GAS  C:\Users\aticl\AppData\Local\Temp\ccHflrtd.s 			page 35


 977:Middlewares/ST/STM32_USB_Device_Library/Core/Src/usbd_core.c ****   *         Handle device connection event
 978:Middlewares/ST/STM32_USB_Device_Library/Core/Src/usbd_core.c ****   * @param  pdev: device instance
 979:Middlewares/ST/STM32_USB_Device_Library/Core/Src/usbd_core.c ****   * @retval status
 980:Middlewares/ST/STM32_USB_Device_Library/Core/Src/usbd_core.c ****   */
 981:Middlewares/ST/STM32_USB_Device_Library/Core/Src/usbd_core.c **** USBD_StatusTypeDef USBD_LL_DevConnected(USBD_HandleTypeDef *pdev)
 982:Middlewares/ST/STM32_USB_Device_Library/Core/Src/usbd_core.c **** {
 946              		.loc 1 982 1 is_stmt 1 view -0
 947              		.cfi_startproc
 948              		@ args = 0, pretend = 0, frame = 0
 949              		@ frame_needed = 0, uses_anonymous_args = 0
 950              		@ link register save eliminated.
 983:Middlewares/ST/STM32_USB_Device_Library/Core/Src/usbd_core.c ****   /* Prevent unused argument compilation warning */
 984:Middlewares/ST/STM32_USB_Device_Library/Core/Src/usbd_core.c ****   UNUSED(pdev);
 951              		.loc 1 984 3 view .LVU276
 985:Middlewares/ST/STM32_USB_Device_Library/Core/Src/usbd_core.c **** 
 986:Middlewares/ST/STM32_USB_Device_Library/Core/Src/usbd_core.c ****   return USBD_OK;
 952              		.loc 1 986 3 view .LVU277
 987:Middlewares/ST/STM32_USB_Device_Library/Core/Src/usbd_core.c **** }
 953              		.loc 1 987 1 is_stmt 0 view .LVU278
 954 0000 0020     		movs	r0, #0
 955              	.LVL79:
 956              		.loc 1 987 1 view .LVU279
 957 0002 7047     		bx	lr
 958              		.cfi_endproc
 959              	.LFE166:
 961              		.section	.text.USBD_LL_DevDisconnected,"ax",%progbits
 962              		.align	1
 963              		.global	USBD_LL_DevDisconnected
 964              		.syntax unified
 965              		.thumb
 966              		.thumb_func
 968              	USBD_LL_DevDisconnected:
 969              	.LVL80:
 970              	.LFB167:
 988:Middlewares/ST/STM32_USB_Device_Library/Core/Src/usbd_core.c **** 
 989:Middlewares/ST/STM32_USB_Device_Library/Core/Src/usbd_core.c **** /**
 990:Middlewares/ST/STM32_USB_Device_Library/Core/Src/usbd_core.c ****   * @brief  USBD_LL_DevDisconnected
 991:Middlewares/ST/STM32_USB_Device_Library/Core/Src/usbd_core.c ****   *         Handle device disconnection event
 992:Middlewares/ST/STM32_USB_Device_Library/Core/Src/usbd_core.c ****   * @param  pdev: device instance
 993:Middlewares/ST/STM32_USB_Device_Library/Core/Src/usbd_core.c ****   * @retval status
 994:Middlewares/ST/STM32_USB_Device_Library/Core/Src/usbd_core.c ****   */
 995:Middlewares/ST/STM32_USB_Device_Library/Core/Src/usbd_core.c **** USBD_StatusTypeDef USBD_LL_DevDisconnected(USBD_HandleTypeDef *pdev)
 996:Middlewares/ST/STM32_USB_Device_Library/Core/Src/usbd_core.c **** {
 971              		.loc 1 996 1 is_stmt 1 view -0
 972              		.cfi_startproc
 973              		@ args = 0, pretend = 0, frame = 0
 974              		@ frame_needed = 0, uses_anonymous_args = 0
 975              		.loc 1 996 1 is_stmt 0 view .LVU281
 976 0000 08B5     		push	{r3, lr}
 977              		.cfi_def_cfa_offset 8
 978              		.cfi_offset 3, -8
 979              		.cfi_offset 14, -4
 997:Middlewares/ST/STM32_USB_Device_Library/Core/Src/usbd_core.c ****   USBD_StatusTypeDef   ret = USBD_OK;
 980              		.loc 1 997 3 is_stmt 1 view .LVU282
 981              	.LVL81:
 998:Middlewares/ST/STM32_USB_Device_Library/Core/Src/usbd_core.c **** 
 999:Middlewares/ST/STM32_USB_Device_Library/Core/Src/usbd_core.c ****   /* Free Class Resources */
ARM GAS  C:\Users\aticl\AppData\Local\Temp\ccHflrtd.s 			page 36


1000:Middlewares/ST/STM32_USB_Device_Library/Core/Src/usbd_core.c ****   pdev->dev_state = USBD_STATE_DEFAULT;
 982              		.loc 1 1000 3 view .LVU283
 983              		.loc 1 1000 19 is_stmt 0 view .LVU284
 984 0002 0123     		movs	r3, #1
 985 0004 80F89C32 		strb	r3, [r0, #668]
1001:Middlewares/ST/STM32_USB_Device_Library/Core/Src/usbd_core.c **** 
1002:Middlewares/ST/STM32_USB_Device_Library/Core/Src/usbd_core.c **** #ifdef USE_USBD_COMPOSITE
1003:Middlewares/ST/STM32_USB_Device_Library/Core/Src/usbd_core.c ****   /* Parse the table of classes in use */
1004:Middlewares/ST/STM32_USB_Device_Library/Core/Src/usbd_core.c ****   for (uint32_t i = 0; i < USBD_MAX_SUPPORTED_CLASS; i++)
1005:Middlewares/ST/STM32_USB_Device_Library/Core/Src/usbd_core.c ****   {
1006:Middlewares/ST/STM32_USB_Device_Library/Core/Src/usbd_core.c ****     /* Check if current class is in use */
1007:Middlewares/ST/STM32_USB_Device_Library/Core/Src/usbd_core.c ****     if ((pdev->tclasslist[i].Active) == 1U)
1008:Middlewares/ST/STM32_USB_Device_Library/Core/Src/usbd_core.c ****     {
1009:Middlewares/ST/STM32_USB_Device_Library/Core/Src/usbd_core.c ****       if (pdev->pClass[i] != NULL)
1010:Middlewares/ST/STM32_USB_Device_Library/Core/Src/usbd_core.c ****       {
1011:Middlewares/ST/STM32_USB_Device_Library/Core/Src/usbd_core.c ****         pdev->classId = i;
1012:Middlewares/ST/STM32_USB_Device_Library/Core/Src/usbd_core.c ****         /* Clear configuration  and De-initialize the Class process*/
1013:Middlewares/ST/STM32_USB_Device_Library/Core/Src/usbd_core.c ****         if (pdev->pClass[i]->DeInit(pdev, (uint8_t)pdev->dev_config) != 0U)
1014:Middlewares/ST/STM32_USB_Device_Library/Core/Src/usbd_core.c ****         {
1015:Middlewares/ST/STM32_USB_Device_Library/Core/Src/usbd_core.c ****           ret = USBD_FAIL;
1016:Middlewares/ST/STM32_USB_Device_Library/Core/Src/usbd_core.c ****         }
1017:Middlewares/ST/STM32_USB_Device_Library/Core/Src/usbd_core.c ****       }
1018:Middlewares/ST/STM32_USB_Device_Library/Core/Src/usbd_core.c ****     }
1019:Middlewares/ST/STM32_USB_Device_Library/Core/Src/usbd_core.c ****   }
1020:Middlewares/ST/STM32_USB_Device_Library/Core/Src/usbd_core.c **** #else
1021:Middlewares/ST/STM32_USB_Device_Library/Core/Src/usbd_core.c ****   if (pdev->pClass[0] != NULL)
 986              		.loc 1 1021 3 is_stmt 1 view .LVU285
 987              		.loc 1 1021 19 is_stmt 0 view .LVU286
 988 0008 D0F8B832 		ldr	r3, [r0, #696]
 989              		.loc 1 1021 6 view .LVU287
 990 000c 23B1     		cbz	r3, .L72
1022:Middlewares/ST/STM32_USB_Device_Library/Core/Src/usbd_core.c ****   {
1023:Middlewares/ST/STM32_USB_Device_Library/Core/Src/usbd_core.c ****     if (pdev->pClass[0]->DeInit(pdev, (uint8_t)pdev->dev_config) != 0U)
 991              		.loc 1 1023 5 is_stmt 1 view .LVU288
 992              		.loc 1 1023 24 is_stmt 0 view .LVU289
 993 000e 5B68     		ldr	r3, [r3, #4]
 994              		.loc 1 1023 9 view .LVU290
 995 0010 0179     		ldrb	r1, [r0, #4]	@ zero_extendqisi2
 996 0012 9847     		blx	r3
 997              	.LVL82:
 998              		.loc 1 1023 8 discriminator 1 view .LVU291
 999 0014 10B9     		cbnz	r0, .L75
 1000              	.L71:
 1001              	.LVL83:
1024:Middlewares/ST/STM32_USB_Device_Library/Core/Src/usbd_core.c ****     {
1025:Middlewares/ST/STM32_USB_Device_Library/Core/Src/usbd_core.c ****       ret = USBD_FAIL;
1026:Middlewares/ST/STM32_USB_Device_Library/Core/Src/usbd_core.c ****     }
1027:Middlewares/ST/STM32_USB_Device_Library/Core/Src/usbd_core.c ****   }
1028:Middlewares/ST/STM32_USB_Device_Library/Core/Src/usbd_core.c **** #endif /* USE_USBD_COMPOSITE */
1029:Middlewares/ST/STM32_USB_Device_Library/Core/Src/usbd_core.c **** 
1030:Middlewares/ST/STM32_USB_Device_Library/Core/Src/usbd_core.c ****   return ret;
 1002              		.loc 1 1030 3 is_stmt 1 view .LVU292
1031:Middlewares/ST/STM32_USB_Device_Library/Core/Src/usbd_core.c **** }
 1003              		.loc 1 1031 1 is_stmt 0 view .LVU293
 1004 0016 08BD     		pop	{r3, pc}
 1005              	.LVL84:
 1006              	.L72:
ARM GAS  C:\Users\aticl\AppData\Local\Temp\ccHflrtd.s 			page 37


 997:Middlewares/ST/STM32_USB_Device_Library/Core/Src/usbd_core.c **** 
 1007              		.loc 1 997 24 view .LVU294
 1008 0018 0020     		movs	r0, #0
 1009              	.LVL85:
 997:Middlewares/ST/STM32_USB_Device_Library/Core/Src/usbd_core.c **** 
 1010              		.loc 1 997 24 view .LVU295
 1011 001a FCE7     		b	.L71
 1012              	.L75:
1025:Middlewares/ST/STM32_USB_Device_Library/Core/Src/usbd_core.c ****     }
 1013              		.loc 1 1025 11 view .LVU296
 1014 001c 0320     		movs	r0, #3
 1015 001e FAE7     		b	.L71
 1016              		.cfi_endproc
 1017              	.LFE167:
 1019              		.section	.text.USBD_CoreFindIF,"ax",%progbits
 1020              		.align	1
 1021              		.global	USBD_CoreFindIF
 1022              		.syntax unified
 1023              		.thumb
 1024              		.thumb_func
 1026              	USBD_CoreFindIF:
 1027              	.LVL86:
 1028              	.LFB168:
1032:Middlewares/ST/STM32_USB_Device_Library/Core/Src/usbd_core.c **** 
1033:Middlewares/ST/STM32_USB_Device_Library/Core/Src/usbd_core.c **** /**
1034:Middlewares/ST/STM32_USB_Device_Library/Core/Src/usbd_core.c ****   * @brief  USBD_CoreFindIF
1035:Middlewares/ST/STM32_USB_Device_Library/Core/Src/usbd_core.c ****   *         return the class index relative to the selected interface
1036:Middlewares/ST/STM32_USB_Device_Library/Core/Src/usbd_core.c ****   * @param  pdev: device instance
1037:Middlewares/ST/STM32_USB_Device_Library/Core/Src/usbd_core.c ****   * @param  index : selected interface number
1038:Middlewares/ST/STM32_USB_Device_Library/Core/Src/usbd_core.c ****   * @retval index of the class using the selected interface number. OxFF if no class found.
1039:Middlewares/ST/STM32_USB_Device_Library/Core/Src/usbd_core.c ****   */
1040:Middlewares/ST/STM32_USB_Device_Library/Core/Src/usbd_core.c **** uint8_t USBD_CoreFindIF(USBD_HandleTypeDef *pdev, uint8_t index)
1041:Middlewares/ST/STM32_USB_Device_Library/Core/Src/usbd_core.c **** {
 1029              		.loc 1 1041 1 is_stmt 1 view -0
 1030              		.cfi_startproc
 1031              		@ args = 0, pretend = 0, frame = 0
 1032              		@ frame_needed = 0, uses_anonymous_args = 0
 1033              		@ link register save eliminated.
1042:Middlewares/ST/STM32_USB_Device_Library/Core/Src/usbd_core.c **** #ifdef USE_USBD_COMPOSITE
1043:Middlewares/ST/STM32_USB_Device_Library/Core/Src/usbd_core.c ****   /* Parse the table of classes in use */
1044:Middlewares/ST/STM32_USB_Device_Library/Core/Src/usbd_core.c ****   for (uint32_t i = 0U; i < USBD_MAX_SUPPORTED_CLASS; i++)
1045:Middlewares/ST/STM32_USB_Device_Library/Core/Src/usbd_core.c ****   {
1046:Middlewares/ST/STM32_USB_Device_Library/Core/Src/usbd_core.c ****     /* Check if current class is in use */
1047:Middlewares/ST/STM32_USB_Device_Library/Core/Src/usbd_core.c ****     if ((pdev->tclasslist[i].Active) == 1U)
1048:Middlewares/ST/STM32_USB_Device_Library/Core/Src/usbd_core.c ****     {
1049:Middlewares/ST/STM32_USB_Device_Library/Core/Src/usbd_core.c ****       /* Parse all interfaces listed in the current class */
1050:Middlewares/ST/STM32_USB_Device_Library/Core/Src/usbd_core.c ****       for (uint32_t j = 0U; j < pdev->tclasslist[i].NumIf; j++)
1051:Middlewares/ST/STM32_USB_Device_Library/Core/Src/usbd_core.c ****       {
1052:Middlewares/ST/STM32_USB_Device_Library/Core/Src/usbd_core.c ****         /* Check if requested Interface matches the current class interface */
1053:Middlewares/ST/STM32_USB_Device_Library/Core/Src/usbd_core.c ****         if (pdev->tclasslist[i].Ifs[j] == index)
1054:Middlewares/ST/STM32_USB_Device_Library/Core/Src/usbd_core.c ****         {
1055:Middlewares/ST/STM32_USB_Device_Library/Core/Src/usbd_core.c ****           if (pdev->pClass[i]->Setup != NULL)
1056:Middlewares/ST/STM32_USB_Device_Library/Core/Src/usbd_core.c ****           {
1057:Middlewares/ST/STM32_USB_Device_Library/Core/Src/usbd_core.c ****             return (uint8_t)i;
1058:Middlewares/ST/STM32_USB_Device_Library/Core/Src/usbd_core.c ****           }
1059:Middlewares/ST/STM32_USB_Device_Library/Core/Src/usbd_core.c ****         }
1060:Middlewares/ST/STM32_USB_Device_Library/Core/Src/usbd_core.c ****       }
ARM GAS  C:\Users\aticl\AppData\Local\Temp\ccHflrtd.s 			page 38


1061:Middlewares/ST/STM32_USB_Device_Library/Core/Src/usbd_core.c ****     }
1062:Middlewares/ST/STM32_USB_Device_Library/Core/Src/usbd_core.c ****   }
1063:Middlewares/ST/STM32_USB_Device_Library/Core/Src/usbd_core.c **** 
1064:Middlewares/ST/STM32_USB_Device_Library/Core/Src/usbd_core.c ****   return 0xFFU;
1065:Middlewares/ST/STM32_USB_Device_Library/Core/Src/usbd_core.c **** #else
1066:Middlewares/ST/STM32_USB_Device_Library/Core/Src/usbd_core.c ****   UNUSED(pdev);
 1034              		.loc 1 1066 3 view .LVU298
1067:Middlewares/ST/STM32_USB_Device_Library/Core/Src/usbd_core.c ****   UNUSED(index);
 1035              		.loc 1 1067 3 view .LVU299
1068:Middlewares/ST/STM32_USB_Device_Library/Core/Src/usbd_core.c **** 
1069:Middlewares/ST/STM32_USB_Device_Library/Core/Src/usbd_core.c ****   return 0x00U;
 1036              		.loc 1 1069 3 view .LVU300
1070:Middlewares/ST/STM32_USB_Device_Library/Core/Src/usbd_core.c **** #endif /* USE_USBD_COMPOSITE */
1071:Middlewares/ST/STM32_USB_Device_Library/Core/Src/usbd_core.c **** }
 1037              		.loc 1 1071 1 is_stmt 0 view .LVU301
 1038 0000 0020     		movs	r0, #0
 1039              	.LVL87:
 1040              		.loc 1 1071 1 view .LVU302
 1041 0002 7047     		bx	lr
 1042              		.cfi_endproc
 1043              	.LFE168:
 1045              		.section	.text.USBD_CoreFindEP,"ax",%progbits
 1046              		.align	1
 1047              		.global	USBD_CoreFindEP
 1048              		.syntax unified
 1049              		.thumb
 1050              		.thumb_func
 1052              	USBD_CoreFindEP:
 1053              	.LVL88:
 1054              	.LFB169:
1072:Middlewares/ST/STM32_USB_Device_Library/Core/Src/usbd_core.c **** 
1073:Middlewares/ST/STM32_USB_Device_Library/Core/Src/usbd_core.c **** /**
1074:Middlewares/ST/STM32_USB_Device_Library/Core/Src/usbd_core.c ****   * @brief  USBD_CoreFindEP
1075:Middlewares/ST/STM32_USB_Device_Library/Core/Src/usbd_core.c ****   *         return the class index relative to the selected endpoint
1076:Middlewares/ST/STM32_USB_Device_Library/Core/Src/usbd_core.c ****   * @param  pdev: device instance
1077:Middlewares/ST/STM32_USB_Device_Library/Core/Src/usbd_core.c ****   * @param  index : selected endpoint number
1078:Middlewares/ST/STM32_USB_Device_Library/Core/Src/usbd_core.c ****   * @retval index of the class using the selected endpoint number. 0xFF if no class found.
1079:Middlewares/ST/STM32_USB_Device_Library/Core/Src/usbd_core.c ****   */
1080:Middlewares/ST/STM32_USB_Device_Library/Core/Src/usbd_core.c **** uint8_t USBD_CoreFindEP(USBD_HandleTypeDef *pdev, uint8_t index)
1081:Middlewares/ST/STM32_USB_Device_Library/Core/Src/usbd_core.c **** {
 1055              		.loc 1 1081 1 is_stmt 1 view -0
 1056              		.cfi_startproc
 1057              		@ args = 0, pretend = 0, frame = 0
 1058              		@ frame_needed = 0, uses_anonymous_args = 0
 1059              		@ link register save eliminated.
1082:Middlewares/ST/STM32_USB_Device_Library/Core/Src/usbd_core.c **** #ifdef USE_USBD_COMPOSITE
1083:Middlewares/ST/STM32_USB_Device_Library/Core/Src/usbd_core.c ****   /* Parse the table of classes in use */
1084:Middlewares/ST/STM32_USB_Device_Library/Core/Src/usbd_core.c ****   for (uint32_t i = 0U; i < USBD_MAX_SUPPORTED_CLASS; i++)
1085:Middlewares/ST/STM32_USB_Device_Library/Core/Src/usbd_core.c ****   {
1086:Middlewares/ST/STM32_USB_Device_Library/Core/Src/usbd_core.c ****     /* Check if current class is in use */
1087:Middlewares/ST/STM32_USB_Device_Library/Core/Src/usbd_core.c ****     if ((pdev->tclasslist[i].Active) == 1U)
1088:Middlewares/ST/STM32_USB_Device_Library/Core/Src/usbd_core.c ****     {
1089:Middlewares/ST/STM32_USB_Device_Library/Core/Src/usbd_core.c ****       /* Parse all endpoints listed in the current class */
1090:Middlewares/ST/STM32_USB_Device_Library/Core/Src/usbd_core.c ****       for (uint32_t j = 0U; j < pdev->tclasslist[i].NumEps; j++)
1091:Middlewares/ST/STM32_USB_Device_Library/Core/Src/usbd_core.c ****       {
1092:Middlewares/ST/STM32_USB_Device_Library/Core/Src/usbd_core.c ****         /* Check if requested endpoint matches the current class endpoint */
1093:Middlewares/ST/STM32_USB_Device_Library/Core/Src/usbd_core.c ****         if (pdev->tclasslist[i].Eps[j].add == index)
ARM GAS  C:\Users\aticl\AppData\Local\Temp\ccHflrtd.s 			page 39


1094:Middlewares/ST/STM32_USB_Device_Library/Core/Src/usbd_core.c ****         {
1095:Middlewares/ST/STM32_USB_Device_Library/Core/Src/usbd_core.c ****           if (pdev->pClass[i]->Setup != NULL)
1096:Middlewares/ST/STM32_USB_Device_Library/Core/Src/usbd_core.c ****           {
1097:Middlewares/ST/STM32_USB_Device_Library/Core/Src/usbd_core.c ****             return (uint8_t)i;
1098:Middlewares/ST/STM32_USB_Device_Library/Core/Src/usbd_core.c ****           }
1099:Middlewares/ST/STM32_USB_Device_Library/Core/Src/usbd_core.c ****         }
1100:Middlewares/ST/STM32_USB_Device_Library/Core/Src/usbd_core.c ****       }
1101:Middlewares/ST/STM32_USB_Device_Library/Core/Src/usbd_core.c ****     }
1102:Middlewares/ST/STM32_USB_Device_Library/Core/Src/usbd_core.c ****   }
1103:Middlewares/ST/STM32_USB_Device_Library/Core/Src/usbd_core.c **** 
1104:Middlewares/ST/STM32_USB_Device_Library/Core/Src/usbd_core.c ****   return 0xFFU;
1105:Middlewares/ST/STM32_USB_Device_Library/Core/Src/usbd_core.c **** #else
1106:Middlewares/ST/STM32_USB_Device_Library/Core/Src/usbd_core.c ****   UNUSED(pdev);
 1060              		.loc 1 1106 3 view .LVU304
1107:Middlewares/ST/STM32_USB_Device_Library/Core/Src/usbd_core.c ****   UNUSED(index);
 1061              		.loc 1 1107 3 view .LVU305
1108:Middlewares/ST/STM32_USB_Device_Library/Core/Src/usbd_core.c **** 
1109:Middlewares/ST/STM32_USB_Device_Library/Core/Src/usbd_core.c ****   return 0x00U;
 1062              		.loc 1 1109 3 view .LVU306
1110:Middlewares/ST/STM32_USB_Device_Library/Core/Src/usbd_core.c **** #endif /* USE_USBD_COMPOSITE */
1111:Middlewares/ST/STM32_USB_Device_Library/Core/Src/usbd_core.c **** }
 1063              		.loc 1 1111 1 is_stmt 0 view .LVU307
 1064 0000 0020     		movs	r0, #0
 1065              	.LVL89:
 1066              		.loc 1 1111 1 view .LVU308
 1067 0002 7047     		bx	lr
 1068              		.cfi_endproc
 1069              	.LFE169:
 1071              		.section	.text.USBD_LL_DataOutStage,"ax",%progbits
 1072              		.align	1
 1073              		.global	USBD_LL_DataOutStage
 1074              		.syntax unified
 1075              		.thumb
 1076              		.thumb_func
 1078              	USBD_LL_DataOutStage:
 1079              	.LVL90:
 1080              	.LFB157:
 588:Middlewares/ST/STM32_USB_Device_Library/Core/Src/usbd_core.c ****   USBD_EndpointTypeDef *pep;
 1081              		.loc 1 588 1 is_stmt 1 view -0
 1082              		.cfi_startproc
 1083              		@ args = 0, pretend = 0, frame = 0
 1084              		@ frame_needed = 0, uses_anonymous_args = 0
 588:Middlewares/ST/STM32_USB_Device_Library/Core/Src/usbd_core.c ****   USBD_EndpointTypeDef *pep;
 1085              		.loc 1 588 1 is_stmt 0 view .LVU310
 1086 0000 38B5     		push	{r3, r4, r5, lr}
 1087              		.cfi_def_cfa_offset 16
 1088              		.cfi_offset 3, -16
 1089              		.cfi_offset 4, -12
 1090              		.cfi_offset 5, -8
 1091              		.cfi_offset 14, -4
 1092 0002 0446     		mov	r4, r0
 589:Middlewares/ST/STM32_USB_Device_Library/Core/Src/usbd_core.c ****   USBD_StatusTypeDef ret = USBD_OK;
 1093              		.loc 1 589 3 is_stmt 1 view .LVU311
 590:Middlewares/ST/STM32_USB_Device_Library/Core/Src/usbd_core.c ****   uint8_t idx;
 1094              		.loc 1 590 3 view .LVU312
 1095              	.LVL91:
 591:Middlewares/ST/STM32_USB_Device_Library/Core/Src/usbd_core.c **** 
ARM GAS  C:\Users\aticl\AppData\Local\Temp\ccHflrtd.s 			page 40


 1096              		.loc 1 591 3 view .LVU313
 593:Middlewares/ST/STM32_USB_Device_Library/Core/Src/usbd_core.c ****   {
 1097              		.loc 1 593 3 view .LVU314
 593:Middlewares/ST/STM32_USB_Device_Library/Core/Src/usbd_core.c ****   {
 1098              		.loc 1 593 6 is_stmt 0 view .LVU315
 1099 0004 0D46     		mov	r5, r1
 1100 0006 0029     		cmp	r1, #0
 1101 0008 41D1     		bne	.L79
 1102 000a 1346     		mov	r3, r2
 595:Middlewares/ST/STM32_USB_Device_Library/Core/Src/usbd_core.c **** 
 1103              		.loc 1 595 5 is_stmt 1 view .LVU316
 1104              	.LVL92:
 597:Middlewares/ST/STM32_USB_Device_Library/Core/Src/usbd_core.c ****     {
 1105              		.loc 1 597 5 view .LVU317
 597:Middlewares/ST/STM32_USB_Device_Library/Core/Src/usbd_core.c ****     {
 1106              		.loc 1 597 13 is_stmt 0 view .LVU318
 1107 000c D0F89422 		ldr	r2, [r0, #660]
 1108              	.LVL93:
 597:Middlewares/ST/STM32_USB_Device_Library/Core/Src/usbd_core.c ****     {
 1109              		.loc 1 597 8 view .LVU319
 1110 0010 032A     		cmp	r2, #3
 1111 0012 01D0     		beq	.L90
 670:Middlewares/ST/STM32_USB_Device_Library/Core/Src/usbd_core.c **** }
 1112              		.loc 1 670 10 view .LVU320
 1113 0014 0846     		mov	r0, r1
 1114              	.LVL94:
 1115              	.L80:
 671:Middlewares/ST/STM32_USB_Device_Library/Core/Src/usbd_core.c **** 
 1116              		.loc 1 671 1 view .LVU321
 1117 0016 38BD     		pop	{r3, r4, r5, pc}
 1118              	.LVL95:
 1119              	.L90:
 599:Middlewares/ST/STM32_USB_Device_Library/Core/Src/usbd_core.c ****       {
 1120              		.loc 1 599 7 is_stmt 1 view .LVU322
 599:Middlewares/ST/STM32_USB_Device_Library/Core/Src/usbd_core.c ****       {
 1121              		.loc 1 599 14 is_stmt 0 view .LVU323
 1122 0018 D0F85C11 		ldr	r1, [r0, #348]
 1123              	.LVL96:
 599:Middlewares/ST/STM32_USB_Device_Library/Core/Src/usbd_core.c ****       {
 1124              		.loc 1 599 32 view .LVU324
 1125 001c D0F86021 		ldr	r2, [r0, #352]
 599:Middlewares/ST/STM32_USB_Device_Library/Core/Src/usbd_core.c ****       {
 1126              		.loc 1 599 10 view .LVU325
 1127 0020 9142     		cmp	r1, r2
 1128 0022 09D8     		bhi	.L91
 608:Middlewares/ST/STM32_USB_Device_Library/Core/Src/usbd_core.c ****         {
 1129              		.loc 1 608 9 is_stmt 1 view .LVU326
 608:Middlewares/ST/STM32_USB_Device_Library/Core/Src/usbd_core.c ****         {
 1130              		.loc 1 608 30 is_stmt 0 view .LVU327
 1131 0024 90F8AA32 		ldrb	r3, [r0, #682]	@ zero_extendqisi2
 1132              	.LVL97:
 608:Middlewares/ST/STM32_USB_Device_Library/Core/Src/usbd_core.c ****         {
 1133              		.loc 1 608 30 view .LVU328
 1134 0028 03F01F03 		and	r3, r3, #31
 608:Middlewares/ST/STM32_USB_Device_Library/Core/Src/usbd_core.c ****         {
 1135              		.loc 1 608 9 view .LVU329
 1136 002c 012B     		cmp	r3, #1
ARM GAS  C:\Users\aticl\AppData\Local\Temp\ccHflrtd.s 			page 41


 1137 002e 0ED0     		beq	.L82
 1138 0030 022B     		cmp	r3, #2
 1139 0032 1AD0     		beq	.L83
 1140 0034 2846     		mov	r0, r5
 1141              	.LVL98:
 608:Middlewares/ST/STM32_USB_Device_Library/Core/Src/usbd_core.c ****         {
 1142              		.loc 1 608 9 view .LVU330
 1143 0036 0FE0     		b	.L84
 1144              	.LVL99:
 1145              	.L91:
 601:Middlewares/ST/STM32_USB_Device_Library/Core/Src/usbd_core.c **** 
 1146              		.loc 1 601 9 is_stmt 1 view .LVU331
 601:Middlewares/ST/STM32_USB_Device_Library/Core/Src/usbd_core.c **** 
 1147              		.loc 1 601 25 is_stmt 0 view .LVU332
 1148 0038 891A     		subs	r1, r1, r2
 1149 003a C0F85C11 		str	r1, [r0, #348]
 603:Middlewares/ST/STM32_USB_Device_Library/Core/Src/usbd_core.c ****       }
 1150              		.loc 1 603 9 is_stmt 1 view .LVU333
 603:Middlewares/ST/STM32_USB_Device_Library/Core/Src/usbd_core.c ****       }
 1151              		.loc 1 603 15 is_stmt 0 view .LVU334
 1152 003e 8A42     		cmp	r2, r1
 1153 0040 28BF     		it	cs
 1154 0042 0A46     		movcs	r2, r1
 1155 0044 1946     		mov	r1, r3
 1156 0046 FFF7FEFF 		bl	USBD_CtlContinueRx
 1157              	.LVL100:
 670:Middlewares/ST/STM32_USB_Device_Library/Core/Src/usbd_core.c **** }
 1158              		.loc 1 670 10 view .LVU335
 1159 004a 2846     		mov	r0, r5
 1160 004c E3E7     		b	.L80
 1161              	.LVL101:
 1162              	.L82:
 617:Middlewares/ST/STM32_USB_Device_Library/Core/Src/usbd_core.c ****             break;
 1163              		.loc 1 617 13 is_stmt 1 view .LVU336
 617:Middlewares/ST/STM32_USB_Device_Library/Core/Src/usbd_core.c ****             break;
 1164              		.loc 1 617 19 is_stmt 0 view .LVU337
 1165 004e 90F8AE12 		ldrb	r1, [r0, #686]	@ zero_extendqisi2
 1166 0052 FFF7FEFF 		bl	USBD_CoreFindIF
 1167              	.LVL102:
 618:Middlewares/ST/STM32_USB_Device_Library/Core/Src/usbd_core.c **** 
 1168              		.loc 1 618 13 is_stmt 1 view .LVU338
 1169              	.L85:
 630:Middlewares/ST/STM32_USB_Device_Library/Core/Src/usbd_core.c ****         {
 1170              		.loc 1 630 9 view .LVU339
 630:Middlewares/ST/STM32_USB_Device_Library/Core/Src/usbd_core.c ****         {
 1171              		.loc 1 630 12 is_stmt 0 view .LVU340
 1172 0056 18B9     		cbnz	r0, .L86
 1173              	.LVL103:
 1174              	.L84:
 633:Middlewares/ST/STM32_USB_Device_Library/Core/Src/usbd_core.c ****           {
 1175              		.loc 1 633 11 is_stmt 1 view .LVU341
 633:Middlewares/ST/STM32_USB_Device_Library/Core/Src/usbd_core.c ****           {
 1176              		.loc 1 633 19 is_stmt 0 view .LVU342
 1177 0058 94F89C32 		ldrb	r3, [r4, #668]	@ zero_extendqisi2
 633:Middlewares/ST/STM32_USB_Device_Library/Core/Src/usbd_core.c ****           {
 1178              		.loc 1 633 14 view .LVU343
 1179 005c 032B     		cmp	r3, #3
ARM GAS  C:\Users\aticl\AppData\Local\Temp\ccHflrtd.s 			page 42


 1180 005e 09D0     		beq	.L92
 1181              	.L86:
 643:Middlewares/ST/STM32_USB_Device_Library/Core/Src/usbd_core.c ****       }
 1182              		.loc 1 643 9 is_stmt 1 view .LVU344
 643:Middlewares/ST/STM32_USB_Device_Library/Core/Src/usbd_core.c ****       }
 1183              		.loc 1 643 15 is_stmt 0 view .LVU345
 1184 0060 2046     		mov	r0, r4
 1185 0062 FFF7FEFF 		bl	USBD_CtlSendStatus
 1186              	.LVL104:
 670:Middlewares/ST/STM32_USB_Device_Library/Core/Src/usbd_core.c **** }
 1187              		.loc 1 670 10 view .LVU346
 1188 0066 2846     		mov	r0, r5
 1189 0068 D5E7     		b	.L80
 1190              	.LVL105:
 1191              	.L83:
 621:Middlewares/ST/STM32_USB_Device_Library/Core/Src/usbd_core.c ****             break;
 1192              		.loc 1 621 13 is_stmt 1 view .LVU347
 621:Middlewares/ST/STM32_USB_Device_Library/Core/Src/usbd_core.c ****             break;
 1193              		.loc 1 621 19 is_stmt 0 view .LVU348
 1194 006a 90F8AE12 		ldrb	r1, [r0, #686]	@ zero_extendqisi2
 1195 006e FFF7FEFF 		bl	USBD_CoreFindEP
 1196              	.LVL106:
 622:Middlewares/ST/STM32_USB_Device_Library/Core/Src/usbd_core.c **** 
 1197              		.loc 1 622 13 is_stmt 1 view .LVU349
 1198 0072 F0E7     		b	.L85
 1199              	.LVL107:
 1200              	.L92:
 635:Middlewares/ST/STM32_USB_Device_Library/Core/Src/usbd_core.c ****             {
 1201              		.loc 1 635 13 view .LVU350
 635:Middlewares/ST/STM32_USB_Device_Library/Core/Src/usbd_core.c ****             {
 1202              		.loc 1 635 29 is_stmt 0 view .LVU351
 1203 0074 00F1AE03 		add	r3, r0, #174
 1204 0078 54F82330 		ldr	r3, [r4, r3, lsl #2]
 635:Middlewares/ST/STM32_USB_Device_Library/Core/Src/usbd_core.c ****             {
 1205              		.loc 1 635 34 view .LVU352
 1206 007c 1A69     		ldr	r2, [r3, #16]
 635:Middlewares/ST/STM32_USB_Device_Library/Core/Src/usbd_core.c ****             {
 1207              		.loc 1 635 16 view .LVU353
 1208 007e 002A     		cmp	r2, #0
 1209 0080 EED0     		beq	.L86
 637:Middlewares/ST/STM32_USB_Device_Library/Core/Src/usbd_core.c ****               pdev->pClass[idx]->EP0_RxReady(pdev);
 1210              		.loc 1 637 15 is_stmt 1 view .LVU354
 637:Middlewares/ST/STM32_USB_Device_Library/Core/Src/usbd_core.c ****               pdev->pClass[idx]->EP0_RxReady(pdev);
 1211              		.loc 1 637 29 is_stmt 0 view .LVU355
 1212 0082 C4F8D402 		str	r0, [r4, #724]
 638:Middlewares/ST/STM32_USB_Device_Library/Core/Src/usbd_core.c ****             }
 1213              		.loc 1 638 15 is_stmt 1 view .LVU356
 638:Middlewares/ST/STM32_USB_Device_Library/Core/Src/usbd_core.c ****             }
 1214              		.loc 1 638 32 is_stmt 0 view .LVU357
 1215 0086 1B69     		ldr	r3, [r3, #16]
 638:Middlewares/ST/STM32_USB_Device_Library/Core/Src/usbd_core.c ****             }
 1216              		.loc 1 638 15 view .LVU358
 1217 0088 2046     		mov	r0, r4
 1218 008a 9847     		blx	r3
 1219              	.LVL108:
 1220 008c E8E7     		b	.L86
 1221              	.LVL109:
ARM GAS  C:\Users\aticl\AppData\Local\Temp\ccHflrtd.s 			page 43


 1222              	.L79:
 650:Middlewares/ST/STM32_USB_Device_Library/Core/Src/usbd_core.c **** 
 1223              		.loc 1 650 5 is_stmt 1 view .LVU359
 650:Middlewares/ST/STM32_USB_Device_Library/Core/Src/usbd_core.c **** 
 1224              		.loc 1 650 11 is_stmt 0 view .LVU360
 1225 008e 01F07F01 		and	r1, r1, #127
 1226              	.LVL110:
 650:Middlewares/ST/STM32_USB_Device_Library/Core/Src/usbd_core.c **** 
 1227              		.loc 1 650 11 view .LVU361
 1228 0092 FFF7FEFF 		bl	USBD_CoreFindEP
 1229              	.LVL111:
 652:Middlewares/ST/STM32_USB_Device_Library/Core/Src/usbd_core.c ****     {
 1230              		.loc 1 652 5 is_stmt 1 view .LVU362
 652:Middlewares/ST/STM32_USB_Device_Library/Core/Src/usbd_core.c ****     {
 1231              		.loc 1 652 8 is_stmt 0 view .LVU363
 1232 0096 88B9     		cbnz	r0, .L88
 655:Middlewares/ST/STM32_USB_Device_Library/Core/Src/usbd_core.c ****       {
 1233              		.loc 1 655 7 is_stmt 1 view .LVU364
 655:Middlewares/ST/STM32_USB_Device_Library/Core/Src/usbd_core.c ****       {
 1234              		.loc 1 655 15 is_stmt 0 view .LVU365
 1235 0098 94F89C32 		ldrb	r3, [r4, #668]	@ zero_extendqisi2
 655:Middlewares/ST/STM32_USB_Device_Library/Core/Src/usbd_core.c ****       {
 1236              		.loc 1 655 10 view .LVU366
 1237 009c 032B     		cmp	r3, #3
 1238 009e BAD1     		bne	.L80
 657:Middlewares/ST/STM32_USB_Device_Library/Core/Src/usbd_core.c ****         {
 1239              		.loc 1 657 9 is_stmt 1 view .LVU367
 657:Middlewares/ST/STM32_USB_Device_Library/Core/Src/usbd_core.c ****         {
 1240              		.loc 1 657 25 is_stmt 0 view .LVU368
 1241 00a0 00F1AE03 		add	r3, r0, #174
 1242 00a4 54F82330 		ldr	r3, [r4, r3, lsl #2]
 657:Middlewares/ST/STM32_USB_Device_Library/Core/Src/usbd_core.c ****         {
 1243              		.loc 1 657 30 view .LVU369
 1244 00a8 9A69     		ldr	r2, [r3, #24]
 657:Middlewares/ST/STM32_USB_Device_Library/Core/Src/usbd_core.c ****         {
 1245              		.loc 1 657 12 view .LVU370
 1246 00aa 002A     		cmp	r2, #0
 1247 00ac B3D0     		beq	.L80
 659:Middlewares/ST/STM32_USB_Device_Library/Core/Src/usbd_core.c ****           ret = (USBD_StatusTypeDef)pdev->pClass[idx]->DataOut(pdev, epnum);
 1248              		.loc 1 659 11 is_stmt 1 view .LVU371
 659:Middlewares/ST/STM32_USB_Device_Library/Core/Src/usbd_core.c ****           ret = (USBD_StatusTypeDef)pdev->pClass[idx]->DataOut(pdev, epnum);
 1249              		.loc 1 659 25 is_stmt 0 view .LVU372
 1250 00ae C4F8D402 		str	r0, [r4, #724]
 660:Middlewares/ST/STM32_USB_Device_Library/Core/Src/usbd_core.c ****         }
 1251              		.loc 1 660 11 is_stmt 1 view .LVU373
 660:Middlewares/ST/STM32_USB_Device_Library/Core/Src/usbd_core.c ****         }
 1252              		.loc 1 660 54 is_stmt 0 view .LVU374
 1253 00b2 9B69     		ldr	r3, [r3, #24]
 660:Middlewares/ST/STM32_USB_Device_Library/Core/Src/usbd_core.c ****         }
 1254              		.loc 1 660 37 view .LVU375
 1255 00b4 2946     		mov	r1, r5
 1256 00b6 2046     		mov	r0, r4
 1257              	.LVL112:
 660:Middlewares/ST/STM32_USB_Device_Library/Core/Src/usbd_core.c ****         }
 1258              		.loc 1 660 37 view .LVU376
 1259 00b8 9847     		blx	r3
 1260              	.LVL113:
ARM GAS  C:\Users\aticl\AppData\Local\Temp\ccHflrtd.s 			page 44


 663:Middlewares/ST/STM32_USB_Device_Library/Core/Src/usbd_core.c ****       {
 1261              		.loc 1 663 7 is_stmt 1 view .LVU377
 1262 00ba ACE7     		b	.L80
 1263              	.LVL114:
 1264              	.L88:
 670:Middlewares/ST/STM32_USB_Device_Library/Core/Src/usbd_core.c **** }
 1265              		.loc 1 670 10 is_stmt 0 view .LVU378
 1266 00bc 0020     		movs	r0, #0
 1267              	.LVL115:
 670:Middlewares/ST/STM32_USB_Device_Library/Core/Src/usbd_core.c **** }
 1268              		.loc 1 670 10 view .LVU379
 1269 00be AAE7     		b	.L80
 1270              		.cfi_endproc
 1271              	.LFE157:
 1273              		.section	.text.USBD_LL_DataInStage,"ax",%progbits
 1274              		.align	1
 1275              		.global	USBD_LL_DataInStage
 1276              		.syntax unified
 1277              		.thumb
 1278              		.thumb_func
 1280              	USBD_LL_DataInStage:
 1281              	.LVL116:
 1282              	.LFB158:
 683:Middlewares/ST/STM32_USB_Device_Library/Core/Src/usbd_core.c ****   USBD_EndpointTypeDef *pep;
 1283              		.loc 1 683 1 is_stmt 1 view -0
 1284              		.cfi_startproc
 1285              		@ args = 0, pretend = 0, frame = 0
 1286              		@ frame_needed = 0, uses_anonymous_args = 0
 683:Middlewares/ST/STM32_USB_Device_Library/Core/Src/usbd_core.c ****   USBD_EndpointTypeDef *pep;
 1287              		.loc 1 683 1 is_stmt 0 view .LVU381
 1288 0000 38B5     		push	{r3, r4, r5, lr}
 1289              		.cfi_def_cfa_offset 16
 1290              		.cfi_offset 3, -16
 1291              		.cfi_offset 4, -12
 1292              		.cfi_offset 5, -8
 1293              		.cfi_offset 14, -4
 1294 0002 0446     		mov	r4, r0
 684:Middlewares/ST/STM32_USB_Device_Library/Core/Src/usbd_core.c ****   USBD_StatusTypeDef ret;
 1295              		.loc 1 684 3 is_stmt 1 view .LVU382
 685:Middlewares/ST/STM32_USB_Device_Library/Core/Src/usbd_core.c ****   uint8_t idx;
 1296              		.loc 1 685 3 view .LVU383
 686:Middlewares/ST/STM32_USB_Device_Library/Core/Src/usbd_core.c **** 
 1297              		.loc 1 686 3 view .LVU384
 688:Middlewares/ST/STM32_USB_Device_Library/Core/Src/usbd_core.c ****   {
 1298              		.loc 1 688 3 view .LVU385
 688:Middlewares/ST/STM32_USB_Device_Library/Core/Src/usbd_core.c ****   {
 1299              		.loc 1 688 6 is_stmt 0 view .LVU386
 1300 0004 0D46     		mov	r5, r1
 1301 0006 0029     		cmp	r1, #0
 1302 0008 4AD1     		bne	.L94
 1303 000a 1346     		mov	r3, r2
 690:Middlewares/ST/STM32_USB_Device_Library/Core/Src/usbd_core.c **** 
 1304              		.loc 1 690 5 is_stmt 1 view .LVU387
 1305              	.LVL117:
 692:Middlewares/ST/STM32_USB_Device_Library/Core/Src/usbd_core.c ****     {
 1306              		.loc 1 692 5 view .LVU388
 692:Middlewares/ST/STM32_USB_Device_Library/Core/Src/usbd_core.c ****     {
ARM GAS  C:\Users\aticl\AppData\Local\Temp\ccHflrtd.s 			page 45


 1307              		.loc 1 692 13 is_stmt 0 view .LVU389
 1308 000c D0F89422 		ldr	r2, [r0, #660]
 1309              	.LVL118:
 692:Middlewares/ST/STM32_USB_Device_Library/Core/Src/usbd_core.c ****     {
 1310              		.loc 1 692 8 view .LVU390
 1311 0010 022A     		cmp	r2, #2
 1312 0012 07D0     		beq	.L102
 1313              	.LVL119:
 1314              	.L95:
 732:Middlewares/ST/STM32_USB_Device_Library/Core/Src/usbd_core.c ****     {
 1315              		.loc 1 732 5 is_stmt 1 view .LVU391
 732:Middlewares/ST/STM32_USB_Device_Library/Core/Src/usbd_core.c ****     {
 1316              		.loc 1 732 13 is_stmt 0 view .LVU392
 1317 0014 94F8A002 		ldrb	r0, [r4, #672]	@ zero_extendqisi2
 732:Middlewares/ST/STM32_USB_Device_Library/Core/Src/usbd_core.c ****     {
 1318              		.loc 1 732 8 view .LVU393
 1319 0018 18B1     		cbz	r0, .L99
 734:Middlewares/ST/STM32_USB_Device_Library/Core/Src/usbd_core.c ****       pdev->dev_test_mode = 0U;
 1320              		.loc 1 734 7 is_stmt 1 view .LVU394
 735:Middlewares/ST/STM32_USB_Device_Library/Core/Src/usbd_core.c ****     }
 1321              		.loc 1 735 7 view .LVU395
 735:Middlewares/ST/STM32_USB_Device_Library/Core/Src/usbd_core.c ****     }
 1322              		.loc 1 735 27 is_stmt 0 view .LVU396
 1323 001a 0023     		movs	r3, #0
 1324 001c 84F8A032 		strb	r3, [r4, #672]
 762:Middlewares/ST/STM32_USB_Device_Library/Core/Src/usbd_core.c **** }
 1325              		.loc 1 762 10 view .LVU397
 1326 0020 2846     		mov	r0, r5
 1327              	.LVL120:
 1328              	.L99:
 763:Middlewares/ST/STM32_USB_Device_Library/Core/Src/usbd_core.c **** 
 1329              		.loc 1 763 1 view .LVU398
 1330 0022 38BD     		pop	{r3, r4, r5, pc}
 1331              	.LVL121:
 1332              	.L102:
 694:Middlewares/ST/STM32_USB_Device_Library/Core/Src/usbd_core.c ****       {
 1333              		.loc 1 694 7 is_stmt 1 view .LVU399
 694:Middlewares/ST/STM32_USB_Device_Library/Core/Src/usbd_core.c ****       {
 1334              		.loc 1 694 14 is_stmt 0 view .LVU400
 1335 0024 C269     		ldr	r2, [r0, #28]
 694:Middlewares/ST/STM32_USB_Device_Library/Core/Src/usbd_core.c ****       {
 1336              		.loc 1 694 32 view .LVU401
 1337 0026 016A     		ldr	r1, [r0, #32]
 1338              	.LVL122:
 694:Middlewares/ST/STM32_USB_Device_Library/Core/Src/usbd_core.c ****       {
 1339              		.loc 1 694 10 view .LVU402
 1340 0028 8A42     		cmp	r2, r1
 1341 002a 0DD8     		bhi	.L103
 706:Middlewares/ST/STM32_USB_Device_Library/Core/Src/usbd_core.c ****             (pep->total_length >= pep->maxpacket) &&
 1342              		.loc 1 706 9 is_stmt 1 view .LVU403
 706:Middlewares/ST/STM32_USB_Device_Library/Core/Src/usbd_core.c ****             (pep->total_length >= pep->maxpacket) &&
 1343              		.loc 1 706 12 is_stmt 0 view .LVU404
 1344 002c 8A42     		cmp	r2, r1
 1345 002e 17D0     		beq	.L104
 1346              	.LVL123:
 1347              	.L97:
 718:Middlewares/ST/STM32_USB_Device_Library/Core/Src/usbd_core.c ****           {
ARM GAS  C:\Users\aticl\AppData\Local\Temp\ccHflrtd.s 			page 46


 1348              		.loc 1 718 11 is_stmt 1 view .LVU405
 718:Middlewares/ST/STM32_USB_Device_Library/Core/Src/usbd_core.c ****           {
 1349              		.loc 1 718 19 is_stmt 0 view .LVU406
 1350 0030 94F89C32 		ldrb	r3, [r4, #668]	@ zero_extendqisi2
 718:Middlewares/ST/STM32_USB_Device_Library/Core/Src/usbd_core.c ****           {
 1351              		.loc 1 718 14 view .LVU407
 1352 0034 032B     		cmp	r3, #3
 1353 0036 27D0     		beq	.L105
 1354              	.LVL124:
 1355              	.L98:
 726:Middlewares/ST/STM32_USB_Device_Library/Core/Src/usbd_core.c ****           (void)USBD_CtlReceiveStatus(pdev);
 1356              		.loc 1 726 11 is_stmt 1 view .LVU408
 726:Middlewares/ST/STM32_USB_Device_Library/Core/Src/usbd_core.c ****           (void)USBD_CtlReceiveStatus(pdev);
 1357              		.loc 1 726 17 is_stmt 0 view .LVU409
 1358 0038 8021     		movs	r1, #128
 1359 003a 2046     		mov	r0, r4
 1360 003c FFF7FEFF 		bl	USBD_LL_StallEP
 1361              	.LVL125:
 727:Middlewares/ST/STM32_USB_Device_Library/Core/Src/usbd_core.c ****         }
 1362              		.loc 1 727 11 is_stmt 1 view .LVU410
 727:Middlewares/ST/STM32_USB_Device_Library/Core/Src/usbd_core.c ****         }
 1363              		.loc 1 727 17 is_stmt 0 view .LVU411
 1364 0040 2046     		mov	r0, r4
 1365 0042 FFF7FEFF 		bl	USBD_CtlReceiveStatus
 1366              	.LVL126:
 1367 0046 E5E7     		b	.L95
 1368              	.LVL127:
 1369              	.L103:
 696:Middlewares/ST/STM32_USB_Device_Library/Core/Src/usbd_core.c **** 
 1370              		.loc 1 696 9 is_stmt 1 view .LVU412
 696:Middlewares/ST/STM32_USB_Device_Library/Core/Src/usbd_core.c **** 
 1371              		.loc 1 696 25 is_stmt 0 view .LVU413
 1372 0048 521A     		subs	r2, r2, r1
 1373 004a C261     		str	r2, [r0, #28]
 698:Middlewares/ST/STM32_USB_Device_Library/Core/Src/usbd_core.c **** 
 1374              		.loc 1 698 9 is_stmt 1 view .LVU414
 698:Middlewares/ST/STM32_USB_Device_Library/Core/Src/usbd_core.c **** 
 1375              		.loc 1 698 15 is_stmt 0 view .LVU415
 1376 004c 1946     		mov	r1, r3
 1377 004e FFF7FEFF 		bl	USBD_CtlContinueSendData
 1378              	.LVL128:
 701:Middlewares/ST/STM32_USB_Device_Library/Core/Src/usbd_core.c ****       }
 1379              		.loc 1 701 9 is_stmt 1 view .LVU416
 701:Middlewares/ST/STM32_USB_Device_Library/Core/Src/usbd_core.c ****       }
 1380              		.loc 1 701 15 is_stmt 0 view .LVU417
 1381 0052 0023     		movs	r3, #0
 1382 0054 1A46     		mov	r2, r3
 1383 0056 1946     		mov	r1, r3
 1384 0058 2046     		mov	r0, r4
 1385 005a FFF7FEFF 		bl	USBD_LL_PrepareReceive
 1386              	.LVL129:
 1387 005e D9E7     		b	.L95
 1388              	.LVL130:
 1389              	.L104:
 707:Middlewares/ST/STM32_USB_Device_Library/Core/Src/usbd_core.c ****             (pep->total_length < pdev->ep0_data_len))
 1390              		.loc 1 707 17 view .LVU418
 1391 0060 8369     		ldr	r3, [r0, #24]
ARM GAS  C:\Users\aticl\AppData\Local\Temp\ccHflrtd.s 			page 47


 1392              	.LVL131:
 706:Middlewares/ST/STM32_USB_Device_Library/Core/Src/usbd_core.c ****             (pep->total_length >= pep->maxpacket) &&
 1393              		.loc 1 706 49 discriminator 1 view .LVU419
 1394 0062 9942     		cmp	r1, r3
 1395 0064 E4D8     		bhi	.L97
 708:Middlewares/ST/STM32_USB_Device_Library/Core/Src/usbd_core.c ****         {
 1396              		.loc 1 708 38 view .LVU420
 1397 0066 D0F89822 		ldr	r2, [r0, #664]
 707:Middlewares/ST/STM32_USB_Device_Library/Core/Src/usbd_core.c ****             (pep->total_length < pdev->ep0_data_len))
 1398              		.loc 1 707 51 view .LVU421
 1399 006a 9342     		cmp	r3, r2
 1400 006c E0D2     		bcs	.L97
 710:Middlewares/ST/STM32_USB_Device_Library/Core/Src/usbd_core.c ****           pdev->ep0_data_len = 0U;
 1401              		.loc 1 710 11 is_stmt 1 view .LVU422
 710:Middlewares/ST/STM32_USB_Device_Library/Core/Src/usbd_core.c ****           pdev->ep0_data_len = 0U;
 1402              		.loc 1 710 17 is_stmt 0 view .LVU423
 1403 006e 0022     		movs	r2, #0
 1404 0070 1146     		mov	r1, r2
 1405 0072 FFF7FEFF 		bl	USBD_CtlContinueSendData
 1406              	.LVL132:
 711:Middlewares/ST/STM32_USB_Device_Library/Core/Src/usbd_core.c **** 
 1407              		.loc 1 711 11 is_stmt 1 view .LVU424
 711:Middlewares/ST/STM32_USB_Device_Library/Core/Src/usbd_core.c **** 
 1408              		.loc 1 711 30 is_stmt 0 view .LVU425
 1409 0076 0021     		movs	r1, #0
 1410 0078 C4F89812 		str	r1, [r4, #664]
 714:Middlewares/ST/STM32_USB_Device_Library/Core/Src/usbd_core.c ****         }
 1411              		.loc 1 714 11 is_stmt 1 view .LVU426
 714:Middlewares/ST/STM32_USB_Device_Library/Core/Src/usbd_core.c ****         }
 1412              		.loc 1 714 17 is_stmt 0 view .LVU427
 1413 007c 0B46     		mov	r3, r1
 1414 007e 0A46     		mov	r2, r1
 1415 0080 2046     		mov	r0, r4
 1416 0082 FFF7FEFF 		bl	USBD_LL_PrepareReceive
 1417              	.LVL133:
 714:Middlewares/ST/STM32_USB_Device_Library/Core/Src/usbd_core.c ****         }
 1418              		.loc 1 714 11 view .LVU428
 1419 0086 C5E7     		b	.L95
 1420              	.LVL134:
 1421              	.L105:
 720:Middlewares/ST/STM32_USB_Device_Library/Core/Src/usbd_core.c ****             {
 1422              		.loc 1 720 13 is_stmt 1 view .LVU429
 720:Middlewares/ST/STM32_USB_Device_Library/Core/Src/usbd_core.c ****             {
 1423              		.loc 1 720 29 is_stmt 0 view .LVU430
 1424 0088 D4F8B832 		ldr	r3, [r4, #696]
 720:Middlewares/ST/STM32_USB_Device_Library/Core/Src/usbd_core.c ****             {
 1425              		.loc 1 720 32 view .LVU431
 1426 008c DA68     		ldr	r2, [r3, #12]
 720:Middlewares/ST/STM32_USB_Device_Library/Core/Src/usbd_core.c ****             {
 1427              		.loc 1 720 16 view .LVU432
 1428 008e 002A     		cmp	r2, #0
 1429 0090 D2D0     		beq	.L98
 722:Middlewares/ST/STM32_USB_Device_Library/Core/Src/usbd_core.c ****               pdev->pClass[0]->EP0_TxSent(pdev);
 1430              		.loc 1 722 15 is_stmt 1 view .LVU433
 722:Middlewares/ST/STM32_USB_Device_Library/Core/Src/usbd_core.c ****               pdev->pClass[0]->EP0_TxSent(pdev);
 1431              		.loc 1 722 29 is_stmt 0 view .LVU434
 1432 0092 0022     		movs	r2, #0
ARM GAS  C:\Users\aticl\AppData\Local\Temp\ccHflrtd.s 			page 48


 1433 0094 C4F8D422 		str	r2, [r4, #724]
 723:Middlewares/ST/STM32_USB_Device_Library/Core/Src/usbd_core.c ****             }
 1434              		.loc 1 723 15 is_stmt 1 view .LVU435
 723:Middlewares/ST/STM32_USB_Device_Library/Core/Src/usbd_core.c ****             }
 1435              		.loc 1 723 30 is_stmt 0 view .LVU436
 1436 0098 DB68     		ldr	r3, [r3, #12]
 723:Middlewares/ST/STM32_USB_Device_Library/Core/Src/usbd_core.c ****             }
 1437              		.loc 1 723 15 view .LVU437
 1438 009a 2046     		mov	r0, r4
 1439              	.LVL135:
 723:Middlewares/ST/STM32_USB_Device_Library/Core/Src/usbd_core.c ****             }
 1440              		.loc 1 723 15 view .LVU438
 1441 009c 9847     		blx	r3
 1442              	.LVL136:
 1443 009e CBE7     		b	.L98
 1444              	.LVL137:
 1445              	.L94:
 741:Middlewares/ST/STM32_USB_Device_Library/Core/Src/usbd_core.c **** 
 1446              		.loc 1 741 5 is_stmt 1 view .LVU439
 741:Middlewares/ST/STM32_USB_Device_Library/Core/Src/usbd_core.c **** 
 1447              		.loc 1 741 11 is_stmt 0 view .LVU440
 1448 00a0 41F08001 		orr	r1, r1, #128
 1449              	.LVL138:
 741:Middlewares/ST/STM32_USB_Device_Library/Core/Src/usbd_core.c **** 
 1450              		.loc 1 741 11 view .LVU441
 1451 00a4 FFF7FEFF 		bl	USBD_CoreFindEP
 1452              	.LVL139:
 743:Middlewares/ST/STM32_USB_Device_Library/Core/Src/usbd_core.c ****     {
 1453              		.loc 1 743 5 is_stmt 1 view .LVU442
 743:Middlewares/ST/STM32_USB_Device_Library/Core/Src/usbd_core.c ****     {
 1454              		.loc 1 743 8 is_stmt 0 view .LVU443
 1455 00a8 88B9     		cbnz	r0, .L100
 746:Middlewares/ST/STM32_USB_Device_Library/Core/Src/usbd_core.c ****       {
 1456              		.loc 1 746 7 is_stmt 1 view .LVU444
 746:Middlewares/ST/STM32_USB_Device_Library/Core/Src/usbd_core.c ****       {
 1457              		.loc 1 746 15 is_stmt 0 view .LVU445
 1458 00aa 94F89C32 		ldrb	r3, [r4, #668]	@ zero_extendqisi2
 746:Middlewares/ST/STM32_USB_Device_Library/Core/Src/usbd_core.c ****       {
 1459              		.loc 1 746 10 view .LVU446
 1460 00ae 032B     		cmp	r3, #3
 1461 00b0 B7D1     		bne	.L99
 748:Middlewares/ST/STM32_USB_Device_Library/Core/Src/usbd_core.c ****         {
 1462              		.loc 1 748 9 is_stmt 1 view .LVU447
 748:Middlewares/ST/STM32_USB_Device_Library/Core/Src/usbd_core.c ****         {
 1463              		.loc 1 748 25 is_stmt 0 view .LVU448
 1464 00b2 00F1AE03 		add	r3, r0, #174
 1465 00b6 54F82330 		ldr	r3, [r4, r3, lsl #2]
 748:Middlewares/ST/STM32_USB_Device_Library/Core/Src/usbd_core.c ****         {
 1466              		.loc 1 748 30 view .LVU449
 1467 00ba 5A69     		ldr	r2, [r3, #20]
 748:Middlewares/ST/STM32_USB_Device_Library/Core/Src/usbd_core.c ****         {
 1468              		.loc 1 748 12 view .LVU450
 1469 00bc 002A     		cmp	r2, #0
 1470 00be B0D0     		beq	.L99
 750:Middlewares/ST/STM32_USB_Device_Library/Core/Src/usbd_core.c ****           ret = (USBD_StatusTypeDef)pdev->pClass[idx]->DataIn(pdev, epnum);
 1471              		.loc 1 750 11 is_stmt 1 view .LVU451
 750:Middlewares/ST/STM32_USB_Device_Library/Core/Src/usbd_core.c ****           ret = (USBD_StatusTypeDef)pdev->pClass[idx]->DataIn(pdev, epnum);
ARM GAS  C:\Users\aticl\AppData\Local\Temp\ccHflrtd.s 			page 49


 1472              		.loc 1 750 25 is_stmt 0 view .LVU452
 1473 00c0 C4F8D402 		str	r0, [r4, #724]
 751:Middlewares/ST/STM32_USB_Device_Library/Core/Src/usbd_core.c **** 
 1474              		.loc 1 751 11 is_stmt 1 view .LVU453
 751:Middlewares/ST/STM32_USB_Device_Library/Core/Src/usbd_core.c **** 
 1475              		.loc 1 751 54 is_stmt 0 view .LVU454
 1476 00c4 5B69     		ldr	r3, [r3, #20]
 751:Middlewares/ST/STM32_USB_Device_Library/Core/Src/usbd_core.c **** 
 1477              		.loc 1 751 37 view .LVU455
 1478 00c6 2946     		mov	r1, r5
 1479 00c8 2046     		mov	r0, r4
 1480              	.LVL140:
 751:Middlewares/ST/STM32_USB_Device_Library/Core/Src/usbd_core.c **** 
 1481              		.loc 1 751 37 view .LVU456
 1482 00ca 9847     		blx	r3
 1483              	.LVL141:
 753:Middlewares/ST/STM32_USB_Device_Library/Core/Src/usbd_core.c ****           {
 1484              		.loc 1 753 11 is_stmt 1 view .LVU457
 1485 00cc A9E7     		b	.L99
 1486              	.LVL142:
 1487              	.L100:
 762:Middlewares/ST/STM32_USB_Device_Library/Core/Src/usbd_core.c **** }
 1488              		.loc 1 762 10 is_stmt 0 view .LVU458
 1489 00ce 0020     		movs	r0, #0
 1490              	.LVL143:
 762:Middlewares/ST/STM32_USB_Device_Library/Core/Src/usbd_core.c **** }
 1491              		.loc 1 762 10 view .LVU459
 1492 00d0 A7E7     		b	.L99
 1493              		.cfi_endproc
 1494              	.LFE158:
 1496              		.section	.text.USBD_GetNextDesc,"ax",%progbits
 1497              		.align	1
 1498              		.global	USBD_GetNextDesc
 1499              		.syntax unified
 1500              		.thumb
 1501              		.thumb_func
 1503              	USBD_GetNextDesc:
 1504              	.LVL144:
 1505              	.LFB171:
1112:Middlewares/ST/STM32_USB_Device_Library/Core/Src/usbd_core.c **** 
1113:Middlewares/ST/STM32_USB_Device_Library/Core/Src/usbd_core.c **** #ifdef USE_USBD_COMPOSITE
1114:Middlewares/ST/STM32_USB_Device_Library/Core/Src/usbd_core.c **** /**
1115:Middlewares/ST/STM32_USB_Device_Library/Core/Src/usbd_core.c ****   * @brief  USBD_CoreGetEPAdd
1116:Middlewares/ST/STM32_USB_Device_Library/Core/Src/usbd_core.c ****   *         Get the endpoint address relative to a selected class
1117:Middlewares/ST/STM32_USB_Device_Library/Core/Src/usbd_core.c ****   * @param  pdev: device instance
1118:Middlewares/ST/STM32_USB_Device_Library/Core/Src/usbd_core.c ****   * @param  ep_dir: USBD_EP_IN or USBD_EP_OUT
1119:Middlewares/ST/STM32_USB_Device_Library/Core/Src/usbd_core.c ****   * @param  ep_type: USBD_EP_TYPE_CTRL, USBD_EP_TYPE_ISOC, USBD_EP_TYPE_BULK or USBD_EP_TYPE_INTR
1120:Middlewares/ST/STM32_USB_Device_Library/Core/Src/usbd_core.c ****   * @param  ClassId: The Class ID
1121:Middlewares/ST/STM32_USB_Device_Library/Core/Src/usbd_core.c ****   * @retval Address of the selected endpoint or 0xFFU if no endpoint found.
1122:Middlewares/ST/STM32_USB_Device_Library/Core/Src/usbd_core.c ****   */
1123:Middlewares/ST/STM32_USB_Device_Library/Core/Src/usbd_core.c **** uint8_t USBD_CoreGetEPAdd(USBD_HandleTypeDef *pdev, uint8_t ep_dir, uint8_t ep_type, uint8_t ClassI
1124:Middlewares/ST/STM32_USB_Device_Library/Core/Src/usbd_core.c **** {
1125:Middlewares/ST/STM32_USB_Device_Library/Core/Src/usbd_core.c ****   uint8_t idx;
1126:Middlewares/ST/STM32_USB_Device_Library/Core/Src/usbd_core.c **** 
1127:Middlewares/ST/STM32_USB_Device_Library/Core/Src/usbd_core.c ****   /* Find the EP address in the selected class table */
1128:Middlewares/ST/STM32_USB_Device_Library/Core/Src/usbd_core.c ****   for (idx = 0; idx < pdev->tclasslist[ClassId].NumEps; idx++)
1129:Middlewares/ST/STM32_USB_Device_Library/Core/Src/usbd_core.c ****   {
ARM GAS  C:\Users\aticl\AppData\Local\Temp\ccHflrtd.s 			page 50


1130:Middlewares/ST/STM32_USB_Device_Library/Core/Src/usbd_core.c ****     if (((pdev->tclasslist[ClassId].Eps[idx].add & USBD_EP_IN) == ep_dir) && \
1131:Middlewares/ST/STM32_USB_Device_Library/Core/Src/usbd_core.c ****         (pdev->tclasslist[ClassId].Eps[idx].type == ep_type) && \
1132:Middlewares/ST/STM32_USB_Device_Library/Core/Src/usbd_core.c ****         (pdev->tclasslist[ClassId].Eps[idx].is_used != 0U))
1133:Middlewares/ST/STM32_USB_Device_Library/Core/Src/usbd_core.c ****     {
1134:Middlewares/ST/STM32_USB_Device_Library/Core/Src/usbd_core.c ****       return (pdev->tclasslist[ClassId].Eps[idx].add);
1135:Middlewares/ST/STM32_USB_Device_Library/Core/Src/usbd_core.c ****     }
1136:Middlewares/ST/STM32_USB_Device_Library/Core/Src/usbd_core.c ****   }
1137:Middlewares/ST/STM32_USB_Device_Library/Core/Src/usbd_core.c **** 
1138:Middlewares/ST/STM32_USB_Device_Library/Core/Src/usbd_core.c ****   /* If reaching this point, then no endpoint was found */
1139:Middlewares/ST/STM32_USB_Device_Library/Core/Src/usbd_core.c ****   return 0xFFU;
1140:Middlewares/ST/STM32_USB_Device_Library/Core/Src/usbd_core.c **** }
1141:Middlewares/ST/STM32_USB_Device_Library/Core/Src/usbd_core.c **** #endif /* USE_USBD_COMPOSITE */
1142:Middlewares/ST/STM32_USB_Device_Library/Core/Src/usbd_core.c **** 
1143:Middlewares/ST/STM32_USB_Device_Library/Core/Src/usbd_core.c **** /**
1144:Middlewares/ST/STM32_USB_Device_Library/Core/Src/usbd_core.c ****   * @brief  USBD_GetEpDesc
1145:Middlewares/ST/STM32_USB_Device_Library/Core/Src/usbd_core.c ****   *         This function return the Endpoint descriptor
1146:Middlewares/ST/STM32_USB_Device_Library/Core/Src/usbd_core.c ****   * @param  pdev: device instance
1147:Middlewares/ST/STM32_USB_Device_Library/Core/Src/usbd_core.c ****   * @param  pConfDesc:  pointer to Bos descriptor
1148:Middlewares/ST/STM32_USB_Device_Library/Core/Src/usbd_core.c ****   * @param  EpAddr:  endpoint address
1149:Middlewares/ST/STM32_USB_Device_Library/Core/Src/usbd_core.c ****   * @retval pointer to video endpoint descriptor
1150:Middlewares/ST/STM32_USB_Device_Library/Core/Src/usbd_core.c ****   */
1151:Middlewares/ST/STM32_USB_Device_Library/Core/Src/usbd_core.c **** void *USBD_GetEpDesc(uint8_t *pConfDesc, uint8_t EpAddr)
1152:Middlewares/ST/STM32_USB_Device_Library/Core/Src/usbd_core.c **** {
1153:Middlewares/ST/STM32_USB_Device_Library/Core/Src/usbd_core.c ****   USBD_DescHeaderTypeDef *pdesc = (USBD_DescHeaderTypeDef *)(void *)pConfDesc;
1154:Middlewares/ST/STM32_USB_Device_Library/Core/Src/usbd_core.c ****   USBD_ConfigDescTypeDef *desc = (USBD_ConfigDescTypeDef *)(void *)pConfDesc;
1155:Middlewares/ST/STM32_USB_Device_Library/Core/Src/usbd_core.c ****   USBD_EpDescTypeDef *pEpDesc = NULL;
1156:Middlewares/ST/STM32_USB_Device_Library/Core/Src/usbd_core.c ****   uint16_t ptr;
1157:Middlewares/ST/STM32_USB_Device_Library/Core/Src/usbd_core.c **** 
1158:Middlewares/ST/STM32_USB_Device_Library/Core/Src/usbd_core.c ****   if (desc->wTotalLength > desc->bLength)
1159:Middlewares/ST/STM32_USB_Device_Library/Core/Src/usbd_core.c ****   {
1160:Middlewares/ST/STM32_USB_Device_Library/Core/Src/usbd_core.c ****     ptr = desc->bLength;
1161:Middlewares/ST/STM32_USB_Device_Library/Core/Src/usbd_core.c **** 
1162:Middlewares/ST/STM32_USB_Device_Library/Core/Src/usbd_core.c ****     while (ptr < desc->wTotalLength)
1163:Middlewares/ST/STM32_USB_Device_Library/Core/Src/usbd_core.c ****     {
1164:Middlewares/ST/STM32_USB_Device_Library/Core/Src/usbd_core.c ****       pdesc = USBD_GetNextDesc((uint8_t *)pdesc, &ptr);
1165:Middlewares/ST/STM32_USB_Device_Library/Core/Src/usbd_core.c **** 
1166:Middlewares/ST/STM32_USB_Device_Library/Core/Src/usbd_core.c ****       if (pdesc->bDescriptorType == USB_DESC_TYPE_ENDPOINT)
1167:Middlewares/ST/STM32_USB_Device_Library/Core/Src/usbd_core.c ****       {
1168:Middlewares/ST/STM32_USB_Device_Library/Core/Src/usbd_core.c ****         pEpDesc = (USBD_EpDescTypeDef *)(void *)pdesc;
1169:Middlewares/ST/STM32_USB_Device_Library/Core/Src/usbd_core.c **** 
1170:Middlewares/ST/STM32_USB_Device_Library/Core/Src/usbd_core.c ****         if (pEpDesc->bEndpointAddress == EpAddr)
1171:Middlewares/ST/STM32_USB_Device_Library/Core/Src/usbd_core.c ****         {
1172:Middlewares/ST/STM32_USB_Device_Library/Core/Src/usbd_core.c ****           break;
1173:Middlewares/ST/STM32_USB_Device_Library/Core/Src/usbd_core.c ****         }
1174:Middlewares/ST/STM32_USB_Device_Library/Core/Src/usbd_core.c ****         else
1175:Middlewares/ST/STM32_USB_Device_Library/Core/Src/usbd_core.c ****         {
1176:Middlewares/ST/STM32_USB_Device_Library/Core/Src/usbd_core.c ****           pEpDesc = NULL;
1177:Middlewares/ST/STM32_USB_Device_Library/Core/Src/usbd_core.c ****         }
1178:Middlewares/ST/STM32_USB_Device_Library/Core/Src/usbd_core.c ****       }
1179:Middlewares/ST/STM32_USB_Device_Library/Core/Src/usbd_core.c ****     }
1180:Middlewares/ST/STM32_USB_Device_Library/Core/Src/usbd_core.c ****   }
1181:Middlewares/ST/STM32_USB_Device_Library/Core/Src/usbd_core.c **** 
1182:Middlewares/ST/STM32_USB_Device_Library/Core/Src/usbd_core.c ****   return (void *)pEpDesc;
1183:Middlewares/ST/STM32_USB_Device_Library/Core/Src/usbd_core.c **** }
1184:Middlewares/ST/STM32_USB_Device_Library/Core/Src/usbd_core.c **** 
1185:Middlewares/ST/STM32_USB_Device_Library/Core/Src/usbd_core.c **** /**
1186:Middlewares/ST/STM32_USB_Device_Library/Core/Src/usbd_core.c ****   * @brief  USBD_GetNextDesc
ARM GAS  C:\Users\aticl\AppData\Local\Temp\ccHflrtd.s 			page 51


1187:Middlewares/ST/STM32_USB_Device_Library/Core/Src/usbd_core.c ****   *         This function return the next descriptor header
1188:Middlewares/ST/STM32_USB_Device_Library/Core/Src/usbd_core.c ****   * @param  buf: Buffer where the descriptor is available
1189:Middlewares/ST/STM32_USB_Device_Library/Core/Src/usbd_core.c ****   * @param  ptr: data pointer inside the descriptor
1190:Middlewares/ST/STM32_USB_Device_Library/Core/Src/usbd_core.c ****   * @retval next header
1191:Middlewares/ST/STM32_USB_Device_Library/Core/Src/usbd_core.c ****   */
1192:Middlewares/ST/STM32_USB_Device_Library/Core/Src/usbd_core.c **** USBD_DescHeaderTypeDef *USBD_GetNextDesc(uint8_t *pbuf, uint16_t *ptr)
1193:Middlewares/ST/STM32_USB_Device_Library/Core/Src/usbd_core.c **** {
 1506              		.loc 1 1193 1 is_stmt 1 view -0
 1507              		.cfi_startproc
 1508              		@ args = 0, pretend = 0, frame = 0
 1509              		@ frame_needed = 0, uses_anonymous_args = 0
 1510              		@ link register save eliminated.
1194:Middlewares/ST/STM32_USB_Device_Library/Core/Src/usbd_core.c ****   USBD_DescHeaderTypeDef *pnext = (USBD_DescHeaderTypeDef *)(void *)pbuf;
 1511              		.loc 1 1194 3 view .LVU461
1195:Middlewares/ST/STM32_USB_Device_Library/Core/Src/usbd_core.c **** 
1196:Middlewares/ST/STM32_USB_Device_Library/Core/Src/usbd_core.c ****   *ptr += pnext->bLength;
 1512              		.loc 1 1196 3 view .LVU462
 1513 0000 0B88     		ldrh	r3, [r1]
 1514              		.loc 1 1196 16 is_stmt 0 view .LVU463
 1515 0002 0278     		ldrb	r2, [r0]	@ zero_extendqisi2
 1516              		.loc 1 1196 8 view .LVU464
 1517 0004 1344     		add	r3, r3, r2
 1518 0006 0B80     		strh	r3, [r1]	@ movhi
1197:Middlewares/ST/STM32_USB_Device_Library/Core/Src/usbd_core.c ****   pnext = (USBD_DescHeaderTypeDef *)(void *)(pbuf + pnext->bLength);
 1519              		.loc 1 1197 3 is_stmt 1 view .LVU465
 1520              		.loc 1 1197 58 is_stmt 0 view .LVU466
 1521 0008 0378     		ldrb	r3, [r0]	@ zero_extendqisi2
 1522              	.LVL145:
1198:Middlewares/ST/STM32_USB_Device_Library/Core/Src/usbd_core.c **** 
1199:Middlewares/ST/STM32_USB_Device_Library/Core/Src/usbd_core.c ****   return (pnext);
 1523              		.loc 1 1199 3 is_stmt 1 view .LVU467
1200:Middlewares/ST/STM32_USB_Device_Library/Core/Src/usbd_core.c **** }
 1524              		.loc 1 1200 1 is_stmt 0 view .LVU468
 1525 000a 1844     		add	r0, r0, r3
 1526              	.LVL146:
 1527              		.loc 1 1200 1 view .LVU469
 1528 000c 7047     		bx	lr
 1529              		.cfi_endproc
 1530              	.LFE171:
 1532              		.section	.text.USBD_GetEpDesc,"ax",%progbits
 1533              		.align	1
 1534              		.global	USBD_GetEpDesc
 1535              		.syntax unified
 1536              		.thumb
 1537              		.thumb_func
 1539              	USBD_GetEpDesc:
 1540              	.LVL147:
 1541              	.LFB170:
1152:Middlewares/ST/STM32_USB_Device_Library/Core/Src/usbd_core.c ****   USBD_DescHeaderTypeDef *pdesc = (USBD_DescHeaderTypeDef *)(void *)pConfDesc;
 1542              		.loc 1 1152 1 is_stmt 1 view -0
 1543              		.cfi_startproc
 1544              		@ args = 0, pretend = 0, frame = 8
 1545              		@ frame_needed = 0, uses_anonymous_args = 0
1153:Middlewares/ST/STM32_USB_Device_Library/Core/Src/usbd_core.c ****   USBD_ConfigDescTypeDef *desc = (USBD_ConfigDescTypeDef *)(void *)pConfDesc;
 1546              		.loc 1 1153 3 view .LVU471
1154:Middlewares/ST/STM32_USB_Device_Library/Core/Src/usbd_core.c ****   USBD_EpDescTypeDef *pEpDesc = NULL;
 1547              		.loc 1 1154 3 view .LVU472
ARM GAS  C:\Users\aticl\AppData\Local\Temp\ccHflrtd.s 			page 52


1155:Middlewares/ST/STM32_USB_Device_Library/Core/Src/usbd_core.c ****   uint16_t ptr;
 1548              		.loc 1 1155 3 view .LVU473
1156:Middlewares/ST/STM32_USB_Device_Library/Core/Src/usbd_core.c **** 
 1549              		.loc 1 1156 3 view .LVU474
1158:Middlewares/ST/STM32_USB_Device_Library/Core/Src/usbd_core.c ****   {
 1550              		.loc 1 1158 3 view .LVU475
1158:Middlewares/ST/STM32_USB_Device_Library/Core/Src/usbd_core.c ****   {
 1551              		.loc 1 1158 11 is_stmt 0 view .LVU476
 1552 0000 4288     		ldrh	r2, [r0, #2]	@ unaligned
1158:Middlewares/ST/STM32_USB_Device_Library/Core/Src/usbd_core.c ****   {
 1553              		.loc 1 1158 32 view .LVU477
 1554 0002 0378     		ldrb	r3, [r0]	@ zero_extendqisi2
1158:Middlewares/ST/STM32_USB_Device_Library/Core/Src/usbd_core.c ****   {
 1555              		.loc 1 1158 6 view .LVU478
 1556 0004 9A42     		cmp	r2, r3
 1557 0006 18D9     		bls	.L111
1152:Middlewares/ST/STM32_USB_Device_Library/Core/Src/usbd_core.c ****   USBD_DescHeaderTypeDef *pdesc = (USBD_DescHeaderTypeDef *)(void *)pConfDesc;
 1558              		.loc 1 1152 1 view .LVU479
 1559 0008 30B5     		push	{r4, r5, lr}
 1560              		.cfi_def_cfa_offset 12
 1561              		.cfi_offset 4, -12
 1562              		.cfi_offset 5, -8
 1563              		.cfi_offset 14, -4
 1564 000a 83B0     		sub	sp, sp, #12
 1565              		.cfi_def_cfa_offset 24
 1566 000c 0446     		mov	r4, r0
 1567 000e 0D46     		mov	r5, r1
1160:Middlewares/ST/STM32_USB_Device_Library/Core/Src/usbd_core.c **** 
 1568              		.loc 1 1160 5 is_stmt 1 view .LVU480
1160:Middlewares/ST/STM32_USB_Device_Library/Core/Src/usbd_core.c **** 
 1569              		.loc 1 1160 9 is_stmt 0 view .LVU481
 1570 0010 ADF80630 		strh	r3, [sp, #6]	@ movhi
1162:Middlewares/ST/STM32_USB_Device_Library/Core/Src/usbd_core.c ****     {
 1571              		.loc 1 1162 5 is_stmt 1 view .LVU482
 1572              	.LVL148:
 1573              	.L109:
1162:Middlewares/ST/STM32_USB_Device_Library/Core/Src/usbd_core.c ****     {
 1574              		.loc 1 1162 16 view .LVU483
1162:Middlewares/ST/STM32_USB_Device_Library/Core/Src/usbd_core.c ****     {
 1575              		.loc 1 1162 22 is_stmt 0 view .LVU484
 1576 0014 6388     		ldrh	r3, [r4, #2]	@ unaligned
1162:Middlewares/ST/STM32_USB_Device_Library/Core/Src/usbd_core.c ****     {
 1577              		.loc 1 1162 16 view .LVU485
 1578 0016 BDF80620 		ldrh	r2, [sp, #6]
 1579 001a 9A42     		cmp	r2, r3
 1580 001c 0AD2     		bcs	.L116
1164:Middlewares/ST/STM32_USB_Device_Library/Core/Src/usbd_core.c **** 
 1581              		.loc 1 1164 7 is_stmt 1 view .LVU486
1164:Middlewares/ST/STM32_USB_Device_Library/Core/Src/usbd_core.c **** 
 1582              		.loc 1 1164 15 is_stmt 0 view .LVU487
 1583 001e 0DF10601 		add	r1, sp, #6
 1584 0022 FFF7FEFF 		bl	USBD_GetNextDesc
 1585              	.LVL149:
1166:Middlewares/ST/STM32_USB_Device_Library/Core/Src/usbd_core.c ****       {
 1586              		.loc 1 1166 7 is_stmt 1 view .LVU488
1166:Middlewares/ST/STM32_USB_Device_Library/Core/Src/usbd_core.c ****       {
 1587              		.loc 1 1166 16 is_stmt 0 view .LVU489
ARM GAS  C:\Users\aticl\AppData\Local\Temp\ccHflrtd.s 			page 53


 1588 0026 4378     		ldrb	r3, [r0, #1]	@ zero_extendqisi2
1166:Middlewares/ST/STM32_USB_Device_Library/Core/Src/usbd_core.c ****       {
 1589              		.loc 1 1166 10 view .LVU490
 1590 0028 052B     		cmp	r3, #5
 1591 002a F3D1     		bne	.L109
1168:Middlewares/ST/STM32_USB_Device_Library/Core/Src/usbd_core.c **** 
 1592              		.loc 1 1168 9 is_stmt 1 view .LVU491
 1593              	.LVL150:
1170:Middlewares/ST/STM32_USB_Device_Library/Core/Src/usbd_core.c ****         {
 1594              		.loc 1 1170 9 view .LVU492
1170:Middlewares/ST/STM32_USB_Device_Library/Core/Src/usbd_core.c ****         {
 1595              		.loc 1 1170 20 is_stmt 0 view .LVU493
 1596 002c 8378     		ldrb	r3, [r0, #2]	@ zero_extendqisi2
1170:Middlewares/ST/STM32_USB_Device_Library/Core/Src/usbd_core.c ****         {
 1597              		.loc 1 1170 12 view .LVU494
 1598 002e AB42     		cmp	r3, r5
 1599 0030 F0D1     		bne	.L109
 1600 0032 00E0     		b	.L107
 1601              	.LVL151:
 1602              	.L116:
1170:Middlewares/ST/STM32_USB_Device_Library/Core/Src/usbd_core.c ****         {
 1603              		.loc 1 1170 12 view .LVU495
 1604 0034 0020     		movs	r0, #0
 1605              	.LVL152:
 1606              	.L107:
1183:Middlewares/ST/STM32_USB_Device_Library/Core/Src/usbd_core.c **** 
 1607              		.loc 1 1183 1 view .LVU496
 1608 0036 03B0     		add	sp, sp, #12
 1609              		.cfi_def_cfa_offset 12
 1610              		@ sp needed
 1611 0038 30BD     		pop	{r4, r5, pc}
 1612              	.LVL153:
 1613              	.L111:
 1614              		.cfi_def_cfa_offset 0
 1615              		.cfi_restore 4
 1616              		.cfi_restore 5
 1617              		.cfi_restore 14
1155:Middlewares/ST/STM32_USB_Device_Library/Core/Src/usbd_core.c ****   uint16_t ptr;
 1618              		.loc 1 1155 23 view .LVU497
 1619 003a 0020     		movs	r0, #0
 1620              	.LVL154:
1182:Middlewares/ST/STM32_USB_Device_Library/Core/Src/usbd_core.c **** }
 1621              		.loc 1 1182 3 is_stmt 1 view .LVU498
1183:Middlewares/ST/STM32_USB_Device_Library/Core/Src/usbd_core.c **** 
 1622              		.loc 1 1183 1 is_stmt 0 view .LVU499
 1623 003c 7047     		bx	lr
 1624              		.cfi_endproc
 1625              	.LFE170:
 1627              		.text
 1628              	.Letext0:
 1629              		.file 2 "C:/Users/aticl/AppData/Roaming/Code/User/globalStorage/bmd.stm32-for-vscode/@xpack-dev-to
 1630              		.file 3 "C:/Users/aticl/AppData/Roaming/Code/User/globalStorage/bmd.stm32-for-vscode/@xpack-dev-to
 1631              		.file 4 "Middlewares/ST/STM32_USB_Device_Library/Core/Inc/usbd_def.h"
 1632              		.file 5 "Middlewares/ST/STM32_USB_Device_Library/Core/Inc/usbd_core.h"
 1633              		.file 6 "Middlewares/ST/STM32_USB_Device_Library/Core/Inc/usbd_ioreq.h"
 1634              		.file 7 "Middlewares/ST/STM32_USB_Device_Library/Core/Inc/usbd_ctlreq.h"
ARM GAS  C:\Users\aticl\AppData\Local\Temp\ccHflrtd.s 			page 54

