ARM GAS  C:\Users\aticl\AppData\Local\Temp\ccxCzMXi.s 			page 1


   1              		.cpu cortex-m7
   2              		.arch armv7e-m
   3              		.fpu fpv5-d16
   4              		.eabi_attribute 28, 1
   5              		.eabi_attribute 20, 1
   6              		.eabi_attribute 21, 1
   7              		.eabi_attribute 23, 3
   8              		.eabi_attribute 24, 1
   9              		.eabi_attribute 25, 1
  10              		.eabi_attribute 26, 1
  11              		.eabi_attribute 30, 1
  12              		.eabi_attribute 34, 1
  13              		.eabi_attribute 18, 4
  14              		.file	"stm32h7xx_hal_hsem.c"
  15              		.text
  16              		.section	.text.HAL_HSEM_Take,"ax",%progbits
  17              		.align	1
  18              		.global	HAL_HSEM_Take
  19              		.syntax unified
  20              		.thumb
  21              		.thumb_func
  23              	HAL_HSEM_Take:
  24              		@ args = 0, pretend = 0, frame = 0
  25              		@ frame_needed = 0, uses_anonymous_args = 0
  26              		@ link register save eliminated.
  27 0000 064B     		ldr	r3, .L4
  28 0002 0B43     		orrs	r3, r3, r1
  29 0004 064A     		ldr	r2, .L4+4
  30 0006 42F82030 		str	r3, [r2, r0, lsl #2]
  31 000a 52F82020 		ldr	r2, [r2, r0, lsl #2]
  32 000e 9342     		cmp	r3, r2
  33 0010 01D0     		beq	.L3
  34 0012 0120     		movs	r0, #1
  35 0014 7047     		bx	lr
  36              	.L3:
  37 0016 0020     		movs	r0, #0
  38 0018 7047     		bx	lr
  39              	.L5:
  40 001a 00BF     		.align	2
  41              	.L4:
  42 001c 00030080 		.word	-2147482880
  43 0020 00640258 		.word	1476551680
  45              		.section	.text.HAL_HSEM_FastTake,"ax",%progbits
  46              		.align	1
  47              		.global	HAL_HSEM_FastTake
  48              		.syntax unified
  49              		.thumb
  50              		.thumb_func
  52              	HAL_HSEM_FastTake:
  53              		@ args = 0, pretend = 0, frame = 0
  54              		@ frame_needed = 0, uses_anonymous_args = 0
  55              		@ link register save eliminated.
  56 0000 2030     		adds	r0, r0, #32
  57 0002 054B     		ldr	r3, .L9
  58 0004 53F82020 		ldr	r2, [r3, r0, lsl #2]
  59 0008 044B     		ldr	r3, .L9+4
  60 000a 9A42     		cmp	r2, r3
ARM GAS  C:\Users\aticl\AppData\Local\Temp\ccxCzMXi.s 			page 2


  61 000c 01D0     		beq	.L8
  62 000e 0120     		movs	r0, #1
  63 0010 7047     		bx	lr
  64              	.L8:
  65 0012 0020     		movs	r0, #0
  66 0014 7047     		bx	lr
  67              	.L10:
  68 0016 00BF     		.align	2
  69              	.L9:
  70 0018 00640258 		.word	1476551680
  71 001c 00030080 		.word	-2147482880
  73              		.section	.text.HAL_HSEM_IsSemTaken,"ax",%progbits
  74              		.align	1
  75              		.global	HAL_HSEM_IsSemTaken
  76              		.syntax unified
  77              		.thumb
  78              		.thumb_func
  80              	HAL_HSEM_IsSemTaken:
  81              		@ args = 0, pretend = 0, frame = 0
  82              		@ frame_needed = 0, uses_anonymous_args = 0
  83              		@ link register save eliminated.
  84 0000 044B     		ldr	r3, .L15
  85 0002 53F82030 		ldr	r3, [r3, r0, lsl #2]
  86 0006 002B     		cmp	r3, #0
  87 0008 01DB     		blt	.L14
  88 000a 0020     		movs	r0, #0
  89 000c 7047     		bx	lr
  90              	.L14:
  91 000e 0120     		movs	r0, #1
  92 0010 7047     		bx	lr
  93              	.L16:
  94 0012 00BF     		.align	2
  95              	.L15:
  96 0014 00640258 		.word	1476551680
  98              		.section	.text.HAL_HSEM_Release,"ax",%progbits
  99              		.align	1
 100              		.global	HAL_HSEM_Release
 101              		.syntax unified
 102              		.thumb
 103              		.thumb_func
 105              	HAL_HSEM_Release:
 106              		@ args = 0, pretend = 0, frame = 0
 107              		@ frame_needed = 0, uses_anonymous_args = 0
 108              		@ link register save eliminated.
 109 0000 41F44071 		orr	r1, r1, #768
 110 0004 014B     		ldr	r3, .L18
 111 0006 43F82010 		str	r1, [r3, r0, lsl #2]
 112 000a 7047     		bx	lr
 113              	.L19:
 114              		.align	2
 115              	.L18:
 116 000c 00640258 		.word	1476551680
 118              		.section	.text.HAL_HSEM_ReleaseAll,"ax",%progbits
 119              		.align	1
 120              		.global	HAL_HSEM_ReleaseAll
 121              		.syntax unified
 122              		.thumb
ARM GAS  C:\Users\aticl\AppData\Local\Temp\ccxCzMXi.s 			page 3


 123              		.thumb_func
 125              	HAL_HSEM_ReleaseAll:
 126              		@ args = 0, pretend = 0, frame = 0
 127              		@ frame_needed = 0, uses_anonymous_args = 0
 128              		@ link register save eliminated.
 129 0000 0902     		lsls	r1, r1, #8
 130 0002 41EA0041 		orr	r1, r1, r0, lsl #16
 131 0006 024B     		ldr	r3, .L21
 132 0008 C3F84011 		str	r1, [r3, #320]
 133 000c 7047     		bx	lr
 134              	.L22:
 135 000e 00BF     		.align	2
 136              	.L21:
 137 0010 00640258 		.word	1476551680
 139              		.section	.text.HAL_HSEM_SetClearKey,"ax",%progbits
 140              		.align	1
 141              		.global	HAL_HSEM_SetClearKey
 142              		.syntax unified
 143              		.thumb
 144              		.thumb_func
 146              	HAL_HSEM_SetClearKey:
 147              		@ args = 0, pretend = 0, frame = 0
 148              		@ frame_needed = 0, uses_anonymous_args = 0
 149              		@ link register save eliminated.
 150 0000 044A     		ldr	r2, .L24
 151 0002 D2F84431 		ldr	r3, [r2, #324]
 152 0006 9BB2     		uxth	r3, r3
 153 0008 43EA0043 		orr	r3, r3, r0, lsl #16
 154 000c C2F84431 		str	r3, [r2, #324]
 155 0010 7047     		bx	lr
 156              	.L25:
 157 0012 00BF     		.align	2
 158              	.L24:
 159 0014 00640258 		.word	1476551680
 161              		.section	.text.HAL_HSEM_GetClearKey,"ax",%progbits
 162              		.align	1
 163              		.global	HAL_HSEM_GetClearKey
 164              		.syntax unified
 165              		.thumb
 166              		.thumb_func
 168              	HAL_HSEM_GetClearKey:
 169              		@ args = 0, pretend = 0, frame = 0
 170              		@ frame_needed = 0, uses_anonymous_args = 0
 171              		@ link register save eliminated.
 172 0000 024B     		ldr	r3, .L27
 173 0002 D3F84401 		ldr	r0, [r3, #324]
 174 0006 000C     		lsrs	r0, r0, #16
 175 0008 7047     		bx	lr
 176              	.L28:
 177 000a 00BF     		.align	2
 178              	.L27:
 179 000c 00640258 		.word	1476551680
 181              		.section	.text.HAL_HSEM_ActivateNotification,"ax",%progbits
 182              		.align	1
 183              		.global	HAL_HSEM_ActivateNotification
 184              		.syntax unified
 185              		.thumb
ARM GAS  C:\Users\aticl\AppData\Local\Temp\ccxCzMXi.s 			page 4


 186              		.thumb_func
 188              	HAL_HSEM_ActivateNotification:
 189              		@ args = 0, pretend = 0, frame = 0
 190              		@ frame_needed = 0, uses_anonymous_args = 0
 191              		@ link register save eliminated.
 192 0000 024A     		ldr	r2, .L30
 193 0002 1368     		ldr	r3, [r2]
 194 0004 0343     		orrs	r3, r3, r0
 195 0006 1360     		str	r3, [r2]
 196 0008 7047     		bx	lr
 197              	.L31:
 198 000a 00BF     		.align	2
 199              	.L30:
 200 000c 00650258 		.word	1476551936
 202              		.section	.text.HAL_HSEM_DeactivateNotification,"ax",%progbits
 203              		.align	1
 204              		.global	HAL_HSEM_DeactivateNotification
 205              		.syntax unified
 206              		.thumb
 207              		.thumb_func
 209              	HAL_HSEM_DeactivateNotification:
 210              		@ args = 0, pretend = 0, frame = 0
 211              		@ frame_needed = 0, uses_anonymous_args = 0
 212              		@ link register save eliminated.
 213 0000 024A     		ldr	r2, .L33
 214 0002 1368     		ldr	r3, [r2]
 215 0004 23EA0003 		bic	r3, r3, r0
 216 0008 1360     		str	r3, [r2]
 217 000a 7047     		bx	lr
 218              	.L34:
 219              		.align	2
 220              	.L33:
 221 000c 00650258 		.word	1476551936
 223              		.section	.text.HAL_HSEM_FreeCallback,"ax",%progbits
 224              		.align	1
 225              		.weak	HAL_HSEM_FreeCallback
 226              		.syntax unified
 227              		.thumb
 228              		.thumb_func
 230              	HAL_HSEM_FreeCallback:
 231              		@ args = 0, pretend = 0, frame = 0
 232              		@ frame_needed = 0, uses_anonymous_args = 0
 233              		@ link register save eliminated.
 234 0000 7047     		bx	lr
 236              		.section	.text.HAL_HSEM_IRQHandler,"ax",%progbits
 237              		.align	1
 238              		.global	HAL_HSEM_IRQHandler
 239              		.syntax unified
 240              		.thumb
 241              		.thumb_func
 243              	HAL_HSEM_IRQHandler:
 244              		@ args = 0, pretend = 0, frame = 0
 245              		@ frame_needed = 0, uses_anonymous_args = 0
 246 0000 08B5     		push	{r3, lr}
 247 0002 054B     		ldr	r3, .L38
 248 0004 D868     		ldr	r0, [r3, #12]
 249 0006 1A68     		ldr	r2, [r3]
ARM GAS  C:\Users\aticl\AppData\Local\Temp\ccxCzMXi.s 			page 5


 250 0008 22EA0002 		bic	r2, r2, r0
 251 000c 1A60     		str	r2, [r3]
 252 000e 5860     		str	r0, [r3, #4]
 253 0010 FFF7FEFF 		bl	HAL_HSEM_FreeCallback
 254 0014 08BD     		pop	{r3, pc}
 255              	.L39:
 256 0016 00BF     		.align	2
 257              	.L38:
 258 0018 00650258 		.word	1476551936
 260              		.ident	"GCC: (xPack GNU Arm Embedded GCC x86_64) 14.2.1 20241119"
ARM GAS  C:\Users\aticl\AppData\Local\Temp\ccxCzMXi.s 			page 6

