ARM GAS  C:\Users\aticl\AppData\Local\Temp\ccR4vdEP.s 			page 1


   1              		.cpu cortex-m7
   2              		.arch armv7e-m
   3              		.fpu fpv5-d16
   4              		.eabi_attribute 28, 1
   5              		.eabi_attribute 20, 1
   6              		.eabi_attribute 21, 1
   7              		.eabi_attribute 23, 3
   8              		.eabi_attribute 24, 1
   9              		.eabi_attribute 25, 1
  10              		.eabi_attribute 26, 1
  11              		.eabi_attribute 30, 1
  12              		.eabi_attribute 34, 1
  13              		.eabi_attribute 18, 4
  14              		.file	"stm32h7xx_hal_pwr_ex.c"
  15              		.text
  16              		.section	.text.HAL_PWREx_ConfigSupply,"ax",%progbits
  17              		.align	1
  18              		.global	HAL_PWREx_ConfigSupply
  19              		.syntax unified
  20              		.thumb
  21              		.thumb_func
  23              	HAL_PWREx_ConfigSupply:
  24              		@ args = 0, pretend = 0, frame = 0
  25              		@ frame_needed = 0, uses_anonymous_args = 0
  26 0000 134B     		ldr	r3, .L12
  27 0002 DB68     		ldr	r3, [r3, #12]
  28 0004 13F0040F 		tst	r3, #4
  29 0008 07D1     		bne	.L2
  30 000a 114B     		ldr	r3, .L12
  31 000c DB68     		ldr	r3, [r3, #12]
  32 000e 03F00703 		and	r3, r3, #7
  33 0012 8342     		cmp	r3, r0
  34 0014 1AD0     		beq	.L6
  35 0016 0120     		movs	r0, #1
  36 0018 7047     		bx	lr
  37              	.L2:
  38 001a 10B5     		push	{r4, lr}
  39 001c 0C4A     		ldr	r2, .L12
  40 001e D368     		ldr	r3, [r2, #12]
  41 0020 23F00703 		bic	r3, r3, #7
  42 0024 0343     		orrs	r3, r3, r0
  43 0026 D360     		str	r3, [r2, #12]
  44 0028 FFF7FEFF 		bl	HAL_GetTick
  45 002c 0446     		mov	r4, r0
  46              	.L4:
  47 002e 084B     		ldr	r3, .L12
  48 0030 5B68     		ldr	r3, [r3, #4]
  49 0032 13F4005F 		tst	r3, #8192
  50 0036 07D1     		bne	.L11
  51 0038 FFF7FEFF 		bl	HAL_GetTick
  52 003c 001B     		subs	r0, r0, r4
  53 003e B0F57A7F 		cmp	r0, #1000
  54 0042 F4D9     		bls	.L4
  55 0044 0120     		movs	r0, #1
  56 0046 00E0     		b	.L3
  57              	.L11:
  58 0048 0020     		movs	r0, #0
ARM GAS  C:\Users\aticl\AppData\Local\Temp\ccR4vdEP.s 			page 2


  59              	.L3:
  60 004a 10BD     		pop	{r4, pc}
  61              	.L6:
  62 004c 0020     		movs	r0, #0
  63 004e 7047     		bx	lr
  64              	.L13:
  65              		.align	2
  66              	.L12:
  67 0050 00480258 		.word	1476544512
  69              		.section	.text.HAL_PWREx_GetSupplyConfig,"ax",%progbits
  70              		.align	1
  71              		.global	HAL_PWREx_GetSupplyConfig
  72              		.syntax unified
  73              		.thumb
  74              		.thumb_func
  76              	HAL_PWREx_GetSupplyConfig:
  77              		@ args = 0, pretend = 0, frame = 0
  78              		@ frame_needed = 0, uses_anonymous_args = 0
  79              		@ link register save eliminated.
  80 0000 024B     		ldr	r3, .L15
  81 0002 D868     		ldr	r0, [r3, #12]
  82 0004 00F00700 		and	r0, r0, #7
  83 0008 7047     		bx	lr
  84              	.L16:
  85 000a 00BF     		.align	2
  86              	.L15:
  87 000c 00480258 		.word	1476544512
  89              		.section	.text.HAL_PWREx_ControlVoltageScaling,"ax",%progbits
  90              		.align	1
  91              		.global	HAL_PWREx_ControlVoltageScaling
  92              		.syntax unified
  93              		.thumb
  94              		.thumb_func
  96              	HAL_PWREx_ControlVoltageScaling:
  97              		@ args = 0, pretend = 0, frame = 0
  98              		@ frame_needed = 0, uses_anonymous_args = 0
  99 0000 38B5     		push	{r3, r4, r5, lr}
 100 0002 324B     		ldr	r3, .L38
 101 0004 5B68     		ldr	r3, [r3, #4]
 102 0006 03F44043 		and	r3, r3, #49152
 103 000a 8342     		cmp	r3, r0
 104 000c 5CD0     		beq	.L28
 105 000e 0446     		mov	r4, r0
 106 0010 08BB     		cbnz	r0, .L19
 107 0012 2E4B     		ldr	r3, .L38
 108 0014 DB68     		ldr	r3, [r3, #12]
 109 0016 13F0020F 		tst	r3, #2
 110 001a 01D1     		bne	.L34
 111 001c 0120     		movs	r0, #1
 112 001e 52E0     		b	.L18
 113              	.L34:
 114 0020 2A4A     		ldr	r2, .L38
 115 0022 9369     		ldr	r3, [r2, #24]
 116 0024 43F44043 		orr	r3, r3, #49152
 117 0028 9361     		str	r3, [r2, #24]
 118 002a FFF7FEFF 		bl	HAL_GetTick
 119 002e 0446     		mov	r4, r0
ARM GAS  C:\Users\aticl\AppData\Local\Temp\ccR4vdEP.s 			page 3


 120              	.L20:
 121 0030 264B     		ldr	r3, .L38
 122 0032 5B68     		ldr	r3, [r3, #4]
 123 0034 13F4005F 		tst	r3, #8192
 124 0038 07D1     		bne	.L35
 125 003a FFF7FEFF 		bl	HAL_GetTick
 126 003e 001B     		subs	r0, r0, r4
 127 0040 B0F57A7F 		cmp	r0, #1000
 128 0044 F4D9     		bls	.L20
 129 0046 0120     		movs	r0, #1
 130 0048 3DE0     		b	.L18
 131              	.L35:
 132 004a 214A     		ldr	r2, .L38+4
 133 004c D36A     		ldr	r3, [r2, #44]
 134 004e 43F00103 		orr	r3, r3, #1
 135 0052 D362     		str	r3, [r2, #44]
 136 0054 0CE0     		b	.L22
 137              	.L19:
 138 0056 1D4B     		ldr	r3, .L38
 139 0058 5B68     		ldr	r3, [r3, #4]
 140 005a 03F44043 		and	r3, r3, #49152
 141 005e B3F5404F 		cmp	r3, #49152
 142 0062 15D0     		beq	.L36
 143              	.L23:
 144 0064 194A     		ldr	r2, .L38
 145 0066 9369     		ldr	r3, [r2, #24]
 146 0068 23F44043 		bic	r3, r3, #49152
 147 006c 2343     		orrs	r3, r3, r4
 148 006e 9361     		str	r3, [r2, #24]
 149              	.L22:
 150 0070 FFF7FEFF 		bl	HAL_GetTick
 151 0074 0446     		mov	r4, r0
 152              	.L26:
 153 0076 154B     		ldr	r3, .L38
 154 0078 5B68     		ldr	r3, [r3, #4]
 155 007a 13F4005F 		tst	r3, #8192
 156 007e 21D1     		bne	.L37
 157 0080 FFF7FEFF 		bl	HAL_GetTick
 158 0084 001B     		subs	r0, r0, r4
 159 0086 B0F57A7F 		cmp	r0, #1000
 160 008a F4D9     		bls	.L26
 161 008c 0120     		movs	r0, #1
 162 008e 1AE0     		b	.L18
 163              	.L36:
 164 0090 0F4B     		ldr	r3, .L38+4
 165 0092 DB6A     		ldr	r3, [r3, #44]
 166 0094 13F0010F 		tst	r3, #1
 167 0098 E4D0     		beq	.L23
 168 009a 0D4A     		ldr	r2, .L38+4
 169 009c D36A     		ldr	r3, [r2, #44]
 170 009e 23F00103 		bic	r3, r3, #1
 171 00a2 D362     		str	r3, [r2, #44]
 172 00a4 FFF7FEFF 		bl	HAL_GetTick
 173 00a8 0546     		mov	r5, r0
 174              	.L24:
 175 00aa 084B     		ldr	r3, .L38
 176 00ac 5B68     		ldr	r3, [r3, #4]
ARM GAS  C:\Users\aticl\AppData\Local\Temp\ccR4vdEP.s 			page 4


 177 00ae 13F4005F 		tst	r3, #8192
 178 00b2 D7D1     		bne	.L23
 179 00b4 FFF7FEFF 		bl	HAL_GetTick
 180 00b8 401B     		subs	r0, r0, r5
 181 00ba B0F57A7F 		cmp	r0, #1000
 182 00be F4D9     		bls	.L24
 183 00c0 0120     		movs	r0, #1
 184 00c2 00E0     		b	.L18
 185              	.L37:
 186 00c4 0020     		movs	r0, #0
 187              	.L18:
 188 00c6 38BD     		pop	{r3, r4, r5, pc}
 189              	.L28:
 190 00c8 0020     		movs	r0, #0
 191 00ca FCE7     		b	.L18
 192              	.L39:
 193              		.align	2
 194              	.L38:
 195 00cc 00480258 		.word	1476544512
 196 00d0 00040058 		.word	1476396032
 198              		.section	.text.HAL_PWREx_GetVoltageRange,"ax",%progbits
 199              		.align	1
 200              		.global	HAL_PWREx_GetVoltageRange
 201              		.syntax unified
 202              		.thumb
 203              		.thumb_func
 205              	HAL_PWREx_GetVoltageRange:
 206              		@ args = 0, pretend = 0, frame = 0
 207              		@ frame_needed = 0, uses_anonymous_args = 0
 208              		@ link register save eliminated.
 209 0000 024B     		ldr	r3, .L41
 210 0002 5868     		ldr	r0, [r3, #4]
 211 0004 00F44040 		and	r0, r0, #49152
 212 0008 7047     		bx	lr
 213              	.L42:
 214 000a 00BF     		.align	2
 215              	.L41:
 216 000c 00480258 		.word	1476544512
 218              		.section	.text.HAL_PWREx_ControlStopModeVoltageScaling,"ax",%progbits
 219              		.align	1
 220              		.global	HAL_PWREx_ControlStopModeVoltageScaling
 221              		.syntax unified
 222              		.thumb
 223              		.thumb_func
 225              	HAL_PWREx_ControlStopModeVoltageScaling:
 226              		@ args = 0, pretend = 0, frame = 0
 227              		@ frame_needed = 0, uses_anonymous_args = 0
 228              		@ link register save eliminated.
 229 0000 034A     		ldr	r2, .L44
 230 0002 1368     		ldr	r3, [r2]
 231 0004 23F44043 		bic	r3, r3, #49152
 232 0008 0343     		orrs	r3, r3, r0
 233 000a 1360     		str	r3, [r2]
 234 000c 0020     		movs	r0, #0
 235 000e 7047     		bx	lr
 236              	.L45:
 237              		.align	2
ARM GAS  C:\Users\aticl\AppData\Local\Temp\ccR4vdEP.s 			page 5


 238              	.L44:
 239 0010 00480258 		.word	1476544512
 241              		.section	.text.HAL_PWREx_GetStopModeVoltageRange,"ax",%progbits
 242              		.align	1
 243              		.global	HAL_PWREx_GetStopModeVoltageRange
 244              		.syntax unified
 245              		.thumb
 246              		.thumb_func
 248              	HAL_PWREx_GetStopModeVoltageRange:
 249              		@ args = 0, pretend = 0, frame = 0
 250              		@ frame_needed = 0, uses_anonymous_args = 0
 251              		@ link register save eliminated.
 252 0000 024B     		ldr	r3, .L47
 253 0002 1868     		ldr	r0, [r3]
 254 0004 00F44040 		and	r0, r0, #49152
 255 0008 7047     		bx	lr
 256              	.L48:
 257 000a 00BF     		.align	2
 258              	.L47:
 259 000c 00480258 		.word	1476544512
 261              		.section	.text.HAL_PWREx_EnterSTOPMode,"ax",%progbits
 262              		.align	1
 263              		.global	HAL_PWREx_EnterSTOPMode
 264              		.syntax unified
 265              		.thumb
 266              		.thumb_func
 268              	HAL_PWREx_EnterSTOPMode:
 269              		@ args = 0, pretend = 0, frame = 0
 270              		@ frame_needed = 0, uses_anonymous_args = 0
 271              		@ link register save eliminated.
 272 0000 10B4     		push	{r4}
 273 0002 174C     		ldr	r4, .L58
 274 0004 2368     		ldr	r3, [r4]
 275 0006 23F00103 		bic	r3, r3, #1
 276 000a 0343     		orrs	r3, r3, r0
 277 000c 2360     		str	r3, [r4]
 278 000e CAB9     		cbnz	r2, .L50
 279 0010 2369     		ldr	r3, [r4, #16]
 280 0012 23F00103 		bic	r3, r3, #1
 281 0016 2361     		str	r3, [r4, #16]
 282 0018 124A     		ldr	r2, .L58+4
 283 001a 1369     		ldr	r3, [r2, #16]
 284 001c 43F00403 		orr	r3, r3, #4
 285 0020 1361     		str	r3, [r2, #16]
 286              		.syntax unified
 287              	@ 946 "Drivers/CMSIS/Include/cmsis_gcc.h" 1
 288 0022 BFF34F8F 		dsb 0xF
 289              	@ 0 "" 2
 290              	@ 935 "Drivers/CMSIS/Include/cmsis_gcc.h" 1
 291 0026 BFF36F8F 		isb 0xF
 292              	@ 0 "" 2
 293              		.thumb
 294              		.syntax unified
 295 002a 0129     		cmp	r1, #1
 296 002c 08D0     		beq	.L56
 297              		.syntax unified
 298              	@ 864 "Drivers/STM32H7xx_HAL_Driver/Src/stm32h7xx_hal_pwr_ex.c" 1
ARM GAS  C:\Users\aticl\AppData\Local\Temp\ccR4vdEP.s 			page 6


 299 002e 20BF     		wfe
 300              	@ 0 "" 2
 301              		.thumb
 302              		.syntax unified
 303              	.L52:
 304 0030 0C4A     		ldr	r2, .L58+4
 305 0032 1369     		ldr	r3, [r2, #16]
 306 0034 23F00403 		bic	r3, r3, #4
 307 0038 1361     		str	r3, [r2, #16]
 308              	.L49:
 309 003a 5DF8044B 		ldr	r4, [sp], #4
 310 003e 7047     		bx	lr
 311              	.L56:
 312              		.syntax unified
 313              	@ 859 "Drivers/STM32H7xx_HAL_Driver/Src/stm32h7xx_hal_pwr_ex.c" 1
 314 0040 30BF     		wfi
 315              	@ 0 "" 2
 316              		.thumb
 317              		.syntax unified
 318 0042 F5E7     		b	.L52
 319              	.L50:
 320 0044 012A     		cmp	r2, #1
 321 0046 05D0     		beq	.L57
 322 0048 054A     		ldr	r2, .L58
 323 004a 1369     		ldr	r3, [r2, #16]
 324 004c 23F00403 		bic	r3, r3, #4
 325 0050 1361     		str	r3, [r2, #16]
 326 0052 F2E7     		b	.L49
 327              	.L57:
 328 0054 024A     		ldr	r2, .L58
 329 0056 1369     		ldr	r3, [r2, #16]
 330 0058 23F00203 		bic	r3, r3, #2
 331 005c 1361     		str	r3, [r2, #16]
 332 005e ECE7     		b	.L49
 333              	.L59:
 334              		.align	2
 335              	.L58:
 336 0060 00480258 		.word	1476544512
 337 0064 00ED00E0 		.word	-536810240
 339              		.section	.text.HAL_PWREx_ClearPendingEvent,"ax",%progbits
 340              		.align	1
 341              		.global	HAL_PWREx_ClearPendingEvent
 342              		.syntax unified
 343              		.thumb
 344              		.thumb_func
 346              	HAL_PWREx_ClearPendingEvent:
 347              		@ args = 0, pretend = 0, frame = 0
 348              		@ frame_needed = 0, uses_anonymous_args = 0
 349              		@ link register save eliminated.
 350              		.syntax unified
 351              	@ 957 "Drivers/STM32H7xx_HAL_Driver/Src/stm32h7xx_hal_pwr_ex.c" 1
 352 0000 20BF     		wfe
 353              	@ 0 "" 2
 354              		.thumb
 355              		.syntax unified
 356 0002 7047     		bx	lr
 358              		.section	.text.HAL_PWREx_EnterSTANDBYMode,"ax",%progbits
ARM GAS  C:\Users\aticl\AppData\Local\Temp\ccR4vdEP.s 			page 7


 359              		.align	1
 360              		.global	HAL_PWREx_EnterSTANDBYMode
 361              		.syntax unified
 362              		.thumb
 363              		.thumb_func
 365              	HAL_PWREx_EnterSTANDBYMode:
 366              		@ args = 0, pretend = 0, frame = 0
 367              		@ frame_needed = 0, uses_anonymous_args = 0
 368              		@ link register save eliminated.
 369 0000 58B9     		cbnz	r0, .L62
 370 0002 0D4A     		ldr	r2, .L66
 371 0004 1369     		ldr	r3, [r2, #16]
 372 0006 43F00103 		orr	r3, r3, #1
 373 000a 1361     		str	r3, [r2, #16]
 374 000c 0B4A     		ldr	r2, .L66+4
 375 000e 1369     		ldr	r3, [r2, #16]
 376 0010 43F00403 		orr	r3, r3, #4
 377 0014 1361     		str	r3, [r2, #16]
 378              		.syntax unified
 379              	@ 1027 "Drivers/STM32H7xx_HAL_Driver/Src/stm32h7xx_hal_pwr_ex.c" 1
 380 0016 30BF     		wfi
 381              	@ 0 "" 2
 382              		.thumb
 383              		.syntax unified
 384 0018 7047     		bx	lr
 385              	.L62:
 386 001a 0128     		cmp	r0, #1
 387 001c 05D0     		beq	.L65
 388 001e 064A     		ldr	r2, .L66
 389 0020 1369     		ldr	r3, [r2, #16]
 390 0022 43F00403 		orr	r3, r3, #4
 391 0026 1361     		str	r3, [r2, #16]
 392 0028 7047     		bx	lr
 393              	.L65:
 394 002a 034A     		ldr	r2, .L66
 395 002c 1369     		ldr	r3, [r2, #16]
 396 002e 43F00203 		orr	r3, r3, #2
 397 0032 1361     		str	r3, [r2, #16]
 398 0034 7047     		bx	lr
 399              	.L67:
 400 0036 00BF     		.align	2
 401              	.L66:
 402 0038 00480258 		.word	1476544512
 403 003c 00ED00E0 		.word	-536810240
 405              		.section	.text.HAL_PWREx_ConfigD3Domain,"ax",%progbits
 406              		.align	1
 407              		.global	HAL_PWREx_ConfigD3Domain
 408              		.syntax unified
 409              		.thumb
 410              		.thumb_func
 412              	HAL_PWREx_ConfigD3Domain:
 413              		@ args = 0, pretend = 0, frame = 0
 414              		@ frame_needed = 0, uses_anonymous_args = 0
 415              		@ link register save eliminated.
 416 0000 034A     		ldr	r2, .L69
 417 0002 1369     		ldr	r3, [r2, #16]
 418 0004 23F40063 		bic	r3, r3, #2048
ARM GAS  C:\Users\aticl\AppData\Local\Temp\ccR4vdEP.s 			page 8


 419 0008 0343     		orrs	r3, r3, r0
 420 000a 1361     		str	r3, [r2, #16]
 421 000c 7047     		bx	lr
 422              	.L70:
 423 000e 00BF     		.align	2
 424              	.L69:
 425 0010 00480258 		.word	1476544512
 427              		.section	.text.HAL_PWREx_EnableFlashPowerDown,"ax",%progbits
 428              		.align	1
 429              		.global	HAL_PWREx_EnableFlashPowerDown
 430              		.syntax unified
 431              		.thumb
 432              		.thumb_func
 434              	HAL_PWREx_EnableFlashPowerDown:
 435              		@ args = 0, pretend = 0, frame = 0
 436              		@ frame_needed = 0, uses_anonymous_args = 0
 437              		@ link register save eliminated.
 438 0000 024A     		ldr	r2, .L72
 439 0002 1368     		ldr	r3, [r2]
 440 0004 43F40073 		orr	r3, r3, #512
 441 0008 1360     		str	r3, [r2]
 442 000a 7047     		bx	lr
 443              	.L73:
 444              		.align	2
 445              	.L72:
 446 000c 00480258 		.word	1476544512
 448              		.section	.text.HAL_PWREx_DisableFlashPowerDown,"ax",%progbits
 449              		.align	1
 450              		.global	HAL_PWREx_DisableFlashPowerDown
 451              		.syntax unified
 452              		.thumb
 453              		.thumb_func
 455              	HAL_PWREx_DisableFlashPowerDown:
 456              		@ args = 0, pretend = 0, frame = 0
 457              		@ frame_needed = 0, uses_anonymous_args = 0
 458              		@ link register save eliminated.
 459 0000 024A     		ldr	r2, .L75
 460 0002 1368     		ldr	r3, [r2]
 461 0004 23F40073 		bic	r3, r3, #512
 462 0008 1360     		str	r3, [r2]
 463 000a 7047     		bx	lr
 464              	.L76:
 465              		.align	2
 466              	.L75:
 467 000c 00480258 		.word	1476544512
 469              		.section	.text.HAL_PWREx_EnableWakeUpPin,"ax",%progbits
 470              		.align	1
 471              		.global	HAL_PWREx_EnableWakeUpPin
 472              		.syntax unified
 473              		.thumb
 474              		.thumb_func
 476              	HAL_PWREx_EnableWakeUpPin:
 477              		@ args = 0, pretend = 0, frame = 0
 478              		@ frame_needed = 0, uses_anonymous_args = 0
 479              		@ link register save eliminated.
 480 0000 10B4     		push	{r4}
 481 0002 0368     		ldr	r3, [r0]
ARM GAS  C:\Users\aticl\AppData\Local\Temp\ccR4vdEP.s 			page 9


 482 0004 4168     		ldr	r1, [r0, #4]
 483              		.syntax unified
 484              	@ 1055 "Drivers/CMSIS/Include/cmsis_gcc.h" 1
 485 0006 93FAA3F2 		rbit r2, r3
 486              	@ 0 "" 2
 487              		.thumb
 488              		.syntax unified
 489 000a 002A     		cmp	r2, #0
 490 000c 42D0     		beq	.L82
 491 000e B2FA82F2 		clz	r2, r2
 492              	.L78:
 493 0012 0832     		adds	r2, r2, #8
 494 0014 02F01F02 		and	r2, r2, #31
 495 0018 01FA02F2 		lsl	r2, r1, r2
 496 001c 43EA0201 		orr	r1, r3, r2
 497 0020 8468     		ldr	r4, [r0, #8]
 498              		.syntax unified
 499              	@ 1055 "Drivers/CMSIS/Include/cmsis_gcc.h" 1
 500 0022 93FAA3F2 		rbit r2, r3
 501              	@ 0 "" 2
 502              		.thumb
 503              		.syntax unified
 504 0026 BAB3     		cbz	r2, .L83
 505 0028 B2FA82F2 		clz	r2, r2
 506              	.L79:
 507 002c 0832     		adds	r2, r2, #8
 508 002e 5200     		lsls	r2, r2, #1
 509 0030 02F01E02 		and	r2, r2, #30
 510 0034 04FA02F2 		lsl	r2, r4, r2
 511 0038 0A43     		orrs	r2, r2, r1
 512              		.syntax unified
 513              	@ 1055 "Drivers/CMSIS/Include/cmsis_gcc.h" 1
 514 003a 93FAA3F1 		rbit r1, r3
 515              	@ 0 "" 2
 516              		.thumb
 517              		.syntax unified
 518 003e 69B3     		cbz	r1, .L84
 519 0040 B1FA81F1 		clz	r1, r1
 520              	.L80:
 521 0044 01F01F0C 		and	ip, r1, #31
 522 0048 4FF48071 		mov	r1, #256
 523 004c 01FA0CF1 		lsl	r1, r1, ip
 524 0050 1943     		orrs	r1, r1, r3
 525              		.syntax unified
 526              	@ 1055 "Drivers/CMSIS/Include/cmsis_gcc.h" 1
 527 0052 93FAA3F3 		rbit r3, r3
 528              	@ 0 "" 2
 529              		.thumb
 530              		.syntax unified
 531 0056 1BB3     		cbz	r3, .L85
 532 0058 B3FA83F3 		clz	r3, r3
 533              	.L81:
 534 005c 5B00     		lsls	r3, r3, #1
 535 005e 03F01E03 		and	r3, r3, #30
 536 0062 4FF4403C 		mov	ip, #196608
 537 0066 0CFA03F3 		lsl	r3, ip, r3
 538 006a 0B43     		orrs	r3, r3, r1
ARM GAS  C:\Users\aticl\AppData\Local\Temp\ccR4vdEP.s 			page 10


 539 006c 0D4C     		ldr	r4, .L87
 540 006e A16A     		ldr	r1, [r4, #40]
 541 0070 21EA0303 		bic	r3, r1, r3
 542 0074 1343     		orrs	r3, r3, r2
 543 0076 A362     		str	r3, [r4, #40]
 544 0078 4FF0B042 		mov	r2, #1476395008
 545 007c D2F89030 		ldr	r3, [r2, #144]
 546 0080 23F0FC53 		bic	r3, r3, #528482304
 547 0084 0168     		ldr	r1, [r0]
 548 0086 43EAC153 		orr	r3, r3, r1, lsl #23
 549 008a C2F89030 		str	r3, [r2, #144]
 550 008e 5DF8044B 		ldr	r4, [sp], #4
 551 0092 7047     		bx	lr
 552              	.L82:
 553 0094 2022     		movs	r2, #32
 554 0096 BCE7     		b	.L78
 555              	.L83:
 556 0098 2022     		movs	r2, #32
 557 009a C7E7     		b	.L79
 558              	.L84:
 559 009c 2021     		movs	r1, #32
 560 009e D1E7     		b	.L80
 561              	.L85:
 562 00a0 2023     		movs	r3, #32
 563 00a2 DBE7     		b	.L81
 564              	.L88:
 565              		.align	2
 566              	.L87:
 567 00a4 00480258 		.word	1476544512
 569              		.section	.text.HAL_PWREx_DisableWakeUpPin,"ax",%progbits
 570              		.align	1
 571              		.global	HAL_PWREx_DisableWakeUpPin
 572              		.syntax unified
 573              		.thumb
 574              		.thumb_func
 576              	HAL_PWREx_DisableWakeUpPin:
 577              		@ args = 0, pretend = 0, frame = 0
 578              		@ frame_needed = 0, uses_anonymous_args = 0
 579              		@ link register save eliminated.
 580 0000 024A     		ldr	r2, .L90
 581 0002 936A     		ldr	r3, [r2, #40]
 582 0004 23EA0003 		bic	r3, r3, r0
 583 0008 9362     		str	r3, [r2, #40]
 584 000a 7047     		bx	lr
 585              	.L91:
 586              		.align	2
 587              	.L90:
 588 000c 00480258 		.word	1476544512
 590              		.section	.text.HAL_PWREx_GetWakeupFlag,"ax",%progbits
 591              		.align	1
 592              		.global	HAL_PWREx_GetWakeupFlag
 593              		.syntax unified
 594              		.thumb
 595              		.thumb_func
 597              	HAL_PWREx_GetWakeupFlag:
 598              		@ args = 0, pretend = 0, frame = 0
 599              		@ frame_needed = 0, uses_anonymous_args = 0
ARM GAS  C:\Users\aticl\AppData\Local\Temp\ccR4vdEP.s 			page 11


 600              		@ link register save eliminated.
 601 0000 014B     		ldr	r3, .L93
 602 0002 5B6A     		ldr	r3, [r3, #36]
 603 0004 1840     		ands	r0, r0, r3
 604 0006 7047     		bx	lr
 605              	.L94:
 606              		.align	2
 607              	.L93:
 608 0008 00480258 		.word	1476544512
 610              		.section	.text.HAL_PWREx_ClearWakeupFlag,"ax",%progbits
 611              		.align	1
 612              		.global	HAL_PWREx_ClearWakeupFlag
 613              		.syntax unified
 614              		.thumb
 615              		.thumb_func
 617              	HAL_PWREx_ClearWakeupFlag:
 618              		@ args = 0, pretend = 0, frame = 0
 619              		@ frame_needed = 0, uses_anonymous_args = 0
 620              		@ link register save eliminated.
 621 0000 054B     		ldr	r3, .L98
 622 0002 1A6A     		ldr	r2, [r3, #32]
 623 0004 0243     		orrs	r2, r2, r0
 624 0006 1A62     		str	r2, [r3, #32]
 625 0008 5B6A     		ldr	r3, [r3, #36]
 626 000a 0342     		tst	r3, r0
 627 000c 01D1     		bne	.L97
 628 000e 0020     		movs	r0, #0
 629 0010 7047     		bx	lr
 630              	.L97:
 631 0012 0120     		movs	r0, #1
 632 0014 7047     		bx	lr
 633              	.L99:
 634 0016 00BF     		.align	2
 635              	.L98:
 636 0018 00480258 		.word	1476544512
 638              		.section	.text.HAL_PWREx_WKUP1_Callback,"ax",%progbits
 639              		.align	1
 640              		.weak	HAL_PWREx_WKUP1_Callback
 641              		.syntax unified
 642              		.thumb
 643              		.thumb_func
 645              	HAL_PWREx_WKUP1_Callback:
 646              		@ args = 0, pretend = 0, frame = 0
 647              		@ frame_needed = 0, uses_anonymous_args = 0
 648              		@ link register save eliminated.
 649 0000 7047     		bx	lr
 651              		.section	.text.HAL_PWREx_WKUP2_Callback,"ax",%progbits
 652              		.align	1
 653              		.weak	HAL_PWREx_WKUP2_Callback
 654              		.syntax unified
 655              		.thumb
 656              		.thumb_func
 658              	HAL_PWREx_WKUP2_Callback:
 659              		@ args = 0, pretend = 0, frame = 0
 660              		@ frame_needed = 0, uses_anonymous_args = 0
 661              		@ link register save eliminated.
 662 0000 7047     		bx	lr
ARM GAS  C:\Users\aticl\AppData\Local\Temp\ccR4vdEP.s 			page 12


 664              		.section	.text.HAL_PWREx_WKUP3_Callback,"ax",%progbits
 665              		.align	1
 666              		.weak	HAL_PWREx_WKUP3_Callback
 667              		.syntax unified
 668              		.thumb
 669              		.thumb_func
 671              	HAL_PWREx_WKUP3_Callback:
 672              		@ args = 0, pretend = 0, frame = 0
 673              		@ frame_needed = 0, uses_anonymous_args = 0
 674              		@ link register save eliminated.
 675 0000 7047     		bx	lr
 677              		.section	.text.HAL_PWREx_WKUP4_Callback,"ax",%progbits
 678              		.align	1
 679              		.weak	HAL_PWREx_WKUP4_Callback
 680              		.syntax unified
 681              		.thumb
 682              		.thumb_func
 684              	HAL_PWREx_WKUP4_Callback:
 685              		@ args = 0, pretend = 0, frame = 0
 686              		@ frame_needed = 0, uses_anonymous_args = 0
 687              		@ link register save eliminated.
 688 0000 7047     		bx	lr
 690              		.section	.text.HAL_PWREx_WKUP5_Callback,"ax",%progbits
 691              		.align	1
 692              		.weak	HAL_PWREx_WKUP5_Callback
 693              		.syntax unified
 694              		.thumb
 695              		.thumb_func
 697              	HAL_PWREx_WKUP5_Callback:
 698              		@ args = 0, pretend = 0, frame = 0
 699              		@ frame_needed = 0, uses_anonymous_args = 0
 700              		@ link register save eliminated.
 701 0000 7047     		bx	lr
 703              		.section	.text.HAL_PWREx_WKUP6_Callback,"ax",%progbits
 704              		.align	1
 705              		.weak	HAL_PWREx_WKUP6_Callback
 706              		.syntax unified
 707              		.thumb
 708              		.thumb_func
 710              	HAL_PWREx_WKUP6_Callback:
 711              		@ args = 0, pretend = 0, frame = 0
 712              		@ frame_needed = 0, uses_anonymous_args = 0
 713              		@ link register save eliminated.
 714 0000 7047     		bx	lr
 716              		.section	.text.HAL_PWREx_WAKEUP_PIN_IRQHandler,"ax",%progbits
 717              		.align	1
 718              		.global	HAL_PWREx_WAKEUP_PIN_IRQHandler
 719              		.syntax unified
 720              		.thumb
 721              		.thumb_func
 723              	HAL_PWREx_WAKEUP_PIN_IRQHandler:
 724              		@ args = 0, pretend = 0, frame = 0
 725              		@ frame_needed = 0, uses_anonymous_args = 0
 726 0000 08B5     		push	{r3, lr}
 727 0002 244B     		ldr	r3, .L118
 728 0004 5B6A     		ldr	r3, [r3, #36]
 729 0006 13F0010F 		tst	r3, #1
ARM GAS  C:\Users\aticl\AppData\Local\Temp\ccR4vdEP.s 			page 13


 730 000a 1BD1     		bne	.L114
 731 000c 214B     		ldr	r3, .L118
 732 000e 5B6A     		ldr	r3, [r3, #36]
 733 0010 13F0020F 		tst	r3, #2
 734 0014 1ED1     		bne	.L115
 735 0016 1F4B     		ldr	r3, .L118
 736 0018 5B6A     		ldr	r3, [r3, #36]
 737 001a 13F0040F 		tst	r3, #4
 738 001e 21D1     		bne	.L116
 739 0020 1C4B     		ldr	r3, .L118
 740 0022 5B6A     		ldr	r3, [r3, #36]
 741 0024 13F0080F 		tst	r3, #8
 742 0028 24D1     		bne	.L117
 743 002a 1A4B     		ldr	r3, .L118
 744 002c 5B6A     		ldr	r3, [r3, #36]
 745 002e 13F0100F 		tst	r3, #16
 746 0032 27D0     		beq	.L112
 747 0034 174A     		ldr	r2, .L118
 748 0036 136A     		ldr	r3, [r2, #32]
 749 0038 43F01003 		orr	r3, r3, #16
 750 003c 1362     		str	r3, [r2, #32]
 751 003e FFF7FEFF 		bl	HAL_PWREx_WKUP5_Callback
 752 0042 06E0     		b	.L106
 753              	.L114:
 754 0044 134A     		ldr	r2, .L118
 755 0046 136A     		ldr	r3, [r2, #32]
 756 0048 43F00103 		orr	r3, r3, #1
 757 004c 1362     		str	r3, [r2, #32]
 758 004e FFF7FEFF 		bl	HAL_PWREx_WKUP1_Callback
 759              	.L106:
 760 0052 08BD     		pop	{r3, pc}
 761              	.L115:
 762 0054 0F4A     		ldr	r2, .L118
 763 0056 136A     		ldr	r3, [r2, #32]
 764 0058 43F00203 		orr	r3, r3, #2
 765 005c 1362     		str	r3, [r2, #32]
 766 005e FFF7FEFF 		bl	HAL_PWREx_WKUP2_Callback
 767 0062 F6E7     		b	.L106
 768              	.L116:
 769 0064 0B4A     		ldr	r2, .L118
 770 0066 136A     		ldr	r3, [r2, #32]
 771 0068 43F00403 		orr	r3, r3, #4
 772 006c 1362     		str	r3, [r2, #32]
 773 006e FFF7FEFF 		bl	HAL_PWREx_WKUP3_Callback
 774 0072 EEE7     		b	.L106
 775              	.L117:
 776 0074 074A     		ldr	r2, .L118
 777 0076 136A     		ldr	r3, [r2, #32]
 778 0078 43F00803 		orr	r3, r3, #8
 779 007c 1362     		str	r3, [r2, #32]
 780 007e FFF7FEFF 		bl	HAL_PWREx_WKUP4_Callback
 781 0082 E6E7     		b	.L106
 782              	.L112:
 783 0084 034A     		ldr	r2, .L118
 784 0086 136A     		ldr	r3, [r2, #32]
 785 0088 43F02003 		orr	r3, r3, #32
 786 008c 1362     		str	r3, [r2, #32]
ARM GAS  C:\Users\aticl\AppData\Local\Temp\ccR4vdEP.s 			page 14


 787 008e FFF7FEFF 		bl	HAL_PWREx_WKUP6_Callback
 788 0092 DEE7     		b	.L106
 789              	.L119:
 790              		.align	2
 791              	.L118:
 792 0094 00480258 		.word	1476544512
 794              		.section	.text.HAL_PWREx_EnableBkUpReg,"ax",%progbits
 795              		.align	1
 796              		.global	HAL_PWREx_EnableBkUpReg
 797              		.syntax unified
 798              		.thumb
 799              		.thumb_func
 801              	HAL_PWREx_EnableBkUpReg:
 802              		@ args = 0, pretend = 0, frame = 0
 803              		@ frame_needed = 0, uses_anonymous_args = 0
 804 0000 10B5     		push	{r4, lr}
 805 0002 0B4A     		ldr	r2, .L127
 806 0004 9368     		ldr	r3, [r2, #8]
 807 0006 43F00103 		orr	r3, r3, #1
 808 000a 9360     		str	r3, [r2, #8]
 809 000c FFF7FEFF 		bl	HAL_GetTick
 810 0010 0446     		mov	r4, r0
 811              	.L121:
 812 0012 074B     		ldr	r3, .L127
 813 0014 9B68     		ldr	r3, [r3, #8]
 814 0016 13F4803F 		tst	r3, #65536
 815 001a 07D1     		bne	.L126
 816 001c FFF7FEFF 		bl	HAL_GetTick
 817 0020 001B     		subs	r0, r0, r4
 818 0022 B0F57A7F 		cmp	r0, #1000
 819 0026 F4D9     		bls	.L121
 820 0028 0120     		movs	r0, #1
 821 002a 00E0     		b	.L122
 822              	.L126:
 823 002c 0020     		movs	r0, #0
 824              	.L122:
 825 002e 10BD     		pop	{r4, pc}
 826              	.L128:
 827              		.align	2
 828              	.L127:
 829 0030 00480258 		.word	1476544512
 831              		.section	.text.HAL_PWREx_DisableBkUpReg,"ax",%progbits
 832              		.align	1
 833              		.global	HAL_PWREx_DisableBkUpReg
 834              		.syntax unified
 835              		.thumb
 836              		.thumb_func
 838              	HAL_PWREx_DisableBkUpReg:
 839              		@ args = 0, pretend = 0, frame = 0
 840              		@ frame_needed = 0, uses_anonymous_args = 0
 841 0000 10B5     		push	{r4, lr}
 842 0002 0B4A     		ldr	r2, .L136
 843 0004 9368     		ldr	r3, [r2, #8]
 844 0006 23F00103 		bic	r3, r3, #1
 845 000a 9360     		str	r3, [r2, #8]
 846 000c FFF7FEFF 		bl	HAL_GetTick
 847 0010 0446     		mov	r4, r0
ARM GAS  C:\Users\aticl\AppData\Local\Temp\ccR4vdEP.s 			page 15


 848              	.L130:
 849 0012 074B     		ldr	r3, .L136
 850 0014 9B68     		ldr	r3, [r3, #8]
 851 0016 13F4803F 		tst	r3, #65536
 852 001a 07D0     		beq	.L135
 853 001c FFF7FEFF 		bl	HAL_GetTick
 854 0020 001B     		subs	r0, r0, r4
 855 0022 B0F57A7F 		cmp	r0, #1000
 856 0026 F4D9     		bls	.L130
 857 0028 0120     		movs	r0, #1
 858 002a 00E0     		b	.L131
 859              	.L135:
 860 002c 0020     		movs	r0, #0
 861              	.L131:
 862 002e 10BD     		pop	{r4, pc}
 863              	.L137:
 864              		.align	2
 865              	.L136:
 866 0030 00480258 		.word	1476544512
 868              		.section	.text.HAL_PWREx_EnableUSBReg,"ax",%progbits
 869              		.align	1
 870              		.global	HAL_PWREx_EnableUSBReg
 871              		.syntax unified
 872              		.thumb
 873              		.thumb_func
 875              	HAL_PWREx_EnableUSBReg:
 876              		@ args = 0, pretend = 0, frame = 0
 877              		@ frame_needed = 0, uses_anonymous_args = 0
 878 0000 10B5     		push	{r4, lr}
 879 0002 0B4A     		ldr	r2, .L145
 880 0004 D368     		ldr	r3, [r2, #12]
 881 0006 43F00073 		orr	r3, r3, #33554432
 882 000a D360     		str	r3, [r2, #12]
 883 000c FFF7FEFF 		bl	HAL_GetTick
 884 0010 0446     		mov	r4, r0
 885              	.L139:
 886 0012 074B     		ldr	r3, .L145
 887 0014 DB68     		ldr	r3, [r3, #12]
 888 0016 13F0806F 		tst	r3, #67108864
 889 001a 07D1     		bne	.L144
 890 001c FFF7FEFF 		bl	HAL_GetTick
 891 0020 001B     		subs	r0, r0, r4
 892 0022 B0F57A7F 		cmp	r0, #1000
 893 0026 F4D9     		bls	.L139
 894 0028 0120     		movs	r0, #1
 895 002a 00E0     		b	.L140
 896              	.L144:
 897 002c 0020     		movs	r0, #0
 898              	.L140:
 899 002e 10BD     		pop	{r4, pc}
 900              	.L146:
 901              		.align	2
 902              	.L145:
 903 0030 00480258 		.word	1476544512
 905              		.section	.text.HAL_PWREx_DisableUSBReg,"ax",%progbits
 906              		.align	1
 907              		.global	HAL_PWREx_DisableUSBReg
ARM GAS  C:\Users\aticl\AppData\Local\Temp\ccR4vdEP.s 			page 16


 908              		.syntax unified
 909              		.thumb
 910              		.thumb_func
 912              	HAL_PWREx_DisableUSBReg:
 913              		@ args = 0, pretend = 0, frame = 0
 914              		@ frame_needed = 0, uses_anonymous_args = 0
 915 0000 10B5     		push	{r4, lr}
 916 0002 0B4A     		ldr	r2, .L154
 917 0004 D368     		ldr	r3, [r2, #12]
 918 0006 23F00073 		bic	r3, r3, #33554432
 919 000a D360     		str	r3, [r2, #12]
 920 000c FFF7FEFF 		bl	HAL_GetTick
 921 0010 0446     		mov	r4, r0
 922              	.L148:
 923 0012 074B     		ldr	r3, .L154
 924 0014 DB68     		ldr	r3, [r3, #12]
 925 0016 13F0806F 		tst	r3, #67108864
 926 001a 07D0     		beq	.L153
 927 001c FFF7FEFF 		bl	HAL_GetTick
 928 0020 001B     		subs	r0, r0, r4
 929 0022 B0F57A7F 		cmp	r0, #1000
 930 0026 F4D9     		bls	.L148
 931 0028 0120     		movs	r0, #1
 932 002a 00E0     		b	.L149
 933              	.L153:
 934 002c 0020     		movs	r0, #0
 935              	.L149:
 936 002e 10BD     		pop	{r4, pc}
 937              	.L155:
 938              		.align	2
 939              	.L154:
 940 0030 00480258 		.word	1476544512
 942              		.section	.text.HAL_PWREx_EnableUSBVoltageDetector,"ax",%progbits
 943              		.align	1
 944              		.global	HAL_PWREx_EnableUSBVoltageDetector
 945              		.syntax unified
 946              		.thumb
 947              		.thumb_func
 949              	HAL_PWREx_EnableUSBVoltageDetector:
 950              		@ args = 0, pretend = 0, frame = 0
 951              		@ frame_needed = 0, uses_anonymous_args = 0
 952              		@ link register save eliminated.
 953 0000 024A     		ldr	r2, .L157
 954 0002 D368     		ldr	r3, [r2, #12]
 955 0004 43F08073 		orr	r3, r3, #16777216
 956 0008 D360     		str	r3, [r2, #12]
 957 000a 7047     		bx	lr
 958              	.L158:
 959              		.align	2
 960              	.L157:
 961 000c 00480258 		.word	1476544512
 963              		.section	.text.HAL_PWREx_DisableUSBVoltageDetector,"ax",%progbits
 964              		.align	1
 965              		.global	HAL_PWREx_DisableUSBVoltageDetector
 966              		.syntax unified
 967              		.thumb
 968              		.thumb_func
ARM GAS  C:\Users\aticl\AppData\Local\Temp\ccR4vdEP.s 			page 17


 970              	HAL_PWREx_DisableUSBVoltageDetector:
 971              		@ args = 0, pretend = 0, frame = 0
 972              		@ frame_needed = 0, uses_anonymous_args = 0
 973              		@ link register save eliminated.
 974 0000 024A     		ldr	r2, .L160
 975 0002 D368     		ldr	r3, [r2, #12]
 976 0004 23F08073 		bic	r3, r3, #16777216
 977 0008 D360     		str	r3, [r2, #12]
 978 000a 7047     		bx	lr
 979              	.L161:
 980              		.align	2
 981              	.L160:
 982 000c 00480258 		.word	1476544512
 984              		.section	.text.HAL_PWREx_EnableBatteryCharging,"ax",%progbits
 985              		.align	1
 986              		.global	HAL_PWREx_EnableBatteryCharging
 987              		.syntax unified
 988              		.thumb
 989              		.thumb_func
 991              	HAL_PWREx_EnableBatteryCharging:
 992              		@ args = 0, pretend = 0, frame = 0
 993              		@ frame_needed = 0, uses_anonymous_args = 0
 994              		@ link register save eliminated.
 995 0000 054A     		ldr	r2, .L163
 996 0002 D368     		ldr	r3, [r2, #12]
 997 0004 23F40073 		bic	r3, r3, #512
 998 0008 0343     		orrs	r3, r3, r0
 999 000a D360     		str	r3, [r2, #12]
 1000 000c D368     		ldr	r3, [r2, #12]
 1001 000e 43F48073 		orr	r3, r3, #256
 1002 0012 D360     		str	r3, [r2, #12]
 1003 0014 7047     		bx	lr
 1004              	.L164:
 1005 0016 00BF     		.align	2
 1006              	.L163:
 1007 0018 00480258 		.word	1476544512
 1009              		.section	.text.HAL_PWREx_DisableBatteryCharging,"ax",%progbits
 1010              		.align	1
 1011              		.global	HAL_PWREx_DisableBatteryCharging
 1012              		.syntax unified
 1013              		.thumb
 1014              		.thumb_func
 1016              	HAL_PWREx_DisableBatteryCharging:
 1017              		@ args = 0, pretend = 0, frame = 0
 1018              		@ frame_needed = 0, uses_anonymous_args = 0
 1019              		@ link register save eliminated.
 1020 0000 024A     		ldr	r2, .L166
 1021 0002 D368     		ldr	r3, [r2, #12]
 1022 0004 23F48073 		bic	r3, r3, #256
 1023 0008 D360     		str	r3, [r2, #12]
 1024 000a 7047     		bx	lr
 1025              	.L167:
 1026              		.align	2
 1027              	.L166:
 1028 000c 00480258 		.word	1476544512
 1030              		.section	.text.HAL_PWREx_EnableMonitoring,"ax",%progbits
 1031              		.align	1
ARM GAS  C:\Users\aticl\AppData\Local\Temp\ccR4vdEP.s 			page 18


 1032              		.global	HAL_PWREx_EnableMonitoring
 1033              		.syntax unified
 1034              		.thumb
 1035              		.thumb_func
 1037              	HAL_PWREx_EnableMonitoring:
 1038              		@ args = 0, pretend = 0, frame = 0
 1039              		@ frame_needed = 0, uses_anonymous_args = 0
 1040              		@ link register save eliminated.
 1041 0000 024A     		ldr	r2, .L169
 1042 0002 9368     		ldr	r3, [r2, #8]
 1043 0004 43F01003 		orr	r3, r3, #16
 1044 0008 9360     		str	r3, [r2, #8]
 1045 000a 7047     		bx	lr
 1046              	.L170:
 1047              		.align	2
 1048              	.L169:
 1049 000c 00480258 		.word	1476544512
 1051              		.section	.text.HAL_PWREx_DisableMonitoring,"ax",%progbits
 1052              		.align	1
 1053              		.global	HAL_PWREx_DisableMonitoring
 1054              		.syntax unified
 1055              		.thumb
 1056              		.thumb_func
 1058              	HAL_PWREx_DisableMonitoring:
 1059              		@ args = 0, pretend = 0, frame = 0
 1060              		@ frame_needed = 0, uses_anonymous_args = 0
 1061              		@ link register save eliminated.
 1062 0000 024A     		ldr	r2, .L172
 1063 0002 9368     		ldr	r3, [r2, #8]
 1064 0004 23F01003 		bic	r3, r3, #16
 1065 0008 9360     		str	r3, [r2, #8]
 1066 000a 7047     		bx	lr
 1067              	.L173:
 1068              		.align	2
 1069              	.L172:
 1070 000c 00480258 		.word	1476544512
 1072              		.section	.text.HAL_PWREx_GetTemperatureLevel,"ax",%progbits
 1073              		.align	1
 1074              		.global	HAL_PWREx_GetTemperatureLevel
 1075              		.syntax unified
 1076              		.thumb
 1077              		.thumb_func
 1079              	HAL_PWREx_GetTemperatureLevel:
 1080              		@ args = 0, pretend = 0, frame = 0
 1081              		@ frame_needed = 0, uses_anonymous_args = 0
 1082              		@ link register save eliminated.
 1083 0000 054B     		ldr	r3, .L177
 1084 0002 9868     		ldr	r0, [r3, #8]
 1085 0004 00F44000 		and	r0, r0, #12582912
 1086 0008 B0F5800F 		cmp	r0, #4194304
 1087 000c 03D0     		beq	.L174
 1088 000e B0F5000F 		cmp	r0, #8388608
 1089 0012 00D0     		beq	.L174
 1090 0014 0020     		movs	r0, #0
 1091              	.L174:
 1092 0016 7047     		bx	lr
 1093              	.L178:
ARM GAS  C:\Users\aticl\AppData\Local\Temp\ccR4vdEP.s 			page 19


 1094              		.align	2
 1095              	.L177:
 1096 0018 00480258 		.word	1476544512
 1098              		.section	.text.HAL_PWREx_GetVBATLevel,"ax",%progbits
 1099              		.align	1
 1100              		.global	HAL_PWREx_GetVBATLevel
 1101              		.syntax unified
 1102              		.thumb
 1103              		.thumb_func
 1105              	HAL_PWREx_GetVBATLevel:
 1106              		@ args = 0, pretend = 0, frame = 0
 1107              		@ frame_needed = 0, uses_anonymous_args = 0
 1108              		@ link register save eliminated.
 1109 0000 054B     		ldr	r3, .L182
 1110 0002 9868     		ldr	r0, [r3, #8]
 1111 0004 00F44010 		and	r0, r0, #3145728
 1112 0008 B0F5801F 		cmp	r0, #1048576
 1113 000c 03D0     		beq	.L179
 1114 000e B0F5001F 		cmp	r0, #2097152
 1115 0012 00D0     		beq	.L179
 1116 0014 0020     		movs	r0, #0
 1117              	.L179:
 1118 0016 7047     		bx	lr
 1119              	.L183:
 1120              		.align	2
 1121              	.L182:
 1122 0018 00480258 		.word	1476544512
 1124              		.section	.text.HAL_PWREx_ConfigAVD,"ax",%progbits
 1125              		.align	1
 1126              		.global	HAL_PWREx_ConfigAVD
 1127              		.syntax unified
 1128              		.thumb
 1129              		.thumb_func
 1131              	HAL_PWREx_ConfigAVD:
 1132              		@ args = 0, pretend = 0, frame = 0
 1133              		@ frame_needed = 0, uses_anonymous_args = 0
 1134              		@ link register save eliminated.
 1135 0000 244A     		ldr	r2, .L189
 1136 0002 1368     		ldr	r3, [r2]
 1137 0004 23F4C023 		bic	r3, r3, #393216
 1138 0008 0168     		ldr	r1, [r0]
 1139 000a 0B43     		orrs	r3, r3, r1
 1140 000c 1360     		str	r3, [r2]
 1141 000e 4FF0B043 		mov	r3, #1476395008
 1142 0012 D3F88420 		ldr	r2, [r3, #132]
 1143 0016 22F48032 		bic	r2, r2, #65536
 1144 001a C3F88420 		str	r2, [r3, #132]
 1145 001e D3F88020 		ldr	r2, [r3, #128]
 1146 0022 22F48032 		bic	r2, r2, #65536
 1147 0026 C3F88020 		str	r2, [r3, #128]
 1148 002a 1A68     		ldr	r2, [r3]
 1149 002c 22F48032 		bic	r2, r2, #65536
 1150 0030 1A60     		str	r2, [r3]
 1151 0032 5A68     		ldr	r2, [r3, #4]
 1152 0034 22F48032 		bic	r2, r2, #65536
 1153 0038 5A60     		str	r2, [r3, #4]
 1154 003a 4368     		ldr	r3, [r0, #4]
ARM GAS  C:\Users\aticl\AppData\Local\Temp\ccR4vdEP.s 			page 20


 1155 003c 13F4803F 		tst	r3, #65536
 1156 0040 07D0     		beq	.L185
 1157 0042 4FF0B042 		mov	r2, #1476395008
 1158 0046 D2F88030 		ldr	r3, [r2, #128]
 1159 004a 43F48033 		orr	r3, r3, #65536
 1160 004e C2F88030 		str	r3, [r2, #128]
 1161              	.L185:
 1162 0052 4368     		ldr	r3, [r0, #4]
 1163 0054 13F4003F 		tst	r3, #131072
 1164 0058 07D0     		beq	.L186
 1165 005a 4FF0B042 		mov	r2, #1476395008
 1166 005e D2F88430 		ldr	r3, [r2, #132]
 1167 0062 43F48033 		orr	r3, r3, #65536
 1168 0066 C2F88430 		str	r3, [r2, #132]
 1169              	.L186:
 1170 006a 4368     		ldr	r3, [r0, #4]
 1171 006c 13F0010F 		tst	r3, #1
 1172 0070 05D0     		beq	.L187
 1173 0072 4FF0B042 		mov	r2, #1476395008
 1174 0076 1368     		ldr	r3, [r2]
 1175 0078 43F48033 		orr	r3, r3, #65536
 1176 007c 1360     		str	r3, [r2]
 1177              	.L187:
 1178 007e 4368     		ldr	r3, [r0, #4]
 1179 0080 13F0020F 		tst	r3, #2
 1180 0084 05D0     		beq	.L184
 1181 0086 4FF0B042 		mov	r2, #1476395008
 1182 008a 5368     		ldr	r3, [r2, #4]
 1183 008c 43F48033 		orr	r3, r3, #65536
 1184 0090 5360     		str	r3, [r2, #4]
 1185              	.L184:
 1186 0092 7047     		bx	lr
 1187              	.L190:
 1188              		.align	2
 1189              	.L189:
 1190 0094 00480258 		.word	1476544512
 1192              		.section	.text.HAL_PWREx_EnableAVD,"ax",%progbits
 1193              		.align	1
 1194              		.global	HAL_PWREx_EnableAVD
 1195              		.syntax unified
 1196              		.thumb
 1197              		.thumb_func
 1199              	HAL_PWREx_EnableAVD:
 1200              		@ args = 0, pretend = 0, frame = 0
 1201              		@ frame_needed = 0, uses_anonymous_args = 0
 1202              		@ link register save eliminated.
 1203 0000 024A     		ldr	r2, .L192
 1204 0002 1368     		ldr	r3, [r2]
 1205 0004 43F48033 		orr	r3, r3, #65536
 1206 0008 1360     		str	r3, [r2]
 1207 000a 7047     		bx	lr
 1208              	.L193:
 1209              		.align	2
 1210              	.L192:
 1211 000c 00480258 		.word	1476544512
 1213              		.section	.text.HAL_PWREx_DisableAVD,"ax",%progbits
 1214              		.align	1
ARM GAS  C:\Users\aticl\AppData\Local\Temp\ccR4vdEP.s 			page 21


 1215              		.global	HAL_PWREx_DisableAVD
 1216              		.syntax unified
 1217              		.thumb
 1218              		.thumb_func
 1220              	HAL_PWREx_DisableAVD:
 1221              		@ args = 0, pretend = 0, frame = 0
 1222              		@ frame_needed = 0, uses_anonymous_args = 0
 1223              		@ link register save eliminated.
 1224 0000 024A     		ldr	r2, .L195
 1225 0002 1368     		ldr	r3, [r2]
 1226 0004 23F48033 		bic	r3, r3, #65536
 1227 0008 1360     		str	r3, [r2]
 1228 000a 7047     		bx	lr
 1229              	.L196:
 1230              		.align	2
 1231              	.L195:
 1232 000c 00480258 		.word	1476544512
 1234              		.section	.text.HAL_PWREx_AVDCallback,"ax",%progbits
 1235              		.align	1
 1236              		.weak	HAL_PWREx_AVDCallback
 1237              		.syntax unified
 1238              		.thumb
 1239              		.thumb_func
 1241              	HAL_PWREx_AVDCallback:
 1242              		@ args = 0, pretend = 0, frame = 0
 1243              		@ frame_needed = 0, uses_anonymous_args = 0
 1244              		@ link register save eliminated.
 1245 0000 7047     		bx	lr
 1247              		.section	.text.HAL_PWREx_PVD_AVD_IRQHandler,"ax",%progbits
 1248              		.align	1
 1249              		.global	HAL_PWREx_PVD_AVD_IRQHandler
 1250              		.syntax unified
 1251              		.thumb
 1252              		.thumb_func
 1254              	HAL_PWREx_PVD_AVD_IRQHandler:
 1255              		@ args = 0, pretend = 0, frame = 0
 1256              		@ frame_needed = 0, uses_anonymous_args = 0
 1257 0000 08B5     		push	{r3, lr}
 1258 0002 1C4B     		ldr	r3, .L204
 1259 0004 1B68     		ldr	r3, [r3]
 1260 0006 13F0100F 		tst	r3, #16
 1261 000a 06D0     		beq	.L199
 1262 000c 4FF0B043 		mov	r3, #1476395008
 1263 0010 D3F88830 		ldr	r3, [r3, #136]
 1264 0014 13F4803F 		tst	r3, #65536
 1265 0018 0CD1     		bne	.L202
 1266              	.L199:
 1267 001a 164B     		ldr	r3, .L204
 1268 001c 1B68     		ldr	r3, [r3]
 1269 001e 13F4803F 		tst	r3, #65536
 1270 0022 06D0     		beq	.L198
 1271 0024 4FF0B043 		mov	r3, #1476395008
 1272 0028 D3F88830 		ldr	r3, [r3, #136]
 1273 002c 13F4803F 		tst	r3, #65536
 1274 0030 10D1     		bne	.L203
 1275              	.L198:
 1276 0032 08BD     		pop	{r3, pc}
ARM GAS  C:\Users\aticl\AppData\Local\Temp\ccR4vdEP.s 			page 22


 1277              	.L202:
 1278 0034 FFF7FEFF 		bl	HAL_PWR_PVDCallback
 1279 0038 0E4B     		ldr	r3, .L204
 1280 003a 5B68     		ldr	r3, [r3, #4]
 1281 003c 13F4803F 		tst	r3, #65536
 1282 0040 EBD1     		bne	.L199
 1283 0042 4FF0B042 		mov	r2, #1476395008
 1284 0046 D2F88830 		ldr	r3, [r2, #136]
 1285 004a 43F48033 		orr	r3, r3, #65536
 1286 004e C2F88830 		str	r3, [r2, #136]
 1287 0052 E2E7     		b	.L199
 1288              	.L203:
 1289 0054 FFF7FEFF 		bl	HAL_PWREx_AVDCallback
 1290 0058 064B     		ldr	r3, .L204
 1291 005a 5B68     		ldr	r3, [r3, #4]
 1292 005c 13F0100F 		tst	r3, #16
 1293 0060 E7D1     		bne	.L198
 1294 0062 4FF0B042 		mov	r2, #1476395008
 1295 0066 D2F88830 		ldr	r3, [r2, #136]
 1296 006a 43F48033 		orr	r3, r3, #65536
 1297 006e C2F88830 		str	r3, [r2, #136]
 1298 0072 DEE7     		b	.L198
 1299              	.L205:
 1300              		.align	2
 1301              	.L204:
 1302 0074 00480258 		.word	1476544512
 1304              		.ident	"GCC: (xPack GNU Arm Embedded GCC x86_64) 14.2.1 20241119"
ARM GAS  C:\Users\aticl\AppData\Local\Temp\ccR4vdEP.s 			page 23

