ARM GAS  C:\Users\aticl\AppData\Local\Temp\ccNU6x1i.s 			page 1


   1              		.cpu cortex-m7
   2              		.arch armv7e-m
   3              		.fpu fpv5-d16
   4              		.eabi_attribute 28, 1
   5              		.eabi_attribute 20, 1
   6              		.eabi_attribute 21, 1
   7              		.eabi_attribute 23, 3
   8              		.eabi_attribute 24, 1
   9              		.eabi_attribute 25, 1
  10              		.eabi_attribute 26, 1
  11              		.eabi_attribute 30, 1
  12              		.eabi_attribute 34, 1
  13              		.eabi_attribute 18, 4
  14              		.file	"stm32h7xx_hal_i2c.c"
  15              		.text
  16              		.section	.text.I2C_Flush_TXDR,"ax",%progbits
  17              		.align	1
  18              		.syntax unified
  19              		.thumb
  20              		.thumb_func
  22              	I2C_Flush_TXDR:
  23              		@ args = 0, pretend = 0, frame = 0
  24              		@ frame_needed = 0, uses_anonymous_args = 0
  25              		@ link register save eliminated.
  26 0000 0368     		ldr	r3, [r0]
  27 0002 9A69     		ldr	r2, [r3, #24]
  28 0004 12F0020F 		tst	r2, #2
  29 0008 01D0     		beq	.L2
  30 000a 0022     		movs	r2, #0
  31 000c 9A62     		str	r2, [r3, #40]
  32              	.L2:
  33 000e 0368     		ldr	r3, [r0]
  34 0010 9A69     		ldr	r2, [r3, #24]
  35 0012 12F0010F 		tst	r2, #1
  36 0016 03D1     		bne	.L1
  37 0018 9A69     		ldr	r2, [r3, #24]
  38 001a 42F00102 		orr	r2, r2, #1
  39 001e 9A61     		str	r2, [r3, #24]
  40              	.L1:
  41 0020 7047     		bx	lr
  43              		.section	.text.I2C_TransferConfig,"ax",%progbits
  44              		.align	1
  45              		.syntax unified
  46              		.thumb
  47              		.thumb_func
  49              	I2C_TransferConfig:
  50              		@ args = 4, pretend = 0, frame = 0
  51              		@ frame_needed = 0, uses_anonymous_args = 0
  52              		@ link register save eliminated.
  53 0000 10B4     		push	{r4}
  54 0002 019C     		ldr	r4, [sp, #4]
  55 0004 C1F30901 		ubfx	r1, r1, #0, #10
  56 0008 41EA0241 		orr	r1, r1, r2, lsl #16
  57 000c 1943     		orrs	r1, r1, r3
  58 000e 2143     		orrs	r1, r1, r4
  59 0010 21F00041 		bic	r1, r1, #-2147483648
  60 0014 0268     		ldr	r2, [r0]
ARM GAS  C:\Users\aticl\AppData\Local\Temp\ccNU6x1i.s 			page 2


  61 0016 5368     		ldr	r3, [r2, #4]
  62 0018 640D     		lsrs	r4, r4, #21
  63 001a 04F48064 		and	r4, r4, #1024
  64 001e 44F07F74 		orr	r4, r4, #66846720
  65 0022 44F45834 		orr	r4, r4, #221184
  66 0026 44F47F74 		orr	r4, r4, #1020
  67 002a 44F00304 		orr	r4, r4, #3
  68 002e 23EA0403 		bic	r3, r3, r4
  69 0032 0B43     		orrs	r3, r3, r1
  70 0034 5360     		str	r3, [r2, #4]
  71 0036 5DF8044B 		ldr	r4, [sp], #4
  72 003a 7047     		bx	lr
  74              		.section	.text.I2C_Enable_IRQ,"ax",%progbits
  75              		.align	1
  76              		.syntax unified
  77              		.thumb
  78              		.thumb_func
  80              	I2C_Enable_IRQ:
  81              		@ args = 0, pretend = 0, frame = 0
  82              		@ frame_needed = 0, uses_anonymous_args = 0
  83              		@ link register save eliminated.
  84 0000 436B     		ldr	r3, [r0, #52]
  85 0002 234A     		ldr	r2, .L22
  86 0004 9342     		cmp	r3, r2
  87 0006 1FD0     		beq	.L7
  88 0008 224A     		ldr	r2, .L22+4
  89 000a 9342     		cmp	r3, r2
  90 000c 1CD0     		beq	.L7
  91 000e 224A     		ldr	r2, .L22+8
  92 0010 9342     		cmp	r3, r2
  93 0012 19D0     		beq	.L7
  94 0014 11F4004F 		tst	r1, #32768
  95 0018 0FD1     		bne	.L18
  96 001a 0023     		movs	r3, #0
  97              	.L8:
  98 001c 11F0010F 		tst	r1, #1
  99 0020 01D0     		beq	.L9
 100 0022 43F0F203 		orr	r3, r3, #242
 101              	.L9:
 102 0026 11F0020F 		tst	r1, #2
 103 002a 08D0     		beq	.L10
 104 002c 43F0F403 		orr	r3, r3, #244
 105              	.L11:
 106 0030 2029     		cmp	r1, #32
 107 0032 1BD1     		bne	.L12
 108 0034 43F02003 		orr	r3, r3, #32
 109 0038 18E0     		b	.L12
 110              	.L18:
 111 003a B823     		movs	r3, #184
 112 003c EEE7     		b	.L8
 113              	.L10:
 114 003e 1029     		cmp	r1, #16
 115 0040 F6D1     		bne	.L11
 116 0042 43F09003 		orr	r3, r3, #144
 117 0046 11E0     		b	.L12
 118              	.L7:
 119 0048 11F4004F 		tst	r1, #32768
ARM GAS  C:\Users\aticl\AppData\Local\Temp\ccNU6x1i.s 			page 3


 120 004c 13D1     		bne	.L19
 121 004e 0023     		movs	r3, #0
 122              	.L13:
 123 0050 11F0010F 		tst	r1, #1
 124 0054 01D0     		beq	.L14
 125 0056 43F0F203 		orr	r3, r3, #242
 126              	.L14:
 127 005a 11F0020F 		tst	r1, #2
 128 005e 0CD0     		beq	.L15
 129 0060 43F0F403 		orr	r3, r3, #244
 130              	.L16:
 131 0064 2029     		cmp	r1, #32
 132 0066 0DD0     		beq	.L20
 133              	.L17:
 134 0068 4029     		cmp	r1, #64
 135 006a 0ED0     		beq	.L21
 136              	.L12:
 137 006c 0168     		ldr	r1, [r0]
 138 006e 0A68     		ldr	r2, [r1]
 139 0070 1343     		orrs	r3, r3, r2
 140 0072 0B60     		str	r3, [r1]
 141 0074 7047     		bx	lr
 142              	.L19:
 143 0076 B823     		movs	r3, #184
 144 0078 EAE7     		b	.L13
 145              	.L15:
 146 007a 1029     		cmp	r1, #16
 147 007c F2D1     		bne	.L16
 148 007e 43F09003 		orr	r3, r3, #144
 149 0082 F1E7     		b	.L17
 150              	.L20:
 151 0084 43F06003 		orr	r3, r3, #96
 152 0088 F0E7     		b	.L12
 153              	.L21:
 154 008a 43F04003 		orr	r3, r3, #64
 155 008e EDE7     		b	.L12
 156              	.L23:
 157              		.align	2
 158              	.L22:
 159 0090 00000000 		.word	I2C_Master_ISR_DMA
 160 0094 00000000 		.word	I2C_Slave_ISR_DMA
 161 0098 00000000 		.word	I2C_Mem_ISR_DMA
 163              		.section	.text.I2C_Disable_IRQ,"ax",%progbits
 164              		.align	1
 165              		.syntax unified
 166              		.thumb
 167              		.thumb_func
 169              	I2C_Disable_IRQ:
 170              		@ args = 0, pretend = 0, frame = 0
 171              		@ frame_needed = 0, uses_anonymous_args = 0
 172              		@ link register save eliminated.
 173 0000 11F0010F 		tst	r1, #1
 174 0004 09D0     		beq	.L31
 175 0006 90F84130 		ldrb	r3, [r0, #65]	@ zero_extendqisi2
 176 000a 03F02803 		and	r3, r3, #40
 177 000e 282B     		cmp	r3, #40
 178 0010 01D0     		beq	.L34
ARM GAS  C:\Users\aticl\AppData\Local\Temp\ccNU6x1i.s 			page 4


 179 0012 F223     		movs	r3, #242
 180 0014 02E0     		b	.L25
 181              	.L34:
 182 0016 4223     		movs	r3, #66
 183 0018 00E0     		b	.L25
 184              	.L31:
 185 001a 0023     		movs	r3, #0
 186              	.L25:
 187 001c 11F0020F 		tst	r1, #2
 188 0020 09D0     		beq	.L26
 189 0022 43F0440C 		orr	ip, r3, #68
 190 0026 90F84120 		ldrb	r2, [r0, #65]	@ zero_extendqisi2
 191 002a 02F02802 		and	r2, r2, #40
 192 002e 282A     		cmp	r2, #40
 193 0030 09D0     		beq	.L33
 194 0032 43F0F403 		orr	r3, r3, #244
 195              	.L26:
 196 0036 11F4004F 		tst	r1, #32768
 197 003a 06D1     		bne	.L35
 198 003c 1029     		cmp	r1, #16
 199 003e 06D1     		bne	.L28
 200 0040 43F09003 		orr	r3, r3, #144
 201 0044 05E0     		b	.L29
 202              	.L33:
 203 0046 6346     		mov	r3, ip
 204 0048 F5E7     		b	.L26
 205              	.L35:
 206 004a 43F0B803 		orr	r3, r3, #184
 207              	.L28:
 208 004e 2029     		cmp	r1, #32
 209 0050 07D0     		beq	.L36
 210              	.L29:
 211 0052 4029     		cmp	r1, #64
 212 0054 08D0     		beq	.L37
 213              	.L30:
 214 0056 0168     		ldr	r1, [r0]
 215 0058 0A68     		ldr	r2, [r1]
 216 005a 22EA0303 		bic	r3, r2, r3
 217 005e 0B60     		str	r3, [r1]
 218 0060 7047     		bx	lr
 219              	.L36:
 220 0062 43F02003 		orr	r3, r3, #32
 221 0066 F6E7     		b	.L30
 222              	.L37:
 223 0068 43F04003 		orr	r3, r3, #64
 224 006c F3E7     		b	.L30
 226              		.section	.text.I2C_ConvertOtherXferOptions,"ax",%progbits
 227              		.align	1
 228              		.syntax unified
 229              		.thumb
 230              		.thumb_func
 232              	I2C_ConvertOtherXferOptions:
 233              		@ args = 0, pretend = 0, frame = 0
 234              		@ frame_needed = 0, uses_anonymous_args = 0
 235              		@ link register save eliminated.
 236 0000 C36A     		ldr	r3, [r0, #44]
 237 0002 AA2B     		cmp	r3, #170
ARM GAS  C:\Users\aticl\AppData\Local\Temp\ccNU6x1i.s 			page 5


 238 0004 04D0     		beq	.L41
 239 0006 C36A     		ldr	r3, [r0, #44]
 240 0008 B3F52A4F 		cmp	r3, #43520
 241 000c 03D0     		beq	.L42
 242              	.L38:
 243 000e 7047     		bx	lr
 244              	.L41:
 245 0010 0023     		movs	r3, #0
 246 0012 C362     		str	r3, [r0, #44]
 247 0014 7047     		bx	lr
 248              	.L42:
 249 0016 4FF00073 		mov	r3, #33554432
 250 001a C362     		str	r3, [r0, #44]
 251 001c F7E7     		b	.L38
 253              		.section	.text.I2C_IsErrorOccurred,"ax",%progbits
 254              		.align	1
 255              		.syntax unified
 256              		.thumb
 257              		.thumb_func
 259              	I2C_IsErrorOccurred:
 260              		@ args = 0, pretend = 0, frame = 0
 261              		@ frame_needed = 0, uses_anonymous_args = 0
 262 0000 2DE9F041 		push	{r4, r5, r6, r7, r8, lr}
 263 0004 0446     		mov	r4, r0
 264 0006 0368     		ldr	r3, [r0]
 265 0008 9E69     		ldr	r6, [r3, #24]
 266 000a 16F01006 		ands	r6, r6, #16
 267 000e 7ED0     		beq	.L60
 268 0010 0D46     		mov	r5, r1
 269 0012 9046     		mov	r8, r2
 270 0014 1022     		movs	r2, #16
 271 0016 DA61     		str	r2, [r3, #28]
 272 0018 0026     		movs	r6, #0
 273 001a 3746     		mov	r7, r6
 274              	.L46:
 275 001c 2368     		ldr	r3, [r4]
 276 001e 9869     		ldr	r0, [r3, #24]
 277 0020 10F0200F 		tst	r0, #32
 278 0024 32D1     		bne	.L52
 279 0026 8FBB     		cbnz	r7, .L52
 280 0028 B5F1FF3F 		cmp	r5, #-1
 281 002c F6D0     		beq	.L46
 282 002e FFF7FEFF 		bl	HAL_GetTick
 283 0032 A0EB0800 		sub	r0, r0, r8
 284 0036 A842     		cmp	r0, r5
 285 0038 01D8     		bhi	.L47
 286 003a 002D     		cmp	r5, #0
 287 003c EED1     		bne	.L46
 288              	.L47:
 289 003e 2168     		ldr	r1, [r4]
 290 0040 4A68     		ldr	r2, [r1, #4]
 291 0042 02F48042 		and	r2, r2, #16384
 292 0046 94F84230 		ldrb	r3, [r4, #66]	@ zero_extendqisi2
 293 004a DBB2     		uxtb	r3, r3
 294 004c 8869     		ldr	r0, [r1, #24]
 295 004e 10F4004F 		tst	r0, #32768
 296 0052 04D0     		beq	.L50
ARM GAS  C:\Users\aticl\AppData\Local\Temp\ccNU6x1i.s 			page 6


 297 0054 203B     		subs	r3, r3, #32
 298 0056 18BF     		it	ne
 299 0058 0123     		movne	r3, #1
 300 005a 02B9     		cbnz	r2, .L50
 301 005c 73B9     		cbnz	r3, .L62
 302              	.L50:
 303 005e 2368     		ldr	r3, [r4]
 304 0060 9B69     		ldr	r3, [r3, #24]
 305 0062 13F0200F 		tst	r3, #32
 306 0066 D9D1     		bne	.L46
 307 0068 FFF7FEFF 		bl	HAL_GetTick
 308 006c A0EB0800 		sub	r0, r0, r8
 309 0070 1928     		cmp	r0, #25
 310 0072 F4D9     		bls	.L50
 311 0074 46F02006 		orr	r6, r6, #32
 312 0078 0127     		movs	r7, #1
 313 007a CFE7     		b	.L46
 314              	.L62:
 315 007c 4B68     		ldr	r3, [r1, #4]
 316 007e 43F48043 		orr	r3, r3, #16384
 317 0082 4B60     		str	r3, [r1, #4]
 318 0084 FFF7FEFF 		bl	HAL_GetTick
 319 0088 8046     		mov	r8, r0
 320 008a E8E7     		b	.L50
 321              	.L52:
 322 008c 0FB9     		cbnz	r7, .L54
 323 008e 2022     		movs	r2, #32
 324 0090 DA61     		str	r2, [r3, #28]
 325              	.L54:
 326 0092 46F00406 		orr	r6, r6, #4
 327 0096 0125     		movs	r5, #1
 328              	.L44:
 329 0098 2268     		ldr	r2, [r4]
 330 009a 9369     		ldr	r3, [r2, #24]
 331 009c 13F4807F 		tst	r3, #256
 332 00a0 05D0     		beq	.L55
 333 00a2 46F00106 		orr	r6, r6, #1
 334 00a6 4FF48071 		mov	r1, #256
 335 00aa D161     		str	r1, [r2, #28]
 336 00ac 0125     		movs	r5, #1
 337              	.L55:
 338 00ae 13F4806F 		tst	r3, #1024
 339 00b2 06D0     		beq	.L56
 340 00b4 46F00806 		orr	r6, r6, #8
 341 00b8 2268     		ldr	r2, [r4]
 342 00ba 4FF48061 		mov	r1, #1024
 343 00be D161     		str	r1, [r2, #28]
 344 00c0 0125     		movs	r5, #1
 345              	.L56:
 346 00c2 13F4007F 		tst	r3, #512
 347 00c6 24D0     		beq	.L57
 348 00c8 46F00206 		orr	r6, r6, #2
 349 00cc 2368     		ldr	r3, [r4]
 350 00ce 4FF40072 		mov	r2, #512
 351 00d2 DA61     		str	r2, [r3, #28]
 352 00d4 0125     		movs	r5, #1
 353              	.L58:
ARM GAS  C:\Users\aticl\AppData\Local\Temp\ccNU6x1i.s 			page 7


 354 00d6 2046     		mov	r0, r4
 355 00d8 FFF7FEFF 		bl	I2C_Flush_TXDR
 356 00dc 2268     		ldr	r2, [r4]
 357 00de 5368     		ldr	r3, [r2, #4]
 358 00e0 23F0FF73 		bic	r3, r3, #33423360
 359 00e4 23F48B33 		bic	r3, r3, #71168
 360 00e8 23F4FF73 		bic	r3, r3, #510
 361 00ec 23F00103 		bic	r3, r3, #1
 362 00f0 5360     		str	r3, [r2, #4]
 363 00f2 636C     		ldr	r3, [r4, #68]
 364 00f4 3343     		orrs	r3, r3, r6
 365 00f6 6364     		str	r3, [r4, #68]
 366 00f8 2023     		movs	r3, #32
 367 00fa 84F84130 		strb	r3, [r4, #65]
 368 00fe 0023     		movs	r3, #0
 369 0100 84F84230 		strb	r3, [r4, #66]
 370 0104 84F84030 		strb	r3, [r4, #64]
 371              	.L59:
 372 0108 2846     		mov	r0, r5
 373 010a BDE8F081 		pop	{r4, r5, r6, r7, r8, pc}
 374              	.L60:
 375 010e 0025     		movs	r5, #0
 376 0110 C2E7     		b	.L44
 377              	.L57:
 378 0112 002D     		cmp	r5, #0
 379 0114 F8D0     		beq	.L59
 380 0116 DEE7     		b	.L58
 382              		.section	.text.I2C_WaitOnTXISFlagUntilTimeout,"ax",%progbits
 383              		.align	1
 384              		.syntax unified
 385              		.thumb
 386              		.thumb_func
 388              	I2C_WaitOnTXISFlagUntilTimeout:
 389              		@ args = 0, pretend = 0, frame = 0
 390              		@ frame_needed = 0, uses_anonymous_args = 0
 391 0000 70B5     		push	{r4, r5, r6, lr}
 392 0002 0446     		mov	r4, r0
 393 0004 0D46     		mov	r5, r1
 394 0006 1646     		mov	r6, r2
 395              	.L66:
 396 0008 2368     		ldr	r3, [r4]
 397 000a 9B69     		ldr	r3, [r3, #24]
 398 000c 13F0020F 		tst	r3, #2
 399 0010 22D1     		bne	.L71
 400 0012 3246     		mov	r2, r6
 401 0014 2946     		mov	r1, r5
 402 0016 2046     		mov	r0, r4
 403 0018 FFF7FEFF 		bl	I2C_IsErrorOccurred
 404 001c F0B9     		cbnz	r0, .L69
 405 001e B5F1FF3F 		cmp	r5, #-1
 406 0022 F1D0     		beq	.L66
 407 0024 FFF7FEFF 		bl	HAL_GetTick
 408 0028 801B     		subs	r0, r0, r6
 409 002a A842     		cmp	r0, r5
 410 002c 01D8     		bhi	.L67
 411 002e 002D     		cmp	r5, #0
 412 0030 EAD1     		bne	.L66
ARM GAS  C:\Users\aticl\AppData\Local\Temp\ccNU6x1i.s 			page 8


 413              	.L67:
 414 0032 2368     		ldr	r3, [r4]
 415 0034 9B69     		ldr	r3, [r3, #24]
 416 0036 13F0020F 		tst	r3, #2
 417 003a E5D1     		bne	.L66
 418 003c 636C     		ldr	r3, [r4, #68]
 419 003e 43F02003 		orr	r3, r3, #32
 420 0042 6364     		str	r3, [r4, #68]
 421 0044 2023     		movs	r3, #32
 422 0046 84F84130 		strb	r3, [r4, #65]
 423 004a 0023     		movs	r3, #0
 424 004c 84F84230 		strb	r3, [r4, #66]
 425 0050 84F84030 		strb	r3, [r4, #64]
 426 0054 0120     		movs	r0, #1
 427 0056 00E0     		b	.L65
 428              	.L71:
 429 0058 0020     		movs	r0, #0
 430              	.L65:
 431 005a 70BD     		pop	{r4, r5, r6, pc}
 432              	.L69:
 433 005c 0120     		movs	r0, #1
 434 005e FCE7     		b	.L65
 436              		.section	.text.I2C_WaitOnFlagUntilTimeout,"ax",%progbits
 437              		.align	1
 438              		.syntax unified
 439              		.thumb
 440              		.thumb_func
 442              	I2C_WaitOnFlagUntilTimeout:
 443              		@ args = 4, pretend = 0, frame = 0
 444              		@ frame_needed = 0, uses_anonymous_args = 0
 445 0000 2DE9F843 		push	{r3, r4, r5, r6, r7, r8, r9, lr}
 446 0004 0546     		mov	r5, r0
 447 0006 8846     		mov	r8, r1
 448 0008 1746     		mov	r7, r2
 449 000a 1E46     		mov	r6, r3
 450 000c DDF82090 		ldr	r9, [sp, #32]
 451              	.L75:
 452 0010 2B68     		ldr	r3, [r5]
 453 0012 9C69     		ldr	r4, [r3, #24]
 454 0014 38EA0404 		bics	r4, r8, r4
 455 0018 0CBF     		ite	eq
 456 001a 0123     		moveq	r3, #1
 457 001c 0023     		movne	r3, #0
 458 001e BB42     		cmp	r3, r7
 459 0020 27D1     		bne	.L80
 460 0022 4A46     		mov	r2, r9
 461 0024 3146     		mov	r1, r6
 462 0026 2846     		mov	r0, r5
 463 0028 FFF7FEFF 		bl	I2C_IsErrorOccurred
 464 002c 20BB     		cbnz	r0, .L78
 465 002e B6F1FF3F 		cmp	r6, #-1
 466 0032 EDD0     		beq	.L75
 467 0034 FFF7FEFF 		bl	HAL_GetTick
 468 0038 A0EB0900 		sub	r0, r0, r9
 469 003c B042     		cmp	r0, r6
 470 003e 01D8     		bhi	.L76
 471 0040 002E     		cmp	r6, #0
ARM GAS  C:\Users\aticl\AppData\Local\Temp\ccNU6x1i.s 			page 9


 472 0042 E5D1     		bne	.L75
 473              	.L76:
 474 0044 2B68     		ldr	r3, [r5]
 475 0046 9B69     		ldr	r3, [r3, #24]
 476 0048 38EA0303 		bics	r3, r8, r3
 477 004c 0CBF     		ite	eq
 478 004e 0123     		moveq	r3, #1
 479 0050 0023     		movne	r3, #0
 480 0052 BB42     		cmp	r3, r7
 481 0054 DCD1     		bne	.L75
 482 0056 6B6C     		ldr	r3, [r5, #68]
 483 0058 43F02003 		orr	r3, r3, #32
 484 005c 6B64     		str	r3, [r5, #68]
 485 005e 2023     		movs	r3, #32
 486 0060 85F84130 		strb	r3, [r5, #65]
 487 0064 0023     		movs	r3, #0
 488 0066 85F84230 		strb	r3, [r5, #66]
 489 006a 85F84030 		strb	r3, [r5, #64]
 490 006e 0120     		movs	r0, #1
 491 0070 00E0     		b	.L74
 492              	.L80:
 493 0072 0020     		movs	r0, #0
 494              	.L74:
 495 0074 BDE8F883 		pop	{r3, r4, r5, r6, r7, r8, r9, pc}
 496              	.L78:
 497 0078 0120     		movs	r0, #1
 498 007a FBE7     		b	.L74
 500              		.section	.text.I2C_RequestMemoryWrite,"ax",%progbits
 501              		.align	1
 502              		.syntax unified
 503              		.thumb
 504              		.thumb_func
 506              	I2C_RequestMemoryWrite:
 507              		@ args = 8, pretend = 0, frame = 0
 508              		@ frame_needed = 0, uses_anonymous_args = 0
 509 0000 2DE9F041 		push	{r4, r5, r6, r7, r8, lr}
 510 0004 82B0     		sub	sp, sp, #8
 511 0006 0446     		mov	r4, r0
 512 0008 9046     		mov	r8, r2
 513 000a 1D46     		mov	r5, r3
 514 000c 089E     		ldr	r6, [sp, #32]
 515 000e 099F     		ldr	r7, [sp, #36]
 516 0010 194B     		ldr	r3, .L90
 517 0012 0093     		str	r3, [sp]
 518 0014 4FF08073 		mov	r3, #16777216
 519 0018 EAB2     		uxtb	r2, r5
 520 001a FFF7FEFF 		bl	I2C_TransferConfig
 521 001e 3A46     		mov	r2, r7
 522 0020 3146     		mov	r1, r6
 523 0022 2046     		mov	r0, r4
 524 0024 FFF7FEFF 		bl	I2C_WaitOnTXISFlagUntilTimeout
 525 0028 F8B9     		cbnz	r0, .L85
 526 002a 012D     		cmp	r5, #1
 527 002c 0ED1     		bne	.L83
 528 002e 2368     		ldr	r3, [r4]
 529 0030 5FFA88F2 		uxtb	r2, r8
 530 0034 9A62     		str	r2, [r3, #40]
ARM GAS  C:\Users\aticl\AppData\Local\Temp\ccNU6x1i.s 			page 10


 531              	.L84:
 532 0036 0097     		str	r7, [sp]
 533 0038 3346     		mov	r3, r6
 534 003a 0022     		movs	r2, #0
 535 003c 8021     		movs	r1, #128
 536 003e 2046     		mov	r0, r4
 537 0040 FFF7FEFF 		bl	I2C_WaitOnFlagUntilTimeout
 538 0044 A8B9     		cbnz	r0, .L89
 539              	.L82:
 540 0046 02B0     		add	sp, sp, #8
 541              		@ sp needed
 542 0048 BDE8F081 		pop	{r4, r5, r6, r7, r8, pc}
 543              	.L83:
 544 004c 2368     		ldr	r3, [r4]
 545 004e 4FEA1822 		lsr	r2, r8, #8
 546 0052 9A62     		str	r2, [r3, #40]
 547 0054 3A46     		mov	r2, r7
 548 0056 3146     		mov	r1, r6
 549 0058 2046     		mov	r0, r4
 550 005a FFF7FEFF 		bl	I2C_WaitOnTXISFlagUntilTimeout
 551 005e 30B9     		cbnz	r0, .L86
 552 0060 2368     		ldr	r3, [r4]
 553 0062 5FFA88F2 		uxtb	r2, r8
 554 0066 9A62     		str	r2, [r3, #40]
 555 0068 E5E7     		b	.L84
 556              	.L85:
 557 006a 0120     		movs	r0, #1
 558 006c EBE7     		b	.L82
 559              	.L86:
 560 006e 0120     		movs	r0, #1
 561 0070 E9E7     		b	.L82
 562              	.L89:
 563 0072 0120     		movs	r0, #1
 564 0074 E7E7     		b	.L82
 565              	.L91:
 566 0076 00BF     		.align	2
 567              	.L90:
 568 0078 00200080 		.word	-2147475456
 570              		.section	.text.I2C_RequestMemoryRead,"ax",%progbits
 571              		.align	1
 572              		.syntax unified
 573              		.thumb
 574              		.thumb_func
 576              	I2C_RequestMemoryRead:
 577              		@ args = 8, pretend = 0, frame = 0
 578              		@ frame_needed = 0, uses_anonymous_args = 0
 579 0000 2DE9F041 		push	{r4, r5, r6, r7, r8, lr}
 580 0004 82B0     		sub	sp, sp, #8
 581 0006 0446     		mov	r4, r0
 582 0008 9046     		mov	r8, r2
 583 000a 1D46     		mov	r5, r3
 584 000c 089E     		ldr	r6, [sp, #32]
 585 000e 099F     		ldr	r7, [sp, #36]
 586 0010 184B     		ldr	r3, .L101
 587 0012 0093     		str	r3, [sp]
 588 0014 0023     		movs	r3, #0
 589 0016 EAB2     		uxtb	r2, r5
ARM GAS  C:\Users\aticl\AppData\Local\Temp\ccNU6x1i.s 			page 11


 590 0018 FFF7FEFF 		bl	I2C_TransferConfig
 591 001c 3A46     		mov	r2, r7
 592 001e 3146     		mov	r1, r6
 593 0020 2046     		mov	r0, r4
 594 0022 FFF7FEFF 		bl	I2C_WaitOnTXISFlagUntilTimeout
 595 0026 F8B9     		cbnz	r0, .L96
 596 0028 012D     		cmp	r5, #1
 597 002a 0ED1     		bne	.L94
 598 002c 2368     		ldr	r3, [r4]
 599 002e 5FFA88F2 		uxtb	r2, r8
 600 0032 9A62     		str	r2, [r3, #40]
 601              	.L95:
 602 0034 0097     		str	r7, [sp]
 603 0036 3346     		mov	r3, r6
 604 0038 0022     		movs	r2, #0
 605 003a 4021     		movs	r1, #64
 606 003c 2046     		mov	r0, r4
 607 003e FFF7FEFF 		bl	I2C_WaitOnFlagUntilTimeout
 608 0042 A8B9     		cbnz	r0, .L100
 609              	.L93:
 610 0044 02B0     		add	sp, sp, #8
 611              		@ sp needed
 612 0046 BDE8F081 		pop	{r4, r5, r6, r7, r8, pc}
 613              	.L94:
 614 004a 2368     		ldr	r3, [r4]
 615 004c 4FEA1822 		lsr	r2, r8, #8
 616 0050 9A62     		str	r2, [r3, #40]
 617 0052 3A46     		mov	r2, r7
 618 0054 3146     		mov	r1, r6
 619 0056 2046     		mov	r0, r4
 620 0058 FFF7FEFF 		bl	I2C_WaitOnTXISFlagUntilTimeout
 621 005c 30B9     		cbnz	r0, .L97
 622 005e 2368     		ldr	r3, [r4]
 623 0060 5FFA88F2 		uxtb	r2, r8
 624 0064 9A62     		str	r2, [r3, #40]
 625 0066 E5E7     		b	.L95
 626              	.L96:
 627 0068 0120     		movs	r0, #1
 628 006a EBE7     		b	.L93
 629              	.L97:
 630 006c 0120     		movs	r0, #1
 631 006e E9E7     		b	.L93
 632              	.L100:
 633 0070 0120     		movs	r0, #1
 634 0072 E7E7     		b	.L93
 635              	.L102:
 636              		.align	2
 637              	.L101:
 638 0074 00200080 		.word	-2147475456
 640              		.section	.text.I2C_WaitOnSTOPFlagUntilTimeout,"ax",%progbits
 641              		.align	1
 642              		.syntax unified
 643              		.thumb
 644              		.thumb_func
 646              	I2C_WaitOnSTOPFlagUntilTimeout:
 647              		@ args = 0, pretend = 0, frame = 0
 648              		@ frame_needed = 0, uses_anonymous_args = 0
ARM GAS  C:\Users\aticl\AppData\Local\Temp\ccNU6x1i.s 			page 12


 649 0000 70B5     		push	{r4, r5, r6, lr}
 650 0002 0446     		mov	r4, r0
 651 0004 0D46     		mov	r5, r1
 652 0006 1646     		mov	r6, r2
 653 0008 04E0     		b	.L104
 654              	.L106:
 655 000a 2368     		ldr	r3, [r4]
 656 000c 9B69     		ldr	r3, [r3, #24]
 657 000e 13F0200F 		tst	r3, #32
 658 0012 12D0     		beq	.L110
 659              	.L104:
 660 0014 2368     		ldr	r3, [r4]
 661 0016 9B69     		ldr	r3, [r3, #24]
 662 0018 13F0200F 		tst	r3, #32
 663 001c 1BD1     		bne	.L111
 664 001e 3246     		mov	r2, r6
 665 0020 2946     		mov	r1, r5
 666 0022 2046     		mov	r0, r4
 667 0024 FFF7FEFF 		bl	I2C_IsErrorOccurred
 668 0028 B8B9     		cbnz	r0, .L108
 669 002a FFF7FEFF 		bl	HAL_GetTick
 670 002e 801B     		subs	r0, r0, r6
 671 0030 A842     		cmp	r0, r5
 672 0032 EAD8     		bhi	.L106
 673 0034 002D     		cmp	r5, #0
 674 0036 EDD1     		bne	.L104
 675 0038 E7E7     		b	.L106
 676              	.L110:
 677 003a 636C     		ldr	r3, [r4, #68]
 678 003c 43F02003 		orr	r3, r3, #32
 679 0040 6364     		str	r3, [r4, #68]
 680 0042 2023     		movs	r3, #32
 681 0044 84F84130 		strb	r3, [r4, #65]
 682 0048 0023     		movs	r3, #0
 683 004a 84F84230 		strb	r3, [r4, #66]
 684 004e 84F84030 		strb	r3, [r4, #64]
 685 0052 0120     		movs	r0, #1
 686 0054 00E0     		b	.L105
 687              	.L111:
 688 0056 0020     		movs	r0, #0
 689              	.L105:
 690 0058 70BD     		pop	{r4, r5, r6, pc}
 691              	.L108:
 692 005a 0120     		movs	r0, #1
 693 005c FCE7     		b	.L105
 695              		.section	.text.I2C_WaitOnRXNEFlagUntilTimeout,"ax",%progbits
 696              		.align	1
 697              		.syntax unified
 698              		.thumb
 699              		.thumb_func
 701              	I2C_WaitOnRXNEFlagUntilTimeout:
 702              		@ args = 0, pretend = 0, frame = 0
 703              		@ frame_needed = 0, uses_anonymous_args = 0
 704 0000 F8B5     		push	{r3, r4, r5, r6, r7, lr}
 705 0002 0446     		mov	r4, r0
 706 0004 0E46     		mov	r6, r1
 707 0006 1746     		mov	r7, r2
ARM GAS  C:\Users\aticl\AppData\Local\Temp\ccNU6x1i.s 			page 13


 708 0008 0025     		movs	r5, #0
 709 000a 18E0     		b	.L113
 710              	.L116:
 711 000c 0023     		movs	r3, #0
 712 000e 6364     		str	r3, [r4, #68]
 713              	.L115:
 714 0010 FFF7FEFF 		bl	HAL_GetTick
 715 0014 C01B     		subs	r0, r0, r7
 716 0016 B042     		cmp	r0, r6
 717 0018 00D8     		bhi	.L117
 718 001a 86B9     		cbnz	r6, .L113
 719              	.L117:
 720 001c 7DB9     		cbnz	r5, .L113
 721 001e 2368     		ldr	r3, [r4]
 722 0020 9B69     		ldr	r3, [r3, #24]
 723 0022 13F0040F 		tst	r3, #4
 724 0026 0AD1     		bne	.L113
 725 0028 636C     		ldr	r3, [r4, #68]
 726 002a 43F02003 		orr	r3, r3, #32
 727 002e 6364     		str	r3, [r4, #68]
 728 0030 2023     		movs	r3, #32
 729 0032 84F84130 		strb	r3, [r4, #65]
 730 0036 0023     		movs	r3, #0
 731 0038 84F84030 		strb	r3, [r4, #64]
 732 003c 0125     		movs	r5, #1
 733              	.L113:
 734 003e 2368     		ldr	r3, [r4]
 735 0040 9B69     		ldr	r3, [r3, #24]
 736 0042 13F0040F 		tst	r3, #4
 737 0046 2ED1     		bne	.L119
 738 0048 6DBB     		cbnz	r5, .L119
 739 004a 3A46     		mov	r2, r7
 740 004c 3146     		mov	r1, r6
 741 004e 2046     		mov	r0, r4
 742 0050 FFF7FEFF 		bl	I2C_IsErrorOccurred
 743 0054 00B1     		cbz	r0, .L114
 744 0056 0125     		movs	r5, #1
 745              	.L114:
 746 0058 2368     		ldr	r3, [r4]
 747 005a 9A69     		ldr	r2, [r3, #24]
 748 005c 12F0200F 		tst	r2, #32
 749 0060 D6D0     		beq	.L115
 750 0062 002D     		cmp	r5, #0
 751 0064 D4D1     		bne	.L115
 752 0066 9A69     		ldr	r2, [r3, #24]
 753 0068 9A69     		ldr	r2, [r3, #24]
 754 006a 12F0100F 		tst	r2, #16
 755 006e CDD0     		beq	.L116
 756 0070 1022     		movs	r2, #16
 757 0072 DA61     		str	r2, [r3, #28]
 758 0074 0423     		movs	r3, #4
 759 0076 6364     		str	r3, [r4, #68]
 760 0078 2368     		ldr	r3, [r4]
 761 007a 2022     		movs	r2, #32
 762 007c DA61     		str	r2, [r3, #28]
 763 007e 2168     		ldr	r1, [r4]
 764 0080 4B68     		ldr	r3, [r1, #4]
ARM GAS  C:\Users\aticl\AppData\Local\Temp\ccNU6x1i.s 			page 14


 765 0082 23F0FF73 		bic	r3, r3, #33423360
 766 0086 23F48B33 		bic	r3, r3, #71168
 767 008a 23F4FF73 		bic	r3, r3, #510
 768 008e 23F00103 		bic	r3, r3, #1
 769 0092 4B60     		str	r3, [r1, #4]
 770 0094 84F84120 		strb	r2, [r4, #65]
 771 0098 0023     		movs	r3, #0
 772 009a 84F84230 		strb	r3, [r4, #66]
 773 009e 84F84030 		strb	r3, [r4, #64]
 774 00a2 0125     		movs	r5, #1
 775 00a4 B4E7     		b	.L115
 776              	.L119:
 777 00a6 2846     		mov	r0, r5
 778 00a8 F8BD     		pop	{r3, r4, r5, r6, r7, pc}
 780              		.section	.text.HAL_I2C_MspInit,"ax",%progbits
 781              		.align	1
 782              		.weak	HAL_I2C_MspInit
 783              		.syntax unified
 784              		.thumb
 785              		.thumb_func
 787              	HAL_I2C_MspInit:
 788              		@ args = 0, pretend = 0, frame = 0
 789              		@ frame_needed = 0, uses_anonymous_args = 0
 790              		@ link register save eliminated.
 791 0000 7047     		bx	lr
 793              		.section	.text.HAL_I2C_Init,"ax",%progbits
 794              		.align	1
 795              		.global	HAL_I2C_Init
 796              		.syntax unified
 797              		.thumb
 798              		.thumb_func
 800              	HAL_I2C_Init:
 801              		@ args = 0, pretend = 0, frame = 0
 802              		@ frame_needed = 0, uses_anonymous_args = 0
 803 0000 0028     		cmp	r0, #0
 804 0002 5DD0     		beq	.L131
 805 0004 10B5     		push	{r4, lr}
 806 0006 0446     		mov	r4, r0
 807 0008 90F84130 		ldrb	r3, [r0, #65]	@ zero_extendqisi2
 808 000c 002B     		cmp	r3, #0
 809 000e 46D0     		beq	.L136
 810              	.L126:
 811 0010 2423     		movs	r3, #36
 812 0012 84F84130 		strb	r3, [r4, #65]
 813 0016 2268     		ldr	r2, [r4]
 814 0018 1368     		ldr	r3, [r2]
 815 001a 23F00103 		bic	r3, r3, #1
 816 001e 1360     		str	r3, [r2]
 817 0020 6368     		ldr	r3, [r4, #4]
 818 0022 2268     		ldr	r2, [r4]
 819 0024 23F07063 		bic	r3, r3, #251658240
 820 0028 1361     		str	r3, [r2, #16]
 821 002a 2268     		ldr	r2, [r4]
 822 002c 9368     		ldr	r3, [r2, #8]
 823 002e 23F40043 		bic	r3, r3, #32768
 824 0032 9360     		str	r3, [r2, #8]
 825 0034 E368     		ldr	r3, [r4, #12]
ARM GAS  C:\Users\aticl\AppData\Local\Temp\ccNU6x1i.s 			page 15


 826 0036 012B     		cmp	r3, #1
 827 0038 36D0     		beq	.L137
 828 003a A368     		ldr	r3, [r4, #8]
 829 003c 2268     		ldr	r2, [r4]
 830 003e 43F40443 		orr	r3, r3, #33792
 831 0042 9360     		str	r3, [r2, #8]
 832              	.L128:
 833 0044 E368     		ldr	r3, [r4, #12]
 834 0046 022B     		cmp	r3, #2
 835 0048 34D0     		beq	.L138
 836 004a 2268     		ldr	r2, [r4]
 837 004c 5368     		ldr	r3, [r2, #4]
 838 004e 23F40063 		bic	r3, r3, #2048
 839 0052 5360     		str	r3, [r2, #4]
 840              	.L130:
 841 0054 2268     		ldr	r2, [r4]
 842 0056 5168     		ldr	r1, [r2, #4]
 843 0058 1A4B     		ldr	r3, .L139
 844 005a 0B43     		orrs	r3, r3, r1
 845 005c 5360     		str	r3, [r2, #4]
 846 005e 2268     		ldr	r2, [r4]
 847 0060 D368     		ldr	r3, [r2, #12]
 848 0062 23F40043 		bic	r3, r3, #32768
 849 0066 D360     		str	r3, [r2, #12]
 850 0068 2369     		ldr	r3, [r4, #16]
 851 006a 6269     		ldr	r2, [r4, #20]
 852 006c 1343     		orrs	r3, r3, r2
 853 006e A169     		ldr	r1, [r4, #24]
 854 0070 2268     		ldr	r2, [r4]
 855 0072 43EA0123 		orr	r3, r3, r1, lsl #8
 856 0076 D360     		str	r3, [r2, #12]
 857 0078 E369     		ldr	r3, [r4, #28]
 858 007a 216A     		ldr	r1, [r4, #32]
 859 007c 2268     		ldr	r2, [r4]
 860 007e 0B43     		orrs	r3, r3, r1
 861 0080 1360     		str	r3, [r2]
 862 0082 2268     		ldr	r2, [r4]
 863 0084 1368     		ldr	r3, [r2]
 864 0086 43F00103 		orr	r3, r3, #1
 865 008a 1360     		str	r3, [r2]
 866 008c 0020     		movs	r0, #0
 867 008e 6064     		str	r0, [r4, #68]
 868 0090 2023     		movs	r3, #32
 869 0092 84F84130 		strb	r3, [r4, #65]
 870 0096 2063     		str	r0, [r4, #48]
 871 0098 84F84200 		strb	r0, [r4, #66]
 872 009c 10BD     		pop	{r4, pc}
 873              	.L136:
 874 009e 80F84030 		strb	r3, [r0, #64]
 875 00a2 FFF7FEFF 		bl	HAL_I2C_MspInit
 876 00a6 B3E7     		b	.L126
 877              	.L137:
 878 00a8 A368     		ldr	r3, [r4, #8]
 879 00aa 2268     		ldr	r2, [r4]
 880 00ac 43F40043 		orr	r3, r3, #32768
 881 00b0 9360     		str	r3, [r2, #8]
 882 00b2 C7E7     		b	.L128
ARM GAS  C:\Users\aticl\AppData\Local\Temp\ccNU6x1i.s 			page 16


 883              	.L138:
 884 00b4 2268     		ldr	r2, [r4]
 885 00b6 5368     		ldr	r3, [r2, #4]
 886 00b8 43F40063 		orr	r3, r3, #2048
 887 00bc 5360     		str	r3, [r2, #4]
 888 00be C9E7     		b	.L130
 889              	.L131:
 890 00c0 0120     		movs	r0, #1
 891 00c2 7047     		bx	lr
 892              	.L140:
 893              		.align	2
 894              	.L139:
 895 00c4 00800002 		.word	33587200
 897              		.section	.text.HAL_I2C_MspDeInit,"ax",%progbits
 898              		.align	1
 899              		.weak	HAL_I2C_MspDeInit
 900              		.syntax unified
 901              		.thumb
 902              		.thumb_func
 904              	HAL_I2C_MspDeInit:
 905              		@ args = 0, pretend = 0, frame = 0
 906              		@ frame_needed = 0, uses_anonymous_args = 0
 907              		@ link register save eliminated.
 908 0000 7047     		bx	lr
 910              		.section	.text.HAL_I2C_DeInit,"ax",%progbits
 911              		.align	1
 912              		.global	HAL_I2C_DeInit
 913              		.syntax unified
 914              		.thumb
 915              		.thumb_func
 917              	HAL_I2C_DeInit:
 918              		@ args = 0, pretend = 0, frame = 0
 919              		@ frame_needed = 0, uses_anonymous_args = 0
 920 0000 A8B1     		cbz	r0, .L144
 921 0002 10B5     		push	{r4, lr}
 922 0004 0446     		mov	r4, r0
 923 0006 2423     		movs	r3, #36
 924 0008 80F84130 		strb	r3, [r0, #65]
 925 000c 0268     		ldr	r2, [r0]
 926 000e 1368     		ldr	r3, [r2]
 927 0010 23F00103 		bic	r3, r3, #1
 928 0014 1360     		str	r3, [r2]
 929 0016 FFF7FEFF 		bl	HAL_I2C_MspDeInit
 930 001a 0020     		movs	r0, #0
 931 001c 6064     		str	r0, [r4, #68]
 932 001e 84F84100 		strb	r0, [r4, #65]
 933 0022 2063     		str	r0, [r4, #48]
 934 0024 84F84200 		strb	r0, [r4, #66]
 935 0028 84F84000 		strb	r0, [r4, #64]
 936 002c 10BD     		pop	{r4, pc}
 937              	.L144:
 938 002e 0120     		movs	r0, #1
 939 0030 7047     		bx	lr
 941              		.section	.text.HAL_I2C_Master_Transmit,"ax",%progbits
 942              		.align	1
 943              		.global	HAL_I2C_Master_Transmit
 944              		.syntax unified
ARM GAS  C:\Users\aticl\AppData\Local\Temp\ccNU6x1i.s 			page 17


 945              		.thumb
 946              		.thumb_func
 948              	HAL_I2C_Master_Transmit:
 949              		@ args = 4, pretend = 0, frame = 0
 950              		@ frame_needed = 0, uses_anonymous_args = 0
 951 0000 2DE9F047 		push	{r4, r5, r6, r7, r8, r9, r10, lr}
 952 0004 82B0     		sub	sp, sp, #8
 953 0006 0F46     		mov	r7, r1
 954 0008 0A9E     		ldr	r6, [sp, #40]
 955 000a 90F84110 		ldrb	r1, [r0, #65]	@ zero_extendqisi2
 956 000e 2029     		cmp	r1, #32
 957 0010 40F0B780 		bne	.L159
 958 0014 0446     		mov	r4, r0
 959 0016 9146     		mov	r9, r2
 960 0018 9846     		mov	r8, r3
 961 001a 90F84030 		ldrb	r3, [r0, #64]	@ zero_extendqisi2
 962 001e 012B     		cmp	r3, #1
 963 0020 00F0B380 		beq	.L160
 964 0024 4FF0010A 		mov	r10, #1
 965 0028 80F840A0 		strb	r10, [r0, #64]
 966 002c FFF7FEFF 		bl	HAL_GetTick
 967 0030 0546     		mov	r5, r0
 968 0032 0090     		str	r0, [sp]
 969 0034 1923     		movs	r3, #25
 970 0036 5246     		mov	r2, r10
 971 0038 4FF40041 		mov	r1, #32768
 972 003c 2046     		mov	r0, r4
 973 003e FFF7FEFF 		bl	I2C_WaitOnFlagUntilTimeout
 974 0042 0028     		cmp	r0, #0
 975 0044 40F0A380 		bne	.L161
 976 0048 2123     		movs	r3, #33
 977 004a 84F84130 		strb	r3, [r4, #65]
 978 004e 1023     		movs	r3, #16
 979 0050 84F84230 		strb	r3, [r4, #66]
 980 0054 0023     		movs	r3, #0
 981 0056 6364     		str	r3, [r4, #68]
 982 0058 C4F82490 		str	r9, [r4, #36]
 983 005c A4F82A80 		strh	r8, [r4, #42]	@ movhi
 984 0060 6363     		str	r3, [r4, #52]
 985 0062 638D     		ldrh	r3, [r4, #42]
 986 0064 9BB2     		uxth	r3, r3
 987 0066 FF2B     		cmp	r3, #255
 988 0068 1ED9     		bls	.L151
 989 006a FF23     		movs	r3, #255
 990 006c 2385     		strh	r3, [r4, #40]	@ movhi
 991 006e 4FF08073 		mov	r3, #16777216
 992              	.L152:
 993 0072 228D     		ldrh	r2, [r4, #40]
 994 0074 EAB1     		cbz	r2, .L153
 995 0076 2268     		ldr	r2, [r4]
 996 0078 99F80010 		ldrb	r1, [r9]	@ zero_extendqisi2
 997 007c 9162     		str	r1, [r2, #40]
 998 007e 626A     		ldr	r2, [r4, #36]
 999 0080 0132     		adds	r2, r2, #1
 1000 0082 6262     		str	r2, [r4, #36]
 1001 0084 628D     		ldrh	r2, [r4, #42]
 1002 0086 92B2     		uxth	r2, r2
ARM GAS  C:\Users\aticl\AppData\Local\Temp\ccNU6x1i.s 			page 18


 1003 0088 013A     		subs	r2, r2, #1
 1004 008a 92B2     		uxth	r2, r2
 1005 008c 6285     		strh	r2, [r4, #42]	@ movhi
 1006 008e 228D     		ldrh	r2, [r4, #40]
 1007 0090 013A     		subs	r2, r2, #1
 1008 0092 92B2     		uxth	r2, r2
 1009 0094 2285     		strh	r2, [r4, #40]	@ movhi
 1010 0096 0132     		adds	r2, r2, #1
 1011 0098 4149     		ldr	r1, .L167
 1012 009a 0091     		str	r1, [sp]
 1013 009c D2B2     		uxtb	r2, r2
 1014 009e 3946     		mov	r1, r7
 1015 00a0 2046     		mov	r0, r4
 1016 00a2 FFF7FEFF 		bl	I2C_TransferConfig
 1017 00a6 18E0     		b	.L157
 1018              	.L151:
 1019 00a8 638D     		ldrh	r3, [r4, #42]
 1020 00aa 2385     		strh	r3, [r4, #40]	@ movhi
 1021 00ac 4FF00073 		mov	r3, #33554432
 1022 00b0 DFE7     		b	.L152
 1023              	.L153:
 1024 00b2 3B49     		ldr	r1, .L167
 1025 00b4 0091     		str	r1, [sp]
 1026 00b6 D2B2     		uxtb	r2, r2
 1027 00b8 3946     		mov	r1, r7
 1028 00ba 2046     		mov	r0, r4
 1029 00bc FFF7FEFF 		bl	I2C_TransferConfig
 1030 00c0 0BE0     		b	.L157
 1031              	.L156:
 1032 00c2 628D     		ldrh	r2, [r4, #42]
 1033 00c4 92B2     		uxth	r2, r2
 1034 00c6 2285     		strh	r2, [r4, #40]	@ movhi
 1035 00c8 0023     		movs	r3, #0
 1036 00ca 0093     		str	r3, [sp]
 1037 00cc 4FF00073 		mov	r3, #33554432
 1038 00d0 D2B2     		uxtb	r2, r2
 1039 00d2 3946     		mov	r1, r7
 1040 00d4 2046     		mov	r0, r4
 1041 00d6 FFF7FEFF 		bl	I2C_TransferConfig
 1042              	.L157:
 1043 00da 638D     		ldrh	r3, [r4, #42]
 1044 00dc 9BB2     		uxth	r3, r3
 1045 00de 002B     		cmp	r3, #0
 1046 00e0 33D0     		beq	.L166
 1047 00e2 2A46     		mov	r2, r5
 1048 00e4 3146     		mov	r1, r6
 1049 00e6 2046     		mov	r0, r4
 1050 00e8 FFF7FEFF 		bl	I2C_WaitOnTXISFlagUntilTimeout
 1051 00ec 0028     		cmp	r0, #0
 1052 00ee 50D1     		bne	.L162
 1053 00f0 626A     		ldr	r2, [r4, #36]
 1054 00f2 2368     		ldr	r3, [r4]
 1055 00f4 1278     		ldrb	r2, [r2]	@ zero_extendqisi2
 1056 00f6 9A62     		str	r2, [r3, #40]
 1057 00f8 636A     		ldr	r3, [r4, #36]
 1058 00fa 0133     		adds	r3, r3, #1
 1059 00fc 6362     		str	r3, [r4, #36]
ARM GAS  C:\Users\aticl\AppData\Local\Temp\ccNU6x1i.s 			page 19


 1060 00fe 638D     		ldrh	r3, [r4, #42]
 1061 0100 9BB2     		uxth	r3, r3
 1062 0102 013B     		subs	r3, r3, #1
 1063 0104 9BB2     		uxth	r3, r3
 1064 0106 6385     		strh	r3, [r4, #42]	@ movhi
 1065 0108 238D     		ldrh	r3, [r4, #40]
 1066 010a 013B     		subs	r3, r3, #1
 1067 010c 9BB2     		uxth	r3, r3
 1068 010e 2385     		strh	r3, [r4, #40]	@ movhi
 1069 0110 628D     		ldrh	r2, [r4, #42]
 1070 0112 92B2     		uxth	r2, r2
 1071 0114 002A     		cmp	r2, #0
 1072 0116 E0D0     		beq	.L157
 1073 0118 002B     		cmp	r3, #0
 1074 011a DED1     		bne	.L157
 1075 011c 0095     		str	r5, [sp]
 1076 011e 3346     		mov	r3, r6
 1077 0120 0022     		movs	r2, #0
 1078 0122 8021     		movs	r1, #128
 1079 0124 2046     		mov	r0, r4
 1080 0126 FFF7FEFF 		bl	I2C_WaitOnFlagUntilTimeout
 1081 012a A0BB     		cbnz	r0, .L163
 1082 012c 638D     		ldrh	r3, [r4, #42]
 1083 012e 9BB2     		uxth	r3, r3
 1084 0130 FF2B     		cmp	r3, #255
 1085 0132 C6D9     		bls	.L156
 1086 0134 FF22     		movs	r2, #255
 1087 0136 2285     		strh	r2, [r4, #40]	@ movhi
 1088 0138 0023     		movs	r3, #0
 1089 013a 0093     		str	r3, [sp]
 1090 013c 4FF08073 		mov	r3, #16777216
 1091 0140 3946     		mov	r1, r7
 1092 0142 2046     		mov	r0, r4
 1093 0144 FFF7FEFF 		bl	I2C_TransferConfig
 1094 0148 C7E7     		b	.L157
 1095              	.L166:
 1096 014a 2A46     		mov	r2, r5
 1097 014c 3146     		mov	r1, r6
 1098 014e 2046     		mov	r0, r4
 1099 0150 FFF7FEFF 		bl	I2C_WaitOnSTOPFlagUntilTimeout
 1100 0154 08BB     		cbnz	r0, .L164
 1101 0156 2368     		ldr	r3, [r4]
 1102 0158 2022     		movs	r2, #32
 1103 015a DA61     		str	r2, [r3, #28]
 1104 015c 2168     		ldr	r1, [r4]
 1105 015e 4B68     		ldr	r3, [r1, #4]
 1106 0160 23F0FF73 		bic	r3, r3, #33423360
 1107 0164 23F48B33 		bic	r3, r3, #71168
 1108 0168 23F4FF73 		bic	r3, r3, #510
 1109 016c 23F00103 		bic	r3, r3, #1
 1110 0170 4B60     		str	r3, [r1, #4]
 1111 0172 84F84120 		strb	r2, [r4, #65]
 1112 0176 0023     		movs	r3, #0
 1113 0178 84F84230 		strb	r3, [r4, #66]
 1114 017c 84F84030 		strb	r3, [r4, #64]
 1115 0180 00E0     		b	.L150
 1116              	.L159:
ARM GAS  C:\Users\aticl\AppData\Local\Temp\ccNU6x1i.s 			page 20


 1117 0182 0220     		movs	r0, #2
 1118              	.L150:
 1119 0184 02B0     		add	sp, sp, #8
 1120              		@ sp needed
 1121 0186 BDE8F087 		pop	{r4, r5, r6, r7, r8, r9, r10, pc}
 1122              	.L160:
 1123 018a 0220     		movs	r0, #2
 1124 018c FAE7     		b	.L150
 1125              	.L161:
 1126 018e 0120     		movs	r0, #1
 1127 0190 F8E7     		b	.L150
 1128              	.L162:
 1129 0192 0120     		movs	r0, #1
 1130 0194 F6E7     		b	.L150
 1131              	.L163:
 1132 0196 0120     		movs	r0, #1
 1133 0198 F4E7     		b	.L150
 1134              	.L164:
 1135 019a 0120     		movs	r0, #1
 1136 019c F2E7     		b	.L150
 1137              	.L168:
 1138 019e 00BF     		.align	2
 1139              	.L167:
 1140 01a0 00200080 		.word	-2147475456
 1142              		.section	.text.HAL_I2C_Master_Receive,"ax",%progbits
 1143              		.align	1
 1144              		.global	HAL_I2C_Master_Receive
 1145              		.syntax unified
 1146              		.thumb
 1147              		.thumb_func
 1149              	HAL_I2C_Master_Receive:
 1150              		@ args = 4, pretend = 0, frame = 0
 1151              		@ frame_needed = 0, uses_anonymous_args = 0
 1152 0000 2DE9F047 		push	{r4, r5, r6, r7, r8, r9, r10, lr}
 1153 0004 82B0     		sub	sp, sp, #8
 1154 0006 0F46     		mov	r7, r1
 1155 0008 0A9E     		ldr	r6, [sp, #40]
 1156 000a 90F84110 		ldrb	r1, [r0, #65]	@ zero_extendqisi2
 1157 000e 2029     		cmp	r1, #32
 1158 0010 40F0A280 		bne	.L177
 1159 0014 0446     		mov	r4, r0
 1160 0016 9146     		mov	r9, r2
 1161 0018 9846     		mov	r8, r3
 1162 001a 90F84030 		ldrb	r3, [r0, #64]	@ zero_extendqisi2
 1163 001e 012B     		cmp	r3, #1
 1164 0020 00F09E80 		beq	.L178
 1165 0024 4FF0010A 		mov	r10, #1
 1166 0028 80F840A0 		strb	r10, [r0, #64]
 1167 002c FFF7FEFF 		bl	HAL_GetTick
 1168 0030 0546     		mov	r5, r0
 1169 0032 0090     		str	r0, [sp]
 1170 0034 1923     		movs	r3, #25
 1171 0036 5246     		mov	r2, r10
 1172 0038 4FF40041 		mov	r1, #32768
 1173 003c 2046     		mov	r0, r4
 1174 003e FFF7FEFF 		bl	I2C_WaitOnFlagUntilTimeout
 1175 0042 0028     		cmp	r0, #0
ARM GAS  C:\Users\aticl\AppData\Local\Temp\ccNU6x1i.s 			page 21


 1176 0044 40F08E80 		bne	.L179
 1177 0048 2223     		movs	r3, #34
 1178 004a 84F84130 		strb	r3, [r4, #65]
 1179 004e 1023     		movs	r3, #16
 1180 0050 84F84230 		strb	r3, [r4, #66]
 1181 0054 0023     		movs	r3, #0
 1182 0056 6364     		str	r3, [r4, #68]
 1183 0058 C4F82490 		str	r9, [r4, #36]
 1184 005c A4F82A80 		strh	r8, [r4, #42]	@ movhi
 1185 0060 6363     		str	r3, [r4, #52]
 1186 0062 638D     		ldrh	r3, [r4, #42]
 1187 0064 9BB2     		uxth	r3, r3
 1188 0066 FF2B     		cmp	r3, #255
 1189 0068 0AD9     		bls	.L171
 1190 006a FF22     		movs	r2, #255
 1191 006c 2285     		strh	r2, [r4, #40]	@ movhi
 1192 006e 414B     		ldr	r3, .L185
 1193 0070 0093     		str	r3, [sp]
 1194 0072 4FF08073 		mov	r3, #16777216
 1195 0076 3946     		mov	r1, r7
 1196 0078 2046     		mov	r0, r4
 1197 007a FFF7FEFF 		bl	I2C_TransferConfig
 1198 007e 18E0     		b	.L175
 1199              	.L171:
 1200 0080 628D     		ldrh	r2, [r4, #42]
 1201 0082 92B2     		uxth	r2, r2
 1202 0084 2285     		strh	r2, [r4, #40]	@ movhi
 1203 0086 3B4B     		ldr	r3, .L185
 1204 0088 0093     		str	r3, [sp]
 1205 008a 4FF00073 		mov	r3, #33554432
 1206 008e D2B2     		uxtb	r2, r2
 1207 0090 3946     		mov	r1, r7
 1208 0092 2046     		mov	r0, r4
 1209 0094 FFF7FEFF 		bl	I2C_TransferConfig
 1210 0098 0BE0     		b	.L175
 1211              	.L174:
 1212 009a 628D     		ldrh	r2, [r4, #42]
 1213 009c 92B2     		uxth	r2, r2
 1214 009e 2285     		strh	r2, [r4, #40]	@ movhi
 1215 00a0 0023     		movs	r3, #0
 1216 00a2 0093     		str	r3, [sp]
 1217 00a4 4FF00073 		mov	r3, #33554432
 1218 00a8 D2B2     		uxtb	r2, r2
 1219 00aa 3946     		mov	r1, r7
 1220 00ac 2046     		mov	r0, r4
 1221 00ae FFF7FEFF 		bl	I2C_TransferConfig
 1222              	.L175:
 1223 00b2 638D     		ldrh	r3, [r4, #42]
 1224 00b4 9BB2     		uxth	r3, r3
 1225 00b6 002B     		cmp	r3, #0
 1226 00b8 32D0     		beq	.L184
 1227 00ba 2A46     		mov	r2, r5
 1228 00bc 3146     		mov	r1, r6
 1229 00be 2046     		mov	r0, r4
 1230 00c0 FFF7FEFF 		bl	I2C_WaitOnRXNEFlagUntilTimeout
 1231 00c4 0028     		cmp	r0, #0
 1232 00c6 4FD1     		bne	.L180
ARM GAS  C:\Users\aticl\AppData\Local\Temp\ccNU6x1i.s 			page 22


 1233 00c8 2368     		ldr	r3, [r4]
 1234 00ca 5A6A     		ldr	r2, [r3, #36]
 1235 00cc 636A     		ldr	r3, [r4, #36]
 1236 00ce 1A70     		strb	r2, [r3]
 1237 00d0 636A     		ldr	r3, [r4, #36]
 1238 00d2 0133     		adds	r3, r3, #1
 1239 00d4 6362     		str	r3, [r4, #36]
 1240 00d6 228D     		ldrh	r2, [r4, #40]
 1241 00d8 013A     		subs	r2, r2, #1
 1242 00da 92B2     		uxth	r2, r2
 1243 00dc 2285     		strh	r2, [r4, #40]	@ movhi
 1244 00de 638D     		ldrh	r3, [r4, #42]
 1245 00e0 9BB2     		uxth	r3, r3
 1246 00e2 013B     		subs	r3, r3, #1
 1247 00e4 9BB2     		uxth	r3, r3
 1248 00e6 6385     		strh	r3, [r4, #42]	@ movhi
 1249 00e8 638D     		ldrh	r3, [r4, #42]
 1250 00ea 9BB2     		uxth	r3, r3
 1251 00ec 002B     		cmp	r3, #0
 1252 00ee E0D0     		beq	.L175
 1253 00f0 002A     		cmp	r2, #0
 1254 00f2 DED1     		bne	.L175
 1255 00f4 0095     		str	r5, [sp]
 1256 00f6 3346     		mov	r3, r6
 1257 00f8 8021     		movs	r1, #128
 1258 00fa 2046     		mov	r0, r4
 1259 00fc FFF7FEFF 		bl	I2C_WaitOnFlagUntilTimeout
 1260 0100 A0BB     		cbnz	r0, .L181
 1261 0102 638D     		ldrh	r3, [r4, #42]
 1262 0104 9BB2     		uxth	r3, r3
 1263 0106 FF2B     		cmp	r3, #255
 1264 0108 C7D9     		bls	.L174
 1265 010a FF22     		movs	r2, #255
 1266 010c 2285     		strh	r2, [r4, #40]	@ movhi
 1267 010e 0023     		movs	r3, #0
 1268 0110 0093     		str	r3, [sp]
 1269 0112 4FF08073 		mov	r3, #16777216
 1270 0116 3946     		mov	r1, r7
 1271 0118 2046     		mov	r0, r4
 1272 011a FFF7FEFF 		bl	I2C_TransferConfig
 1273 011e C8E7     		b	.L175
 1274              	.L184:
 1275 0120 2A46     		mov	r2, r5
 1276 0122 3146     		mov	r1, r6
 1277 0124 2046     		mov	r0, r4
 1278 0126 FFF7FEFF 		bl	I2C_WaitOnSTOPFlagUntilTimeout
 1279 012a 08BB     		cbnz	r0, .L182
 1280 012c 2368     		ldr	r3, [r4]
 1281 012e 2022     		movs	r2, #32
 1282 0130 DA61     		str	r2, [r3, #28]
 1283 0132 2168     		ldr	r1, [r4]
 1284 0134 4B68     		ldr	r3, [r1, #4]
 1285 0136 23F0FF73 		bic	r3, r3, #33423360
 1286 013a 23F48B33 		bic	r3, r3, #71168
 1287 013e 23F4FF73 		bic	r3, r3, #510
 1288 0142 23F00103 		bic	r3, r3, #1
 1289 0146 4B60     		str	r3, [r1, #4]
ARM GAS  C:\Users\aticl\AppData\Local\Temp\ccNU6x1i.s 			page 23


 1290 0148 84F84120 		strb	r2, [r4, #65]
 1291 014c 0023     		movs	r3, #0
 1292 014e 84F84230 		strb	r3, [r4, #66]
 1293 0152 84F84030 		strb	r3, [r4, #64]
 1294 0156 00E0     		b	.L170
 1295              	.L177:
 1296 0158 0220     		movs	r0, #2
 1297              	.L170:
 1298 015a 02B0     		add	sp, sp, #8
 1299              		@ sp needed
 1300 015c BDE8F087 		pop	{r4, r5, r6, r7, r8, r9, r10, pc}
 1301              	.L178:
 1302 0160 0220     		movs	r0, #2
 1303 0162 FAE7     		b	.L170
 1304              	.L179:
 1305 0164 0120     		movs	r0, #1
 1306 0166 F8E7     		b	.L170
 1307              	.L180:
 1308 0168 0120     		movs	r0, #1
 1309 016a F6E7     		b	.L170
 1310              	.L181:
 1311 016c 0120     		movs	r0, #1
 1312 016e F4E7     		b	.L170
 1313              	.L182:
 1314 0170 0120     		movs	r0, #1
 1315 0172 F2E7     		b	.L170
 1316              	.L186:
 1317              		.align	2
 1318              	.L185:
 1319 0174 00240080 		.word	-2147474432
 1321              		.section	.text.HAL_I2C_Slave_Transmit,"ax",%progbits
 1322              		.align	1
 1323              		.global	HAL_I2C_Slave_Transmit
 1324              		.syntax unified
 1325              		.thumb
 1326              		.thumb_func
 1328              	HAL_I2C_Slave_Transmit:
 1329              		@ args = 0, pretend = 0, frame = 0
 1330              		@ frame_needed = 0, uses_anonymous_args = 0
 1331 0000 2DE9F041 		push	{r4, r5, r6, r7, r8, lr}
 1332 0004 82B0     		sub	sp, sp, #8
 1333 0006 1D46     		mov	r5, r3
 1334 0008 90F84130 		ldrb	r3, [r0, #65]	@ zero_extendqisi2
 1335 000c 202B     		cmp	r3, #32
 1336 000e 40F0EA80 		bne	.L202
 1337 0012 0446     		mov	r4, r0
 1338 0014 8846     		mov	r8, r1
 1339 0016 1746     		mov	r7, r2
 1340 0018 002A     		cmp	r2, #0
 1341 001a 18BF     		it	ne
 1342 001c 0029     		cmpne	r1, #0
 1343 001e 55D0     		beq	.L205
 1344 0020 90F84030 		ldrb	r3, [r0, #64]	@ zero_extendqisi2
 1345 0024 012B     		cmp	r3, #1
 1346 0026 00F0E280 		beq	.L203
 1347 002a 0123     		movs	r3, #1
 1348 002c 80F84030 		strb	r3, [r0, #64]
ARM GAS  C:\Users\aticl\AppData\Local\Temp\ccNU6x1i.s 			page 24


 1349 0030 FFF7FEFF 		bl	HAL_GetTick
 1350 0034 0646     		mov	r6, r0
 1351 0036 2123     		movs	r3, #33
 1352 0038 84F84130 		strb	r3, [r4, #65]
 1353 003c 2023     		movs	r3, #32
 1354 003e 84F84230 		strb	r3, [r4, #66]
 1355 0042 0023     		movs	r3, #0
 1356 0044 6364     		str	r3, [r4, #68]
 1357 0046 C4F82480 		str	r8, [r4, #36]
 1358 004a 6785     		strh	r7, [r4, #42]	@ movhi
 1359 004c 6363     		str	r3, [r4, #52]
 1360 004e 2268     		ldr	r2, [r4]
 1361 0050 5368     		ldr	r3, [r2, #4]
 1362 0052 23F40043 		bic	r3, r3, #32768
 1363 0056 5360     		str	r3, [r2, #4]
 1364 0058 236A     		ldr	r3, [r4, #32]
 1365 005a B3F5003F 		cmp	r3, #131072
 1366 005e 3AD0     		beq	.L206
 1367              	.L190:
 1368 0060 0096     		str	r6, [sp]
 1369 0062 2B46     		mov	r3, r5
 1370 0064 0022     		movs	r2, #0
 1371 0066 0821     		movs	r1, #8
 1372 0068 2046     		mov	r0, r4
 1373 006a FFF7FEFF 		bl	I2C_WaitOnFlagUntilTimeout
 1374 006e 0028     		cmp	r0, #0
 1375 0070 3ED1     		bne	.L207
 1376 0072 2368     		ldr	r3, [r4]
 1377 0074 0822     		movs	r2, #8
 1378 0076 DA61     		str	r2, [r3, #28]
 1379 0078 E368     		ldr	r3, [r4, #12]
 1380 007a 022B     		cmp	r3, #2
 1381 007c 42D0     		beq	.L208
 1382              	.L192:
 1383 007e 0096     		str	r6, [sp]
 1384 0080 2B46     		mov	r3, r5
 1385 0082 0022     		movs	r2, #0
 1386 0084 4FF48031 		mov	r1, #65536
 1387 0088 2046     		mov	r0, r4
 1388 008a FFF7FEFF 		bl	I2C_WaitOnFlagUntilTimeout
 1389 008e 0028     		cmp	r0, #0
 1390 0090 4ED1     		bne	.L209
 1391              	.L194:
 1392 0092 628D     		ldrh	r2, [r4, #42]
 1393 0094 92B2     		uxth	r2, r2
 1394 0096 002A     		cmp	r2, #0
 1395 0098 5BD0     		beq	.L210
 1396 009a 3246     		mov	r2, r6
 1397 009c 2946     		mov	r1, r5
 1398 009e 2046     		mov	r0, r4
 1399 00a0 FFF7FEFF 		bl	I2C_WaitOnTXISFlagUntilTimeout
 1400 00a4 0028     		cmp	r0, #0
 1401 00a6 4DD1     		bne	.L211
 1402 00a8 626A     		ldr	r2, [r4, #36]
 1403 00aa 2368     		ldr	r3, [r4]
 1404 00ac 1278     		ldrb	r2, [r2]	@ zero_extendqisi2
 1405 00ae 9A62     		str	r2, [r3, #40]
ARM GAS  C:\Users\aticl\AppData\Local\Temp\ccNU6x1i.s 			page 25


 1406 00b0 636A     		ldr	r3, [r4, #36]
 1407 00b2 0133     		adds	r3, r3, #1
 1408 00b4 6362     		str	r3, [r4, #36]
 1409 00b6 B4F82AC0 		ldrh	ip, [r4, #42]
 1410 00ba 1FFA8CFC 		uxth	ip, ip
 1411 00be 0CF1FF3C 		add	ip, ip, #-1
 1412 00c2 1FFA8CFC 		uxth	ip, ip
 1413 00c6 A4F82AC0 		strh	ip, [r4, #42]	@ movhi
 1414 00ca E2E7     		b	.L194
 1415              	.L205:
 1416 00cc 4FF40073 		mov	r3, #512
 1417 00d0 4364     		str	r3, [r0, #68]
 1418 00d2 0120     		movs	r0, #1
 1419 00d4 88E0     		b	.L188
 1420              	.L206:
 1421 00d6 626A     		ldr	r2, [r4, #36]
 1422 00d8 2368     		ldr	r3, [r4]
 1423 00da 1278     		ldrb	r2, [r2]	@ zero_extendqisi2
 1424 00dc 9A62     		str	r2, [r3, #40]
 1425 00de 636A     		ldr	r3, [r4, #36]
 1426 00e0 0133     		adds	r3, r3, #1
 1427 00e2 6362     		str	r3, [r4, #36]
 1428 00e4 638D     		ldrh	r3, [r4, #42]
 1429 00e6 9BB2     		uxth	r3, r3
 1430 00e8 013B     		subs	r3, r3, #1
 1431 00ea 9BB2     		uxth	r3, r3
 1432 00ec 6385     		strh	r3, [r4, #42]	@ movhi
 1433 00ee B7E7     		b	.L190
 1434              	.L207:
 1435 00f0 2268     		ldr	r2, [r4]
 1436 00f2 5368     		ldr	r3, [r2, #4]
 1437 00f4 43F40043 		orr	r3, r3, #32768
 1438 00f8 5360     		str	r3, [r2, #4]
 1439 00fa 2046     		mov	r0, r4
 1440 00fc FFF7FEFF 		bl	I2C_Flush_TXDR
 1441 0100 0120     		movs	r0, #1
 1442 0102 71E0     		b	.L188
 1443              	.L208:
 1444 0104 0096     		str	r6, [sp]
 1445 0106 2B46     		mov	r3, r5
 1446 0108 0022     		movs	r2, #0
 1447 010a 0821     		movs	r1, #8
 1448 010c 2046     		mov	r0, r4
 1449 010e FFF7FEFF 		bl	I2C_WaitOnFlagUntilTimeout
 1450 0112 18B9     		cbnz	r0, .L212
 1451 0114 2368     		ldr	r3, [r4]
 1452 0116 0822     		movs	r2, #8
 1453 0118 DA61     		str	r2, [r3, #28]
 1454 011a B0E7     		b	.L192
 1455              	.L212:
 1456 011c 2268     		ldr	r2, [r4]
 1457 011e 5368     		ldr	r3, [r2, #4]
 1458 0120 43F40043 		orr	r3, r3, #32768
 1459 0124 5360     		str	r3, [r2, #4]
 1460 0126 2046     		mov	r0, r4
 1461 0128 FFF7FEFF 		bl	I2C_Flush_TXDR
 1462 012c 0120     		movs	r0, #1
ARM GAS  C:\Users\aticl\AppData\Local\Temp\ccNU6x1i.s 			page 26


 1463 012e 5BE0     		b	.L188
 1464              	.L209:
 1465 0130 2268     		ldr	r2, [r4]
 1466 0132 5368     		ldr	r3, [r2, #4]
 1467 0134 43F40043 		orr	r3, r3, #32768
 1468 0138 5360     		str	r3, [r2, #4]
 1469 013a 2046     		mov	r0, r4
 1470 013c FFF7FEFF 		bl	I2C_Flush_TXDR
 1471 0140 0120     		movs	r0, #1
 1472 0142 51E0     		b	.L188
 1473              	.L211:
 1474 0144 2268     		ldr	r2, [r4]
 1475 0146 5368     		ldr	r3, [r2, #4]
 1476 0148 43F40043 		orr	r3, r3, #32768
 1477 014c 5360     		str	r3, [r2, #4]
 1478 014e 0120     		movs	r0, #1
 1479 0150 4AE0     		b	.L188
 1480              	.L210:
 1481 0152 0096     		str	r6, [sp]
 1482 0154 2B46     		mov	r3, r5
 1483 0156 1021     		movs	r1, #16
 1484 0158 2046     		mov	r0, r4
 1485 015a FFF7FEFF 		bl	I2C_WaitOnFlagUntilTimeout
 1486 015e E8B1     		cbz	r0, .L197
 1487 0160 638D     		ldrh	r3, [r4, #42]
 1488 0162 9BB2     		uxth	r3, r3
 1489 0164 626C     		ldr	r2, [r4, #68]
 1490 0166 042A     		cmp	r2, #4
 1491 0168 11D1     		bne	.L198
 1492 016a 83B9     		cbnz	r3, .L198
 1493 016c 6364     		str	r3, [r4, #68]
 1494              	.L199:
 1495 016e 0096     		str	r6, [sp]
 1496 0170 2B46     		mov	r3, r5
 1497 0172 0122     		movs	r2, #1
 1498 0174 4FF40041 		mov	r1, #32768
 1499 0178 2046     		mov	r0, r4
 1500 017a FFF7FEFF 		bl	I2C_WaitOnFlagUntilTimeout
 1501 017e 20B3     		cbz	r0, .L201
 1502 0180 2268     		ldr	r2, [r4]
 1503 0182 5368     		ldr	r3, [r2, #4]
 1504 0184 43F40043 		orr	r3, r3, #32768
 1505 0188 5360     		str	r3, [r2, #4]
 1506 018a 0120     		movs	r0, #1
 1507 018c 2CE0     		b	.L188
 1508              	.L198:
 1509 018e 2268     		ldr	r2, [r4]
 1510 0190 5368     		ldr	r3, [r2, #4]
 1511 0192 43F40043 		orr	r3, r3, #32768
 1512 0196 5360     		str	r3, [r2, #4]
 1513 0198 0120     		movs	r0, #1
 1514 019a 25E0     		b	.L188
 1515              	.L197:
 1516 019c 2046     		mov	r0, r4
 1517 019e FFF7FEFF 		bl	I2C_Flush_TXDR
 1518 01a2 2368     		ldr	r3, [r4]
 1519 01a4 1022     		movs	r2, #16
ARM GAS  C:\Users\aticl\AppData\Local\Temp\ccNU6x1i.s 			page 27


 1520 01a6 DA61     		str	r2, [r3, #28]
 1521 01a8 3246     		mov	r2, r6
 1522 01aa 2946     		mov	r1, r5
 1523 01ac 2046     		mov	r0, r4
 1524 01ae FFF7FEFF 		bl	I2C_WaitOnSTOPFlagUntilTimeout
 1525 01b2 18B9     		cbnz	r0, .L213
 1526 01b4 2368     		ldr	r3, [r4]
 1527 01b6 2022     		movs	r2, #32
 1528 01b8 DA61     		str	r2, [r3, #28]
 1529 01ba D8E7     		b	.L199
 1530              	.L213:
 1531 01bc 2268     		ldr	r2, [r4]
 1532 01be 5368     		ldr	r3, [r2, #4]
 1533 01c0 43F40043 		orr	r3, r3, #32768
 1534 01c4 5360     		str	r3, [r2, #4]
 1535 01c6 0120     		movs	r0, #1
 1536 01c8 0EE0     		b	.L188
 1537              	.L201:
 1538 01ca 2268     		ldr	r2, [r4]
 1539 01cc 5368     		ldr	r3, [r2, #4]
 1540 01ce 43F40043 		orr	r3, r3, #32768
 1541 01d2 5360     		str	r3, [r2, #4]
 1542 01d4 2023     		movs	r3, #32
 1543 01d6 84F84130 		strb	r3, [r4, #65]
 1544 01da 0023     		movs	r3, #0
 1545 01dc 84F84230 		strb	r3, [r4, #66]
 1546 01e0 84F84030 		strb	r3, [r4, #64]
 1547 01e4 00E0     		b	.L188
 1548              	.L202:
 1549 01e6 0220     		movs	r0, #2
 1550              	.L188:
 1551 01e8 02B0     		add	sp, sp, #8
 1552              		@ sp needed
 1553 01ea BDE8F081 		pop	{r4, r5, r6, r7, r8, pc}
 1554              	.L203:
 1555 01ee 0220     		movs	r0, #2
 1556 01f0 FAE7     		b	.L188
 1558              		.section	.text.HAL_I2C_Slave_Receive,"ax",%progbits
 1559              		.align	1
 1560              		.global	HAL_I2C_Slave_Receive
 1561              		.syntax unified
 1562              		.thumb
 1563              		.thumb_func
 1565              	HAL_I2C_Slave_Receive:
 1566              		@ args = 0, pretend = 0, frame = 0
 1567              		@ frame_needed = 0, uses_anonymous_args = 0
 1568 0000 2DE9F041 		push	{r4, r5, r6, r7, r8, lr}
 1569 0004 82B0     		sub	sp, sp, #8
 1570 0006 1D46     		mov	r5, r3
 1571 0008 90F84130 		ldrb	r3, [r0, #65]	@ zero_extendqisi2
 1572 000c 202B     		cmp	r3, #32
 1573 000e 40F0B280 		bne	.L224
 1574 0012 0446     		mov	r4, r0
 1575 0014 8846     		mov	r8, r1
 1576 0016 1746     		mov	r7, r2
 1577 0018 002A     		cmp	r2, #0
 1578 001a 18BF     		it	ne
ARM GAS  C:\Users\aticl\AppData\Local\Temp\ccNU6x1i.s 			page 28


 1579 001c 0029     		cmpne	r1, #0
 1580 001e 2BD0     		beq	.L227
 1581 0020 90F84030 		ldrb	r3, [r0, #64]	@ zero_extendqisi2
 1582 0024 012B     		cmp	r3, #1
 1583 0026 00F0AA80 		beq	.L225
 1584 002a 0123     		movs	r3, #1
 1585 002c 80F84030 		strb	r3, [r0, #64]
 1586 0030 FFF7FEFF 		bl	HAL_GetTick
 1587 0034 0646     		mov	r6, r0
 1588 0036 2223     		movs	r3, #34
 1589 0038 84F84130 		strb	r3, [r4, #65]
 1590 003c 2023     		movs	r3, #32
 1591 003e 84F84230 		strb	r3, [r4, #66]
 1592 0042 0022     		movs	r2, #0
 1593 0044 6264     		str	r2, [r4, #68]
 1594 0046 C4F82480 		str	r8, [r4, #36]
 1595 004a 6785     		strh	r7, [r4, #42]	@ movhi
 1596 004c 638D     		ldrh	r3, [r4, #42]
 1597 004e 2385     		strh	r3, [r4, #40]	@ movhi
 1598 0050 6263     		str	r2, [r4, #52]
 1599 0052 2168     		ldr	r1, [r4]
 1600 0054 4B68     		ldr	r3, [r1, #4]
 1601 0056 23F40043 		bic	r3, r3, #32768
 1602 005a 4B60     		str	r3, [r1, #4]
 1603 005c 0090     		str	r0, [sp]
 1604 005e 2B46     		mov	r3, r5
 1605 0060 0821     		movs	r1, #8
 1606 0062 2046     		mov	r0, r4
 1607 0064 FFF7FEFF 		bl	I2C_WaitOnFlagUntilTimeout
 1608 0068 58B1     		cbz	r0, .L217
 1609 006a 2268     		ldr	r2, [r4]
 1610 006c 5368     		ldr	r3, [r2, #4]
 1611 006e 43F40043 		orr	r3, r3, #32768
 1612 0072 5360     		str	r3, [r2, #4]
 1613 0074 0120     		movs	r0, #1
 1614 0076 7FE0     		b	.L215
 1615              	.L227:
 1616 0078 4FF40073 		mov	r3, #512
 1617 007c 4364     		str	r3, [r0, #68]
 1618 007e 0120     		movs	r0, #1
 1619 0080 7AE0     		b	.L215
 1620              	.L217:
 1621 0082 2368     		ldr	r3, [r4]
 1622 0084 0822     		movs	r2, #8
 1623 0086 DA61     		str	r2, [r3, #28]
 1624 0088 0096     		str	r6, [sp]
 1625 008a 2B46     		mov	r3, r5
 1626 008c 0122     		movs	r2, #1
 1627 008e 4FF48031 		mov	r1, #65536
 1628 0092 2046     		mov	r0, r4
 1629 0094 FFF7FEFF 		bl	I2C_WaitOnFlagUntilTimeout
 1630 0098 F0B9     		cbnz	r0, .L228
 1631              	.L218:
 1632 009a 638D     		ldrh	r3, [r4, #42]
 1633 009c 9BB2     		uxth	r3, r3
 1634 009e 002B     		cmp	r3, #0
 1635 00a0 3BD0     		beq	.L229
ARM GAS  C:\Users\aticl\AppData\Local\Temp\ccNU6x1i.s 			page 29


 1636 00a2 3246     		mov	r2, r6
 1637 00a4 2946     		mov	r1, r5
 1638 00a6 2046     		mov	r0, r4
 1639 00a8 FFF7FEFF 		bl	I2C_WaitOnRXNEFlagUntilTimeout
 1640 00ac D8B9     		cbnz	r0, .L230
 1641 00ae 2368     		ldr	r3, [r4]
 1642 00b0 5A6A     		ldr	r2, [r3, #36]
 1643 00b2 636A     		ldr	r3, [r4, #36]
 1644 00b4 1A70     		strb	r2, [r3]
 1645 00b6 636A     		ldr	r3, [r4, #36]
 1646 00b8 0133     		adds	r3, r3, #1
 1647 00ba 6362     		str	r3, [r4, #36]
 1648 00bc B4F82AC0 		ldrh	ip, [r4, #42]
 1649 00c0 1FFA8CFC 		uxth	ip, ip
 1650 00c4 0CF1FF3C 		add	ip, ip, #-1
 1651 00c8 1FFA8CFC 		uxth	ip, ip
 1652 00cc A4F82AC0 		strh	ip, [r4, #42]	@ movhi
 1653 00d0 238D     		ldrh	r3, [r4, #40]
 1654 00d2 013B     		subs	r3, r3, #1
 1655 00d4 2385     		strh	r3, [r4, #40]	@ movhi
 1656 00d6 E0E7     		b	.L218
 1657              	.L228:
 1658 00d8 2268     		ldr	r2, [r4]
 1659 00da 5368     		ldr	r3, [r2, #4]
 1660 00dc 43F40043 		orr	r3, r3, #32768
 1661 00e0 5360     		str	r3, [r2, #4]
 1662 00e2 0120     		movs	r0, #1
 1663 00e4 48E0     		b	.L215
 1664              	.L230:
 1665 00e6 2268     		ldr	r2, [r4]
 1666 00e8 5368     		ldr	r3, [r2, #4]
 1667 00ea 43F40043 		orr	r3, r3, #32768
 1668 00ee 5360     		str	r3, [r2, #4]
 1669 00f0 2368     		ldr	r3, [r4]
 1670 00f2 9A69     		ldr	r2, [r3, #24]
 1671 00f4 12F0040F 		tst	r2, #4
 1672 00f8 0DD0     		beq	.L220
 1673 00fa 5A6A     		ldr	r2, [r3, #36]
 1674 00fc 636A     		ldr	r3, [r4, #36]
 1675 00fe 1A70     		strb	r2, [r3]
 1676 0100 636A     		ldr	r3, [r4, #36]
 1677 0102 0133     		adds	r3, r3, #1
 1678 0104 6362     		str	r3, [r4, #36]
 1679 0106 638D     		ldrh	r3, [r4, #42]
 1680 0108 9BB2     		uxth	r3, r3
 1681 010a 013B     		subs	r3, r3, #1
 1682 010c 9BB2     		uxth	r3, r3
 1683 010e 6385     		strh	r3, [r4, #42]	@ movhi
 1684 0110 238D     		ldrh	r3, [r4, #40]
 1685 0112 013B     		subs	r3, r3, #1
 1686 0114 2385     		strh	r3, [r4, #40]	@ movhi
 1687              	.L220:
 1688 0116 0120     		movs	r0, #1
 1689 0118 2EE0     		b	.L215
 1690              	.L229:
 1691 011a 3246     		mov	r2, r6
 1692 011c 2946     		mov	r1, r5
ARM GAS  C:\Users\aticl\AppData\Local\Temp\ccNU6x1i.s 			page 30


 1693 011e 2046     		mov	r0, r4
 1694 0120 FFF7FEFF 		bl	I2C_WaitOnSTOPFlagUntilTimeout
 1695 0124 30B1     		cbz	r0, .L222
 1696 0126 2268     		ldr	r2, [r4]
 1697 0128 5368     		ldr	r3, [r2, #4]
 1698 012a 43F40043 		orr	r3, r3, #32768
 1699 012e 5360     		str	r3, [r2, #4]
 1700 0130 0120     		movs	r0, #1
 1701 0132 21E0     		b	.L215
 1702              	.L222:
 1703 0134 2368     		ldr	r3, [r4]
 1704 0136 2022     		movs	r2, #32
 1705 0138 DA61     		str	r2, [r3, #28]
 1706 013a 0096     		str	r6, [sp]
 1707 013c 2B46     		mov	r3, r5
 1708 013e 0122     		movs	r2, #1
 1709 0140 4FF40041 		mov	r1, #32768
 1710 0144 2046     		mov	r0, r4
 1711 0146 FFF7FEFF 		bl	I2C_WaitOnFlagUntilTimeout
 1712 014a 30B1     		cbz	r0, .L223
 1713 014c 2268     		ldr	r2, [r4]
 1714 014e 5368     		ldr	r3, [r2, #4]
 1715 0150 43F40043 		orr	r3, r3, #32768
 1716 0154 5360     		str	r3, [r2, #4]
 1717 0156 0120     		movs	r0, #1
 1718 0158 0EE0     		b	.L215
 1719              	.L223:
 1720 015a 2268     		ldr	r2, [r4]
 1721 015c 5368     		ldr	r3, [r2, #4]
 1722 015e 43F40043 		orr	r3, r3, #32768
 1723 0162 5360     		str	r3, [r2, #4]
 1724 0164 2023     		movs	r3, #32
 1725 0166 84F84130 		strb	r3, [r4, #65]
 1726 016a 0023     		movs	r3, #0
 1727 016c 84F84230 		strb	r3, [r4, #66]
 1728 0170 84F84030 		strb	r3, [r4, #64]
 1729 0174 00E0     		b	.L215
 1730              	.L224:
 1731 0176 0220     		movs	r0, #2
 1732              	.L215:
 1733 0178 02B0     		add	sp, sp, #8
 1734              		@ sp needed
 1735 017a BDE8F081 		pop	{r4, r5, r6, r7, r8, pc}
 1736              	.L225:
 1737 017e 0220     		movs	r0, #2
 1738 0180 FAE7     		b	.L215
 1740              		.section	.text.HAL_I2C_Master_Transmit_IT,"ax",%progbits
 1741              		.align	1
 1742              		.global	HAL_I2C_Master_Transmit_IT
 1743              		.syntax unified
 1744              		.thumb
 1745              		.thumb_func
 1747              	HAL_I2C_Master_Transmit_IT:
 1748              		@ args = 0, pretend = 0, frame = 0
 1749              		@ frame_needed = 0, uses_anonymous_args = 0
 1750 0000 30B5     		push	{r4, r5, lr}
 1751 0002 83B0     		sub	sp, sp, #12
ARM GAS  C:\Users\aticl\AppData\Local\Temp\ccNU6x1i.s 			page 31


 1752 0004 0446     		mov	r4, r0
 1753 0006 90F84100 		ldrb	r0, [r0, #65]	@ zero_extendqisi2
 1754 000a 2028     		cmp	r0, #32
 1755 000c 4ED1     		bne	.L237
 1756 000e 2068     		ldr	r0, [r4]
 1757 0010 8569     		ldr	r5, [r0, #24]
 1758 0012 15F4004F 		tst	r5, #32768
 1759 0016 4BD1     		bne	.L238
 1760 0018 94F84050 		ldrb	r5, [r4, #64]	@ zero_extendqisi2
 1761 001c 012D     		cmp	r5, #1
 1762 001e 49D0     		beq	.L239
 1763 0020 0125     		movs	r5, #1
 1764 0022 84F84050 		strb	r5, [r4, #64]
 1765 0026 2125     		movs	r5, #33
 1766 0028 84F84150 		strb	r5, [r4, #65]
 1767 002c 1025     		movs	r5, #16
 1768 002e 84F84250 		strb	r5, [r4, #66]
 1769 0032 0025     		movs	r5, #0
 1770 0034 6564     		str	r5, [r4, #68]
 1771 0036 6262     		str	r2, [r4, #36]
 1772 0038 6385     		strh	r3, [r4, #42]	@ movhi
 1773 003a 1F4B     		ldr	r3, .L241
 1774 003c E362     		str	r3, [r4, #44]
 1775 003e 1F4B     		ldr	r3, .L241+4
 1776 0040 6363     		str	r3, [r4, #52]
 1777 0042 638D     		ldrh	r3, [r4, #42]
 1778 0044 9BB2     		uxth	r3, r3
 1779 0046 FF2B     		cmp	r3, #255
 1780 0048 24D9     		bls	.L233
 1781 004a FF23     		movs	r3, #255
 1782 004c 2385     		strh	r3, [r4, #40]	@ movhi
 1783 004e 4FF08073 		mov	r3, #16777216
 1784              	.L234:
 1785 0052 258D     		ldrh	r5, [r4, #40]
 1786 0054 1DB3     		cbz	r5, .L235
 1787 0056 1278     		ldrb	r2, [r2]	@ zero_extendqisi2
 1788 0058 8262     		str	r2, [r0, #40]
 1789 005a 626A     		ldr	r2, [r4, #36]
 1790 005c 0132     		adds	r2, r2, #1
 1791 005e 6262     		str	r2, [r4, #36]
 1792 0060 628D     		ldrh	r2, [r4, #42]
 1793 0062 92B2     		uxth	r2, r2
 1794 0064 013A     		subs	r2, r2, #1
 1795 0066 92B2     		uxth	r2, r2
 1796 0068 6285     		strh	r2, [r4, #42]	@ movhi
 1797 006a 228D     		ldrh	r2, [r4, #40]
 1798 006c 013A     		subs	r2, r2, #1
 1799 006e 92B2     		uxth	r2, r2
 1800 0070 2285     		strh	r2, [r4, #40]	@ movhi
 1801 0072 0132     		adds	r2, r2, #1
 1802 0074 1248     		ldr	r0, .L241+8
 1803 0076 0090     		str	r0, [sp]
 1804 0078 D2B2     		uxtb	r2, r2
 1805 007a 2046     		mov	r0, r4
 1806 007c FFF7FEFF 		bl	I2C_TransferConfig
 1807              	.L236:
 1808 0080 0025     		movs	r5, #0
ARM GAS  C:\Users\aticl\AppData\Local\Temp\ccNU6x1i.s 			page 32


 1809 0082 84F84050 		strb	r5, [r4, #64]
 1810 0086 0121     		movs	r1, #1
 1811 0088 2046     		mov	r0, r4
 1812 008a FFF7FEFF 		bl	I2C_Enable_IRQ
 1813 008e 2846     		mov	r0, r5
 1814              	.L232:
 1815 0090 03B0     		add	sp, sp, #12
 1816              		@ sp needed
 1817 0092 30BD     		pop	{r4, r5, pc}
 1818              	.L233:
 1819 0094 638D     		ldrh	r3, [r4, #42]
 1820 0096 2385     		strh	r3, [r4, #40]	@ movhi
 1821 0098 4FF00073 		mov	r3, #33554432
 1822 009c D9E7     		b	.L234
 1823              	.L235:
 1824 009e 084A     		ldr	r2, .L241+8
 1825 00a0 0092     		str	r2, [sp]
 1826 00a2 EAB2     		uxtb	r2, r5
 1827 00a4 2046     		mov	r0, r4
 1828 00a6 FFF7FEFF 		bl	I2C_TransferConfig
 1829 00aa E9E7     		b	.L236
 1830              	.L237:
 1831 00ac 0220     		movs	r0, #2
 1832 00ae EFE7     		b	.L232
 1833              	.L238:
 1834 00b0 0220     		movs	r0, #2
 1835 00b2 EDE7     		b	.L232
 1836              	.L239:
 1837 00b4 0220     		movs	r0, #2
 1838 00b6 EBE7     		b	.L232
 1839              	.L242:
 1840              		.align	2
 1841              	.L241:
 1842 00b8 0000FFFF 		.word	-65536
 1843 00bc 00000000 		.word	I2C_Master_ISR_IT
 1844 00c0 00200080 		.word	-2147475456
 1846              		.section	.text.HAL_I2C_Master_Receive_IT,"ax",%progbits
 1847              		.align	1
 1848              		.global	HAL_I2C_Master_Receive_IT
 1849              		.syntax unified
 1850              		.thumb
 1851              		.thumb_func
 1853              	HAL_I2C_Master_Receive_IT:
 1854              		@ args = 0, pretend = 0, frame = 0
 1855              		@ frame_needed = 0, uses_anonymous_args = 0
 1856 0000 30B5     		push	{r4, r5, lr}
 1857 0002 83B0     		sub	sp, sp, #12
 1858 0004 0446     		mov	r4, r0
 1859 0006 90F84100 		ldrb	r0, [r0, #65]	@ zero_extendqisi2
 1860 000a 2028     		cmp	r0, #32
 1861 000c 37D1     		bne	.L247
 1862 000e 2068     		ldr	r0, [r4]
 1863 0010 8069     		ldr	r0, [r0, #24]
 1864 0012 10F4004F 		tst	r0, #32768
 1865 0016 34D1     		bne	.L248
 1866 0018 94F84000 		ldrb	r0, [r4, #64]	@ zero_extendqisi2
 1867 001c 0128     		cmp	r0, #1
ARM GAS  C:\Users\aticl\AppData\Local\Temp\ccNU6x1i.s 			page 33


 1868 001e 32D0     		beq	.L249
 1869 0020 0120     		movs	r0, #1
 1870 0022 84F84000 		strb	r0, [r4, #64]
 1871 0026 2220     		movs	r0, #34
 1872 0028 84F84100 		strb	r0, [r4, #65]
 1873 002c 1020     		movs	r0, #16
 1874 002e 84F84200 		strb	r0, [r4, #66]
 1875 0032 0020     		movs	r0, #0
 1876 0034 6064     		str	r0, [r4, #68]
 1877 0036 6262     		str	r2, [r4, #36]
 1878 0038 6385     		strh	r3, [r4, #42]	@ movhi
 1879 003a 144B     		ldr	r3, .L251
 1880 003c E362     		str	r3, [r4, #44]
 1881 003e 144B     		ldr	r3, .L251+4
 1882 0040 6363     		str	r3, [r4, #52]
 1883 0042 638D     		ldrh	r3, [r4, #42]
 1884 0044 9BB2     		uxth	r3, r3
 1885 0046 FF2B     		cmp	r3, #255
 1886 0048 14D9     		bls	.L245
 1887 004a FF23     		movs	r3, #255
 1888 004c 2385     		strh	r3, [r4, #40]	@ movhi
 1889 004e 4FF08073 		mov	r3, #16777216
 1890              	.L246:
 1891 0052 104A     		ldr	r2, .L251+8
 1892 0054 0092     		str	r2, [sp]
 1893 0056 94F82820 		ldrb	r2, [r4, #40]	@ zero_extendqisi2
 1894 005a 2046     		mov	r0, r4
 1895 005c FFF7FEFF 		bl	I2C_TransferConfig
 1896 0060 0025     		movs	r5, #0
 1897 0062 84F84050 		strb	r5, [r4, #64]
 1898 0066 0221     		movs	r1, #2
 1899 0068 2046     		mov	r0, r4
 1900 006a FFF7FEFF 		bl	I2C_Enable_IRQ
 1901 006e 2846     		mov	r0, r5
 1902              	.L244:
 1903 0070 03B0     		add	sp, sp, #12
 1904              		@ sp needed
 1905 0072 30BD     		pop	{r4, r5, pc}
 1906              	.L245:
 1907 0074 638D     		ldrh	r3, [r4, #42]
 1908 0076 2385     		strh	r3, [r4, #40]	@ movhi
 1909 0078 4FF00073 		mov	r3, #33554432
 1910 007c E9E7     		b	.L246
 1911              	.L247:
 1912 007e 0220     		movs	r0, #2
 1913 0080 F6E7     		b	.L244
 1914              	.L248:
 1915 0082 0220     		movs	r0, #2
 1916 0084 F4E7     		b	.L244
 1917              	.L249:
 1918 0086 0220     		movs	r0, #2
 1919 0088 F2E7     		b	.L244
 1920              	.L252:
 1921 008a 00BF     		.align	2
 1922              	.L251:
 1923 008c 0000FFFF 		.word	-65536
 1924 0090 00000000 		.word	I2C_Master_ISR_IT
ARM GAS  C:\Users\aticl\AppData\Local\Temp\ccNU6x1i.s 			page 34


 1925 0094 00240080 		.word	-2147474432
 1927              		.section	.text.HAL_I2C_Slave_Transmit_IT,"ax",%progbits
 1928              		.align	1
 1929              		.global	HAL_I2C_Slave_Transmit_IT
 1930              		.syntax unified
 1931              		.thumb
 1932              		.thumb_func
 1934              	HAL_I2C_Slave_Transmit_IT:
 1935              		@ args = 0, pretend = 0, frame = 0
 1936              		@ frame_needed = 0, uses_anonymous_args = 0
 1937 0000 90F84130 		ldrb	r3, [r0, #65]	@ zero_extendqisi2
 1938 0004 202B     		cmp	r3, #32
 1939 0006 38D1     		bne	.L256
 1940 0008 90F84030 		ldrb	r3, [r0, #64]	@ zero_extendqisi2
 1941 000c 012B     		cmp	r3, #1
 1942 000e 36D0     		beq	.L257
 1943 0010 10B5     		push	{r4, lr}
 1944 0012 0123     		movs	r3, #1
 1945 0014 80F84030 		strb	r3, [r0, #64]
 1946 0018 2123     		movs	r3, #33
 1947 001a 80F84130 		strb	r3, [r0, #65]
 1948 001e 2023     		movs	r3, #32
 1949 0020 80F84230 		strb	r3, [r0, #66]
 1950 0024 0023     		movs	r3, #0
 1951 0026 4364     		str	r3, [r0, #68]
 1952 0028 0468     		ldr	r4, [r0]
 1953 002a 6368     		ldr	r3, [r4, #4]
 1954 002c 23F40043 		bic	r3, r3, #32768
 1955 0030 6360     		str	r3, [r4, #4]
 1956 0032 4162     		str	r1, [r0, #36]
 1957 0034 4285     		strh	r2, [r0, #42]	@ movhi
 1958 0036 438D     		ldrh	r3, [r0, #42]
 1959 0038 0385     		strh	r3, [r0, #40]	@ movhi
 1960 003a 124B     		ldr	r3, .L263
 1961 003c C362     		str	r3, [r0, #44]
 1962 003e 124B     		ldr	r3, .L263+4
 1963 0040 4363     		str	r3, [r0, #52]
 1964 0042 036A     		ldr	r3, [r0, #32]
 1965 0044 B3F5003F 		cmp	r3, #131072
 1966 0048 08D0     		beq	.L262
 1967              	.L255:
 1968 004a 0024     		movs	r4, #0
 1969 004c 80F84040 		strb	r4, [r0, #64]
 1970 0050 48F20101 		movw	r1, #32769
 1971 0054 FFF7FEFF 		bl	I2C_Enable_IRQ
 1972 0058 2046     		mov	r0, r4
 1973 005a 10BD     		pop	{r4, pc}
 1974              	.L262:
 1975 005c 0368     		ldr	r3, [r0]
 1976 005e 0A78     		ldrb	r2, [r1]	@ zero_extendqisi2
 1977 0060 9A62     		str	r2, [r3, #40]
 1978 0062 436A     		ldr	r3, [r0, #36]
 1979 0064 0133     		adds	r3, r3, #1
 1980 0066 4362     		str	r3, [r0, #36]
 1981 0068 438D     		ldrh	r3, [r0, #42]
 1982 006a 9BB2     		uxth	r3, r3
 1983 006c 013B     		subs	r3, r3, #1
ARM GAS  C:\Users\aticl\AppData\Local\Temp\ccNU6x1i.s 			page 35


 1984 006e 9BB2     		uxth	r3, r3
 1985 0070 4385     		strh	r3, [r0, #42]	@ movhi
 1986 0072 038D     		ldrh	r3, [r0, #40]
 1987 0074 013B     		subs	r3, r3, #1
 1988 0076 0385     		strh	r3, [r0, #40]	@ movhi
 1989 0078 E7E7     		b	.L255
 1990              	.L256:
 1991 007a 0220     		movs	r0, #2
 1992 007c 7047     		bx	lr
 1993              	.L257:
 1994 007e 0220     		movs	r0, #2
 1995 0080 7047     		bx	lr
 1996              	.L264:
 1997 0082 00BF     		.align	2
 1998              	.L263:
 1999 0084 0000FFFF 		.word	-65536
 2000 0088 00000000 		.word	I2C_Slave_ISR_IT
 2002              		.section	.text.HAL_I2C_Slave_Receive_IT,"ax",%progbits
 2003              		.align	1
 2004              		.global	HAL_I2C_Slave_Receive_IT
 2005              		.syntax unified
 2006              		.thumb
 2007              		.thumb_func
 2009              	HAL_I2C_Slave_Receive_IT:
 2010              		@ args = 0, pretend = 0, frame = 0
 2011              		@ frame_needed = 0, uses_anonymous_args = 0
 2012 0000 38B5     		push	{r3, r4, r5, lr}
 2013 0002 90F84130 		ldrb	r3, [r0, #65]	@ zero_extendqisi2
 2014 0006 202B     		cmp	r3, #32
 2015 0008 23D1     		bne	.L267
 2016 000a 90F84030 		ldrb	r3, [r0, #64]	@ zero_extendqisi2
 2017 000e 012B     		cmp	r3, #1
 2018 0010 21D0     		beq	.L268
 2019 0012 0123     		movs	r3, #1
 2020 0014 80F84030 		strb	r3, [r0, #64]
 2021 0018 2223     		movs	r3, #34
 2022 001a 80F84130 		strb	r3, [r0, #65]
 2023 001e 2023     		movs	r3, #32
 2024 0020 80F84230 		strb	r3, [r0, #66]
 2025 0024 0024     		movs	r4, #0
 2026 0026 4464     		str	r4, [r0, #68]
 2027 0028 0568     		ldr	r5, [r0]
 2028 002a 6B68     		ldr	r3, [r5, #4]
 2029 002c 23F40043 		bic	r3, r3, #32768
 2030 0030 6B60     		str	r3, [r5, #4]
 2031 0032 4162     		str	r1, [r0, #36]
 2032 0034 4285     		strh	r2, [r0, #42]	@ movhi
 2033 0036 438D     		ldrh	r3, [r0, #42]
 2034 0038 0385     		strh	r3, [r0, #40]	@ movhi
 2035 003a 084B     		ldr	r3, .L270
 2036 003c C362     		str	r3, [r0, #44]
 2037 003e 084B     		ldr	r3, .L270+4
 2038 0040 4363     		str	r3, [r0, #52]
 2039 0042 80F84040 		strb	r4, [r0, #64]
 2040 0046 48F20201 		movw	r1, #32770
 2041 004a FFF7FEFF 		bl	I2C_Enable_IRQ
 2042 004e 2046     		mov	r0, r4
ARM GAS  C:\Users\aticl\AppData\Local\Temp\ccNU6x1i.s 			page 36


 2043              	.L266:
 2044 0050 38BD     		pop	{r3, r4, r5, pc}
 2045              	.L267:
 2046 0052 0220     		movs	r0, #2
 2047 0054 FCE7     		b	.L266
 2048              	.L268:
 2049 0056 0220     		movs	r0, #2
 2050 0058 FAE7     		b	.L266
 2051              	.L271:
 2052 005a 00BF     		.align	2
 2053              	.L270:
 2054 005c 0000FFFF 		.word	-65536
 2055 0060 00000000 		.word	I2C_Slave_ISR_IT
 2057              		.section	.text.HAL_I2C_Master_Transmit_DMA,"ax",%progbits
 2058              		.align	1
 2059              		.global	HAL_I2C_Master_Transmit_DMA
 2060              		.syntax unified
 2061              		.thumb
 2062              		.thumb_func
 2064              	HAL_I2C_Master_Transmit_DMA:
 2065              		@ args = 0, pretend = 0, frame = 0
 2066              		@ frame_needed = 0, uses_anonymous_args = 0
 2067 0000 70B5     		push	{r4, r5, r6, lr}
 2068 0002 82B0     		sub	sp, sp, #8
 2069 0004 0446     		mov	r4, r0
 2070 0006 90F84100 		ldrb	r0, [r0, #65]	@ zero_extendqisi2
 2071 000a 2028     		cmp	r0, #32
 2072 000c 40F09D80 		bne	.L282
 2073 0010 0D46     		mov	r5, r1
 2074 0012 2068     		ldr	r0, [r4]
 2075 0014 8169     		ldr	r1, [r0, #24]
 2076 0016 11F40041 		ands	r1, r1, #32768
 2077 001a 40F09980 		bne	.L283
 2078 001e 94F84060 		ldrb	r6, [r4, #64]	@ zero_extendqisi2
 2079 0022 012E     		cmp	r6, #1
 2080 0024 00F09680 		beq	.L284
 2081 0028 0126     		movs	r6, #1
 2082 002a 84F84060 		strb	r6, [r4, #64]
 2083 002e 2126     		movs	r6, #33
 2084 0030 84F84160 		strb	r6, [r4, #65]
 2085 0034 1026     		movs	r6, #16
 2086 0036 84F84260 		strb	r6, [r4, #66]
 2087 003a 0026     		movs	r6, #0
 2088 003c 6664     		str	r6, [r4, #68]
 2089 003e 6262     		str	r2, [r4, #36]
 2090 0040 6385     		strh	r3, [r4, #42]	@ movhi
 2091 0042 454B     		ldr	r3, .L288
 2092 0044 E362     		str	r3, [r4, #44]
 2093 0046 454B     		ldr	r3, .L288+4
 2094 0048 6363     		str	r3, [r4, #52]
 2095 004a 638D     		ldrh	r3, [r4, #42]
 2096 004c 9BB2     		uxth	r3, r3
 2097 004e FF2B     		cmp	r3, #255
 2098 0050 37D9     		bls	.L274
 2099 0052 FF23     		movs	r3, #255
 2100 0054 2385     		strh	r3, [r4, #40]	@ movhi
 2101 0056 4FF08076 		mov	r6, #16777216
ARM GAS  C:\Users\aticl\AppData\Local\Temp\ccNU6x1i.s 			page 37


 2102              	.L275:
 2103 005a 238D     		ldrh	r3, [r4, #40]
 2104 005c 63B1     		cbz	r3, .L276
 2105 005e 1378     		ldrb	r3, [r2]	@ zero_extendqisi2
 2106 0060 8362     		str	r3, [r0, #40]
 2107 0062 636A     		ldr	r3, [r4, #36]
 2108 0064 0133     		adds	r3, r3, #1
 2109 0066 6362     		str	r3, [r4, #36]
 2110 0068 218D     		ldrh	r1, [r4, #40]
 2111 006a 638D     		ldrh	r3, [r4, #42]
 2112 006c 9BB2     		uxth	r3, r3
 2113 006e 013B     		subs	r3, r3, #1
 2114 0070 9BB2     		uxth	r3, r3
 2115 0072 6385     		strh	r3, [r4, #42]	@ movhi
 2116 0074 4B1E     		subs	r3, r1, #1
 2117 0076 2385     		strh	r3, [r4, #40]	@ movhi
 2118              	.L276:
 2119 0078 238D     		ldrh	r3, [r4, #40]
 2120 007a 002B     		cmp	r3, #0
 2121 007c 51D0     		beq	.L277
 2122 007e A36B     		ldr	r3, [r4, #56]
 2123 0080 23B3     		cbz	r3, .L278
 2124 0082 374A     		ldr	r2, .L288+8
 2125 0084 DA63     		str	r2, [r3, #60]
 2126 0086 A36B     		ldr	r3, [r4, #56]
 2127 0088 364A     		ldr	r2, .L288+12
 2128 008a DA64     		str	r2, [r3, #76]
 2129 008c A26B     		ldr	r2, [r4, #56]
 2130 008e 0023     		movs	r3, #0
 2131 0090 1364     		str	r3, [r2, #64]
 2132 0092 A26B     		ldr	r2, [r4, #56]
 2133 0094 1365     		str	r3, [r2, #80]
 2134 0096 2268     		ldr	r2, [r4]
 2135 0098 238D     		ldrh	r3, [r4, #40]
 2136 009a 2832     		adds	r2, r2, #40
 2137 009c 616A     		ldr	r1, [r4, #36]
 2138 009e A06B     		ldr	r0, [r4, #56]
 2139 00a0 FFF7FEFF 		bl	HAL_DMA_Start_IT
 2140 00a4 00B3     		cbz	r0, .L287
 2141 00a6 2023     		movs	r3, #32
 2142 00a8 84F84130 		strb	r3, [r4, #65]
 2143 00ac 0022     		movs	r2, #0
 2144 00ae 84F84220 		strb	r2, [r4, #66]
 2145 00b2 636C     		ldr	r3, [r4, #68]
 2146 00b4 43F01003 		orr	r3, r3, #16
 2147 00b8 6364     		str	r3, [r4, #68]
 2148 00ba 84F84020 		strb	r2, [r4, #64]
 2149 00be 0120     		movs	r0, #1
 2150 00c0 44E0     		b	.L273
 2151              	.L274:
 2152 00c2 638D     		ldrh	r3, [r4, #42]
 2153 00c4 2385     		strh	r3, [r4, #40]	@ movhi
 2154 00c6 4FF00076 		mov	r6, #33554432
 2155 00ca C6E7     		b	.L275
 2156              	.L278:
 2157 00cc 2023     		movs	r3, #32
 2158 00ce 84F84130 		strb	r3, [r4, #65]
ARM GAS  C:\Users\aticl\AppData\Local\Temp\ccNU6x1i.s 			page 38


 2159 00d2 0022     		movs	r2, #0
 2160 00d4 84F84220 		strb	r2, [r4, #66]
 2161 00d8 636C     		ldr	r3, [r4, #68]
 2162 00da 43F08003 		orr	r3, r3, #128
 2163 00de 6364     		str	r3, [r4, #68]
 2164 00e0 84F84020 		strb	r2, [r4, #64]
 2165 00e4 0120     		movs	r0, #1
 2166 00e6 31E0     		b	.L273
 2167              	.L287:
 2168 00e8 228D     		ldrh	r2, [r4, #40]
 2169 00ea 0132     		adds	r2, r2, #1
 2170 00ec 1E4B     		ldr	r3, .L288+16
 2171 00ee 0093     		str	r3, [sp]
 2172 00f0 3346     		mov	r3, r6
 2173 00f2 D2B2     		uxtb	r2, r2
 2174 00f4 2946     		mov	r1, r5
 2175 00f6 2046     		mov	r0, r4
 2176 00f8 FFF7FEFF 		bl	I2C_TransferConfig
 2177 00fc 638D     		ldrh	r3, [r4, #42]
 2178 00fe 9BB2     		uxth	r3, r3
 2179 0100 228D     		ldrh	r2, [r4, #40]
 2180 0102 9B1A     		subs	r3, r3, r2
 2181 0104 9BB2     		uxth	r3, r3
 2182 0106 6385     		strh	r3, [r4, #42]	@ movhi
 2183 0108 0023     		movs	r3, #0
 2184 010a 84F84030 		strb	r3, [r4, #64]
 2185 010e 1021     		movs	r1, #16
 2186 0110 2046     		mov	r0, r4
 2187 0112 FFF7FEFF 		bl	I2C_Enable_IRQ
 2188 0116 2268     		ldr	r2, [r4]
 2189 0118 1368     		ldr	r3, [r2]
 2190 011a 43F48043 		orr	r3, r3, #16384
 2191 011e 1360     		str	r3, [r2]
 2192 0120 11E0     		b	.L281
 2193              	.L277:
 2194 0122 124B     		ldr	r3, .L288+20
 2195 0124 6363     		str	r3, [r4, #52]
 2196 0126 104B     		ldr	r3, .L288+16
 2197 0128 0093     		str	r3, [sp]
 2198 012a 4FF00073 		mov	r3, #33554432
 2199 012e CAB2     		uxtb	r2, r1
 2200 0130 2946     		mov	r1, r5
 2201 0132 2046     		mov	r0, r4
 2202 0134 FFF7FEFF 		bl	I2C_TransferConfig
 2203 0138 0023     		movs	r3, #0
 2204 013a 84F84030 		strb	r3, [r4, #64]
 2205 013e 0121     		movs	r1, #1
 2206 0140 2046     		mov	r0, r4
 2207 0142 FFF7FEFF 		bl	I2C_Enable_IRQ
 2208              	.L281:
 2209 0146 0020     		movs	r0, #0
 2210 0148 00E0     		b	.L273
 2211              	.L282:
 2212 014a 0220     		movs	r0, #2
 2213              	.L273:
 2214 014c 02B0     		add	sp, sp, #8
 2215              		@ sp needed
ARM GAS  C:\Users\aticl\AppData\Local\Temp\ccNU6x1i.s 			page 39


 2216 014e 70BD     		pop	{r4, r5, r6, pc}
 2217              	.L283:
 2218 0150 0220     		movs	r0, #2
 2219 0152 FBE7     		b	.L273
 2220              	.L284:
 2221 0154 0220     		movs	r0, #2
 2222 0156 F9E7     		b	.L273
 2223              	.L289:
 2224              		.align	2
 2225              	.L288:
 2226 0158 0000FFFF 		.word	-65536
 2227 015c 00000000 		.word	I2C_Master_ISR_DMA
 2228 0160 00000000 		.word	I2C_DMAMasterTransmitCplt
 2229 0164 00000000 		.word	I2C_DMAError
 2230 0168 00200080 		.word	-2147475456
 2231 016c 00000000 		.word	I2C_Master_ISR_IT
 2233              		.section	.text.HAL_I2C_Master_Receive_DMA,"ax",%progbits
 2234              		.align	1
 2235              		.global	HAL_I2C_Master_Receive_DMA
 2236              		.syntax unified
 2237              		.thumb
 2238              		.thumb_func
 2240              	HAL_I2C_Master_Receive_DMA:
 2241              		@ args = 0, pretend = 0, frame = 0
 2242              		@ frame_needed = 0, uses_anonymous_args = 0
 2243 0000 70B5     		push	{r4, r5, r6, lr}
 2244 0002 82B0     		sub	sp, sp, #8
 2245 0004 0446     		mov	r4, r0
 2246 0006 90F84100 		ldrb	r0, [r0, #65]	@ zero_extendqisi2
 2247 000a 2028     		cmp	r0, #32
 2248 000c 40F08C80 		bne	.L299
 2249 0010 0D46     		mov	r5, r1
 2250 0012 2168     		ldr	r1, [r4]
 2251 0014 8969     		ldr	r1, [r1, #24]
 2252 0016 11F4004F 		tst	r1, #32768
 2253 001a 40F08880 		bne	.L300
 2254 001e 94F84010 		ldrb	r1, [r4, #64]	@ zero_extendqisi2
 2255 0022 0129     		cmp	r1, #1
 2256 0024 00F08580 		beq	.L301
 2257 0028 0121     		movs	r1, #1
 2258 002a 84F84010 		strb	r1, [r4, #64]
 2259 002e 2221     		movs	r1, #34
 2260 0030 84F84110 		strb	r1, [r4, #65]
 2261 0034 1021     		movs	r1, #16
 2262 0036 84F84210 		strb	r1, [r4, #66]
 2263 003a 0021     		movs	r1, #0
 2264 003c 6164     		str	r1, [r4, #68]
 2265 003e 6262     		str	r2, [r4, #36]
 2266 0040 6385     		strh	r3, [r4, #42]	@ movhi
 2267 0042 3D4B     		ldr	r3, .L305
 2268 0044 E362     		str	r3, [r4, #44]
 2269 0046 3D4B     		ldr	r3, .L305+4
 2270 0048 6363     		str	r3, [r4, #52]
 2271 004a 638D     		ldrh	r3, [r4, #42]
 2272 004c 9BB2     		uxth	r3, r3
 2273 004e FF2B     		cmp	r3, #255
 2274 0050 27D9     		bls	.L292
ARM GAS  C:\Users\aticl\AppData\Local\Temp\ccNU6x1i.s 			page 40


 2275 0052 FF23     		movs	r3, #255
 2276 0054 2385     		strh	r3, [r4, #40]	@ movhi
 2277 0056 4FF08076 		mov	r6, #16777216
 2278              	.L293:
 2279 005a 218D     		ldrh	r1, [r4, #40]
 2280 005c 0029     		cmp	r1, #0
 2281 005e 4FD0     		beq	.L294
 2282 0060 E36B     		ldr	r3, [r4, #60]
 2283 0062 1BB3     		cbz	r3, .L295
 2284 0064 3649     		ldr	r1, .L305+8
 2285 0066 D963     		str	r1, [r3, #60]
 2286 0068 E36B     		ldr	r3, [r4, #60]
 2287 006a 3649     		ldr	r1, .L305+12
 2288 006c D964     		str	r1, [r3, #76]
 2289 006e E16B     		ldr	r1, [r4, #60]
 2290 0070 0023     		movs	r3, #0
 2291 0072 0B64     		str	r3, [r1, #64]
 2292 0074 E16B     		ldr	r1, [r4, #60]
 2293 0076 0B65     		str	r3, [r1, #80]
 2294 0078 2168     		ldr	r1, [r4]
 2295 007a 238D     		ldrh	r3, [r4, #40]
 2296 007c 2431     		adds	r1, r1, #36
 2297 007e E06B     		ldr	r0, [r4, #60]
 2298 0080 FFF7FEFF 		bl	HAL_DMA_Start_IT
 2299 0084 00B3     		cbz	r0, .L304
 2300 0086 2023     		movs	r3, #32
 2301 0088 84F84130 		strb	r3, [r4, #65]
 2302 008c 0022     		movs	r2, #0
 2303 008e 84F84220 		strb	r2, [r4, #66]
 2304 0092 636C     		ldr	r3, [r4, #68]
 2305 0094 43F01003 		orr	r3, r3, #16
 2306 0098 6364     		str	r3, [r4, #68]
 2307 009a 84F84020 		strb	r2, [r4, #64]
 2308 009e 0120     		movs	r0, #1
 2309 00a0 43E0     		b	.L291
 2310              	.L292:
 2311 00a2 638D     		ldrh	r3, [r4, #42]
 2312 00a4 2385     		strh	r3, [r4, #40]	@ movhi
 2313 00a6 4FF00076 		mov	r6, #33554432
 2314 00aa D6E7     		b	.L293
 2315              	.L295:
 2316 00ac 2023     		movs	r3, #32
 2317 00ae 84F84130 		strb	r3, [r4, #65]
 2318 00b2 0022     		movs	r2, #0
 2319 00b4 84F84220 		strb	r2, [r4, #66]
 2320 00b8 636C     		ldr	r3, [r4, #68]
 2321 00ba 43F08003 		orr	r3, r3, #128
 2322 00be 6364     		str	r3, [r4, #68]
 2323 00c0 84F84020 		strb	r2, [r4, #64]
 2324 00c4 0120     		movs	r0, #1
 2325 00c6 30E0     		b	.L291
 2326              	.L304:
 2327 00c8 1F4B     		ldr	r3, .L305+16
 2328 00ca 0093     		str	r3, [sp]
 2329 00cc 3346     		mov	r3, r6
 2330 00ce 94F82820 		ldrb	r2, [r4, #40]	@ zero_extendqisi2
 2331 00d2 2946     		mov	r1, r5
ARM GAS  C:\Users\aticl\AppData\Local\Temp\ccNU6x1i.s 			page 41


 2332 00d4 2046     		mov	r0, r4
 2333 00d6 FFF7FEFF 		bl	I2C_TransferConfig
 2334 00da 638D     		ldrh	r3, [r4, #42]
 2335 00dc 9BB2     		uxth	r3, r3
 2336 00de 228D     		ldrh	r2, [r4, #40]
 2337 00e0 9B1A     		subs	r3, r3, r2
 2338 00e2 9BB2     		uxth	r3, r3
 2339 00e4 6385     		strh	r3, [r4, #42]	@ movhi
 2340 00e6 0023     		movs	r3, #0
 2341 00e8 84F84030 		strb	r3, [r4, #64]
 2342 00ec 1021     		movs	r1, #16
 2343 00ee 2046     		mov	r0, r4
 2344 00f0 FFF7FEFF 		bl	I2C_Enable_IRQ
 2345 00f4 2268     		ldr	r2, [r4]
 2346 00f6 1368     		ldr	r3, [r2]
 2347 00f8 43F40043 		orr	r3, r3, #32768
 2348 00fc 1360     		str	r3, [r2]
 2349 00fe 11E0     		b	.L298
 2350              	.L294:
 2351 0100 124B     		ldr	r3, .L305+20
 2352 0102 6363     		str	r3, [r4, #52]
 2353 0104 104B     		ldr	r3, .L305+16
 2354 0106 0093     		str	r3, [sp]
 2355 0108 4FF00073 		mov	r3, #33554432
 2356 010c CAB2     		uxtb	r2, r1
 2357 010e 2946     		mov	r1, r5
 2358 0110 2046     		mov	r0, r4
 2359 0112 FFF7FEFF 		bl	I2C_TransferConfig
 2360 0116 0023     		movs	r3, #0
 2361 0118 84F84030 		strb	r3, [r4, #64]
 2362 011c 0221     		movs	r1, #2
 2363 011e 2046     		mov	r0, r4
 2364 0120 FFF7FEFF 		bl	I2C_Enable_IRQ
 2365              	.L298:
 2366 0124 0020     		movs	r0, #0
 2367 0126 00E0     		b	.L291
 2368              	.L299:
 2369 0128 0220     		movs	r0, #2
 2370              	.L291:
 2371 012a 02B0     		add	sp, sp, #8
 2372              		@ sp needed
 2373 012c 70BD     		pop	{r4, r5, r6, pc}
 2374              	.L300:
 2375 012e 0220     		movs	r0, #2
 2376 0130 FBE7     		b	.L291
 2377              	.L301:
 2378 0132 0220     		movs	r0, #2
 2379 0134 F9E7     		b	.L291
 2380              	.L306:
 2381 0136 00BF     		.align	2
 2382              	.L305:
 2383 0138 0000FFFF 		.word	-65536
 2384 013c 00000000 		.word	I2C_Master_ISR_DMA
 2385 0140 00000000 		.word	I2C_DMAMasterReceiveCplt
 2386 0144 00000000 		.word	I2C_DMAError
 2387 0148 00240080 		.word	-2147474432
 2388 014c 00000000 		.word	I2C_Master_ISR_IT
ARM GAS  C:\Users\aticl\AppData\Local\Temp\ccNU6x1i.s 			page 42


 2390              		.section	.text.HAL_I2C_Slave_Transmit_DMA,"ax",%progbits
 2391              		.align	1
 2392              		.global	HAL_I2C_Slave_Transmit_DMA
 2393              		.syntax unified
 2394              		.thumb
 2395              		.thumb_func
 2397              	HAL_I2C_Slave_Transmit_DMA:
 2398              		@ args = 0, pretend = 0, frame = 0
 2399              		@ frame_needed = 0, uses_anonymous_args = 0
 2400 0000 90F84130 		ldrb	r3, [r0, #65]	@ zero_extendqisi2
 2401 0004 202B     		cmp	r3, #32
 2402 0006 40F08D80 		bne	.L316
 2403 000a 10B5     		push	{r4, lr}
 2404 000c 0446     		mov	r4, r0
 2405 000e 002A     		cmp	r2, #0
 2406 0010 18BF     		it	ne
 2407 0012 0029     		cmpne	r1, #0
 2408 0014 42D0     		beq	.L323
 2409 0016 90F84030 		ldrb	r3, [r0, #64]	@ zero_extendqisi2
 2410 001a 012B     		cmp	r3, #1
 2411 001c 00F08480 		beq	.L317
 2412 0020 0123     		movs	r3, #1
 2413 0022 80F84030 		strb	r3, [r0, #64]
 2414 0026 2123     		movs	r3, #33
 2415 0028 80F84130 		strb	r3, [r0, #65]
 2416 002c 2023     		movs	r3, #32
 2417 002e 80F84230 		strb	r3, [r0, #66]
 2418 0032 0023     		movs	r3, #0
 2419 0034 4364     		str	r3, [r0, #68]
 2420 0036 4162     		str	r1, [r0, #36]
 2421 0038 4285     		strh	r2, [r0, #42]	@ movhi
 2422 003a 438D     		ldrh	r3, [r0, #42]
 2423 003c 0385     		strh	r3, [r0, #40]	@ movhi
 2424 003e 3B4B     		ldr	r3, .L326
 2425 0040 C362     		str	r3, [r0, #44]
 2426 0042 3B4B     		ldr	r3, .L326+4
 2427 0044 4363     		str	r3, [r0, #52]
 2428 0046 036A     		ldr	r3, [r0, #32]
 2429 0048 B3F5003F 		cmp	r3, #131072
 2430 004c 2BD0     		beq	.L324
 2431              	.L310:
 2432 004e 638D     		ldrh	r3, [r4, #42]
 2433 0050 9BB2     		uxth	r3, r3
 2434 0052 002B     		cmp	r3, #0
 2435 0054 57D0     		beq	.L311
 2436 0056 A36B     		ldr	r3, [r4, #56]
 2437 0058 002B     		cmp	r3, #0
 2438 005a 33D0     		beq	.L312
 2439 005c 354A     		ldr	r2, .L326+8
 2440 005e DA63     		str	r2, [r3, #60]
 2441 0060 A36B     		ldr	r3, [r4, #56]
 2442 0062 354A     		ldr	r2, .L326+12
 2443 0064 DA64     		str	r2, [r3, #76]
 2444 0066 A26B     		ldr	r2, [r4, #56]
 2445 0068 0023     		movs	r3, #0
 2446 006a 1364     		str	r3, [r2, #64]
 2447 006c A26B     		ldr	r2, [r4, #56]
ARM GAS  C:\Users\aticl\AppData\Local\Temp\ccNU6x1i.s 			page 43


 2448 006e 1365     		str	r3, [r2, #80]
 2449 0070 2268     		ldr	r2, [r4]
 2450 0072 238D     		ldrh	r3, [r4, #40]
 2451 0074 2832     		adds	r2, r2, #40
 2452 0076 616A     		ldr	r1, [r4, #36]
 2453 0078 A06B     		ldr	r0, [r4, #56]
 2454 007a FFF7FEFF 		bl	HAL_DMA_Start_IT
 2455 007e 78B3     		cbz	r0, .L325
 2456 0080 2823     		movs	r3, #40
 2457 0082 84F84130 		strb	r3, [r4, #65]
 2458 0086 0022     		movs	r2, #0
 2459 0088 84F84220 		strb	r2, [r4, #66]
 2460 008c 636C     		ldr	r3, [r4, #68]
 2461 008e 43F01003 		orr	r3, r3, #16
 2462 0092 6364     		str	r3, [r4, #68]
 2463 0094 84F84020 		strb	r2, [r4, #64]
 2464 0098 0120     		movs	r0, #1
 2465 009a 03E0     		b	.L308
 2466              	.L323:
 2467 009c 4FF40073 		mov	r3, #512
 2468 00a0 4364     		str	r3, [r0, #68]
 2469 00a2 0120     		movs	r0, #1
 2470              	.L308:
 2471 00a4 10BD     		pop	{r4, pc}
 2472              	.L324:
 2473 00a6 0368     		ldr	r3, [r0]
 2474 00a8 0A78     		ldrb	r2, [r1]	@ zero_extendqisi2
 2475 00aa 9A62     		str	r2, [r3, #40]
 2476 00ac 436A     		ldr	r3, [r0, #36]
 2477 00ae 0133     		adds	r3, r3, #1
 2478 00b0 4362     		str	r3, [r0, #36]
 2479 00b2 438D     		ldrh	r3, [r0, #42]
 2480 00b4 9BB2     		uxth	r3, r3
 2481 00b6 013B     		subs	r3, r3, #1
 2482 00b8 9BB2     		uxth	r3, r3
 2483 00ba 4385     		strh	r3, [r0, #42]	@ movhi
 2484 00bc 038D     		ldrh	r3, [r0, #40]
 2485 00be 013B     		subs	r3, r3, #1
 2486 00c0 0385     		strh	r3, [r0, #40]	@ movhi
 2487 00c2 C4E7     		b	.L310
 2488              	.L312:
 2489 00c4 2823     		movs	r3, #40
 2490 00c6 84F84130 		strb	r3, [r4, #65]
 2491 00ca 0022     		movs	r2, #0
 2492 00cc 84F84220 		strb	r2, [r4, #66]
 2493 00d0 636C     		ldr	r3, [r4, #68]
 2494 00d2 43F08003 		orr	r3, r3, #128
 2495 00d6 6364     		str	r3, [r4, #68]
 2496 00d8 84F84020 		strb	r2, [r4, #64]
 2497 00dc 0120     		movs	r0, #1
 2498 00de E1E7     		b	.L308
 2499              	.L325:
 2500 00e0 2268     		ldr	r2, [r4]
 2501 00e2 5368     		ldr	r3, [r2, #4]
 2502 00e4 23F40043 		bic	r3, r3, #32768
 2503 00e8 5360     		str	r3, [r2, #4]
 2504 00ea 0023     		movs	r3, #0
ARM GAS  C:\Users\aticl\AppData\Local\Temp\ccNU6x1i.s 			page 44


 2505 00ec 84F84030 		strb	r3, [r4, #64]
 2506 00f0 4FF40041 		mov	r1, #32768
 2507 00f4 2046     		mov	r0, r4
 2508 00f6 FFF7FEFF 		bl	I2C_Enable_IRQ
 2509 00fa 2268     		ldr	r2, [r4]
 2510 00fc 1368     		ldr	r3, [r2]
 2511 00fe 43F48043 		orr	r3, r3, #16384
 2512 0102 1360     		str	r3, [r2]
 2513 0104 0CE0     		b	.L315
 2514              	.L311:
 2515 0106 2268     		ldr	r2, [r4]
 2516 0108 5368     		ldr	r3, [r2, #4]
 2517 010a 23F40043 		bic	r3, r3, #32768
 2518 010e 5360     		str	r3, [r2, #4]
 2519 0110 0023     		movs	r3, #0
 2520 0112 84F84030 		strb	r3, [r4, #64]
 2521 0116 4FF40041 		mov	r1, #32768
 2522 011a 2046     		mov	r0, r4
 2523 011c FFF7FEFF 		bl	I2C_Enable_IRQ
 2524              	.L315:
 2525 0120 0020     		movs	r0, #0
 2526 0122 BFE7     		b	.L308
 2527              	.L316:
 2528 0124 0220     		movs	r0, #2
 2529 0126 7047     		bx	lr
 2530              	.L317:
 2531 0128 0220     		movs	r0, #2
 2532 012a BBE7     		b	.L308
 2533              	.L327:
 2534              		.align	2
 2535              	.L326:
 2536 012c 0000FFFF 		.word	-65536
 2537 0130 00000000 		.word	I2C_Slave_ISR_DMA
 2538 0134 00000000 		.word	I2C_DMASlaveTransmitCplt
 2539 0138 00000000 		.word	I2C_DMAError
 2541              		.section	.text.HAL_I2C_Slave_Receive_DMA,"ax",%progbits
 2542              		.align	1
 2543              		.global	HAL_I2C_Slave_Receive_DMA
 2544              		.syntax unified
 2545              		.thumb
 2546              		.thumb_func
 2548              	HAL_I2C_Slave_Receive_DMA:
 2549              		@ args = 0, pretend = 0, frame = 0
 2550              		@ frame_needed = 0, uses_anonymous_args = 0
 2551 0000 38B5     		push	{r3, r4, r5, lr}
 2552 0002 90F84130 		ldrb	r3, [r0, #65]	@ zero_extendqisi2
 2553 0006 202B     		cmp	r3, #32
 2554 0008 65D1     		bne	.L334
 2555 000a 0446     		mov	r4, r0
 2556 000c 002A     		cmp	r2, #0
 2557 000e 18BF     		it	ne
 2558 0010 0029     		cmpne	r1, #0
 2559 0012 3AD0     		beq	.L338
 2560 0014 90F84030 		ldrb	r3, [r0, #64]	@ zero_extendqisi2
 2561 0018 012B     		cmp	r3, #1
 2562 001a 5FD0     		beq	.L335
 2563 001c 0123     		movs	r3, #1
ARM GAS  C:\Users\aticl\AppData\Local\Temp\ccNU6x1i.s 			page 45


 2564 001e 80F84030 		strb	r3, [r0, #64]
 2565 0022 2223     		movs	r3, #34
 2566 0024 80F84130 		strb	r3, [r0, #65]
 2567 0028 2023     		movs	r3, #32
 2568 002a 80F84230 		strb	r3, [r0, #66]
 2569 002e 0023     		movs	r3, #0
 2570 0030 4364     		str	r3, [r0, #68]
 2571 0032 4162     		str	r1, [r0, #36]
 2572 0034 4285     		strh	r2, [r0, #42]	@ movhi
 2573 0036 438D     		ldrh	r3, [r0, #42]
 2574 0038 0385     		strh	r3, [r0, #40]	@ movhi
 2575 003a 294B     		ldr	r3, .L340
 2576 003c C362     		str	r3, [r0, #44]
 2577 003e 294B     		ldr	r3, .L340+4
 2578 0040 4363     		str	r3, [r0, #52]
 2579 0042 C36B     		ldr	r3, [r0, #60]
 2580 0044 33B3     		cbz	r3, .L331
 2581 0046 284A     		ldr	r2, .L340+8
 2582 0048 DA63     		str	r2, [r3, #60]
 2583 004a C36B     		ldr	r3, [r0, #60]
 2584 004c 274A     		ldr	r2, .L340+12
 2585 004e DA64     		str	r2, [r3, #76]
 2586 0050 C26B     		ldr	r2, [r0, #60]
 2587 0052 0023     		movs	r3, #0
 2588 0054 1364     		str	r3, [r2, #64]
 2589 0056 C26B     		ldr	r2, [r0, #60]
 2590 0058 1365     		str	r3, [r2, #80]
 2591 005a 0068     		ldr	r0, [r0]
 2592 005c 238D     		ldrh	r3, [r4, #40]
 2593 005e 0A46     		mov	r2, r1
 2594 0060 00F12401 		add	r1, r0, #36
 2595 0064 E06B     		ldr	r0, [r4, #60]
 2596 0066 FFF7FEFF 		bl	HAL_DMA_Start_IT
 2597 006a 0546     		mov	r5, r0
 2598 006c 00B3     		cbz	r0, .L339
 2599 006e 2823     		movs	r3, #40
 2600 0070 84F84130 		strb	r3, [r4, #65]
 2601 0074 0022     		movs	r2, #0
 2602 0076 84F84220 		strb	r2, [r4, #66]
 2603 007a 636C     		ldr	r3, [r4, #68]
 2604 007c 43F01003 		orr	r3, r3, #16
 2605 0080 6364     		str	r3, [r4, #68]
 2606 0082 84F84020 		strb	r2, [r4, #64]
 2607 0086 0125     		movs	r5, #1
 2608 0088 26E0     		b	.L329
 2609              	.L338:
 2610 008a 4FF40073 		mov	r3, #512
 2611 008e 4364     		str	r3, [r0, #68]
 2612 0090 0125     		movs	r5, #1
 2613 0092 21E0     		b	.L329
 2614              	.L331:
 2615 0094 2823     		movs	r3, #40
 2616 0096 80F84130 		strb	r3, [r0, #65]
 2617 009a 0022     		movs	r2, #0
 2618 009c 80F84220 		strb	r2, [r0, #66]
 2619 00a0 436C     		ldr	r3, [r0, #68]
 2620 00a2 43F08003 		orr	r3, r3, #128
ARM GAS  C:\Users\aticl\AppData\Local\Temp\ccNU6x1i.s 			page 46


 2621 00a6 4364     		str	r3, [r0, #68]
 2622 00a8 80F84020 		strb	r2, [r0, #64]
 2623 00ac 0125     		movs	r5, #1
 2624 00ae 13E0     		b	.L329
 2625              	.L339:
 2626 00b0 2268     		ldr	r2, [r4]
 2627 00b2 5368     		ldr	r3, [r2, #4]
 2628 00b4 23F40043 		bic	r3, r3, #32768
 2629 00b8 5360     		str	r3, [r2, #4]
 2630 00ba 0023     		movs	r3, #0
 2631 00bc 84F84030 		strb	r3, [r4, #64]
 2632 00c0 4FF40041 		mov	r1, #32768
 2633 00c4 2046     		mov	r0, r4
 2634 00c6 FFF7FEFF 		bl	I2C_Enable_IRQ
 2635 00ca 2268     		ldr	r2, [r4]
 2636 00cc 1368     		ldr	r3, [r2]
 2637 00ce 43F40043 		orr	r3, r3, #32768
 2638 00d2 1360     		str	r3, [r2]
 2639 00d4 00E0     		b	.L329
 2640              	.L334:
 2641 00d6 0225     		movs	r5, #2
 2642              	.L329:
 2643 00d8 2846     		mov	r0, r5
 2644 00da 38BD     		pop	{r3, r4, r5, pc}
 2645              	.L335:
 2646 00dc 0225     		movs	r5, #2
 2647 00de FBE7     		b	.L329
 2648              	.L341:
 2649              		.align	2
 2650              	.L340:
 2651 00e0 0000FFFF 		.word	-65536
 2652 00e4 00000000 		.word	I2C_Slave_ISR_DMA
 2653 00e8 00000000 		.word	I2C_DMASlaveReceiveCplt
 2654 00ec 00000000 		.word	I2C_DMAError
 2656              		.section	.text.HAL_I2C_Mem_Write,"ax",%progbits
 2657              		.align	1
 2658              		.global	HAL_I2C_Mem_Write
 2659              		.syntax unified
 2660              		.thumb
 2661              		.thumb_func
 2663              	HAL_I2C_Mem_Write:
 2664              		@ args = 12, pretend = 0, frame = 0
 2665              		@ frame_needed = 0, uses_anonymous_args = 0
 2666 0000 2DE9F04F 		push	{r4, r5, r6, r7, r8, r9, r10, fp, lr}
 2667 0004 83B0     		sub	sp, sp, #12
 2668 0006 0D46     		mov	r5, r1
 2669 0008 BDF834A0 		ldrh	r10, [sp, #52]
 2670 000c 0E9F     		ldr	r7, [sp, #56]
 2671 000e 90F84110 		ldrb	r1, [r0, #65]	@ zero_extendqisi2
 2672 0012 2029     		cmp	r1, #32
 2673 0014 40F0BC80 		bne	.L351
 2674 0018 0446     		mov	r4, r0
 2675 001a 9146     		mov	r9, r2
 2676 001c 9846     		mov	r8, r3
 2677 001e 0C9B     		ldr	r3, [sp, #48]
 2678 0020 BAF1000F 		cmp	r10, #0
 2679 0024 18BF     		it	ne
ARM GAS  C:\Users\aticl\AppData\Local\Temp\ccNU6x1i.s 			page 47


 2680 0026 002B     		cmpne	r3, #0
 2681 0028 16D0     		beq	.L358
 2682 002a 90F84030 		ldrb	r3, [r0, #64]	@ zero_extendqisi2
 2683 002e 012B     		cmp	r3, #1
 2684 0030 00F0B280 		beq	.L352
 2685 0034 4FF0010B 		mov	fp, #1
 2686 0038 80F840B0 		strb	fp, [r0, #64]
 2687 003c FFF7FEFF 		bl	HAL_GetTick
 2688 0040 0646     		mov	r6, r0
 2689 0042 0090     		str	r0, [sp]
 2690 0044 1923     		movs	r3, #25
 2691 0046 5A46     		mov	r2, fp
 2692 0048 4FF40041 		mov	r1, #32768
 2693 004c 2046     		mov	r0, r4
 2694 004e FFF7FEFF 		bl	I2C_WaitOnFlagUntilTimeout
 2695 0052 30B1     		cbz	r0, .L359
 2696 0054 0120     		movs	r0, #1
 2697 0056 9CE0     		b	.L343
 2698              	.L358:
 2699 0058 4FF40073 		mov	r3, #512
 2700 005c 4364     		str	r3, [r0, #68]
 2701 005e 0120     		movs	r0, #1
 2702 0060 97E0     		b	.L343
 2703              	.L359:
 2704 0062 2123     		movs	r3, #33
 2705 0064 84F84130 		strb	r3, [r4, #65]
 2706 0068 4023     		movs	r3, #64
 2707 006a 84F84230 		strb	r3, [r4, #66]
 2708 006e 0023     		movs	r3, #0
 2709 0070 6364     		str	r3, [r4, #68]
 2710 0072 0C9A     		ldr	r2, [sp, #48]
 2711 0074 6262     		str	r2, [r4, #36]
 2712 0076 A4F82AA0 		strh	r10, [r4, #42]	@ movhi
 2713 007a 6363     		str	r3, [r4, #52]
 2714 007c 0196     		str	r6, [sp, #4]
 2715 007e 0097     		str	r7, [sp]
 2716 0080 4346     		mov	r3, r8
 2717 0082 4A46     		mov	r2, r9
 2718 0084 2946     		mov	r1, r5
 2719 0086 2046     		mov	r0, r4
 2720 0088 FFF7FEFF 		bl	I2C_RequestMemoryWrite
 2721 008c 70B9     		cbnz	r0, .L360
 2722 008e 638D     		ldrh	r3, [r4, #42]
 2723 0090 9BB2     		uxth	r3, r3
 2724 0092 FF2B     		cmp	r3, #255
 2725 0094 0FD9     		bls	.L346
 2726 0096 FF22     		movs	r2, #255
 2727 0098 2285     		strh	r2, [r4, #40]	@ movhi
 2728 009a 0023     		movs	r3, #0
 2729 009c 0093     		str	r3, [sp]
 2730 009e 4FF08073 		mov	r3, #16777216
 2731 00a2 2946     		mov	r1, r5
 2732 00a4 2046     		mov	r0, r4
 2733 00a6 FFF7FEFF 		bl	I2C_TransferConfig
 2734 00aa 21E0     		b	.L350
 2735              	.L360:
 2736 00ac 0023     		movs	r3, #0
ARM GAS  C:\Users\aticl\AppData\Local\Temp\ccNU6x1i.s 			page 48


 2737 00ae 84F84030 		strb	r3, [r4, #64]
 2738 00b2 5846     		mov	r0, fp
 2739 00b4 6DE0     		b	.L343
 2740              	.L346:
 2741 00b6 628D     		ldrh	r2, [r4, #42]
 2742 00b8 92B2     		uxth	r2, r2
 2743 00ba 2285     		strh	r2, [r4, #40]	@ movhi
 2744 00bc 0023     		movs	r3, #0
 2745 00be 0093     		str	r3, [sp]
 2746 00c0 4FF00073 		mov	r3, #33554432
 2747 00c4 D2B2     		uxtb	r2, r2
 2748 00c6 2946     		mov	r1, r5
 2749 00c8 2046     		mov	r0, r4
 2750 00ca FFF7FEFF 		bl	I2C_TransferConfig
 2751 00ce 0FE0     		b	.L350
 2752              	.L349:
 2753 00d0 628D     		ldrh	r2, [r4, #42]
 2754 00d2 92B2     		uxth	r2, r2
 2755 00d4 2285     		strh	r2, [r4, #40]	@ movhi
 2756 00d6 0023     		movs	r3, #0
 2757 00d8 0093     		str	r3, [sp]
 2758 00da 4FF00073 		mov	r3, #33554432
 2759 00de D2B2     		uxtb	r2, r2
 2760 00e0 2946     		mov	r1, r5
 2761 00e2 2046     		mov	r0, r4
 2762 00e4 FFF7FEFF 		bl	I2C_TransferConfig
 2763              	.L348:
 2764 00e8 638D     		ldrh	r3, [r4, #42]
 2765 00ea 9BB2     		uxth	r3, r3
 2766 00ec 002B     		cmp	r3, #0
 2767 00ee 33D0     		beq	.L361
 2768              	.L350:
 2769 00f0 3246     		mov	r2, r6
 2770 00f2 3946     		mov	r1, r7
 2771 00f4 2046     		mov	r0, r4
 2772 00f6 FFF7FEFF 		bl	I2C_WaitOnTXISFlagUntilTimeout
 2773 00fa 0028     		cmp	r0, #0
 2774 00fc 4ED1     		bne	.L354
 2775 00fe 626A     		ldr	r2, [r4, #36]
 2776 0100 2368     		ldr	r3, [r4]
 2777 0102 1278     		ldrb	r2, [r2]	@ zero_extendqisi2
 2778 0104 9A62     		str	r2, [r3, #40]
 2779 0106 636A     		ldr	r3, [r4, #36]
 2780 0108 0133     		adds	r3, r3, #1
 2781 010a 6362     		str	r3, [r4, #36]
 2782 010c 638D     		ldrh	r3, [r4, #42]
 2783 010e 9BB2     		uxth	r3, r3
 2784 0110 013B     		subs	r3, r3, #1
 2785 0112 9BB2     		uxth	r3, r3
 2786 0114 6385     		strh	r3, [r4, #42]	@ movhi
 2787 0116 238D     		ldrh	r3, [r4, #40]
 2788 0118 013B     		subs	r3, r3, #1
 2789 011a 9BB2     		uxth	r3, r3
 2790 011c 2385     		strh	r3, [r4, #40]	@ movhi
 2791 011e 628D     		ldrh	r2, [r4, #42]
 2792 0120 92B2     		uxth	r2, r2
 2793 0122 002A     		cmp	r2, #0
ARM GAS  C:\Users\aticl\AppData\Local\Temp\ccNU6x1i.s 			page 49


 2794 0124 E0D0     		beq	.L348
 2795 0126 002B     		cmp	r3, #0
 2796 0128 DED1     		bne	.L348
 2797 012a 0096     		str	r6, [sp]
 2798 012c 3B46     		mov	r3, r7
 2799 012e 0022     		movs	r2, #0
 2800 0130 8021     		movs	r1, #128
 2801 0132 2046     		mov	r0, r4
 2802 0134 FFF7FEFF 		bl	I2C_WaitOnFlagUntilTimeout
 2803 0138 90BB     		cbnz	r0, .L355
 2804 013a 638D     		ldrh	r3, [r4, #42]
 2805 013c 9BB2     		uxth	r3, r3
 2806 013e FF2B     		cmp	r3, #255
 2807 0140 C6D9     		bls	.L349
 2808 0142 FF22     		movs	r2, #255
 2809 0144 2285     		strh	r2, [r4, #40]	@ movhi
 2810 0146 0023     		movs	r3, #0
 2811 0148 0093     		str	r3, [sp]
 2812 014a 4FF08073 		mov	r3, #16777216
 2813 014e 2946     		mov	r1, r5
 2814 0150 2046     		mov	r0, r4
 2815 0152 FFF7FEFF 		bl	I2C_TransferConfig
 2816 0156 C7E7     		b	.L348
 2817              	.L361:
 2818 0158 3246     		mov	r2, r6
 2819 015a 3946     		mov	r1, r7
 2820 015c 2046     		mov	r0, r4
 2821 015e FFF7FEFF 		bl	I2C_WaitOnSTOPFlagUntilTimeout
 2822 0162 F8B9     		cbnz	r0, .L356
 2823 0164 2368     		ldr	r3, [r4]
 2824 0166 2022     		movs	r2, #32
 2825 0168 DA61     		str	r2, [r3, #28]
 2826 016a 2168     		ldr	r1, [r4]
 2827 016c 4B68     		ldr	r3, [r1, #4]
 2828 016e 23F0FF73 		bic	r3, r3, #33423360
 2829 0172 23F48B33 		bic	r3, r3, #71168
 2830 0176 23F4FF73 		bic	r3, r3, #510
 2831 017a 23F00103 		bic	r3, r3, #1
 2832 017e 4B60     		str	r3, [r1, #4]
 2833 0180 84F84120 		strb	r2, [r4, #65]
 2834 0184 0023     		movs	r3, #0
 2835 0186 84F84230 		strb	r3, [r4, #66]
 2836 018a 84F84030 		strb	r3, [r4, #64]
 2837 018e 00E0     		b	.L343
 2838              	.L351:
 2839 0190 0220     		movs	r0, #2
 2840              	.L343:
 2841 0192 03B0     		add	sp, sp, #12
 2842              		@ sp needed
 2843 0194 BDE8F08F 		pop	{r4, r5, r6, r7, r8, r9, r10, fp, pc}
 2844              	.L352:
 2845 0198 0220     		movs	r0, #2
 2846 019a FAE7     		b	.L343
 2847              	.L354:
 2848 019c 0120     		movs	r0, #1
 2849 019e F8E7     		b	.L343
 2850              	.L355:
ARM GAS  C:\Users\aticl\AppData\Local\Temp\ccNU6x1i.s 			page 50


 2851 01a0 0120     		movs	r0, #1
 2852 01a2 F6E7     		b	.L343
 2853              	.L356:
 2854 01a4 0120     		movs	r0, #1
 2855 01a6 F4E7     		b	.L343
 2857              		.section	.text.HAL_I2C_Mem_Read,"ax",%progbits
 2858              		.align	1
 2859              		.global	HAL_I2C_Mem_Read
 2860              		.syntax unified
 2861              		.thumb
 2862              		.thumb_func
 2864              	HAL_I2C_Mem_Read:
 2865              		@ args = 12, pretend = 0, frame = 0
 2866              		@ frame_needed = 0, uses_anonymous_args = 0
 2867 0000 2DE9F04F 		push	{r4, r5, r6, r7, r8, r9, r10, fp, lr}
 2868 0004 83B0     		sub	sp, sp, #12
 2869 0006 0D46     		mov	r5, r1
 2870 0008 BDF834A0 		ldrh	r10, [sp, #52]
 2871 000c 0E9F     		ldr	r7, [sp, #56]
 2872 000e 90F84110 		ldrb	r1, [r0, #65]	@ zero_extendqisi2
 2873 0012 2029     		cmp	r1, #32
 2874 0014 40F0BD80 		bne	.L371
 2875 0018 0446     		mov	r4, r0
 2876 001a 9146     		mov	r9, r2
 2877 001c 9846     		mov	r8, r3
 2878 001e 0C9B     		ldr	r3, [sp, #48]
 2879 0020 BAF1000F 		cmp	r10, #0
 2880 0024 18BF     		it	ne
 2881 0026 002B     		cmpne	r3, #0
 2882 0028 16D0     		beq	.L378
 2883 002a 90F84030 		ldrb	r3, [r0, #64]	@ zero_extendqisi2
 2884 002e 012B     		cmp	r3, #1
 2885 0030 00F0B380 		beq	.L372
 2886 0034 4FF0010B 		mov	fp, #1
 2887 0038 80F840B0 		strb	fp, [r0, #64]
 2888 003c FFF7FEFF 		bl	HAL_GetTick
 2889 0040 0646     		mov	r6, r0
 2890 0042 0090     		str	r0, [sp]
 2891 0044 1923     		movs	r3, #25
 2892 0046 5A46     		mov	r2, fp
 2893 0048 4FF40041 		mov	r1, #32768
 2894 004c 2046     		mov	r0, r4
 2895 004e FFF7FEFF 		bl	I2C_WaitOnFlagUntilTimeout
 2896 0052 30B1     		cbz	r0, .L379
 2897 0054 0120     		movs	r0, #1
 2898 0056 9DE0     		b	.L363
 2899              	.L378:
 2900 0058 4FF40073 		mov	r3, #512
 2901 005c 4364     		str	r3, [r0, #68]
 2902 005e 0120     		movs	r0, #1
 2903 0060 98E0     		b	.L363
 2904              	.L379:
 2905 0062 2223     		movs	r3, #34
 2906 0064 84F84130 		strb	r3, [r4, #65]
 2907 0068 4023     		movs	r3, #64
 2908 006a 84F84230 		strb	r3, [r4, #66]
 2909 006e 0023     		movs	r3, #0
ARM GAS  C:\Users\aticl\AppData\Local\Temp\ccNU6x1i.s 			page 51


 2910 0070 6364     		str	r3, [r4, #68]
 2911 0072 0C9A     		ldr	r2, [sp, #48]
 2912 0074 6262     		str	r2, [r4, #36]
 2913 0076 A4F82AA0 		strh	r10, [r4, #42]	@ movhi
 2914 007a 6363     		str	r3, [r4, #52]
 2915 007c 0196     		str	r6, [sp, #4]
 2916 007e 0097     		str	r7, [sp]
 2917 0080 4346     		mov	r3, r8
 2918 0082 4A46     		mov	r2, r9
 2919 0084 2946     		mov	r1, r5
 2920 0086 2046     		mov	r0, r4
 2921 0088 FFF7FEFF 		bl	I2C_RequestMemoryRead
 2922 008c 70B9     		cbnz	r0, .L380
 2923 008e 638D     		ldrh	r3, [r4, #42]
 2924 0090 9BB2     		uxth	r3, r3
 2925 0092 FF2B     		cmp	r3, #255
 2926 0094 0FD9     		bls	.L366
 2927 0096 FF22     		movs	r2, #255
 2928 0098 2285     		strh	r2, [r4, #40]	@ movhi
 2929 009a 444B     		ldr	r3, .L382
 2930 009c 0093     		str	r3, [sp]
 2931 009e 4FF08073 		mov	r3, #16777216
 2932 00a2 2946     		mov	r1, r5
 2933 00a4 2046     		mov	r0, r4
 2934 00a6 FFF7FEFF 		bl	I2C_TransferConfig
 2935 00aa 21E0     		b	.L370
 2936              	.L380:
 2937 00ac 0023     		movs	r3, #0
 2938 00ae 84F84030 		strb	r3, [r4, #64]
 2939 00b2 5846     		mov	r0, fp
 2940 00b4 6EE0     		b	.L363
 2941              	.L366:
 2942 00b6 628D     		ldrh	r2, [r4, #42]
 2943 00b8 92B2     		uxth	r2, r2
 2944 00ba 2285     		strh	r2, [r4, #40]	@ movhi
 2945 00bc 3B4B     		ldr	r3, .L382
 2946 00be 0093     		str	r3, [sp]
 2947 00c0 4FF00073 		mov	r3, #33554432
 2948 00c4 D2B2     		uxtb	r2, r2
 2949 00c6 2946     		mov	r1, r5
 2950 00c8 2046     		mov	r0, r4
 2951 00ca FFF7FEFF 		bl	I2C_TransferConfig
 2952 00ce 0FE0     		b	.L370
 2953              	.L369:
 2954 00d0 628D     		ldrh	r2, [r4, #42]
 2955 00d2 92B2     		uxth	r2, r2
 2956 00d4 2285     		strh	r2, [r4, #40]	@ movhi
 2957 00d6 0023     		movs	r3, #0
 2958 00d8 0093     		str	r3, [sp]
 2959 00da 4FF00073 		mov	r3, #33554432
 2960 00de D2B2     		uxtb	r2, r2
 2961 00e0 2946     		mov	r1, r5
 2962 00e2 2046     		mov	r0, r4
 2963 00e4 FFF7FEFF 		bl	I2C_TransferConfig
 2964              	.L368:
 2965 00e8 638D     		ldrh	r3, [r4, #42]
 2966 00ea 9BB2     		uxth	r3, r3
ARM GAS  C:\Users\aticl\AppData\Local\Temp\ccNU6x1i.s 			page 52


 2967 00ec 002B     		cmp	r3, #0
 2968 00ee 34D0     		beq	.L381
 2969              	.L370:
 2970 00f0 0096     		str	r6, [sp]
 2971 00f2 3B46     		mov	r3, r7
 2972 00f4 0022     		movs	r2, #0
 2973 00f6 0421     		movs	r1, #4
 2974 00f8 2046     		mov	r0, r4
 2975 00fa FFF7FEFF 		bl	I2C_WaitOnFlagUntilTimeout
 2976 00fe 0028     		cmp	r0, #0
 2977 0100 4DD1     		bne	.L374
 2978 0102 2368     		ldr	r3, [r4]
 2979 0104 5A6A     		ldr	r2, [r3, #36]
 2980 0106 636A     		ldr	r3, [r4, #36]
 2981 0108 1A70     		strb	r2, [r3]
 2982 010a 636A     		ldr	r3, [r4, #36]
 2983 010c 0133     		adds	r3, r3, #1
 2984 010e 6362     		str	r3, [r4, #36]
 2985 0110 228D     		ldrh	r2, [r4, #40]
 2986 0112 013A     		subs	r2, r2, #1
 2987 0114 92B2     		uxth	r2, r2
 2988 0116 2285     		strh	r2, [r4, #40]	@ movhi
 2989 0118 638D     		ldrh	r3, [r4, #42]
 2990 011a 9BB2     		uxth	r3, r3
 2991 011c 013B     		subs	r3, r3, #1
 2992 011e 9BB2     		uxth	r3, r3
 2993 0120 6385     		strh	r3, [r4, #42]	@ movhi
 2994 0122 638D     		ldrh	r3, [r4, #42]
 2995 0124 9BB2     		uxth	r3, r3
 2996 0126 002B     		cmp	r3, #0
 2997 0128 DED0     		beq	.L368
 2998 012a 002A     		cmp	r2, #0
 2999 012c DCD1     		bne	.L368
 3000 012e 0096     		str	r6, [sp]
 3001 0130 3B46     		mov	r3, r7
 3002 0132 8021     		movs	r1, #128
 3003 0134 2046     		mov	r0, r4
 3004 0136 FFF7FEFF 		bl	I2C_WaitOnFlagUntilTimeout
 3005 013a 90BB     		cbnz	r0, .L375
 3006 013c 638D     		ldrh	r3, [r4, #42]
 3007 013e 9BB2     		uxth	r3, r3
 3008 0140 FF2B     		cmp	r3, #255
 3009 0142 C5D9     		bls	.L369
 3010 0144 FF22     		movs	r2, #255
 3011 0146 2285     		strh	r2, [r4, #40]	@ movhi
 3012 0148 0023     		movs	r3, #0
 3013 014a 0093     		str	r3, [sp]
 3014 014c 4FF08073 		mov	r3, #16777216
 3015 0150 2946     		mov	r1, r5
 3016 0152 2046     		mov	r0, r4
 3017 0154 FFF7FEFF 		bl	I2C_TransferConfig
 3018 0158 C6E7     		b	.L368
 3019              	.L381:
 3020 015a 3246     		mov	r2, r6
 3021 015c 3946     		mov	r1, r7
 3022 015e 2046     		mov	r0, r4
 3023 0160 FFF7FEFF 		bl	I2C_WaitOnSTOPFlagUntilTimeout
ARM GAS  C:\Users\aticl\AppData\Local\Temp\ccNU6x1i.s 			page 53


 3024 0164 F8B9     		cbnz	r0, .L376
 3025 0166 2368     		ldr	r3, [r4]
 3026 0168 2022     		movs	r2, #32
 3027 016a DA61     		str	r2, [r3, #28]
 3028 016c 2168     		ldr	r1, [r4]
 3029 016e 4B68     		ldr	r3, [r1, #4]
 3030 0170 23F0FF73 		bic	r3, r3, #33423360
 3031 0174 23F48B33 		bic	r3, r3, #71168
 3032 0178 23F4FF73 		bic	r3, r3, #510
 3033 017c 23F00103 		bic	r3, r3, #1
 3034 0180 4B60     		str	r3, [r1, #4]
 3035 0182 84F84120 		strb	r2, [r4, #65]
 3036 0186 0023     		movs	r3, #0
 3037 0188 84F84230 		strb	r3, [r4, #66]
 3038 018c 84F84030 		strb	r3, [r4, #64]
 3039 0190 00E0     		b	.L363
 3040              	.L371:
 3041 0192 0220     		movs	r0, #2
 3042              	.L363:
 3043 0194 03B0     		add	sp, sp, #12
 3044              		@ sp needed
 3045 0196 BDE8F08F 		pop	{r4, r5, r6, r7, r8, r9, r10, fp, pc}
 3046              	.L372:
 3047 019a 0220     		movs	r0, #2
 3048 019c FAE7     		b	.L363
 3049              	.L374:
 3050 019e 0120     		movs	r0, #1
 3051 01a0 F8E7     		b	.L363
 3052              	.L375:
 3053 01a2 0120     		movs	r0, #1
 3054 01a4 F6E7     		b	.L363
 3055              	.L376:
 3056 01a6 0120     		movs	r0, #1
 3057 01a8 F4E7     		b	.L363
 3058              	.L383:
 3059 01aa 00BF     		.align	2
 3060              	.L382:
 3061 01ac 00240080 		.word	-2147474432
 3063              		.section	.text.HAL_I2C_Mem_Write_IT,"ax",%progbits
 3064              		.align	1
 3065              		.global	HAL_I2C_Mem_Write_IT
 3066              		.syntax unified
 3067              		.thumb
 3068              		.thumb_func
 3070              	HAL_I2C_Mem_Write_IT:
 3071              		@ args = 8, pretend = 0, frame = 0
 3072              		@ frame_needed = 0, uses_anonymous_args = 0
 3073 0000 70B5     		push	{r4, r5, r6, lr}
 3074 0002 82B0     		sub	sp, sp, #8
 3075 0004 0446     		mov	r4, r0
 3076 0006 1D46     		mov	r5, r3
 3077 0008 BDF81C30 		ldrh	r3, [sp, #28]
 3078 000c 90F84100 		ldrb	r0, [r0, #65]	@ zero_extendqisi2
 3079 0010 2028     		cmp	r0, #32
 3080 0012 43D1     		bne	.L389
 3081 0014 0698     		ldr	r0, [sp, #24]
 3082 0016 002B     		cmp	r3, #0
ARM GAS  C:\Users\aticl\AppData\Local\Temp\ccNU6x1i.s 			page 54


 3083 0018 18BF     		it	ne
 3084 001a 0028     		cmpne	r0, #0
 3085 001c 33D0     		beq	.L393
 3086 001e 2068     		ldr	r0, [r4]
 3087 0020 8669     		ldr	r6, [r0, #24]
 3088 0022 16F4004F 		tst	r6, #32768
 3089 0026 3CD1     		bne	.L390
 3090 0028 94F84060 		ldrb	r6, [r4, #64]	@ zero_extendqisi2
 3091 002c 012E     		cmp	r6, #1
 3092 002e 3AD0     		beq	.L391
 3093 0030 0126     		movs	r6, #1
 3094 0032 84F84060 		strb	r6, [r4, #64]
 3095 0036 2126     		movs	r6, #33
 3096 0038 84F84160 		strb	r6, [r4, #65]
 3097 003c 4026     		movs	r6, #64
 3098 003e 84F84260 		strb	r6, [r4, #66]
 3099 0042 0026     		movs	r6, #0
 3100 0044 6664     		str	r6, [r4, #68]
 3101 0046 2685     		strh	r6, [r4, #40]	@ movhi
 3102 0048 069E     		ldr	r6, [sp, #24]
 3103 004a 6662     		str	r6, [r4, #36]
 3104 004c 6385     		strh	r3, [r4, #42]	@ movhi
 3105 004e 174B     		ldr	r3, .L395
 3106 0050 E362     		str	r3, [r4, #44]
 3107 0052 174B     		ldr	r3, .L395+4
 3108 0054 6363     		str	r3, [r4, #52]
 3109 0056 E164     		str	r1, [r4, #76]
 3110 0058 012D     		cmp	r5, #1
 3111 005a 19D0     		beq	.L394
 3112 005c 130A     		lsrs	r3, r2, #8
 3113 005e 8362     		str	r3, [r0, #40]
 3114 0060 D2B2     		uxtb	r2, r2
 3115 0062 2265     		str	r2, [r4, #80]
 3116              	.L388:
 3117 0064 134B     		ldr	r3, .L395+8
 3118 0066 0093     		str	r3, [sp]
 3119 0068 4FF08073 		mov	r3, #16777216
 3120 006c EAB2     		uxtb	r2, r5
 3121 006e 2046     		mov	r0, r4
 3122 0070 FFF7FEFF 		bl	I2C_TransferConfig
 3123 0074 0025     		movs	r5, #0
 3124 0076 84F84050 		strb	r5, [r4, #64]
 3125 007a 0121     		movs	r1, #1
 3126 007c 2046     		mov	r0, r4
 3127 007e FFF7FEFF 		bl	I2C_Enable_IRQ
 3128 0082 2846     		mov	r0, r5
 3129 0084 0BE0     		b	.L385
 3130              	.L393:
 3131 0086 4FF40073 		mov	r3, #512
 3132 008a 6364     		str	r3, [r4, #68]
 3133 008c 0120     		movs	r0, #1
 3134 008e 06E0     		b	.L385
 3135              	.L394:
 3136 0090 D2B2     		uxtb	r2, r2
 3137 0092 8262     		str	r2, [r0, #40]
 3138 0094 4FF0FF33 		mov	r3, #-1
 3139 0098 2365     		str	r3, [r4, #80]
ARM GAS  C:\Users\aticl\AppData\Local\Temp\ccNU6x1i.s 			page 55


 3140 009a E3E7     		b	.L388
 3141              	.L389:
 3142 009c 0220     		movs	r0, #2
 3143              	.L385:
 3144 009e 02B0     		add	sp, sp, #8
 3145              		@ sp needed
 3146 00a0 70BD     		pop	{r4, r5, r6, pc}
 3147              	.L390:
 3148 00a2 0220     		movs	r0, #2
 3149 00a4 FBE7     		b	.L385
 3150              	.L391:
 3151 00a6 0220     		movs	r0, #2
 3152 00a8 F9E7     		b	.L385
 3153              	.L396:
 3154 00aa 00BF     		.align	2
 3155              	.L395:
 3156 00ac 0000FFFF 		.word	-65536
 3157 00b0 00000000 		.word	I2C_Mem_ISR_IT
 3158 00b4 00200080 		.word	-2147475456
 3160              		.section	.text.HAL_I2C_Mem_Read_IT,"ax",%progbits
 3161              		.align	1
 3162              		.global	HAL_I2C_Mem_Read_IT
 3163              		.syntax unified
 3164              		.thumb
 3165              		.thumb_func
 3167              	HAL_I2C_Mem_Read_IT:
 3168              		@ args = 8, pretend = 0, frame = 0
 3169              		@ frame_needed = 0, uses_anonymous_args = 0
 3170 0000 70B5     		push	{r4, r5, r6, lr}
 3171 0002 82B0     		sub	sp, sp, #8
 3172 0004 0446     		mov	r4, r0
 3173 0006 1D46     		mov	r5, r3
 3174 0008 BDF81C30 		ldrh	r3, [sp, #28]
 3175 000c 90F84100 		ldrb	r0, [r0, #65]	@ zero_extendqisi2
 3176 0010 2028     		cmp	r0, #32
 3177 0012 41D1     		bne	.L402
 3178 0014 0698     		ldr	r0, [sp, #24]
 3179 0016 002B     		cmp	r3, #0
 3180 0018 18BF     		it	ne
 3181 001a 0028     		cmpne	r0, #0
 3182 001c 31D0     		beq	.L406
 3183 001e 2068     		ldr	r0, [r4]
 3184 0020 8669     		ldr	r6, [r0, #24]
 3185 0022 16F4004F 		tst	r6, #32768
 3186 0026 3AD1     		bne	.L403
 3187 0028 94F84060 		ldrb	r6, [r4, #64]	@ zero_extendqisi2
 3188 002c 012E     		cmp	r6, #1
 3189 002e 38D0     		beq	.L404
 3190 0030 0126     		movs	r6, #1
 3191 0032 84F84060 		strb	r6, [r4, #64]
 3192 0036 2226     		movs	r6, #34
 3193 0038 84F84160 		strb	r6, [r4, #65]
 3194 003c 4026     		movs	r6, #64
 3195 003e 84F84260 		strb	r6, [r4, #66]
 3196 0042 0026     		movs	r6, #0
 3197 0044 6664     		str	r6, [r4, #68]
 3198 0046 069E     		ldr	r6, [sp, #24]
ARM GAS  C:\Users\aticl\AppData\Local\Temp\ccNU6x1i.s 			page 56


 3199 0048 6662     		str	r6, [r4, #36]
 3200 004a 6385     		strh	r3, [r4, #42]	@ movhi
 3201 004c 164B     		ldr	r3, .L408
 3202 004e E362     		str	r3, [r4, #44]
 3203 0050 164B     		ldr	r3, .L408+4
 3204 0052 6363     		str	r3, [r4, #52]
 3205 0054 E164     		str	r1, [r4, #76]
 3206 0056 012D     		cmp	r5, #1
 3207 0058 18D0     		beq	.L407
 3208 005a 130A     		lsrs	r3, r2, #8
 3209 005c 8362     		str	r3, [r0, #40]
 3210 005e D2B2     		uxtb	r2, r2
 3211 0060 2265     		str	r2, [r4, #80]
 3212              	.L401:
 3213 0062 134B     		ldr	r3, .L408+8
 3214 0064 0093     		str	r3, [sp]
 3215 0066 0023     		movs	r3, #0
 3216 0068 EAB2     		uxtb	r2, r5
 3217 006a 2046     		mov	r0, r4
 3218 006c FFF7FEFF 		bl	I2C_TransferConfig
 3219 0070 0025     		movs	r5, #0
 3220 0072 84F84050 		strb	r5, [r4, #64]
 3221 0076 0121     		movs	r1, #1
 3222 0078 2046     		mov	r0, r4
 3223 007a FFF7FEFF 		bl	I2C_Enable_IRQ
 3224 007e 2846     		mov	r0, r5
 3225 0080 0BE0     		b	.L398
 3226              	.L406:
 3227 0082 4FF40073 		mov	r3, #512
 3228 0086 6364     		str	r3, [r4, #68]
 3229 0088 0120     		movs	r0, #1
 3230 008a 06E0     		b	.L398
 3231              	.L407:
 3232 008c D2B2     		uxtb	r2, r2
 3233 008e 8262     		str	r2, [r0, #40]
 3234 0090 4FF0FF33 		mov	r3, #-1
 3235 0094 2365     		str	r3, [r4, #80]
 3236 0096 E4E7     		b	.L401
 3237              	.L402:
 3238 0098 0220     		movs	r0, #2
 3239              	.L398:
 3240 009a 02B0     		add	sp, sp, #8
 3241              		@ sp needed
 3242 009c 70BD     		pop	{r4, r5, r6, pc}
 3243              	.L403:
 3244 009e 0220     		movs	r0, #2
 3245 00a0 FBE7     		b	.L398
 3246              	.L404:
 3247 00a2 0220     		movs	r0, #2
 3248 00a4 F9E7     		b	.L398
 3249              	.L409:
 3250 00a6 00BF     		.align	2
 3251              	.L408:
 3252 00a8 0000FFFF 		.word	-65536
 3253 00ac 00000000 		.word	I2C_Mem_ISR_IT
 3254 00b0 00200080 		.word	-2147475456
 3256              		.section	.text.HAL_I2C_Mem_Write_DMA,"ax",%progbits
ARM GAS  C:\Users\aticl\AppData\Local\Temp\ccNU6x1i.s 			page 57


 3257              		.align	1
 3258              		.global	HAL_I2C_Mem_Write_DMA
 3259              		.syntax unified
 3260              		.thumb
 3261              		.thumb_func
 3263              	HAL_I2C_Mem_Write_DMA:
 3264              		@ args = 8, pretend = 0, frame = 0
 3265              		@ frame_needed = 0, uses_anonymous_args = 0
 3266 0000 F0B5     		push	{r4, r5, r6, r7, lr}
 3267 0002 83B0     		sub	sp, sp, #12
 3268 0004 0446     		mov	r4, r0
 3269 0006 0E46     		mov	r6, r1
 3270 0008 1F46     		mov	r7, r3
 3271 000a 0899     		ldr	r1, [sp, #32]
 3272 000c BDF82430 		ldrh	r3, [sp, #36]
 3273 0010 90F84100 		ldrb	r0, [r0, #65]	@ zero_extendqisi2
 3274 0014 2028     		cmp	r0, #32
 3275 0016 7AD1     		bne	.L420
 3276 0018 002B     		cmp	r3, #0
 3277 001a 18BF     		it	ne
 3278 001c 0029     		cmpne	r1, #0
 3279 001e 49D0     		beq	.L425
 3280 0020 2068     		ldr	r0, [r4]
 3281 0022 8569     		ldr	r5, [r0, #24]
 3282 0024 15F4004F 		tst	r5, #32768
 3283 0028 75D1     		bne	.L421
 3284 002a 94F84050 		ldrb	r5, [r4, #64]	@ zero_extendqisi2
 3285 002e 012D     		cmp	r5, #1
 3286 0030 73D0     		beq	.L422
 3287 0032 0125     		movs	r5, #1
 3288 0034 84F84050 		strb	r5, [r4, #64]
 3289 0038 2125     		movs	r5, #33
 3290 003a 84F84150 		strb	r5, [r4, #65]
 3291 003e 4025     		movs	r5, #64
 3292 0040 84F84250 		strb	r5, [r4, #66]
 3293 0044 0025     		movs	r5, #0
 3294 0046 6564     		str	r5, [r4, #68]
 3295 0048 6162     		str	r1, [r4, #36]
 3296 004a 6385     		strh	r3, [r4, #42]	@ movhi
 3297 004c 344B     		ldr	r3, .L428
 3298 004e E362     		str	r3, [r4, #44]
 3299 0050 344B     		ldr	r3, .L428+4
 3300 0052 6363     		str	r3, [r4, #52]
 3301 0054 E664     		str	r6, [r4, #76]
 3302 0056 638D     		ldrh	r3, [r4, #42]
 3303 0058 9BB2     		uxth	r3, r3
 3304 005a FF2B     		cmp	r3, #255
 3305 005c 2FD9     		bls	.L413
 3306 005e FF23     		movs	r3, #255
 3307 0060 2385     		strh	r3, [r4, #40]	@ movhi
 3308              	.L414:
 3309 0062 012F     		cmp	r7, #1
 3310 0064 2ED0     		beq	.L426
 3311 0066 130A     		lsrs	r3, r2, #8
 3312 0068 8362     		str	r3, [r0, #40]
 3313 006a D2B2     		uxtb	r2, r2
 3314 006c 2265     		str	r2, [r4, #80]
ARM GAS  C:\Users\aticl\AppData\Local\Temp\ccNU6x1i.s 			page 58


 3315              	.L416:
 3316 006e A36B     		ldr	r3, [r4, #56]
 3317 0070 002B     		cmp	r3, #0
 3318 0072 2DD0     		beq	.L417
 3319 0074 2C4A     		ldr	r2, .L428+8
 3320 0076 DA63     		str	r2, [r3, #60]
 3321 0078 A36B     		ldr	r3, [r4, #56]
 3322 007a 2C4A     		ldr	r2, .L428+12
 3323 007c DA64     		str	r2, [r3, #76]
 3324 007e A26B     		ldr	r2, [r4, #56]
 3325 0080 0023     		movs	r3, #0
 3326 0082 1364     		str	r3, [r2, #64]
 3327 0084 A26B     		ldr	r2, [r4, #56]
 3328 0086 1365     		str	r3, [r2, #80]
 3329 0088 2268     		ldr	r2, [r4]
 3330 008a 238D     		ldrh	r3, [r4, #40]
 3331 008c 2832     		adds	r2, r2, #40
 3332 008e A06B     		ldr	r0, [r4, #56]
 3333 0090 FFF7FEFF 		bl	HAL_DMA_Start_IT
 3334 0094 0546     		mov	r5, r0
 3335 0096 48B3     		cbz	r0, .L427
 3336 0098 2023     		movs	r3, #32
 3337 009a 84F84130 		strb	r3, [r4, #65]
 3338 009e 0022     		movs	r2, #0
 3339 00a0 84F84220 		strb	r2, [r4, #66]
 3340 00a4 636C     		ldr	r3, [r4, #68]
 3341 00a6 43F01003 		orr	r3, r3, #16
 3342 00aa 6364     		str	r3, [r4, #68]
 3343 00ac 84F84020 		strb	r2, [r4, #64]
 3344 00b0 0125     		movs	r5, #1
 3345 00b2 2DE0     		b	.L411
 3346              	.L425:
 3347 00b4 4FF40073 		mov	r3, #512
 3348 00b8 6364     		str	r3, [r4, #68]
 3349 00ba 0125     		movs	r5, #1
 3350 00bc 28E0     		b	.L411
 3351              	.L413:
 3352 00be 638D     		ldrh	r3, [r4, #42]
 3353 00c0 2385     		strh	r3, [r4, #40]	@ movhi
 3354 00c2 CEE7     		b	.L414
 3355              	.L426:
 3356 00c4 D2B2     		uxtb	r2, r2
 3357 00c6 8262     		str	r2, [r0, #40]
 3358 00c8 4FF0FF33 		mov	r3, #-1
 3359 00cc 2365     		str	r3, [r4, #80]
 3360 00ce CEE7     		b	.L416
 3361              	.L417:
 3362 00d0 2023     		movs	r3, #32
 3363 00d2 84F84130 		strb	r3, [r4, #65]
 3364 00d6 0022     		movs	r2, #0
 3365 00d8 84F84220 		strb	r2, [r4, #66]
 3366 00dc 636C     		ldr	r3, [r4, #68]
 3367 00de 43F08003 		orr	r3, r3, #128
 3368 00e2 6364     		str	r3, [r4, #68]
 3369 00e4 84F84020 		strb	r2, [r4, #64]
 3370 00e8 0125     		movs	r5, #1
 3371 00ea 11E0     		b	.L411
ARM GAS  C:\Users\aticl\AppData\Local\Temp\ccNU6x1i.s 			page 59


 3372              	.L427:
 3373 00ec 104B     		ldr	r3, .L428+16
 3374 00ee 0093     		str	r3, [sp]
 3375 00f0 4FF08073 		mov	r3, #16777216
 3376 00f4 FAB2     		uxtb	r2, r7
 3377 00f6 3146     		mov	r1, r6
 3378 00f8 2046     		mov	r0, r4
 3379 00fa FFF7FEFF 		bl	I2C_TransferConfig
 3380 00fe 0023     		movs	r3, #0
 3381 0100 84F84030 		strb	r3, [r4, #64]
 3382 0104 0121     		movs	r1, #1
 3383 0106 2046     		mov	r0, r4
 3384 0108 FFF7FEFF 		bl	I2C_Enable_IRQ
 3385 010c 00E0     		b	.L411
 3386              	.L420:
 3387 010e 0225     		movs	r5, #2
 3388              	.L411:
 3389 0110 2846     		mov	r0, r5
 3390 0112 03B0     		add	sp, sp, #12
 3391              		@ sp needed
 3392 0114 F0BD     		pop	{r4, r5, r6, r7, pc}
 3393              	.L421:
 3394 0116 0225     		movs	r5, #2
 3395 0118 FAE7     		b	.L411
 3396              	.L422:
 3397 011a 0225     		movs	r5, #2
 3398 011c F8E7     		b	.L411
 3399              	.L429:
 3400 011e 00BF     		.align	2
 3401              	.L428:
 3402 0120 0000FFFF 		.word	-65536
 3403 0124 00000000 		.word	I2C_Mem_ISR_DMA
 3404 0128 00000000 		.word	I2C_DMAMasterTransmitCplt
 3405 012c 00000000 		.word	I2C_DMAError
 3406 0130 00200080 		.word	-2147475456
 3408              		.section	.text.HAL_I2C_Mem_Read_DMA,"ax",%progbits
 3409              		.align	1
 3410              		.global	HAL_I2C_Mem_Read_DMA
 3411              		.syntax unified
 3412              		.thumb
 3413              		.thumb_func
 3415              	HAL_I2C_Mem_Read_DMA:
 3416              		@ args = 8, pretend = 0, frame = 0
 3417              		@ frame_needed = 0, uses_anonymous_args = 0
 3418 0000 F0B5     		push	{r4, r5, r6, r7, lr}
 3419 0002 83B0     		sub	sp, sp, #12
 3420 0004 0446     		mov	r4, r0
 3421 0006 1F46     		mov	r7, r3
 3422 0008 089D     		ldr	r5, [sp, #32]
 3423 000a BDF82430 		ldrh	r3, [sp, #36]
 3424 000e 90F84100 		ldrb	r0, [r0, #65]	@ zero_extendqisi2
 3425 0012 2028     		cmp	r0, #32
 3426 0014 7BD1     		bne	.L440
 3427 0016 0E46     		mov	r6, r1
 3428 0018 002B     		cmp	r3, #0
 3429 001a 18BF     		it	ne
 3430 001c 002D     		cmpne	r5, #0
ARM GAS  C:\Users\aticl\AppData\Local\Temp\ccNU6x1i.s 			page 60


 3431 001e 4AD0     		beq	.L445
 3432 0020 2168     		ldr	r1, [r4]
 3433 0022 8869     		ldr	r0, [r1, #24]
 3434 0024 10F4004F 		tst	r0, #32768
 3435 0028 75D1     		bne	.L441
 3436 002a 94F84000 		ldrb	r0, [r4, #64]	@ zero_extendqisi2
 3437 002e 0128     		cmp	r0, #1
 3438 0030 73D0     		beq	.L442
 3439 0032 0120     		movs	r0, #1
 3440 0034 84F84000 		strb	r0, [r4, #64]
 3441 0038 2220     		movs	r0, #34
 3442 003a 84F84100 		strb	r0, [r4, #65]
 3443 003e 4020     		movs	r0, #64
 3444 0040 84F84200 		strb	r0, [r4, #66]
 3445 0044 0020     		movs	r0, #0
 3446 0046 6064     		str	r0, [r4, #68]
 3447 0048 6562     		str	r5, [r4, #36]
 3448 004a 6385     		strh	r3, [r4, #42]	@ movhi
 3449 004c 344B     		ldr	r3, .L448
 3450 004e E362     		str	r3, [r4, #44]
 3451 0050 344B     		ldr	r3, .L448+4
 3452 0052 6363     		str	r3, [r4, #52]
 3453 0054 E664     		str	r6, [r4, #76]
 3454 0056 638D     		ldrh	r3, [r4, #42]
 3455 0058 9BB2     		uxth	r3, r3
 3456 005a FF2B     		cmp	r3, #255
 3457 005c 30D9     		bls	.L433
 3458 005e FF23     		movs	r3, #255
 3459 0060 2385     		strh	r3, [r4, #40]	@ movhi
 3460              	.L434:
 3461 0062 012F     		cmp	r7, #1
 3462 0064 2FD0     		beq	.L446
 3463 0066 130A     		lsrs	r3, r2, #8
 3464 0068 8B62     		str	r3, [r1, #40]
 3465 006a D2B2     		uxtb	r2, r2
 3466 006c 2265     		str	r2, [r4, #80]
 3467              	.L436:
 3468 006e E36B     		ldr	r3, [r4, #60]
 3469 0070 002B     		cmp	r3, #0
 3470 0072 2ED0     		beq	.L437
 3471 0074 2C4A     		ldr	r2, .L448+8
 3472 0076 DA63     		str	r2, [r3, #60]
 3473 0078 E36B     		ldr	r3, [r4, #60]
 3474 007a 2C4A     		ldr	r2, .L448+12
 3475 007c DA64     		str	r2, [r3, #76]
 3476 007e E26B     		ldr	r2, [r4, #60]
 3477 0080 0023     		movs	r3, #0
 3478 0082 1364     		str	r3, [r2, #64]
 3479 0084 E26B     		ldr	r2, [r4, #60]
 3480 0086 1365     		str	r3, [r2, #80]
 3481 0088 2168     		ldr	r1, [r4]
 3482 008a 238D     		ldrh	r3, [r4, #40]
 3483 008c 2A46     		mov	r2, r5
 3484 008e 2431     		adds	r1, r1, #36
 3485 0090 E06B     		ldr	r0, [r4, #60]
 3486 0092 FFF7FEFF 		bl	HAL_DMA_Start_IT
 3487 0096 0546     		mov	r5, r0
ARM GAS  C:\Users\aticl\AppData\Local\Temp\ccNU6x1i.s 			page 61


 3488 0098 48B3     		cbz	r0, .L447
 3489 009a 2023     		movs	r3, #32
 3490 009c 84F84130 		strb	r3, [r4, #65]
 3491 00a0 0022     		movs	r2, #0
 3492 00a2 84F84220 		strb	r2, [r4, #66]
 3493 00a6 636C     		ldr	r3, [r4, #68]
 3494 00a8 43F01003 		orr	r3, r3, #16
 3495 00ac 6364     		str	r3, [r4, #68]
 3496 00ae 84F84020 		strb	r2, [r4, #64]
 3497 00b2 0125     		movs	r5, #1
 3498 00b4 2CE0     		b	.L431
 3499              	.L445:
 3500 00b6 4FF40073 		mov	r3, #512
 3501 00ba 6364     		str	r3, [r4, #68]
 3502 00bc 0125     		movs	r5, #1
 3503 00be 27E0     		b	.L431
 3504              	.L433:
 3505 00c0 638D     		ldrh	r3, [r4, #42]
 3506 00c2 2385     		strh	r3, [r4, #40]	@ movhi
 3507 00c4 CDE7     		b	.L434
 3508              	.L446:
 3509 00c6 D2B2     		uxtb	r2, r2
 3510 00c8 8A62     		str	r2, [r1, #40]
 3511 00ca 4FF0FF33 		mov	r3, #-1
 3512 00ce 2365     		str	r3, [r4, #80]
 3513 00d0 CDE7     		b	.L436
 3514              	.L437:
 3515 00d2 2023     		movs	r3, #32
 3516 00d4 84F84130 		strb	r3, [r4, #65]
 3517 00d8 0022     		movs	r2, #0
 3518 00da 84F84220 		strb	r2, [r4, #66]
 3519 00de 636C     		ldr	r3, [r4, #68]
 3520 00e0 43F08003 		orr	r3, r3, #128
 3521 00e4 6364     		str	r3, [r4, #68]
 3522 00e6 84F84020 		strb	r2, [r4, #64]
 3523 00ea 0125     		movs	r5, #1
 3524 00ec 10E0     		b	.L431
 3525              	.L447:
 3526 00ee 104B     		ldr	r3, .L448+16
 3527 00f0 0093     		str	r3, [sp]
 3528 00f2 0023     		movs	r3, #0
 3529 00f4 FAB2     		uxtb	r2, r7
 3530 00f6 3146     		mov	r1, r6
 3531 00f8 2046     		mov	r0, r4
 3532 00fa FFF7FEFF 		bl	I2C_TransferConfig
 3533 00fe 0023     		movs	r3, #0
 3534 0100 84F84030 		strb	r3, [r4, #64]
 3535 0104 0121     		movs	r1, #1
 3536 0106 2046     		mov	r0, r4
 3537 0108 FFF7FEFF 		bl	I2C_Enable_IRQ
 3538 010c 00E0     		b	.L431
 3539              	.L440:
 3540 010e 0225     		movs	r5, #2
 3541              	.L431:
 3542 0110 2846     		mov	r0, r5
 3543 0112 03B0     		add	sp, sp, #12
 3544              		@ sp needed
ARM GAS  C:\Users\aticl\AppData\Local\Temp\ccNU6x1i.s 			page 62


 3545 0114 F0BD     		pop	{r4, r5, r6, r7, pc}
 3546              	.L441:
 3547 0116 0225     		movs	r5, #2
 3548 0118 FAE7     		b	.L431
 3549              	.L442:
 3550 011a 0225     		movs	r5, #2
 3551 011c F8E7     		b	.L431
 3552              	.L449:
 3553 011e 00BF     		.align	2
 3554              	.L448:
 3555 0120 0000FFFF 		.word	-65536
 3556 0124 00000000 		.word	I2C_Mem_ISR_DMA
 3557 0128 00000000 		.word	I2C_DMAMasterReceiveCplt
 3558 012c 00000000 		.word	I2C_DMAError
 3559 0130 00200080 		.word	-2147475456
 3561              		.section	.text.HAL_I2C_IsDeviceReady,"ax",%progbits
 3562              		.align	1
 3563              		.global	HAL_I2C_IsDeviceReady
 3564              		.syntax unified
 3565              		.thumb
 3566              		.thumb_func
 3568              	HAL_I2C_IsDeviceReady:
 3569              		@ args = 0, pretend = 0, frame = 8
 3570              		@ frame_needed = 0, uses_anonymous_args = 0
 3571 0000 2DE9F047 		push	{r4, r5, r6, r7, r8, r9, r10, lr}
 3572 0004 84B0     		sub	sp, sp, #16
 3573 0006 1D46     		mov	r5, r3
 3574 0008 0023     		movs	r3, #0
 3575 000a 0393     		str	r3, [sp, #12]
 3576 000c 90F84130 		ldrb	r3, [r0, #65]	@ zero_extendqisi2
 3577 0010 202B     		cmp	r3, #32
 3578 0012 40F09F80 		bne	.L463
 3579 0016 0646     		mov	r6, r0
 3580 0018 8946     		mov	r9, r1
 3581 001a 9046     		mov	r8, r2
 3582 001c 0368     		ldr	r3, [r0]
 3583 001e 9B69     		ldr	r3, [r3, #24]
 3584 0020 13F4004F 		tst	r3, #32768
 3585 0024 40F09880 		bne	.L464
 3586 0028 90F84030 		ldrb	r3, [r0, #64]	@ zero_extendqisi2
 3587 002c 012B     		cmp	r3, #1
 3588 002e 00F09580 		beq	.L465
 3589 0032 0123     		movs	r3, #1
 3590 0034 80F84030 		strb	r3, [r0, #64]
 3591 0038 2423     		movs	r3, #36
 3592 003a 80F84130 		strb	r3, [r0, #65]
 3593 003e 0023     		movs	r3, #0
 3594 0040 4364     		str	r3, [r0, #68]
 3595 0042 9A46     		mov	r10, r3
 3596              	.L462:
 3597 0044 F368     		ldr	r3, [r6, #12]
 3598 0046 012B     		cmp	r3, #1
 3599 0048 10D0     		beq	.L470
 3600 004a C9F30902 		ubfx	r2, r9, #0, #10
 3601 004e 444B     		ldr	r3, .L474
 3602 0050 1343     		orrs	r3, r3, r2
 3603              	.L453:
ARM GAS  C:\Users\aticl\AppData\Local\Temp\ccNU6x1i.s 			page 63


 3604 0052 3268     		ldr	r2, [r6]
 3605 0054 5360     		str	r3, [r2, #4]
 3606 0056 FFF7FEFF 		bl	HAL_GetTick
 3607 005a 0746     		mov	r7, r0
 3608 005c 3268     		ldr	r2, [r6]
 3609 005e 9369     		ldr	r3, [r2, #24]
 3610 0060 C3F3401C 		ubfx	ip, r3, #5, #1
 3611 0064 9369     		ldr	r3, [r2, #24]
 3612 0066 C3F30013 		ubfx	r3, r3, #4, #1
 3613 006a 0BE0     		b	.L454
 3614              	.L470:
 3615 006c C9F30902 		ubfx	r2, r9, #0, #10
 3616 0070 3C4B     		ldr	r3, .L474+4
 3617 0072 1343     		orrs	r3, r3, r2
 3618 0074 EDE7     		b	.L453
 3619              	.L455:
 3620 0076 3368     		ldr	r3, [r6]
 3621 0078 9C69     		ldr	r4, [r3, #24]
 3622 007a C4F3401C 		ubfx	ip, r4, #5, #1
 3623 007e 9B69     		ldr	r3, [r3, #24]
 3624 0080 C3F30013 		ubfx	r3, r3, #4, #1
 3625              	.L454:
 3626 0084 5CEA030C 		orrs	ip, ip, r3
 3627 0088 17D1     		bne	.L471
 3628 008a B5F1FF3F 		cmp	r5, #-1
 3629 008e F2D0     		beq	.L455
 3630 0090 FFF7FEFF 		bl	HAL_GetTick
 3631 0094 C01B     		subs	r0, r0, r7
 3632 0096 A842     		cmp	r0, r5
 3633 0098 01D8     		bhi	.L456
 3634 009a 002D     		cmp	r5, #0
 3635 009c EBD1     		bne	.L455
 3636              	.L456:
 3637 009e 2023     		movs	r3, #32
 3638 00a0 86F84130 		strb	r3, [r6, #65]
 3639 00a4 736C     		ldr	r3, [r6, #68]
 3640 00a6 43F02003 		orr	r3, r3, #32
 3641 00aa 7364     		str	r3, [r6, #68]
 3642 00ac 0023     		movs	r3, #0
 3643 00ae 86F84030 		strb	r3, [r6, #64]
 3644 00b2 0120     		movs	r0, #1
 3645              	.L451:
 3646 00b4 04B0     		add	sp, sp, #16
 3647              		@ sp needed
 3648 00b6 BDE8F087 		pop	{r4, r5, r6, r7, r8, r9, r10, pc}
 3649              	.L471:
 3650 00ba 3368     		ldr	r3, [r6]
 3651 00bc 9A69     		ldr	r2, [r3, #24]
 3652 00be 12F0100F 		tst	r2, #16
 3653 00c2 33D1     		bne	.L458
 3654 00c4 0097     		str	r7, [sp]
 3655 00c6 2B46     		mov	r3, r5
 3656 00c8 0022     		movs	r2, #0
 3657 00ca 2021     		movs	r1, #32
 3658 00cc 3046     		mov	r0, r6
 3659 00ce FFF7FEFF 		bl	I2C_WaitOnFlagUntilTimeout
 3660 00d2 10B3     		cbz	r0, .L459
ARM GAS  C:\Users\aticl\AppData\Local\Temp\ccNU6x1i.s 			page 64


 3661 00d4 736C     		ldr	r3, [r6, #68]
 3662 00d6 042B     		cmp	r3, #4
 3663 00d8 19D0     		beq	.L472
 3664 00da 4FF0010A 		mov	r10, #1
 3665              	.L460:
 3666 00de 039B     		ldr	r3, [sp, #12]
 3667 00e0 0133     		adds	r3, r3, #1
 3668 00e2 0393     		str	r3, [sp, #12]
 3669 00e4 039B     		ldr	r3, [sp, #12]
 3670 00e6 4345     		cmp	r3, r8
 3671 00e8 02D2     		bcs	.L461
 3672 00ea BAF1000F 		cmp	r10, #0
 3673 00ee 2ED1     		bne	.L473
 3674              	.L461:
 3675 00f0 039B     		ldr	r3, [sp, #12]
 3676 00f2 4345     		cmp	r3, r8
 3677 00f4 A6D3     		bcc	.L462
 3678 00f6 2023     		movs	r3, #32
 3679 00f8 86F84130 		strb	r3, [r6, #65]
 3680 00fc 736C     		ldr	r3, [r6, #68]
 3681 00fe 43F02003 		orr	r3, r3, #32
 3682 0102 7364     		str	r3, [r6, #68]
 3683 0104 0023     		movs	r3, #0
 3684 0106 86F84030 		strb	r3, [r6, #64]
 3685 010a 0120     		movs	r0, #1
 3686 010c D2E7     		b	.L451
 3687              	.L472:
 3688 010e 3368     		ldr	r3, [r6]
 3689 0110 2022     		movs	r2, #32
 3690 0112 DA61     		str	r2, [r3, #28]
 3691 0114 0023     		movs	r3, #0
 3692 0116 7364     		str	r3, [r6, #68]
 3693 0118 E1E7     		b	.L460
 3694              	.L459:
 3695 011a 3268     		ldr	r2, [r6]
 3696 011c 2023     		movs	r3, #32
 3697 011e D361     		str	r3, [r2, #28]
 3698 0120 86F84130 		strb	r3, [r6, #65]
 3699 0124 0023     		movs	r3, #0
 3700 0126 86F84030 		strb	r3, [r6, #64]
 3701 012a C3E7     		b	.L451
 3702              	.L458:
 3703 012c 1022     		movs	r2, #16
 3704 012e DA61     		str	r2, [r3, #28]
 3705 0130 0097     		str	r7, [sp]
 3706 0132 2B46     		mov	r3, r5
 3707 0134 0022     		movs	r2, #0
 3708 0136 2021     		movs	r1, #32
 3709 0138 3046     		mov	r0, r6
 3710 013a FFF7FEFF 		bl	I2C_WaitOnFlagUntilTimeout
 3711 013e 18B9     		cbnz	r0, .L467
 3712 0140 3368     		ldr	r3, [r6]
 3713 0142 2022     		movs	r2, #32
 3714 0144 DA61     		str	r2, [r3, #28]
 3715 0146 CAE7     		b	.L460
 3716              	.L467:
 3717 0148 4FF0010A 		mov	r10, #1
ARM GAS  C:\Users\aticl\AppData\Local\Temp\ccNU6x1i.s 			page 65


 3718 014c C7E7     		b	.L460
 3719              	.L473:
 3720 014e 4FF0000A 		mov	r10, #0
 3721 0152 CDE7     		b	.L461
 3722              	.L463:
 3723 0154 0220     		movs	r0, #2
 3724 0156 ADE7     		b	.L451
 3725              	.L464:
 3726 0158 0220     		movs	r0, #2
 3727 015a ABE7     		b	.L451
 3728              	.L465:
 3729 015c 0220     		movs	r0, #2
 3730 015e A9E7     		b	.L451
 3731              	.L475:
 3732              		.align	2
 3733              	.L474:
 3734 0160 00280002 		.word	33564672
 3735 0164 00200002 		.word	33562624
 3737              		.section	.text.HAL_I2C_Master_Seq_Transmit_IT,"ax",%progbits
 3738              		.align	1
 3739              		.global	HAL_I2C_Master_Seq_Transmit_IT
 3740              		.syntax unified
 3741              		.thumb
 3742              		.thumb_func
 3744              	HAL_I2C_Master_Seq_Transmit_IT:
 3745              		@ args = 4, pretend = 0, frame = 0
 3746              		@ frame_needed = 0, uses_anonymous_args = 0
 3747 0000 2DE9F041 		push	{r4, r5, r6, r7, r8, lr}
 3748 0004 82B0     		sub	sp, sp, #8
 3749 0006 0446     		mov	r4, r0
 3750 0008 089E     		ldr	r6, [sp, #32]
 3751 000a 90F84100 		ldrb	r0, [r0, #65]	@ zero_extendqisi2
 3752 000e 2028     		cmp	r0, #32
 3753 0010 73D1     		bne	.L485
 3754 0012 0D46     		mov	r5, r1
 3755 0014 94F84010 		ldrb	r1, [r4, #64]	@ zero_extendqisi2
 3756 0018 0129     		cmp	r1, #1
 3757 001a 70D0     		beq	.L486
 3758 001c 0121     		movs	r1, #1
 3759 001e 84F84010 		strb	r1, [r4, #64]
 3760 0022 2121     		movs	r1, #33
 3761 0024 84F84110 		strb	r1, [r4, #65]
 3762 0028 1021     		movs	r1, #16
 3763 002a 84F84210 		strb	r1, [r4, #66]
 3764 002e 0021     		movs	r1, #0
 3765 0030 6164     		str	r1, [r4, #68]
 3766 0032 6262     		str	r2, [r4, #36]
 3767 0034 6385     		strh	r3, [r4, #42]	@ movhi
 3768 0036 E662     		str	r6, [r4, #44]
 3769 0038 324B     		ldr	r3, .L492
 3770 003a 6363     		str	r3, [r4, #52]
 3771 003c 638D     		ldrh	r3, [r4, #42]
 3772 003e 9BB2     		uxth	r3, r3
 3773 0040 FF2B     		cmp	r3, #255
 3774 0042 1BD9     		bls	.L478
 3775 0044 FF23     		movs	r3, #255
 3776 0046 2385     		strh	r3, [r4, #40]	@ movhi
ARM GAS  C:\Users\aticl\AppData\Local\Temp\ccNU6x1i.s 			page 66


 3777 0048 4FF08077 		mov	r7, #16777216
 3778              	.L479:
 3779 004c 238D     		ldrh	r3, [r4, #40]
 3780 004e CBB1     		cbz	r3, .L487
 3781 0050 B6F1007F 		cmp	r6, #33554432
 3782 0054 18BF     		it	ne
 3783 0056 002E     		cmpne	r6, #0
 3784 0058 3FD1     		bne	.L488
 3785 005a 2368     		ldr	r3, [r4]
 3786 005c 1278     		ldrb	r2, [r2]	@ zero_extendqisi2
 3787 005e 9A62     		str	r2, [r3, #40]
 3788 0060 636A     		ldr	r3, [r4, #36]
 3789 0062 0133     		adds	r3, r3, #1
 3790 0064 6362     		str	r3, [r4, #36]
 3791 0066 B4F82880 		ldrh	r8, [r4, #40]
 3792 006a 638D     		ldrh	r3, [r4, #42]
 3793 006c 9BB2     		uxth	r3, r3
 3794 006e 013B     		subs	r3, r3, #1
 3795 0070 9BB2     		uxth	r3, r3
 3796 0072 6385     		strh	r3, [r4, #42]	@ movhi
 3797 0074 08F1FF33 		add	r3, r8, #-1
 3798 0078 2385     		strh	r3, [r4, #40]	@ movhi
 3799 007a 05E0     		b	.L480
 3800              	.L478:
 3801 007c 638D     		ldrh	r3, [r4, #42]
 3802 007e 2385     		strh	r3, [r4, #40]	@ movhi
 3803 0080 E76A     		ldr	r7, [r4, #44]
 3804 0082 E3E7     		b	.L479
 3805              	.L487:
 3806 0084 4FF00008 		mov	r8, #0
 3807              	.L480:
 3808 0088 236B     		ldr	r3, [r4, #48]
 3809 008a 112B     		cmp	r3, #17
 3810 008c 04D1     		bne	.L481
 3811 008e B6F52A4F 		cmp	r6, #43520
 3812 0092 18BF     		it	ne
 3813 0094 AA2E     		cmpne	r6, #170
 3814 0096 23D1     		bne	.L489
 3815              	.L481:
 3816 0098 2046     		mov	r0, r4
 3817 009a FFF7FEFF 		bl	I2C_ConvertOtherXferOptions
 3818 009e 638D     		ldrh	r3, [r4, #42]
 3819 00a0 9BB2     		uxth	r3, r3
 3820 00a2 FF2B     		cmp	r3, #255
 3821 00a4 1ED8     		bhi	.L490
 3822 00a6 E76A     		ldr	r7, [r4, #44]
 3823 00a8 174B     		ldr	r3, .L492+4
 3824              	.L482:
 3825 00aa B6F1007F 		cmp	r6, #33554432
 3826 00ae 18BF     		it	ne
 3827 00b0 002E     		cmpne	r6, #0
 3828 00b2 19D1     		bne	.L483
 3829 00b4 0093     		str	r3, [sp]
 3830 00b6 3B46     		mov	r3, r7
 3831 00b8 5FFA88F2 		uxtb	r2, r8
 3832 00bc 2946     		mov	r1, r5
 3833 00be 2046     		mov	r0, r4
ARM GAS  C:\Users\aticl\AppData\Local\Temp\ccNU6x1i.s 			page 67


 3834 00c0 FFF7FEFF 		bl	I2C_TransferConfig
 3835              	.L484:
 3836 00c4 0025     		movs	r5, #0
 3837 00c6 84F84050 		strb	r5, [r4, #64]
 3838 00ca 0121     		movs	r1, #1
 3839 00cc 2046     		mov	r0, r4
 3840 00ce FFF7FEFF 		bl	I2C_Enable_IRQ
 3841 00d2 2846     		mov	r0, r5
 3842              	.L477:
 3843 00d4 02B0     		add	sp, sp, #8
 3844              		@ sp needed
 3845 00d6 BDE8F081 		pop	{r4, r5, r6, r7, r8, pc}
 3846              	.L488:
 3847 00da 4FF00008 		mov	r8, #0
 3848 00de D3E7     		b	.L480
 3849              	.L489:
 3850 00e0 0023     		movs	r3, #0
 3851 00e2 E2E7     		b	.L482
 3852              	.L490:
 3853 00e4 084B     		ldr	r3, .L492+4
 3854 00e6 E0E7     		b	.L482
 3855              	.L483:
 3856 00e8 0093     		str	r3, [sp]
 3857 00ea 3B46     		mov	r3, r7
 3858 00ec 94F82820 		ldrb	r2, [r4, #40]	@ zero_extendqisi2
 3859 00f0 2946     		mov	r1, r5
 3860 00f2 2046     		mov	r0, r4
 3861 00f4 FFF7FEFF 		bl	I2C_TransferConfig
 3862 00f8 E4E7     		b	.L484
 3863              	.L485:
 3864 00fa 0220     		movs	r0, #2
 3865 00fc EAE7     		b	.L477
 3866              	.L486:
 3867 00fe 0220     		movs	r0, #2
 3868 0100 E8E7     		b	.L477
 3869              	.L493:
 3870 0102 00BF     		.align	2
 3871              	.L492:
 3872 0104 00000000 		.word	I2C_Master_ISR_IT
 3873 0108 00200080 		.word	-2147475456
 3875              		.section	.text.HAL_I2C_Master_Seq_Transmit_DMA,"ax",%progbits
 3876              		.align	1
 3877              		.global	HAL_I2C_Master_Seq_Transmit_DMA
 3878              		.syntax unified
 3879              		.thumb
 3880              		.thumb_func
 3882              	HAL_I2C_Master_Seq_Transmit_DMA:
 3883              		@ args = 4, pretend = 0, frame = 0
 3884              		@ frame_needed = 0, uses_anonymous_args = 0
 3885 0000 2DE9F043 		push	{r4, r5, r6, r7, r8, r9, lr}
 3886 0004 83B0     		sub	sp, sp, #12
 3887 0006 0446     		mov	r4, r0
 3888 0008 0A9E     		ldr	r6, [sp, #40]
 3889 000a 90F84100 		ldrb	r0, [r0, #65]	@ zero_extendqisi2
 3890 000e 2028     		cmp	r0, #32
 3891 0010 40F0D780 		bne	.L510
 3892 0014 0D46     		mov	r5, r1
ARM GAS  C:\Users\aticl\AppData\Local\Temp\ccNU6x1i.s 			page 68


 3893 0016 94F84010 		ldrb	r1, [r4, #64]	@ zero_extendqisi2
 3894 001a 0129     		cmp	r1, #1
 3895 001c 00F0D580 		beq	.L511
 3896 0020 0121     		movs	r1, #1
 3897 0022 84F84010 		strb	r1, [r4, #64]
 3898 0026 2121     		movs	r1, #33
 3899 0028 84F84110 		strb	r1, [r4, #65]
 3900 002c 1021     		movs	r1, #16
 3901 002e 84F84210 		strb	r1, [r4, #66]
 3902 0032 0021     		movs	r1, #0
 3903 0034 6164     		str	r1, [r4, #68]
 3904 0036 6262     		str	r2, [r4, #36]
 3905 0038 6385     		strh	r3, [r4, #42]	@ movhi
 3906 003a E662     		str	r6, [r4, #44]
 3907 003c 644B     		ldr	r3, .L518
 3908 003e 6363     		str	r3, [r4, #52]
 3909 0040 638D     		ldrh	r3, [r4, #42]
 3910 0042 9BB2     		uxth	r3, r3
 3911 0044 FF2B     		cmp	r3, #255
 3912 0046 1BD9     		bls	.L496
 3913 0048 FF23     		movs	r3, #255
 3914 004a 2385     		strh	r3, [r4, #40]	@ movhi
 3915 004c 4FF08077 		mov	r7, #16777216
 3916              	.L497:
 3917 0050 238D     		ldrh	r3, [r4, #40]
 3918 0052 CBB1     		cbz	r3, .L512
 3919 0054 B6F1007F 		cmp	r6, #33554432
 3920 0058 18BF     		it	ne
 3921 005a 002E     		cmpne	r6, #0
 3922 005c 29D1     		bne	.L513
 3923 005e 2368     		ldr	r3, [r4]
 3924 0060 1278     		ldrb	r2, [r2]	@ zero_extendqisi2
 3925 0062 9A62     		str	r2, [r3, #40]
 3926 0064 636A     		ldr	r3, [r4, #36]
 3927 0066 0133     		adds	r3, r3, #1
 3928 0068 6362     		str	r3, [r4, #36]
 3929 006a B4F82880 		ldrh	r8, [r4, #40]
 3930 006e 638D     		ldrh	r3, [r4, #42]
 3931 0070 9BB2     		uxth	r3, r3
 3932 0072 013B     		subs	r3, r3, #1
 3933 0074 9BB2     		uxth	r3, r3
 3934 0076 6385     		strh	r3, [r4, #42]	@ movhi
 3935 0078 08F1FF33 		add	r3, r8, #-1
 3936 007c 2385     		strh	r3, [r4, #40]	@ movhi
 3937 007e 05E0     		b	.L498
 3938              	.L496:
 3939 0080 638D     		ldrh	r3, [r4, #42]
 3940 0082 2385     		strh	r3, [r4, #40]	@ movhi
 3941 0084 E76A     		ldr	r7, [r4, #44]
 3942 0086 E3E7     		b	.L497
 3943              	.L512:
 3944 0088 4FF00008 		mov	r8, #0
 3945              	.L498:
 3946 008c 236B     		ldr	r3, [r4, #48]
 3947 008e 112B     		cmp	r3, #17
 3948 0090 04D1     		bne	.L499
 3949 0092 B6F52A4F 		cmp	r6, #43520
ARM GAS  C:\Users\aticl\AppData\Local\Temp\ccNU6x1i.s 			page 69


 3950 0096 18BF     		it	ne
 3951 0098 AA2E     		cmpne	r6, #170
 3952 009a 0DD1     		bne	.L514
 3953              	.L499:
 3954 009c 2046     		mov	r0, r4
 3955 009e FFF7FEFF 		bl	I2C_ConvertOtherXferOptions
 3956 00a2 638D     		ldrh	r3, [r4, #42]
 3957 00a4 9BB2     		uxth	r3, r3
 3958 00a6 FF2B     		cmp	r3, #255
 3959 00a8 09D8     		bhi	.L515
 3960 00aa E76A     		ldr	r7, [r4, #44]
 3961 00ac DFF83091 		ldr	r9, .L518+16
 3962 00b0 07E0     		b	.L500
 3963              	.L513:
 3964 00b2 4FF00008 		mov	r8, #0
 3965 00b6 E9E7     		b	.L498
 3966              	.L514:
 3967 00b8 4FF00009 		mov	r9, #0
 3968 00bc 01E0     		b	.L500
 3969              	.L515:
 3970 00be DFF82091 		ldr	r9, .L518+16
 3971              	.L500:
 3972 00c2 228D     		ldrh	r2, [r4, #40]
 3973 00c4 002A     		cmp	r2, #0
 3974 00c6 5AD0     		beq	.L501
 3975 00c8 A36B     		ldr	r3, [r4, #56]
 3976 00ca FBB1     		cbz	r3, .L502
 3977 00cc 414A     		ldr	r2, .L518+4
 3978 00ce DA63     		str	r2, [r3, #60]
 3979 00d0 A36B     		ldr	r3, [r4, #56]
 3980 00d2 414A     		ldr	r2, .L518+8
 3981 00d4 DA64     		str	r2, [r3, #76]
 3982 00d6 A26B     		ldr	r2, [r4, #56]
 3983 00d8 0023     		movs	r3, #0
 3984 00da 1364     		str	r3, [r2, #64]
 3985 00dc A26B     		ldr	r2, [r4, #56]
 3986 00de 1365     		str	r3, [r2, #80]
 3987 00e0 2268     		ldr	r2, [r4]
 3988 00e2 238D     		ldrh	r3, [r4, #40]
 3989 00e4 2832     		adds	r2, r2, #40
 3990 00e6 616A     		ldr	r1, [r4, #36]
 3991 00e8 A06B     		ldr	r0, [r4, #56]
 3992 00ea FFF7FEFF 		bl	HAL_DMA_Start_IT
 3993 00ee D8B1     		cbz	r0, .L503
 3994 00f0 2023     		movs	r3, #32
 3995 00f2 84F84130 		strb	r3, [r4, #65]
 3996 00f6 0022     		movs	r2, #0
 3997 00f8 84F84220 		strb	r2, [r4, #66]
 3998 00fc 636C     		ldr	r3, [r4, #68]
 3999 00fe 43F01003 		orr	r3, r3, #16
 4000 0102 6364     		str	r3, [r4, #68]
 4001 0104 84F84020 		strb	r2, [r4, #64]
 4002 0108 0120     		movs	r0, #1
 4003 010a 5BE0     		b	.L495
 4004              	.L502:
 4005 010c 2023     		movs	r3, #32
 4006 010e 84F84130 		strb	r3, [r4, #65]
ARM GAS  C:\Users\aticl\AppData\Local\Temp\ccNU6x1i.s 			page 70


 4007 0112 0022     		movs	r2, #0
 4008 0114 84F84220 		strb	r2, [r4, #66]
 4009 0118 636C     		ldr	r3, [r4, #68]
 4010 011a 43F08003 		orr	r3, r3, #128
 4011 011e 6364     		str	r3, [r4, #68]
 4012 0120 84F84020 		strb	r2, [r4, #64]
 4013 0124 0120     		movs	r0, #1
 4014 0126 4DE0     		b	.L495
 4015              	.L503:
 4016 0128 B6F1007F 		cmp	r6, #33554432
 4017 012c 18BF     		it	ne
 4018 012e 002E     		cmpne	r6, #0
 4019 0130 1BD1     		bne	.L505
 4020 0132 CDF80090 		str	r9, [sp]
 4021 0136 3B46     		mov	r3, r7
 4022 0138 5FFA88F2 		uxtb	r2, r8
 4023 013c 2946     		mov	r1, r5
 4024 013e 2046     		mov	r0, r4
 4025 0140 FFF7FEFF 		bl	I2C_TransferConfig
 4026              	.L506:
 4027 0144 638D     		ldrh	r3, [r4, #42]
 4028 0146 9BB2     		uxth	r3, r3
 4029 0148 228D     		ldrh	r2, [r4, #40]
 4030 014a 9B1A     		subs	r3, r3, r2
 4031 014c 9BB2     		uxth	r3, r3
 4032 014e 6385     		strh	r3, [r4, #42]	@ movhi
 4033 0150 0023     		movs	r3, #0
 4034 0152 84F84030 		strb	r3, [r4, #64]
 4035 0156 1021     		movs	r1, #16
 4036 0158 2046     		mov	r0, r4
 4037 015a FFF7FEFF 		bl	I2C_Enable_IRQ
 4038 015e 2268     		ldr	r2, [r4]
 4039 0160 1368     		ldr	r3, [r2]
 4040 0162 43F48043 		orr	r3, r3, #16384
 4041 0166 1360     		str	r3, [r2]
 4042 0168 20E0     		b	.L507
 4043              	.L505:
 4044 016a CDF80090 		str	r9, [sp]
 4045 016e 3B46     		mov	r3, r7
 4046 0170 94F82820 		ldrb	r2, [r4, #40]	@ zero_extendqisi2
 4047 0174 2946     		mov	r1, r5
 4048 0176 2046     		mov	r0, r4
 4049 0178 FFF7FEFF 		bl	I2C_TransferConfig
 4050 017c E2E7     		b	.L506
 4051              	.L501:
 4052 017e 174B     		ldr	r3, .L518+12
 4053 0180 6363     		str	r3, [r4, #52]
 4054 0182 B6F1007F 		cmp	r6, #33554432
 4055 0186 18BF     		it	ne
 4056 0188 002E     		cmpne	r6, #0
 4057 018a 11D1     		bne	.L508
 4058 018c CDF80090 		str	r9, [sp]
 4059 0190 3B46     		mov	r3, r7
 4060 0192 5FFA88F2 		uxtb	r2, r8
 4061 0196 2946     		mov	r1, r5
 4062 0198 2046     		mov	r0, r4
 4063 019a FFF7FEFF 		bl	I2C_TransferConfig
ARM GAS  C:\Users\aticl\AppData\Local\Temp\ccNU6x1i.s 			page 71


 4064              	.L509:
 4065 019e 0023     		movs	r3, #0
 4066 01a0 84F84030 		strb	r3, [r4, #64]
 4067 01a4 0121     		movs	r1, #1
 4068 01a6 2046     		mov	r0, r4
 4069 01a8 FFF7FEFF 		bl	I2C_Enable_IRQ
 4070              	.L507:
 4071 01ac 0020     		movs	r0, #0
 4072 01ae 09E0     		b	.L495
 4073              	.L508:
 4074 01b0 CDF80090 		str	r9, [sp]
 4075 01b4 3B46     		mov	r3, r7
 4076 01b6 D2B2     		uxtb	r2, r2
 4077 01b8 2946     		mov	r1, r5
 4078 01ba 2046     		mov	r0, r4
 4079 01bc FFF7FEFF 		bl	I2C_TransferConfig
 4080 01c0 EDE7     		b	.L509
 4081              	.L510:
 4082 01c2 0220     		movs	r0, #2
 4083              	.L495:
 4084 01c4 03B0     		add	sp, sp, #12
 4085              		@ sp needed
 4086 01c6 BDE8F083 		pop	{r4, r5, r6, r7, r8, r9, pc}
 4087              	.L511:
 4088 01ca 0220     		movs	r0, #2
 4089 01cc FAE7     		b	.L495
 4090              	.L519:
 4091 01ce 00BF     		.align	2
 4092              	.L518:
 4093 01d0 00000000 		.word	I2C_Master_ISR_DMA
 4094 01d4 00000000 		.word	I2C_DMAMasterTransmitCplt
 4095 01d8 00000000 		.word	I2C_DMAError
 4096 01dc 00000000 		.word	I2C_Master_ISR_IT
 4097 01e0 00200080 		.word	-2147475456
 4099              		.section	.text.HAL_I2C_Master_Seq_Receive_IT,"ax",%progbits
 4100              		.align	1
 4101              		.global	HAL_I2C_Master_Seq_Receive_IT
 4102              		.syntax unified
 4103              		.thumb
 4104              		.thumb_func
 4106              	HAL_I2C_Master_Seq_Receive_IT:
 4107              		@ args = 4, pretend = 0, frame = 0
 4108              		@ frame_needed = 0, uses_anonymous_args = 0
 4109 0000 70B5     		push	{r4, r5, r6, lr}
 4110 0002 82B0     		sub	sp, sp, #8
 4111 0004 0446     		mov	r4, r0
 4112 0006 0D46     		mov	r5, r1
 4113 0008 0699     		ldr	r1, [sp, #24]
 4114 000a 90F84100 		ldrb	r0, [r0, #65]	@ zero_extendqisi2
 4115 000e 2028     		cmp	r0, #32
 4116 0010 46D1     		bne	.L526
 4117 0012 94F84000 		ldrb	r0, [r4, #64]	@ zero_extendqisi2
 4118 0016 0128     		cmp	r0, #1
 4119 0018 44D0     		beq	.L527
 4120 001a 0120     		movs	r0, #1
 4121 001c 84F84000 		strb	r0, [r4, #64]
 4122 0020 2220     		movs	r0, #34
ARM GAS  C:\Users\aticl\AppData\Local\Temp\ccNU6x1i.s 			page 72


 4123 0022 84F84100 		strb	r0, [r4, #65]
 4124 0026 1020     		movs	r0, #16
 4125 0028 84F84200 		strb	r0, [r4, #66]
 4126 002c 0020     		movs	r0, #0
 4127 002e 6064     		str	r0, [r4, #68]
 4128 0030 6262     		str	r2, [r4, #36]
 4129 0032 6385     		strh	r3, [r4, #42]	@ movhi
 4130 0034 E162     		str	r1, [r4, #44]
 4131 0036 1C4B     		ldr	r3, .L531
 4132 0038 6363     		str	r3, [r4, #52]
 4133 003a 638D     		ldrh	r3, [r4, #42]
 4134 003c 9BB2     		uxth	r3, r3
 4135 003e FF2B     		cmp	r3, #255
 4136 0040 26D9     		bls	.L522
 4137 0042 FF23     		movs	r3, #255
 4138 0044 2385     		strh	r3, [r4, #40]	@ movhi
 4139 0046 4FF08076 		mov	r6, #16777216
 4140              	.L523:
 4141 004a 236B     		ldr	r3, [r4, #48]
 4142 004c 122B     		cmp	r3, #18
 4143 004e 04D1     		bne	.L524
 4144 0050 B1F52A4F 		cmp	r1, #43520
 4145 0054 18BF     		it	ne
 4146 0056 AA29     		cmpne	r1, #170
 4147 0058 1ED1     		bne	.L528
 4148              	.L524:
 4149 005a 2046     		mov	r0, r4
 4150 005c FFF7FEFF 		bl	I2C_ConvertOtherXferOptions
 4151 0060 638D     		ldrh	r3, [r4, #42]
 4152 0062 9BB2     		uxth	r3, r3
 4153 0064 FF2B     		cmp	r3, #255
 4154 0066 19D8     		bhi	.L529
 4155 0068 E66A     		ldr	r6, [r4, #44]
 4156 006a 104B     		ldr	r3, .L531+4
 4157              	.L525:
 4158 006c 0093     		str	r3, [sp]
 4159 006e 3346     		mov	r3, r6
 4160 0070 94F82820 		ldrb	r2, [r4, #40]	@ zero_extendqisi2
 4161 0074 2946     		mov	r1, r5
 4162 0076 2046     		mov	r0, r4
 4163 0078 FFF7FEFF 		bl	I2C_TransferConfig
 4164 007c 0025     		movs	r5, #0
 4165 007e 84F84050 		strb	r5, [r4, #64]
 4166 0082 0221     		movs	r1, #2
 4167 0084 2046     		mov	r0, r4
 4168 0086 FFF7FEFF 		bl	I2C_Enable_IRQ
 4169 008a 2846     		mov	r0, r5
 4170              	.L521:
 4171 008c 02B0     		add	sp, sp, #8
 4172              		@ sp needed
 4173 008e 70BD     		pop	{r4, r5, r6, pc}
 4174              	.L522:
 4175 0090 638D     		ldrh	r3, [r4, #42]
 4176 0092 2385     		strh	r3, [r4, #40]	@ movhi
 4177 0094 E66A     		ldr	r6, [r4, #44]
 4178 0096 D8E7     		b	.L523
 4179              	.L528:
ARM GAS  C:\Users\aticl\AppData\Local\Temp\ccNU6x1i.s 			page 73


 4180 0098 0023     		movs	r3, #0
 4181 009a E7E7     		b	.L525
 4182              	.L529:
 4183 009c 034B     		ldr	r3, .L531+4
 4184 009e E5E7     		b	.L525
 4185              	.L526:
 4186 00a0 0220     		movs	r0, #2
 4187 00a2 F3E7     		b	.L521
 4188              	.L527:
 4189 00a4 0220     		movs	r0, #2
 4190 00a6 F1E7     		b	.L521
 4191              	.L532:
 4192              		.align	2
 4193              	.L531:
 4194 00a8 00000000 		.word	I2C_Master_ISR_IT
 4195 00ac 00240080 		.word	-2147474432
 4197              		.section	.text.HAL_I2C_Master_Seq_Receive_DMA,"ax",%progbits
 4198              		.align	1
 4199              		.global	HAL_I2C_Master_Seq_Receive_DMA
 4200              		.syntax unified
 4201              		.thumb
 4202              		.thumb_func
 4204              	HAL_I2C_Master_Seq_Receive_DMA:
 4205              		@ args = 4, pretend = 0, frame = 0
 4206              		@ frame_needed = 0, uses_anonymous_args = 0
 4207 0000 2DE9F041 		push	{r4, r5, r6, r7, r8, lr}
 4208 0004 82B0     		sub	sp, sp, #8
 4209 0006 0E46     		mov	r6, r1
 4210 0008 1546     		mov	r5, r2
 4211 000a 089A     		ldr	r2, [sp, #32]
 4212 000c 90F84110 		ldrb	r1, [r0, #65]	@ zero_extendqisi2
 4213 0010 2029     		cmp	r1, #32
 4214 0012 40F09D80 		bne	.L544
 4215 0016 0446     		mov	r4, r0
 4216 0018 90F84010 		ldrb	r1, [r0, #64]	@ zero_extendqisi2
 4217 001c 0129     		cmp	r1, #1
 4218 001e 00F09B80 		beq	.L545
 4219 0022 0121     		movs	r1, #1
 4220 0024 80F84010 		strb	r1, [r0, #64]
 4221 0028 2221     		movs	r1, #34
 4222 002a 80F84110 		strb	r1, [r0, #65]
 4223 002e 1021     		movs	r1, #16
 4224 0030 80F84210 		strb	r1, [r0, #66]
 4225 0034 0021     		movs	r1, #0
 4226 0036 4164     		str	r1, [r0, #68]
 4227 0038 4562     		str	r5, [r0, #36]
 4228 003a 4385     		strh	r3, [r0, #42]	@ movhi
 4229 003c C262     		str	r2, [r0, #44]
 4230 003e 474B     		ldr	r3, .L551
 4231 0040 4363     		str	r3, [r0, #52]
 4232 0042 438D     		ldrh	r3, [r0, #42]
 4233 0044 9BB2     		uxth	r3, r3
 4234 0046 FF2B     		cmp	r3, #255
 4235 0048 3AD9     		bls	.L535
 4236 004a FF23     		movs	r3, #255
 4237 004c 0385     		strh	r3, [r0, #40]	@ movhi
 4238 004e 4FF08077 		mov	r7, #16777216
ARM GAS  C:\Users\aticl\AppData\Local\Temp\ccNU6x1i.s 			page 74


 4239              	.L536:
 4240 0052 236B     		ldr	r3, [r4, #48]
 4241 0054 122B     		cmp	r3, #18
 4242 0056 04D1     		bne	.L537
 4243 0058 B2F52A4F 		cmp	r2, #43520
 4244 005c 18BF     		it	ne
 4245 005e AA2A     		cmpne	r2, #170
 4246 0060 32D1     		bne	.L546
 4247              	.L537:
 4248 0062 2046     		mov	r0, r4
 4249 0064 FFF7FEFF 		bl	I2C_ConvertOtherXferOptions
 4250 0068 638D     		ldrh	r3, [r4, #42]
 4251 006a 9BB2     		uxth	r3, r3
 4252 006c FF2B     		cmp	r3, #255
 4253 006e 2ED8     		bhi	.L547
 4254 0070 E76A     		ldr	r7, [r4, #44]
 4255 0072 DFF8F880 		ldr	r8, .L551+16
 4256              	.L538:
 4257 0076 228D     		ldrh	r2, [r4, #40]
 4258 0078 002A     		cmp	r2, #0
 4259 007a 55D0     		beq	.L539
 4260 007c E36B     		ldr	r3, [r4, #60]
 4261 007e 4BB3     		cbz	r3, .L540
 4262 0080 374A     		ldr	r2, .L551+4
 4263 0082 DA63     		str	r2, [r3, #60]
 4264 0084 E36B     		ldr	r3, [r4, #60]
 4265 0086 374A     		ldr	r2, .L551+8
 4266 0088 DA64     		str	r2, [r3, #76]
 4267 008a E26B     		ldr	r2, [r4, #60]
 4268 008c 0023     		movs	r3, #0
 4269 008e 1364     		str	r3, [r2, #64]
 4270 0090 E26B     		ldr	r2, [r4, #60]
 4271 0092 1365     		str	r3, [r2, #80]
 4272 0094 2168     		ldr	r1, [r4]
 4273 0096 238D     		ldrh	r3, [r4, #40]
 4274 0098 2A46     		mov	r2, r5
 4275 009a 2431     		adds	r1, r1, #36
 4276 009c E06B     		ldr	r0, [r4, #60]
 4277 009e FFF7FEFF 		bl	HAL_DMA_Start_IT
 4278 00a2 28B3     		cbz	r0, .L550
 4279 00a4 2023     		movs	r3, #32
 4280 00a6 84F84130 		strb	r3, [r4, #65]
 4281 00aa 0022     		movs	r2, #0
 4282 00ac 84F84220 		strb	r2, [r4, #66]
 4283 00b0 636C     		ldr	r3, [r4, #68]
 4284 00b2 43F01003 		orr	r3, r3, #16
 4285 00b6 6364     		str	r3, [r4, #68]
 4286 00b8 84F84020 		strb	r2, [r4, #64]
 4287 00bc 0120     		movs	r0, #1
 4288 00be 48E0     		b	.L534
 4289              	.L535:
 4290 00c0 438D     		ldrh	r3, [r0, #42]
 4291 00c2 0385     		strh	r3, [r0, #40]	@ movhi
 4292 00c4 C76A     		ldr	r7, [r0, #44]
 4293 00c6 C4E7     		b	.L536
 4294              	.L546:
 4295 00c8 4FF00008 		mov	r8, #0
ARM GAS  C:\Users\aticl\AppData\Local\Temp\ccNU6x1i.s 			page 75


 4296 00cc D3E7     		b	.L538
 4297              	.L547:
 4298 00ce DFF89C80 		ldr	r8, .L551+16
 4299 00d2 D0E7     		b	.L538
 4300              	.L540:
 4301 00d4 2023     		movs	r3, #32
 4302 00d6 84F84130 		strb	r3, [r4, #65]
 4303 00da 0022     		movs	r2, #0
 4304 00dc 84F84220 		strb	r2, [r4, #66]
 4305 00e0 636C     		ldr	r3, [r4, #68]
 4306 00e2 43F08003 		orr	r3, r3, #128
 4307 00e6 6364     		str	r3, [r4, #68]
 4308 00e8 84F84020 		strb	r2, [r4, #64]
 4309 00ec 0120     		movs	r0, #1
 4310 00ee 30E0     		b	.L534
 4311              	.L550:
 4312 00f0 CDF80080 		str	r8, [sp]
 4313 00f4 3B46     		mov	r3, r7
 4314 00f6 94F82820 		ldrb	r2, [r4, #40]	@ zero_extendqisi2
 4315 00fa 3146     		mov	r1, r6
 4316 00fc 2046     		mov	r0, r4
 4317 00fe FFF7FEFF 		bl	I2C_TransferConfig
 4318 0102 638D     		ldrh	r3, [r4, #42]
 4319 0104 9BB2     		uxth	r3, r3
 4320 0106 228D     		ldrh	r2, [r4, #40]
 4321 0108 9B1A     		subs	r3, r3, r2
 4322 010a 9BB2     		uxth	r3, r3
 4323 010c 6385     		strh	r3, [r4, #42]	@ movhi
 4324 010e 0023     		movs	r3, #0
 4325 0110 84F84030 		strb	r3, [r4, #64]
 4326 0114 1021     		movs	r1, #16
 4327 0116 2046     		mov	r0, r4
 4328 0118 FFF7FEFF 		bl	I2C_Enable_IRQ
 4329 011c 2268     		ldr	r2, [r4]
 4330 011e 1368     		ldr	r3, [r2]
 4331 0120 43F40043 		orr	r3, r3, #32768
 4332 0124 1360     		str	r3, [r2]
 4333 0126 11E0     		b	.L543
 4334              	.L539:
 4335 0128 0F4B     		ldr	r3, .L551+12
 4336 012a 6363     		str	r3, [r4, #52]
 4337 012c 0F4B     		ldr	r3, .L551+16
 4338 012e 0093     		str	r3, [sp]
 4339 0130 4FF00073 		mov	r3, #33554432
 4340 0134 D2B2     		uxtb	r2, r2
 4341 0136 3146     		mov	r1, r6
 4342 0138 2046     		mov	r0, r4
 4343 013a FFF7FEFF 		bl	I2C_TransferConfig
 4344 013e 0023     		movs	r3, #0
 4345 0140 84F84030 		strb	r3, [r4, #64]
 4346 0144 0221     		movs	r1, #2
 4347 0146 2046     		mov	r0, r4
 4348 0148 FFF7FEFF 		bl	I2C_Enable_IRQ
 4349              	.L543:
 4350 014c 0020     		movs	r0, #0
 4351 014e 00E0     		b	.L534
 4352              	.L544:
ARM GAS  C:\Users\aticl\AppData\Local\Temp\ccNU6x1i.s 			page 76


 4353 0150 0220     		movs	r0, #2
 4354              	.L534:
 4355 0152 02B0     		add	sp, sp, #8
 4356              		@ sp needed
 4357 0154 BDE8F081 		pop	{r4, r5, r6, r7, r8, pc}
 4358              	.L545:
 4359 0158 0220     		movs	r0, #2
 4360 015a FAE7     		b	.L534
 4361              	.L552:
 4362              		.align	2
 4363              	.L551:
 4364 015c 00000000 		.word	I2C_Master_ISR_DMA
 4365 0160 00000000 		.word	I2C_DMAMasterReceiveCplt
 4366 0164 00000000 		.word	I2C_DMAError
 4367 0168 00000000 		.word	I2C_Master_ISR_IT
 4368 016c 00240080 		.word	-2147474432
 4370              		.section	.text.HAL_I2C_Slave_Seq_Transmit_IT,"ax",%progbits
 4371              		.align	1
 4372              		.global	HAL_I2C_Slave_Seq_Transmit_IT
 4373              		.syntax unified
 4374              		.thumb
 4375              		.thumb_func
 4377              	HAL_I2C_Slave_Seq_Transmit_IT:
 4378              		@ args = 0, pretend = 0, frame = 0
 4379              		@ frame_needed = 0, uses_anonymous_args = 0
 4380 0000 F8B5     		push	{r3, r4, r5, r6, r7, lr}
 4381 0002 0446     		mov	r4, r0
 4382 0004 90F84100 		ldrb	r0, [r0, #65]	@ zero_extendqisi2
 4383 0008 00F02800 		and	r0, r0, #40
 4384 000c 2828     		cmp	r0, #40
 4385 000e 5FD1     		bne	.L558
 4386 0010 0F46     		mov	r7, r1
 4387 0012 1646     		mov	r6, r2
 4388 0014 1D46     		mov	r5, r3
 4389 0016 002A     		cmp	r2, #0
 4390 0018 18BF     		it	ne
 4391 001a 0029     		cmpne	r1, #0
 4392 001c 04D1     		bne	.L555
 4393 001e 4FF40073 		mov	r3, #512
 4394 0022 6364     		str	r3, [r4, #68]
 4395 0024 0120     		movs	r0, #1
 4396 0026 54E0     		b	.L554
 4397              	.L555:
 4398 0028 48F20101 		movw	r1, #32769
 4399 002c 2046     		mov	r0, r4
 4400 002e FFF7FEFF 		bl	I2C_Disable_IRQ
 4401 0032 94F84030 		ldrb	r3, [r4, #64]	@ zero_extendqisi2
 4402 0036 012B     		cmp	r3, #1
 4403 0038 4CD0     		beq	.L559
 4404 003a 0123     		movs	r3, #1
 4405 003c 84F84030 		strb	r3, [r4, #64]
 4406 0040 94F84130 		ldrb	r3, [r4, #65]	@ zero_extendqisi2
 4407 0044 2A2B     		cmp	r3, #42
 4408 0046 28D0     		beq	.L561
 4409              	.L556:
 4410 0048 2923     		movs	r3, #41
 4411 004a 84F84130 		strb	r3, [r4, #65]
ARM GAS  C:\Users\aticl\AppData\Local\Temp\ccNU6x1i.s 			page 77


 4412 004e 2023     		movs	r3, #32
 4413 0050 84F84230 		strb	r3, [r4, #66]
 4414 0054 0023     		movs	r3, #0
 4415 0056 6364     		str	r3, [r4, #68]
 4416 0058 2268     		ldr	r2, [r4]
 4417 005a 5368     		ldr	r3, [r2, #4]
 4418 005c 23F40043 		bic	r3, r3, #32768
 4419 0060 5360     		str	r3, [r2, #4]
 4420 0062 6762     		str	r7, [r4, #36]
 4421 0064 6685     		strh	r6, [r4, #42]	@ movhi
 4422 0066 638D     		ldrh	r3, [r4, #42]
 4423 0068 2385     		strh	r3, [r4, #40]	@ movhi
 4424 006a E562     		str	r5, [r4, #44]
 4425 006c 1A4B     		ldr	r3, .L562
 4426 006e 6363     		str	r3, [r4, #52]
 4427 0070 2268     		ldr	r2, [r4]
 4428 0072 9369     		ldr	r3, [r2, #24]
 4429 0074 03F00803 		and	r3, r3, #8
 4430 0078 9169     		ldr	r1, [r2, #24]
 4431 007a 11F4803F 		tst	r1, #65536
 4432 007e 02D0     		beq	.L557
 4433 0080 0BB1     		cbz	r3, .L557
 4434 0082 0823     		movs	r3, #8
 4435 0084 D361     		str	r3, [r2, #28]
 4436              	.L557:
 4437 0086 0025     		movs	r5, #0
 4438 0088 84F84050 		strb	r5, [r4, #64]
 4439 008c 48F20101 		movw	r1, #32769
 4440 0090 2046     		mov	r0, r4
 4441 0092 FFF7FEFF 		bl	I2C_Enable_IRQ
 4442 0096 2846     		mov	r0, r5
 4443 0098 1BE0     		b	.L554
 4444              	.L561:
 4445 009a 0221     		movs	r1, #2
 4446 009c 2046     		mov	r0, r4
 4447 009e FFF7FEFF 		bl	I2C_Disable_IRQ
 4448 00a2 2368     		ldr	r3, [r4]
 4449 00a4 1A68     		ldr	r2, [r3]
 4450 00a6 12F4004F 		tst	r2, #32768
 4451 00aa CDD0     		beq	.L556
 4452 00ac 1A68     		ldr	r2, [r3]
 4453 00ae 22F40042 		bic	r2, r2, #32768
 4454 00b2 1A60     		str	r2, [r3]
 4455 00b4 E36B     		ldr	r3, [r4, #60]
 4456 00b6 002B     		cmp	r3, #0
 4457 00b8 C6D0     		beq	.L556
 4458 00ba 084A     		ldr	r2, .L562+4
 4459 00bc 1A65     		str	r2, [r3, #80]
 4460 00be E06B     		ldr	r0, [r4, #60]
 4461 00c0 FFF7FEFF 		bl	HAL_DMA_Abort_IT
 4462 00c4 0028     		cmp	r0, #0
 4463 00c6 BFD0     		beq	.L556
 4464 00c8 E06B     		ldr	r0, [r4, #60]
 4465 00ca 036D     		ldr	r3, [r0, #80]
 4466 00cc 9847     		blx	r3
 4467 00ce BBE7     		b	.L556
 4468              	.L558:
ARM GAS  C:\Users\aticl\AppData\Local\Temp\ccNU6x1i.s 			page 78


 4469 00d0 0120     		movs	r0, #1
 4470              	.L554:
 4471 00d2 F8BD     		pop	{r3, r4, r5, r6, r7, pc}
 4472              	.L559:
 4473 00d4 0220     		movs	r0, #2
 4474 00d6 FCE7     		b	.L554
 4475              	.L563:
 4476              		.align	2
 4477              	.L562:
 4478 00d8 00000000 		.word	I2C_Slave_ISR_IT
 4479 00dc 00000000 		.word	I2C_DMAAbort
 4481              		.section	.text.HAL_I2C_Slave_Seq_Transmit_DMA,"ax",%progbits
 4482              		.align	1
 4483              		.global	HAL_I2C_Slave_Seq_Transmit_DMA
 4484              		.syntax unified
 4485              		.thumb
 4486              		.thumb_func
 4488              	HAL_I2C_Slave_Seq_Transmit_DMA:
 4489              		@ args = 0, pretend = 0, frame = 0
 4490              		@ frame_needed = 0, uses_anonymous_args = 0
 4491 0000 F8B5     		push	{r3, r4, r5, r6, r7, lr}
 4492 0002 0446     		mov	r4, r0
 4493 0004 90F84100 		ldrb	r0, [r0, #65]	@ zero_extendqisi2
 4494 0008 00F02800 		and	r0, r0, #40
 4495 000c 2828     		cmp	r0, #40
 4496 000e 40F0BE80 		bne	.L574
 4497 0012 0F46     		mov	r7, r1
 4498 0014 1646     		mov	r6, r2
 4499 0016 1D46     		mov	r5, r3
 4500 0018 002A     		cmp	r2, #0
 4501 001a 18BF     		it	ne
 4502 001c 0029     		cmpne	r1, #0
 4503 001e 4DD0     		beq	.L578
 4504 0020 94F84030 		ldrb	r3, [r4, #64]	@ zero_extendqisi2
 4505 0024 012B     		cmp	r3, #1
 4506 0026 00F0B580 		beq	.L575
 4507 002a 0123     		movs	r3, #1
 4508 002c 84F84030 		strb	r3, [r4, #64]
 4509 0030 48F20101 		movw	r1, #32769
 4510 0034 2046     		mov	r0, r4
 4511 0036 FFF7FEFF 		bl	I2C_Disable_IRQ
 4512 003a 94F84130 		ldrb	r3, [r4, #65]	@ zero_extendqisi2
 4513 003e 2A2B     		cmp	r3, #42
 4514 0040 41D0     		beq	.L579
 4515 0042 94F84130 		ldrb	r3, [r4, #65]	@ zero_extendqisi2
 4516 0046 292B     		cmp	r3, #41
 4517 0048 59D0     		beq	.L580
 4518              	.L568:
 4519 004a 2923     		movs	r3, #41
 4520 004c 84F84130 		strb	r3, [r4, #65]
 4521 0050 2023     		movs	r3, #32
 4522 0052 84F84230 		strb	r3, [r4, #66]
 4523 0056 0023     		movs	r3, #0
 4524 0058 6364     		str	r3, [r4, #68]
 4525 005a 2268     		ldr	r2, [r4]
 4526 005c 5368     		ldr	r3, [r2, #4]
 4527 005e 23F40043 		bic	r3, r3, #32768
ARM GAS  C:\Users\aticl\AppData\Local\Temp\ccNU6x1i.s 			page 79


 4528 0062 5360     		str	r3, [r2, #4]
 4529 0064 6762     		str	r7, [r4, #36]
 4530 0066 6685     		strh	r6, [r4, #42]	@ movhi
 4531 0068 638D     		ldrh	r3, [r4, #42]
 4532 006a 2385     		strh	r3, [r4, #40]	@ movhi
 4533 006c E562     		str	r5, [r4, #44]
 4534 006e 4A4B     		ldr	r3, .L581
 4535 0070 6363     		str	r3, [r4, #52]
 4536 0072 A36B     		ldr	r3, [r4, #56]
 4537 0074 002B     		cmp	r3, #0
 4538 0076 59D0     		beq	.L569
 4539 0078 484A     		ldr	r2, .L581+4
 4540 007a DA63     		str	r2, [r3, #60]
 4541 007c A36B     		ldr	r3, [r4, #56]
 4542 007e 484A     		ldr	r2, .L581+8
 4543 0080 DA64     		str	r2, [r3, #76]
 4544 0082 A26B     		ldr	r2, [r4, #56]
 4545 0084 0023     		movs	r3, #0
 4546 0086 1364     		str	r3, [r2, #64]
 4547 0088 A26B     		ldr	r2, [r4, #56]
 4548 008a 1365     		str	r3, [r2, #80]
 4549 008c 2268     		ldr	r2, [r4]
 4550 008e 238D     		ldrh	r3, [r4, #40]
 4551 0090 2832     		adds	r2, r2, #40
 4552 0092 3946     		mov	r1, r7
 4553 0094 A06B     		ldr	r0, [r4, #56]
 4554 0096 FFF7FEFF 		bl	HAL_DMA_Start_IT
 4555 009a 0546     		mov	r5, r0
 4556 009c 0028     		cmp	r0, #0
 4557 009e 53D0     		beq	.L570
 4558 00a0 2823     		movs	r3, #40
 4559 00a2 84F84130 		strb	r3, [r4, #65]
 4560 00a6 0022     		movs	r2, #0
 4561 00a8 84F84220 		strb	r2, [r4, #66]
 4562 00ac 636C     		ldr	r3, [r4, #68]
 4563 00ae 43F01003 		orr	r3, r3, #16
 4564 00b2 6364     		str	r3, [r4, #68]
 4565 00b4 84F84020 		strb	r2, [r4, #64]
 4566 00b8 0125     		movs	r5, #1
 4567 00ba 69E0     		b	.L565
 4568              	.L578:
 4569 00bc 4FF40073 		mov	r3, #512
 4570 00c0 6364     		str	r3, [r4, #68]
 4571 00c2 0125     		movs	r5, #1
 4572 00c4 64E0     		b	.L565
 4573              	.L579:
 4574 00c6 0221     		movs	r1, #2
 4575 00c8 2046     		mov	r0, r4
 4576 00ca FFF7FEFF 		bl	I2C_Disable_IRQ
 4577 00ce 2368     		ldr	r3, [r4]
 4578 00d0 1A68     		ldr	r2, [r3]
 4579 00d2 12F4004F 		tst	r2, #32768
 4580 00d6 B8D0     		beq	.L568
 4581 00d8 E26B     		ldr	r2, [r4, #60]
 4582 00da 002A     		cmp	r2, #0
 4583 00dc B5D0     		beq	.L568
 4584 00de 1A68     		ldr	r2, [r3]
ARM GAS  C:\Users\aticl\AppData\Local\Temp\ccNU6x1i.s 			page 80


 4585 00e0 22F40042 		bic	r2, r2, #32768
 4586 00e4 1A60     		str	r2, [r3]
 4587 00e6 E36B     		ldr	r3, [r4, #60]
 4588 00e8 2E4A     		ldr	r2, .L581+12
 4589 00ea 1A65     		str	r2, [r3, #80]
 4590 00ec E06B     		ldr	r0, [r4, #60]
 4591 00ee FFF7FEFF 		bl	HAL_DMA_Abort_IT
 4592 00f2 0028     		cmp	r0, #0
 4593 00f4 A9D0     		beq	.L568
 4594 00f6 E06B     		ldr	r0, [r4, #60]
 4595 00f8 036D     		ldr	r3, [r0, #80]
 4596 00fa 9847     		blx	r3
 4597 00fc A5E7     		b	.L568
 4598              	.L580:
 4599 00fe 2368     		ldr	r3, [r4]
 4600 0100 1A68     		ldr	r2, [r3]
 4601 0102 12F4804F 		tst	r2, #16384
 4602 0106 A0D0     		beq	.L568
 4603 0108 1A68     		ldr	r2, [r3]
 4604 010a 22F48042 		bic	r2, r2, #16384
 4605 010e 1A60     		str	r2, [r3]
 4606 0110 A36B     		ldr	r3, [r4, #56]
 4607 0112 002B     		cmp	r3, #0
 4608 0114 99D0     		beq	.L568
 4609 0116 234A     		ldr	r2, .L581+12
 4610 0118 1A65     		str	r2, [r3, #80]
 4611 011a A06B     		ldr	r0, [r4, #56]
 4612 011c FFF7FEFF 		bl	HAL_DMA_Abort_IT
 4613 0120 0028     		cmp	r0, #0
 4614 0122 92D0     		beq	.L568
 4615 0124 A06B     		ldr	r0, [r4, #56]
 4616 0126 036D     		ldr	r3, [r0, #80]
 4617 0128 9847     		blx	r3
 4618 012a 8EE7     		b	.L568
 4619              	.L569:
 4620 012c 2823     		movs	r3, #40
 4621 012e 84F84130 		strb	r3, [r4, #65]
 4622 0132 0022     		movs	r2, #0
 4623 0134 84F84220 		strb	r2, [r4, #66]
 4624 0138 636C     		ldr	r3, [r4, #68]
 4625 013a 43F08003 		orr	r3, r3, #128
 4626 013e 6364     		str	r3, [r4, #68]
 4627 0140 84F84020 		strb	r2, [r4, #64]
 4628 0144 0125     		movs	r5, #1
 4629 0146 23E0     		b	.L565
 4630              	.L570:
 4631 0148 638D     		ldrh	r3, [r4, #42]
 4632 014a 9BB2     		uxth	r3, r3
 4633 014c 228D     		ldrh	r2, [r4, #40]
 4634 014e 9B1A     		subs	r3, r3, r2
 4635 0150 9BB2     		uxth	r3, r3
 4636 0152 6385     		strh	r3, [r4, #42]	@ movhi
 4637 0154 0023     		movs	r3, #0
 4638 0156 2385     		strh	r3, [r4, #40]	@ movhi
 4639 0158 2268     		ldr	r2, [r4]
 4640 015a 9369     		ldr	r3, [r2, #24]
 4641 015c 03F00803 		and	r3, r3, #8
ARM GAS  C:\Users\aticl\AppData\Local\Temp\ccNU6x1i.s 			page 81


 4642 0160 9169     		ldr	r1, [r2, #24]
 4643 0162 11F4803F 		tst	r1, #65536
 4644 0166 0DD1     		bne	.L572
 4645              	.L573:
 4646 0168 0023     		movs	r3, #0
 4647 016a 84F84030 		strb	r3, [r4, #64]
 4648 016e 2268     		ldr	r2, [r4]
 4649 0170 1368     		ldr	r3, [r2]
 4650 0172 43F48043 		orr	r3, r3, #16384
 4651 0176 1360     		str	r3, [r2]
 4652 0178 4FF40041 		mov	r1, #32768
 4653 017c 2046     		mov	r0, r4
 4654 017e FFF7FEFF 		bl	I2C_Enable_IRQ
 4655 0182 05E0     		b	.L565
 4656              	.L572:
 4657 0184 002B     		cmp	r3, #0
 4658 0186 EFD0     		beq	.L573
 4659 0188 0823     		movs	r3, #8
 4660 018a D361     		str	r3, [r2, #28]
 4661 018c ECE7     		b	.L573
 4662              	.L574:
 4663 018e 0125     		movs	r5, #1
 4664              	.L565:
 4665 0190 2846     		mov	r0, r5
 4666 0192 F8BD     		pop	{r3, r4, r5, r6, r7, pc}
 4667              	.L575:
 4668 0194 0225     		movs	r5, #2
 4669 0196 FBE7     		b	.L565
 4670              	.L582:
 4671              		.align	2
 4672              	.L581:
 4673 0198 00000000 		.word	I2C_Slave_ISR_DMA
 4674 019c 00000000 		.word	I2C_DMASlaveTransmitCplt
 4675 01a0 00000000 		.word	I2C_DMAError
 4676 01a4 00000000 		.word	I2C_DMAAbort
 4678              		.section	.text.HAL_I2C_Slave_Seq_Receive_IT,"ax",%progbits
 4679              		.align	1
 4680              		.global	HAL_I2C_Slave_Seq_Receive_IT
 4681              		.syntax unified
 4682              		.thumb
 4683              		.thumb_func
 4685              	HAL_I2C_Slave_Seq_Receive_IT:
 4686              		@ args = 0, pretend = 0, frame = 0
 4687              		@ frame_needed = 0, uses_anonymous_args = 0
 4688 0000 F8B5     		push	{r3, r4, r5, r6, r7, lr}
 4689 0002 0446     		mov	r4, r0
 4690 0004 90F84100 		ldrb	r0, [r0, #65]	@ zero_extendqisi2
 4691 0008 00F02800 		and	r0, r0, #40
 4692 000c 2828     		cmp	r0, #40
 4693 000e 5FD1     		bne	.L588
 4694 0010 0F46     		mov	r7, r1
 4695 0012 1646     		mov	r6, r2
 4696 0014 1D46     		mov	r5, r3
 4697 0016 002A     		cmp	r2, #0
 4698 0018 18BF     		it	ne
 4699 001a 0029     		cmpne	r1, #0
 4700 001c 04D1     		bne	.L585
ARM GAS  C:\Users\aticl\AppData\Local\Temp\ccNU6x1i.s 			page 82


 4701 001e 4FF40073 		mov	r3, #512
 4702 0022 6364     		str	r3, [r4, #68]
 4703 0024 0120     		movs	r0, #1
 4704 0026 54E0     		b	.L584
 4705              	.L585:
 4706 0028 48F20201 		movw	r1, #32770
 4707 002c 2046     		mov	r0, r4
 4708 002e FFF7FEFF 		bl	I2C_Disable_IRQ
 4709 0032 94F84030 		ldrb	r3, [r4, #64]	@ zero_extendqisi2
 4710 0036 012B     		cmp	r3, #1
 4711 0038 4CD0     		beq	.L589
 4712 003a 0123     		movs	r3, #1
 4713 003c 84F84030 		strb	r3, [r4, #64]
 4714 0040 94F84130 		ldrb	r3, [r4, #65]	@ zero_extendqisi2
 4715 0044 292B     		cmp	r3, #41
 4716 0046 28D0     		beq	.L591
 4717              	.L586:
 4718 0048 2A23     		movs	r3, #42
 4719 004a 84F84130 		strb	r3, [r4, #65]
 4720 004e 2023     		movs	r3, #32
 4721 0050 84F84230 		strb	r3, [r4, #66]
 4722 0054 0023     		movs	r3, #0
 4723 0056 6364     		str	r3, [r4, #68]
 4724 0058 2268     		ldr	r2, [r4]
 4725 005a 5368     		ldr	r3, [r2, #4]
 4726 005c 23F40043 		bic	r3, r3, #32768
 4727 0060 5360     		str	r3, [r2, #4]
 4728 0062 6762     		str	r7, [r4, #36]
 4729 0064 6685     		strh	r6, [r4, #42]	@ movhi
 4730 0066 638D     		ldrh	r3, [r4, #42]
 4731 0068 2385     		strh	r3, [r4, #40]	@ movhi
 4732 006a E562     		str	r5, [r4, #44]
 4733 006c 1A4B     		ldr	r3, .L592
 4734 006e 6363     		str	r3, [r4, #52]
 4735 0070 2268     		ldr	r2, [r4]
 4736 0072 9369     		ldr	r3, [r2, #24]
 4737 0074 03F00803 		and	r3, r3, #8
 4738 0078 9169     		ldr	r1, [r2, #24]
 4739 007a 11F4803F 		tst	r1, #65536
 4740 007e 02D1     		bne	.L587
 4741 0080 0BB1     		cbz	r3, .L587
 4742 0082 0823     		movs	r3, #8
 4743 0084 D361     		str	r3, [r2, #28]
 4744              	.L587:
 4745 0086 0025     		movs	r5, #0
 4746 0088 84F84050 		strb	r5, [r4, #64]
 4747 008c 48F20201 		movw	r1, #32770
 4748 0090 2046     		mov	r0, r4
 4749 0092 FFF7FEFF 		bl	I2C_Enable_IRQ
 4750 0096 2846     		mov	r0, r5
 4751 0098 1BE0     		b	.L584
 4752              	.L591:
 4753 009a 0121     		movs	r1, #1
 4754 009c 2046     		mov	r0, r4
 4755 009e FFF7FEFF 		bl	I2C_Disable_IRQ
 4756 00a2 2368     		ldr	r3, [r4]
 4757 00a4 1A68     		ldr	r2, [r3]
ARM GAS  C:\Users\aticl\AppData\Local\Temp\ccNU6x1i.s 			page 83


 4758 00a6 12F4804F 		tst	r2, #16384
 4759 00aa CDD0     		beq	.L586
 4760 00ac 1A68     		ldr	r2, [r3]
 4761 00ae 22F48042 		bic	r2, r2, #16384
 4762 00b2 1A60     		str	r2, [r3]
 4763 00b4 A36B     		ldr	r3, [r4, #56]
 4764 00b6 002B     		cmp	r3, #0
 4765 00b8 C6D0     		beq	.L586
 4766 00ba 084A     		ldr	r2, .L592+4
 4767 00bc 1A65     		str	r2, [r3, #80]
 4768 00be A06B     		ldr	r0, [r4, #56]
 4769 00c0 FFF7FEFF 		bl	HAL_DMA_Abort_IT
 4770 00c4 0028     		cmp	r0, #0
 4771 00c6 BFD0     		beq	.L586
 4772 00c8 A06B     		ldr	r0, [r4, #56]
 4773 00ca 036D     		ldr	r3, [r0, #80]
 4774 00cc 9847     		blx	r3
 4775 00ce BBE7     		b	.L586
 4776              	.L588:
 4777 00d0 0120     		movs	r0, #1
 4778              	.L584:
 4779 00d2 F8BD     		pop	{r3, r4, r5, r6, r7, pc}
 4780              	.L589:
 4781 00d4 0220     		movs	r0, #2
 4782 00d6 FCE7     		b	.L584
 4783              	.L593:
 4784              		.align	2
 4785              	.L592:
 4786 00d8 00000000 		.word	I2C_Slave_ISR_IT
 4787 00dc 00000000 		.word	I2C_DMAAbort
 4789              		.section	.text.HAL_I2C_Slave_Seq_Receive_DMA,"ax",%progbits
 4790              		.align	1
 4791              		.global	HAL_I2C_Slave_Seq_Receive_DMA
 4792              		.syntax unified
 4793              		.thumb
 4794              		.thumb_func
 4796              	HAL_I2C_Slave_Seq_Receive_DMA:
 4797              		@ args = 0, pretend = 0, frame = 0
 4798              		@ frame_needed = 0, uses_anonymous_args = 0
 4799 0000 F8B5     		push	{r3, r4, r5, r6, r7, lr}
 4800 0002 0446     		mov	r4, r0
 4801 0004 90F84100 		ldrb	r0, [r0, #65]	@ zero_extendqisi2
 4802 0008 00F02800 		and	r0, r0, #40
 4803 000c 2828     		cmp	r0, #40
 4804 000e 40F0BE80 		bne	.L604
 4805 0012 0F46     		mov	r7, r1
 4806 0014 1646     		mov	r6, r2
 4807 0016 1D46     		mov	r5, r3
 4808 0018 002A     		cmp	r2, #0
 4809 001a 18BF     		it	ne
 4810 001c 0029     		cmpne	r1, #0
 4811 001e 04D1     		bne	.L596
 4812 0020 4FF40073 		mov	r3, #512
 4813 0024 6364     		str	r3, [r4, #68]
 4814 0026 0125     		movs	r5, #1
 4815 0028 B2E0     		b	.L595
 4816              	.L596:
ARM GAS  C:\Users\aticl\AppData\Local\Temp\ccNU6x1i.s 			page 84


 4817 002a 48F20201 		movw	r1, #32770
 4818 002e 2046     		mov	r0, r4
 4819 0030 FFF7FEFF 		bl	I2C_Disable_IRQ
 4820 0034 94F84030 		ldrb	r3, [r4, #64]	@ zero_extendqisi2
 4821 0038 012B     		cmp	r3, #1
 4822 003a 00F0AB80 		beq	.L605
 4823 003e 0123     		movs	r3, #1
 4824 0040 84F84030 		strb	r3, [r4, #64]
 4825 0044 94F84130 		ldrb	r3, [r4, #65]	@ zero_extendqisi2
 4826 0048 292B     		cmp	r3, #41
 4827 004a 3CD0     		beq	.L608
 4828 004c 94F84130 		ldrb	r3, [r4, #65]	@ zero_extendqisi2
 4829 0050 2A2B     		cmp	r3, #42
 4830 0052 54D0     		beq	.L609
 4831              	.L598:
 4832 0054 2A23     		movs	r3, #42
 4833 0056 84F84130 		strb	r3, [r4, #65]
 4834 005a 2023     		movs	r3, #32
 4835 005c 84F84230 		strb	r3, [r4, #66]
 4836 0060 0023     		movs	r3, #0
 4837 0062 6364     		str	r3, [r4, #68]
 4838 0064 2268     		ldr	r2, [r4]
 4839 0066 5368     		ldr	r3, [r2, #4]
 4840 0068 23F40043 		bic	r3, r3, #32768
 4841 006c 5360     		str	r3, [r2, #4]
 4842 006e 6762     		str	r7, [r4, #36]
 4843 0070 6685     		strh	r6, [r4, #42]	@ movhi
 4844 0072 638D     		ldrh	r3, [r4, #42]
 4845 0074 2385     		strh	r3, [r4, #40]	@ movhi
 4846 0076 E562     		str	r5, [r4, #44]
 4847 0078 474B     		ldr	r3, .L610
 4848 007a 6363     		str	r3, [r4, #52]
 4849 007c E36B     		ldr	r3, [r4, #60]
 4850 007e 002B     		cmp	r3, #0
 4851 0080 54D0     		beq	.L599
 4852 0082 464A     		ldr	r2, .L610+4
 4853 0084 DA63     		str	r2, [r3, #60]
 4854 0086 E36B     		ldr	r3, [r4, #60]
 4855 0088 454A     		ldr	r2, .L610+8
 4856 008a DA64     		str	r2, [r3, #76]
 4857 008c E26B     		ldr	r2, [r4, #60]
 4858 008e 0023     		movs	r3, #0
 4859 0090 1364     		str	r3, [r2, #64]
 4860 0092 E26B     		ldr	r2, [r4, #60]
 4861 0094 1365     		str	r3, [r2, #80]
 4862 0096 2168     		ldr	r1, [r4]
 4863 0098 238D     		ldrh	r3, [r4, #40]
 4864 009a 3A46     		mov	r2, r7
 4865 009c 2431     		adds	r1, r1, #36
 4866 009e E06B     		ldr	r0, [r4, #60]
 4867 00a0 FFF7FEFF 		bl	HAL_DMA_Start_IT
 4868 00a4 0546     		mov	r5, r0
 4869 00a6 0028     		cmp	r0, #0
 4870 00a8 4ED0     		beq	.L600
 4871 00aa 2823     		movs	r3, #40
 4872 00ac 84F84130 		strb	r3, [r4, #65]
 4873 00b0 0022     		movs	r2, #0
ARM GAS  C:\Users\aticl\AppData\Local\Temp\ccNU6x1i.s 			page 85


 4874 00b2 84F84220 		strb	r2, [r4, #66]
 4875 00b6 636C     		ldr	r3, [r4, #68]
 4876 00b8 43F01003 		orr	r3, r3, #16
 4877 00bc 6364     		str	r3, [r4, #68]
 4878 00be 84F84020 		strb	r2, [r4, #64]
 4879 00c2 0125     		movs	r5, #1
 4880 00c4 64E0     		b	.L595
 4881              	.L608:
 4882 00c6 0121     		movs	r1, #1
 4883 00c8 2046     		mov	r0, r4
 4884 00ca FFF7FEFF 		bl	I2C_Disable_IRQ
 4885 00ce 2368     		ldr	r3, [r4]
 4886 00d0 1A68     		ldr	r2, [r3]
 4887 00d2 12F4804F 		tst	r2, #16384
 4888 00d6 BDD0     		beq	.L598
 4889 00d8 A26B     		ldr	r2, [r4, #56]
 4890 00da 002A     		cmp	r2, #0
 4891 00dc BAD0     		beq	.L598
 4892 00de 1A68     		ldr	r2, [r3]
 4893 00e0 22F48042 		bic	r2, r2, #16384
 4894 00e4 1A60     		str	r2, [r3]
 4895 00e6 A36B     		ldr	r3, [r4, #56]
 4896 00e8 2E4A     		ldr	r2, .L610+12
 4897 00ea 1A65     		str	r2, [r3, #80]
 4898 00ec A06B     		ldr	r0, [r4, #56]
 4899 00ee FFF7FEFF 		bl	HAL_DMA_Abort_IT
 4900 00f2 0028     		cmp	r0, #0
 4901 00f4 AED0     		beq	.L598
 4902 00f6 A06B     		ldr	r0, [r4, #56]
 4903 00f8 036D     		ldr	r3, [r0, #80]
 4904 00fa 9847     		blx	r3
 4905 00fc AAE7     		b	.L598
 4906              	.L609:
 4907 00fe 2368     		ldr	r3, [r4]
 4908 0100 1A68     		ldr	r2, [r3]
 4909 0102 12F4004F 		tst	r2, #32768
 4910 0106 A5D0     		beq	.L598
 4911 0108 1A68     		ldr	r2, [r3]
 4912 010a 22F40042 		bic	r2, r2, #32768
 4913 010e 1A60     		str	r2, [r3]
 4914 0110 E36B     		ldr	r3, [r4, #60]
 4915 0112 002B     		cmp	r3, #0
 4916 0114 9ED0     		beq	.L598
 4917 0116 234A     		ldr	r2, .L610+12
 4918 0118 1A65     		str	r2, [r3, #80]
 4919 011a E06B     		ldr	r0, [r4, #60]
 4920 011c FFF7FEFF 		bl	HAL_DMA_Abort_IT
 4921 0120 0028     		cmp	r0, #0
 4922 0122 97D0     		beq	.L598
 4923 0124 E06B     		ldr	r0, [r4, #60]
 4924 0126 036D     		ldr	r3, [r0, #80]
 4925 0128 9847     		blx	r3
 4926 012a 93E7     		b	.L598
 4927              	.L599:
 4928 012c 2823     		movs	r3, #40
 4929 012e 84F84130 		strb	r3, [r4, #65]
 4930 0132 0022     		movs	r2, #0
ARM GAS  C:\Users\aticl\AppData\Local\Temp\ccNU6x1i.s 			page 86


 4931 0134 84F84220 		strb	r2, [r4, #66]
 4932 0138 636C     		ldr	r3, [r4, #68]
 4933 013a 43F08003 		orr	r3, r3, #128
 4934 013e 6364     		str	r3, [r4, #68]
 4935 0140 84F84020 		strb	r2, [r4, #64]
 4936 0144 0125     		movs	r5, #1
 4937 0146 23E0     		b	.L595
 4938              	.L600:
 4939 0148 638D     		ldrh	r3, [r4, #42]
 4940 014a 9BB2     		uxth	r3, r3
 4941 014c 228D     		ldrh	r2, [r4, #40]
 4942 014e 9B1A     		subs	r3, r3, r2
 4943 0150 9BB2     		uxth	r3, r3
 4944 0152 6385     		strh	r3, [r4, #42]	@ movhi
 4945 0154 0023     		movs	r3, #0
 4946 0156 2385     		strh	r3, [r4, #40]	@ movhi
 4947 0158 2268     		ldr	r2, [r4]
 4948 015a 9369     		ldr	r3, [r2, #24]
 4949 015c 03F00803 		and	r3, r3, #8
 4950 0160 9169     		ldr	r1, [r2, #24]
 4951 0162 11F4803F 		tst	r1, #65536
 4952 0166 0DD0     		beq	.L602
 4953              	.L603:
 4954 0168 0023     		movs	r3, #0
 4955 016a 84F84030 		strb	r3, [r4, #64]
 4956 016e 2268     		ldr	r2, [r4]
 4957 0170 1368     		ldr	r3, [r2]
 4958 0172 43F40043 		orr	r3, r3, #32768
 4959 0176 1360     		str	r3, [r2]
 4960 0178 48F20201 		movw	r1, #32770
 4961 017c 2046     		mov	r0, r4
 4962 017e FFF7FEFF 		bl	I2C_Enable_IRQ
 4963 0182 05E0     		b	.L595
 4964              	.L602:
 4965 0184 002B     		cmp	r3, #0
 4966 0186 EFD0     		beq	.L603
 4967 0188 0823     		movs	r3, #8
 4968 018a D361     		str	r3, [r2, #28]
 4969 018c ECE7     		b	.L603
 4970              	.L604:
 4971 018e 0125     		movs	r5, #1
 4972              	.L595:
 4973 0190 2846     		mov	r0, r5
 4974 0192 F8BD     		pop	{r3, r4, r5, r6, r7, pc}
 4975              	.L605:
 4976 0194 0225     		movs	r5, #2
 4977 0196 FBE7     		b	.L595
 4978              	.L611:
 4979              		.align	2
 4980              	.L610:
 4981 0198 00000000 		.word	I2C_Slave_ISR_DMA
 4982 019c 00000000 		.word	I2C_DMASlaveReceiveCplt
 4983 01a0 00000000 		.word	I2C_DMAError
 4984 01a4 00000000 		.word	I2C_DMAAbort
 4986              		.section	.text.HAL_I2C_EnableListen_IT,"ax",%progbits
 4987              		.align	1
 4988              		.global	HAL_I2C_EnableListen_IT
ARM GAS  C:\Users\aticl\AppData\Local\Temp\ccNU6x1i.s 			page 87


 4989              		.syntax unified
 4990              		.thumb
 4991              		.thumb_func
 4993              	HAL_I2C_EnableListen_IT:
 4994              		@ args = 0, pretend = 0, frame = 0
 4995              		@ frame_needed = 0, uses_anonymous_args = 0
 4996 0000 08B5     		push	{r3, lr}
 4997 0002 90F84130 		ldrb	r3, [r0, #65]	@ zero_extendqisi2
 4998 0006 202B     		cmp	r3, #32
 4999 0008 01D0     		beq	.L616
 5000 000a 0220     		movs	r0, #2
 5001              	.L613:
 5002 000c 08BD     		pop	{r3, pc}
 5003              	.L616:
 5004 000e 2823     		movs	r3, #40
 5005 0010 80F84130 		strb	r3, [r0, #65]
 5006 0014 034B     		ldr	r3, .L617
 5007 0016 4363     		str	r3, [r0, #52]
 5008 0018 4FF40041 		mov	r1, #32768
 5009 001c FFF7FEFF 		bl	I2C_Enable_IRQ
 5010 0020 0020     		movs	r0, #0
 5011 0022 F3E7     		b	.L613
 5012              	.L618:
 5013              		.align	2
 5014              	.L617:
 5015 0024 00000000 		.word	I2C_Slave_ISR_IT
 5017              		.section	.text.HAL_I2C_DisableListen_IT,"ax",%progbits
 5018              		.align	1
 5019              		.global	HAL_I2C_DisableListen_IT
 5020              		.syntax unified
 5021              		.thumb
 5022              		.thumb_func
 5024              	HAL_I2C_DisableListen_IT:
 5025              		@ args = 0, pretend = 0, frame = 0
 5026              		@ frame_needed = 0, uses_anonymous_args = 0
 5027 0000 90F84130 		ldrb	r3, [r0, #65]	@ zero_extendqisi2
 5028 0004 282B     		cmp	r3, #40
 5029 0006 01D0     		beq	.L626
 5030 0008 0220     		movs	r0, #2
 5031 000a 7047     		bx	lr
 5032              	.L626:
 5033 000c 10B5     		push	{r4, lr}
 5034 000e 90F84120 		ldrb	r2, [r0, #65]	@ zero_extendqisi2
 5035 0012 90F84230 		ldrb	r3, [r0, #66]	@ zero_extendqisi2
 5036 0016 02F00302 		and	r2, r2, #3
 5037 001a 1343     		orrs	r3, r3, r2
 5038 001c 0363     		str	r3, [r0, #48]
 5039 001e 2023     		movs	r3, #32
 5040 0020 80F84130 		strb	r3, [r0, #65]
 5041 0024 0024     		movs	r4, #0
 5042 0026 80F84240 		strb	r4, [r0, #66]
 5043 002a 4463     		str	r4, [r0, #52]
 5044 002c 4FF40041 		mov	r1, #32768
 5045 0030 FFF7FEFF 		bl	I2C_Disable_IRQ
 5046 0034 2046     		mov	r0, r4
 5047 0036 10BD     		pop	{r4, pc}
 5049              		.section	.text.HAL_I2C_Master_Abort_IT,"ax",%progbits
ARM GAS  C:\Users\aticl\AppData\Local\Temp\ccNU6x1i.s 			page 88


 5050              		.align	1
 5051              		.global	HAL_I2C_Master_Abort_IT
 5052              		.syntax unified
 5053              		.thumb
 5054              		.thumb_func
 5056              	HAL_I2C_Master_Abort_IT:
 5057              		@ args = 0, pretend = 0, frame = 0
 5058              		@ frame_needed = 0, uses_anonymous_args = 0
 5059 0000 90F84230 		ldrb	r3, [r0, #66]	@ zero_extendqisi2
 5060 0004 402B     		cmp	r3, #64
 5061 0006 18BF     		it	ne
 5062 0008 102B     		cmpne	r3, #16
 5063 000a 34D1     		bne	.L631
 5064 000c 30B5     		push	{r4, r5, lr}
 5065 000e 83B0     		sub	sp, sp, #12
 5066 0010 0446     		mov	r4, r0
 5067 0012 0D46     		mov	r5, r1
 5068 0014 90F84030 		ldrb	r3, [r0, #64]	@ zero_extendqisi2
 5069 0018 012B     		cmp	r3, #1
 5070 001a 2ED0     		beq	.L632
 5071 001c 0123     		movs	r3, #1
 5072 001e 80F84030 		strb	r3, [r0, #64]
 5073 0022 90F84130 		ldrb	r3, [r0, #65]	@ zero_extendqisi2
 5074 0026 212B     		cmp	r3, #33
 5075 0028 19D0     		beq	.L637
 5076 002a 90F84130 		ldrb	r3, [r0, #65]	@ zero_extendqisi2
 5077 002e 222B     		cmp	r3, #34
 5078 0030 1BD0     		beq	.L638
 5079              	.L630:
 5080 0032 6023     		movs	r3, #96
 5081 0034 84F84130 		strb	r3, [r4, #65]
 5082 0038 114B     		ldr	r3, .L639
 5083 003a 0093     		str	r3, [sp]
 5084 003c 4FF00073 		mov	r3, #33554432
 5085 0040 0122     		movs	r2, #1
 5086 0042 2946     		mov	r1, r5
 5087 0044 2046     		mov	r0, r4
 5088 0046 FFF7FEFF 		bl	I2C_TransferConfig
 5089 004a 0025     		movs	r5, #0
 5090 004c 84F84050 		strb	r5, [r4, #64]
 5091 0050 2021     		movs	r1, #32
 5092 0052 2046     		mov	r0, r4
 5093 0054 FFF7FEFF 		bl	I2C_Enable_IRQ
 5094 0058 2846     		mov	r0, r5
 5095              	.L628:
 5096 005a 03B0     		add	sp, sp, #12
 5097              		@ sp needed
 5098 005c 30BD     		pop	{r4, r5, pc}
 5099              	.L637:
 5100 005e 0121     		movs	r1, #1
 5101 0060 FFF7FEFF 		bl	I2C_Disable_IRQ
 5102 0064 1123     		movs	r3, #17
 5103 0066 2363     		str	r3, [r4, #48]
 5104 0068 E3E7     		b	.L630
 5105              	.L638:
 5106 006a 0221     		movs	r1, #2
 5107 006c FFF7FEFF 		bl	I2C_Disable_IRQ
ARM GAS  C:\Users\aticl\AppData\Local\Temp\ccNU6x1i.s 			page 89


 5108 0070 1223     		movs	r3, #18
 5109 0072 2363     		str	r3, [r4, #48]
 5110 0074 DDE7     		b	.L630
 5111              	.L631:
 5112 0076 0120     		movs	r0, #1
 5113 0078 7047     		bx	lr
 5114              	.L632:
 5115 007a 0220     		movs	r0, #2
 5116 007c EDE7     		b	.L628
 5117              	.L640:
 5118 007e 00BF     		.align	2
 5119              	.L639:
 5120 0080 00400080 		.word	-2147467264
 5122              		.section	.text.HAL_I2C_EV_IRQHandler,"ax",%progbits
 5123              		.align	1
 5124              		.global	HAL_I2C_EV_IRQHandler
 5125              		.syntax unified
 5126              		.thumb
 5127              		.thumb_func
 5129              	HAL_I2C_EV_IRQHandler:
 5130              		@ args = 0, pretend = 0, frame = 0
 5131              		@ frame_needed = 0, uses_anonymous_args = 0
 5132 0000 08B5     		push	{r3, lr}
 5133 0002 0368     		ldr	r3, [r0]
 5134 0004 9969     		ldr	r1, [r3, #24]
 5135 0006 1A68     		ldr	r2, [r3]
 5136 0008 436B     		ldr	r3, [r0, #52]
 5137 000a 03B1     		cbz	r3, .L641
 5138 000c 9847     		blx	r3
 5139              	.L641:
 5140 000e 08BD     		pop	{r3, pc}
 5142              		.section	.text.HAL_I2C_MasterTxCpltCallback,"ax",%progbits
 5143              		.align	1
 5144              		.weak	HAL_I2C_MasterTxCpltCallback
 5145              		.syntax unified
 5146              		.thumb
 5147              		.thumb_func
 5149              	HAL_I2C_MasterTxCpltCallback:
 5150              		@ args = 0, pretend = 0, frame = 0
 5151              		@ frame_needed = 0, uses_anonymous_args = 0
 5152              		@ link register save eliminated.
 5153 0000 7047     		bx	lr
 5155              		.section	.text.HAL_I2C_MasterRxCpltCallback,"ax",%progbits
 5156              		.align	1
 5157              		.weak	HAL_I2C_MasterRxCpltCallback
 5158              		.syntax unified
 5159              		.thumb
 5160              		.thumb_func
 5162              	HAL_I2C_MasterRxCpltCallback:
 5163              		@ args = 0, pretend = 0, frame = 0
 5164              		@ frame_needed = 0, uses_anonymous_args = 0
 5165              		@ link register save eliminated.
 5166 0000 7047     		bx	lr
 5168              		.section	.text.I2C_ITMasterSeqCplt,"ax",%progbits
 5169              		.align	1
 5170              		.syntax unified
 5171              		.thumb
ARM GAS  C:\Users\aticl\AppData\Local\Temp\ccNU6x1i.s 			page 90


 5172              		.thumb_func
 5174              	I2C_ITMasterSeqCplt:
 5175              		@ args = 0, pretend = 0, frame = 0
 5176              		@ frame_needed = 0, uses_anonymous_args = 0
 5177 0000 38B5     		push	{r3, r4, r5, lr}
 5178 0002 0446     		mov	r4, r0
 5179 0004 0023     		movs	r3, #0
 5180 0006 80F84230 		strb	r3, [r0, #66]
 5181 000a 90F84130 		ldrb	r3, [r0, #65]	@ zero_extendqisi2
 5182 000e 212B     		cmp	r3, #33
 5183 0010 0FD0     		beq	.L650
 5184 0012 2023     		movs	r3, #32
 5185 0014 80F84130 		strb	r3, [r0, #65]
 5186 0018 1223     		movs	r3, #18
 5187 001a 0363     		str	r3, [r0, #48]
 5188 001c 0025     		movs	r5, #0
 5189 001e 4563     		str	r5, [r0, #52]
 5190 0020 0221     		movs	r1, #2
 5191 0022 FFF7FEFF 		bl	I2C_Disable_IRQ
 5192 0026 84F84050 		strb	r5, [r4, #64]
 5193 002a 2046     		mov	r0, r4
 5194 002c FFF7FEFF 		bl	HAL_I2C_MasterRxCpltCallback
 5195              	.L646:
 5196 0030 38BD     		pop	{r3, r4, r5, pc}
 5197              	.L650:
 5198 0032 2023     		movs	r3, #32
 5199 0034 80F84130 		strb	r3, [r0, #65]
 5200 0038 1123     		movs	r3, #17
 5201 003a 0363     		str	r3, [r0, #48]
 5202 003c 0025     		movs	r5, #0
 5203 003e 4563     		str	r5, [r0, #52]
 5204 0040 0121     		movs	r1, #1
 5205 0042 FFF7FEFF 		bl	I2C_Disable_IRQ
 5206 0046 84F84050 		strb	r5, [r4, #64]
 5207 004a 2046     		mov	r0, r4
 5208 004c FFF7FEFF 		bl	HAL_I2C_MasterTxCpltCallback
 5209 0050 EEE7     		b	.L646
 5211              		.section	.text.HAL_I2C_SlaveTxCpltCallback,"ax",%progbits
 5212              		.align	1
 5213              		.weak	HAL_I2C_SlaveTxCpltCallback
 5214              		.syntax unified
 5215              		.thumb
 5216              		.thumb_func
 5218              	HAL_I2C_SlaveTxCpltCallback:
 5219              		@ args = 0, pretend = 0, frame = 0
 5220              		@ frame_needed = 0, uses_anonymous_args = 0
 5221              		@ link register save eliminated.
 5222 0000 7047     		bx	lr
 5224              		.section	.text.HAL_I2C_SlaveRxCpltCallback,"ax",%progbits
 5225              		.align	1
 5226              		.weak	HAL_I2C_SlaveRxCpltCallback
 5227              		.syntax unified
 5228              		.thumb
 5229              		.thumb_func
 5231              	HAL_I2C_SlaveRxCpltCallback:
 5232              		@ args = 0, pretend = 0, frame = 0
 5233              		@ frame_needed = 0, uses_anonymous_args = 0
ARM GAS  C:\Users\aticl\AppData\Local\Temp\ccNU6x1i.s 			page 91


 5234              		@ link register save eliminated.
 5235 0000 7047     		bx	lr
 5237              		.section	.text.I2C_ITSlaveSeqCplt,"ax",%progbits
 5238              		.align	1
 5239              		.syntax unified
 5240              		.thumb
 5241              		.thumb_func
 5243              	I2C_ITSlaveSeqCplt:
 5244              		@ args = 0, pretend = 0, frame = 0
 5245              		@ frame_needed = 0, uses_anonymous_args = 0
 5246 0000 10B5     		push	{r4, lr}
 5247 0002 0446     		mov	r4, r0
 5248 0004 0368     		ldr	r3, [r0]
 5249 0006 1A68     		ldr	r2, [r3]
 5250 0008 0021     		movs	r1, #0
 5251 000a 80F84210 		strb	r1, [r0, #66]
 5252 000e 12F4804F 		tst	r2, #16384
 5253 0012 0CD0     		beq	.L654
 5254 0014 1A68     		ldr	r2, [r3]
 5255 0016 22F48042 		bic	r2, r2, #16384
 5256 001a 1A60     		str	r2, [r3]
 5257              	.L655:
 5258 001c 94F84130 		ldrb	r3, [r4, #65]	@ zero_extendqisi2
 5259 0020 292B     		cmp	r3, #41
 5260 0022 0CD0     		beq	.L659
 5261 0024 94F84130 		ldrb	r3, [r4, #65]	@ zero_extendqisi2
 5262 0028 2A2B     		cmp	r3, #42
 5263 002a 18D0     		beq	.L660
 5264              	.L653:
 5265 002c 10BD     		pop	{r4, pc}
 5266              	.L654:
 5267 002e 12F4004F 		tst	r2, #32768
 5268 0032 F3D0     		beq	.L655
 5269 0034 1A68     		ldr	r2, [r3]
 5270 0036 22F40042 		bic	r2, r2, #32768
 5271 003a 1A60     		str	r2, [r3]
 5272 003c EEE7     		b	.L655
 5273              	.L659:
 5274 003e 2823     		movs	r3, #40
 5275 0040 84F84130 		strb	r3, [r4, #65]
 5276 0044 2123     		movs	r3, #33
 5277 0046 2363     		str	r3, [r4, #48]
 5278 0048 0121     		movs	r1, #1
 5279 004a 2046     		mov	r0, r4
 5280 004c FFF7FEFF 		bl	I2C_Disable_IRQ
 5281 0050 0023     		movs	r3, #0
 5282 0052 84F84030 		strb	r3, [r4, #64]
 5283 0056 2046     		mov	r0, r4
 5284 0058 FFF7FEFF 		bl	HAL_I2C_SlaveTxCpltCallback
 5285 005c E6E7     		b	.L653
 5286              	.L660:
 5287 005e 2823     		movs	r3, #40
 5288 0060 84F84130 		strb	r3, [r4, #65]
 5289 0064 2223     		movs	r3, #34
 5290 0066 2363     		str	r3, [r4, #48]
 5291 0068 0221     		movs	r1, #2
 5292 006a 2046     		mov	r0, r4
ARM GAS  C:\Users\aticl\AppData\Local\Temp\ccNU6x1i.s 			page 92


 5293 006c FFF7FEFF 		bl	I2C_Disable_IRQ
 5294 0070 0023     		movs	r3, #0
 5295 0072 84F84030 		strb	r3, [r4, #64]
 5296 0076 2046     		mov	r0, r4
 5297 0078 FFF7FEFF 		bl	HAL_I2C_SlaveRxCpltCallback
 5298 007c D6E7     		b	.L653
 5300              		.section	.text.I2C_DMASlaveTransmitCplt,"ax",%progbits
 5301              		.align	1
 5302              		.syntax unified
 5303              		.thumb
 5304              		.thumb_func
 5306              	I2C_DMASlaveTransmitCplt:
 5307              		@ args = 0, pretend = 0, frame = 0
 5308              		@ frame_needed = 0, uses_anonymous_args = 0
 5309 0000 08B5     		push	{r3, lr}
 5310 0002 806B     		ldr	r0, [r0, #56]
 5311 0004 C36A     		ldr	r3, [r0, #44]
 5312 0006 002B     		cmp	r3, #0
 5313 0008 18BF     		it	ne
 5314 000a B3F1807F 		cmpne	r3, #16777216
 5315 000e 00D0     		beq	.L664
 5316              	.L661:
 5317 0010 08BD     		pop	{r3, pc}
 5318              	.L664:
 5319 0012 0268     		ldr	r2, [r0]
 5320 0014 1368     		ldr	r3, [r2]
 5321 0016 23F48043 		bic	r3, r3, #16384
 5322 001a 1360     		str	r3, [r2]
 5323 001c FFF7FEFF 		bl	I2C_ITSlaveSeqCplt
 5324 0020 F6E7     		b	.L661
 5326              		.section	.text.I2C_DMASlaveReceiveCplt,"ax",%progbits
 5327              		.align	1
 5328              		.syntax unified
 5329              		.thumb
 5330              		.thumb_func
 5332              	I2C_DMASlaveReceiveCplt:
 5333              		@ args = 0, pretend = 0, frame = 0
 5334              		@ frame_needed = 0, uses_anonymous_args = 0
 5335 0000 10B5     		push	{r4, lr}
 5336 0002 806B     		ldr	r0, [r0, #56]
 5337 0004 C46A     		ldr	r4, [r0, #44]
 5338 0006 C36B     		ldr	r3, [r0, #60]
 5339 0008 1B68     		ldr	r3, [r3]
 5340 000a 2349     		ldr	r1, .L672
 5341 000c 234A     		ldr	r2, .L672+4
 5342 000e 9342     		cmp	r3, r2
 5343 0010 18BF     		it	ne
 5344 0012 8B42     		cmpne	r3, r1
 5345 0014 2FD0     		beq	.L666
 5346 0016 1832     		adds	r2, r2, #24
 5347 0018 9342     		cmp	r3, r2
 5348 001a 2CD0     		beq	.L666
 5349 001c 1832     		adds	r2, r2, #24
 5350 001e 9342     		cmp	r3, r2
 5351 0020 29D0     		beq	.L666
 5352 0022 1832     		adds	r2, r2, #24
 5353 0024 9342     		cmp	r3, r2
ARM GAS  C:\Users\aticl\AppData\Local\Temp\ccNU6x1i.s 			page 93


 5354 0026 26D0     		beq	.L666
 5355 0028 1832     		adds	r2, r2, #24
 5356 002a 9342     		cmp	r3, r2
 5357 002c 23D0     		beq	.L666
 5358 002e 1832     		adds	r2, r2, #24
 5359 0030 9342     		cmp	r3, r2
 5360 0032 20D0     		beq	.L666
 5361 0034 1832     		adds	r2, r2, #24
 5362 0036 9342     		cmp	r3, r2
 5363 0038 1DD0     		beq	.L666
 5364 003a 02F55672 		add	r2, r2, #856
 5365 003e 9342     		cmp	r3, r2
 5366 0040 19D0     		beq	.L666
 5367 0042 1832     		adds	r2, r2, #24
 5368 0044 9342     		cmp	r3, r2
 5369 0046 16D0     		beq	.L666
 5370 0048 1832     		adds	r2, r2, #24
 5371 004a 9342     		cmp	r3, r2
 5372 004c 13D0     		beq	.L666
 5373 004e 1832     		adds	r2, r2, #24
 5374 0050 9342     		cmp	r3, r2
 5375 0052 10D0     		beq	.L666
 5376 0054 1832     		adds	r2, r2, #24
 5377 0056 9342     		cmp	r3, r2
 5378 0058 0DD0     		beq	.L666
 5379 005a 1832     		adds	r2, r2, #24
 5380 005c 9342     		cmp	r3, r2
 5381 005e 0AD0     		beq	.L666
 5382 0060 1832     		adds	r2, r2, #24
 5383 0062 9342     		cmp	r3, r2
 5384 0064 07D0     		beq	.L666
 5385 0066 1832     		adds	r2, r2, #24
 5386 0068 9342     		cmp	r3, r2
 5387 006a 04D0     		beq	.L666
 5388 006c 5B68     		ldr	r3, [r3, #4]
 5389 006e B3FA83F3 		clz	r3, r3
 5390 0072 5B09     		lsrs	r3, r3, #5
 5391 0074 03E0     		b	.L668
 5392              	.L666:
 5393 0076 5B68     		ldr	r3, [r3, #4]
 5394 0078 B3FA83F3 		clz	r3, r3
 5395 007c 5B09     		lsrs	r3, r3, #5
 5396              	.L668:
 5397 007e 13B1     		cbz	r3, .L665
 5398 0080 14F5803F 		cmn	r4, #65536
 5399 0084 00D1     		bne	.L671
 5400              	.L665:
 5401 0086 10BD     		pop	{r4, pc}
 5402              	.L671:
 5403 0088 0268     		ldr	r2, [r0]
 5404 008a 1368     		ldr	r3, [r2]
 5405 008c 23F40043 		bic	r3, r3, #32768
 5406 0090 1360     		str	r3, [r2]
 5407 0092 FFF7FEFF 		bl	I2C_ITSlaveSeqCplt
 5408 0096 F6E7     		b	.L665
 5409              	.L673:
 5410              		.align	2
ARM GAS  C:\Users\aticl\AppData\Local\Temp\ccNU6x1i.s 			page 94


 5411              	.L672:
 5412 0098 10000240 		.word	1073872912
 5413 009c 28000240 		.word	1073872936
 5415              		.section	.text.HAL_I2C_AddrCallback,"ax",%progbits
 5416              		.align	1
 5417              		.weak	HAL_I2C_AddrCallback
 5418              		.syntax unified
 5419              		.thumb
 5420              		.thumb_func
 5422              	HAL_I2C_AddrCallback:
 5423              		@ args = 0, pretend = 0, frame = 0
 5424              		@ frame_needed = 0, uses_anonymous_args = 0
 5425              		@ link register save eliminated.
 5426 0000 7047     		bx	lr
 5428              		.section	.text.I2C_ITAddrCplt,"ax",%progbits
 5429              		.align	1
 5430              		.syntax unified
 5431              		.thumb
 5432              		.thumb_func
 5434              	I2C_ITAddrCplt:
 5435              		@ args = 0, pretend = 0, frame = 0
 5436              		@ frame_needed = 0, uses_anonymous_args = 0
 5437 0000 F8B5     		push	{r3, r4, r5, r6, r7, lr}
 5438 0002 0446     		mov	r4, r0
 5439 0004 90F84130 		ldrb	r3, [r0, #65]	@ zero_extendqisi2
 5440 0008 03F02803 		and	r3, r3, #40
 5441 000c 282B     		cmp	r3, #40
 5442 000e 06D0     		beq	.L681
 5443 0010 0368     		ldr	r3, [r0]
 5444 0012 0822     		movs	r2, #8
 5445 0014 DA61     		str	r2, [r3, #28]
 5446 0016 0023     		movs	r3, #0
 5447 0018 80F84030 		strb	r3, [r0, #64]
 5448              	.L675:
 5449 001c F8BD     		pop	{r3, r4, r5, r6, r7, pc}
 5450              	.L681:
 5451 001e 0368     		ldr	r3, [r0]
 5452 0020 9E69     		ldr	r6, [r3, #24]
 5453 0022 C6F30046 		ubfx	r6, r6, #16, #1
 5454 0026 9A69     		ldr	r2, [r3, #24]
 5455 0028 120C     		lsrs	r2, r2, #16
 5456 002a 02F0FE05 		and	r5, r2, #254
 5457 002e 9A68     		ldr	r2, [r3, #8]
 5458 0030 C2F30902 		ubfx	r2, r2, #0, #10
 5459 0034 DF68     		ldr	r7, [r3, #12]
 5460 0036 07F0FE07 		and	r7, r7, #254
 5461 003a C168     		ldr	r1, [r0, #12]
 5462 003c 0229     		cmp	r1, #2
 5463 003e 22D1     		bne	.L677
 5464 0040 85EAD215 		eor	r5, r5, r2, lsr #7
 5465 0044 15F0060F 		tst	r5, #6
 5466 0048 10D1     		bne	.L678
 5467 004a 816C     		ldr	r1, [r0, #72]
 5468 004c 0131     		adds	r1, r1, #1
 5469 004e 8164     		str	r1, [r0, #72]
 5470 0050 816C     		ldr	r1, [r0, #72]
 5471 0052 0229     		cmp	r1, #2
ARM GAS  C:\Users\aticl\AppData\Local\Temp\ccNU6x1i.s 			page 95


 5472 0054 E2D1     		bne	.L675
 5473 0056 0021     		movs	r1, #0
 5474 0058 8164     		str	r1, [r0, #72]
 5475 005a 0820     		movs	r0, #8
 5476 005c D861     		str	r0, [r3, #28]
 5477 005e 84F84010 		strb	r1, [r4, #64]
 5478 0062 3146     		mov	r1, r6
 5479 0064 2046     		mov	r0, r4
 5480 0066 FFF7FEFF 		bl	HAL_I2C_AddrCallback
 5481 006a D7E7     		b	.L675
 5482              	.L678:
 5483 006c 4FF40041 		mov	r1, #32768
 5484 0070 FFF7FEFF 		bl	I2C_Disable_IRQ
 5485 0074 0023     		movs	r3, #0
 5486 0076 84F84030 		strb	r3, [r4, #64]
 5487 007a 3A46     		mov	r2, r7
 5488 007c 3146     		mov	r1, r6
 5489 007e 2046     		mov	r0, r4
 5490 0080 FFF7FEFF 		bl	HAL_I2C_AddrCallback
 5491 0084 CAE7     		b	.L675
 5492              	.L677:
 5493 0086 4FF40041 		mov	r1, #32768
 5494 008a FFF7FEFF 		bl	I2C_Disable_IRQ
 5495 008e 0023     		movs	r3, #0
 5496 0090 84F84030 		strb	r3, [r4, #64]
 5497 0094 2A46     		mov	r2, r5
 5498 0096 3146     		mov	r1, r6
 5499 0098 2046     		mov	r0, r4
 5500 009a FFF7FEFF 		bl	HAL_I2C_AddrCallback
 5501 009e BDE7     		b	.L675
 5503              		.section	.text.HAL_I2C_ListenCpltCallback,"ax",%progbits
 5504              		.align	1
 5505              		.weak	HAL_I2C_ListenCpltCallback
 5506              		.syntax unified
 5507              		.thumb
 5508              		.thumb_func
 5510              	HAL_I2C_ListenCpltCallback:
 5511              		@ args = 0, pretend = 0, frame = 0
 5512              		@ frame_needed = 0, uses_anonymous_args = 0
 5513              		@ link register save eliminated.
 5514 0000 7047     		bx	lr
 5516              		.section	.text.I2C_ITListenCplt,"ax",%progbits
 5517              		.align	1
 5518              		.syntax unified
 5519              		.thumb
 5520              		.thumb_func
 5522              	I2C_ITListenCplt:
 5523              		@ args = 0, pretend = 0, frame = 0
 5524              		@ frame_needed = 0, uses_anonymous_args = 0
 5525 0000 10B5     		push	{r4, lr}
 5526 0002 0446     		mov	r4, r0
 5527 0004 174B     		ldr	r3, .L686
 5528 0006 C362     		str	r3, [r0, #44]
 5529 0008 0023     		movs	r3, #0
 5530 000a 0363     		str	r3, [r0, #48]
 5531 000c 2022     		movs	r2, #32
 5532 000e 80F84120 		strb	r2, [r0, #65]
ARM GAS  C:\Users\aticl\AppData\Local\Temp\ccNU6x1i.s 			page 96


 5533 0012 80F84230 		strb	r3, [r0, #66]
 5534 0016 4363     		str	r3, [r0, #52]
 5535 0018 11F0040F 		tst	r1, #4
 5536 001c 13D0     		beq	.L684
 5537 001e 0368     		ldr	r3, [r0]
 5538 0020 5A6A     		ldr	r2, [r3, #36]
 5539 0022 436A     		ldr	r3, [r0, #36]
 5540 0024 1A70     		strb	r2, [r3]
 5541 0026 436A     		ldr	r3, [r0, #36]
 5542 0028 0133     		adds	r3, r3, #1
 5543 002a 4362     		str	r3, [r0, #36]
 5544 002c 038D     		ldrh	r3, [r0, #40]
 5545 002e 53B1     		cbz	r3, .L684
 5546 0030 013B     		subs	r3, r3, #1
 5547 0032 0385     		strh	r3, [r0, #40]	@ movhi
 5548 0034 438D     		ldrh	r3, [r0, #42]
 5549 0036 9BB2     		uxth	r3, r3
 5550 0038 013B     		subs	r3, r3, #1
 5551 003a 9BB2     		uxth	r3, r3
 5552 003c 4385     		strh	r3, [r0, #42]	@ movhi
 5553 003e 436C     		ldr	r3, [r0, #68]
 5554 0040 43F00403 		orr	r3, r3, #4
 5555 0044 4364     		str	r3, [r0, #68]
 5556              	.L684:
 5557 0046 48F20301 		movw	r1, #32771
 5558 004a 2046     		mov	r0, r4
 5559 004c FFF7FEFF 		bl	I2C_Disable_IRQ
 5560 0050 2368     		ldr	r3, [r4]
 5561 0052 1022     		movs	r2, #16
 5562 0054 DA61     		str	r2, [r3, #28]
 5563 0056 0023     		movs	r3, #0
 5564 0058 84F84030 		strb	r3, [r4, #64]
 5565 005c 2046     		mov	r0, r4
 5566 005e FFF7FEFF 		bl	HAL_I2C_ListenCpltCallback
 5567 0062 10BD     		pop	{r4, pc}
 5568              	.L687:
 5569              		.align	2
 5570              	.L686:
 5571 0064 0000FFFF 		.word	-65536
 5573              		.section	.text.HAL_I2C_MemTxCpltCallback,"ax",%progbits
 5574              		.align	1
 5575              		.weak	HAL_I2C_MemTxCpltCallback
 5576              		.syntax unified
 5577              		.thumb
 5578              		.thumb_func
 5580              	HAL_I2C_MemTxCpltCallback:
 5581              		@ args = 0, pretend = 0, frame = 0
 5582              		@ frame_needed = 0, uses_anonymous_args = 0
 5583              		@ link register save eliminated.
 5584 0000 7047     		bx	lr
 5586              		.section	.text.HAL_I2C_MemRxCpltCallback,"ax",%progbits
 5587              		.align	1
 5588              		.weak	HAL_I2C_MemRxCpltCallback
 5589              		.syntax unified
 5590              		.thumb
 5591              		.thumb_func
 5593              	HAL_I2C_MemRxCpltCallback:
ARM GAS  C:\Users\aticl\AppData\Local\Temp\ccNU6x1i.s 			page 97


 5594              		@ args = 0, pretend = 0, frame = 0
 5595              		@ frame_needed = 0, uses_anonymous_args = 0
 5596              		@ link register save eliminated.
 5597 0000 7047     		bx	lr
 5599              		.section	.text.HAL_I2C_ErrorCallback,"ax",%progbits
 5600              		.align	1
 5601              		.weak	HAL_I2C_ErrorCallback
 5602              		.syntax unified
 5603              		.thumb
 5604              		.thumb_func
 5606              	HAL_I2C_ErrorCallback:
 5607              		@ args = 0, pretend = 0, frame = 0
 5608              		@ frame_needed = 0, uses_anonymous_args = 0
 5609              		@ link register save eliminated.
 5610 0000 7047     		bx	lr
 5612              		.section	.text.HAL_I2C_AbortCpltCallback,"ax",%progbits
 5613              		.align	1
 5614              		.weak	HAL_I2C_AbortCpltCallback
 5615              		.syntax unified
 5616              		.thumb
 5617              		.thumb_func
 5619              	HAL_I2C_AbortCpltCallback:
 5620              		@ args = 0, pretend = 0, frame = 0
 5621              		@ frame_needed = 0, uses_anonymous_args = 0
 5622              		@ link register save eliminated.
 5623 0000 7047     		bx	lr
 5625              		.section	.text.I2C_TreatErrorCallback,"ax",%progbits
 5626              		.align	1
 5627              		.syntax unified
 5628              		.thumb
 5629              		.thumb_func
 5631              	I2C_TreatErrorCallback:
 5632              		@ args = 0, pretend = 0, frame = 0
 5633              		@ frame_needed = 0, uses_anonymous_args = 0
 5634 0000 08B5     		push	{r3, lr}
 5635 0002 90F84130 		ldrb	r3, [r0, #65]	@ zero_extendqisi2
 5636 0006 602B     		cmp	r3, #96
 5637 0008 06D0     		beq	.L696
 5638 000a 0023     		movs	r3, #0
 5639 000c 0363     		str	r3, [r0, #48]
 5640 000e 80F84030 		strb	r3, [r0, #64]
 5641 0012 FFF7FEFF 		bl	HAL_I2C_ErrorCallback
 5642              	.L692:
 5643 0016 08BD     		pop	{r3, pc}
 5644              	.L696:
 5645 0018 2023     		movs	r3, #32
 5646 001a 80F84130 		strb	r3, [r0, #65]
 5647 001e 0023     		movs	r3, #0
 5648 0020 0363     		str	r3, [r0, #48]
 5649 0022 80F84030 		strb	r3, [r0, #64]
 5650 0026 FFF7FEFF 		bl	HAL_I2C_AbortCpltCallback
 5651 002a F4E7     		b	.L692
 5653              		.section	.text.I2C_ITError,"ax",%progbits
 5654              		.align	1
 5655              		.syntax unified
 5656              		.thumb
 5657              		.thumb_func
ARM GAS  C:\Users\aticl\AppData\Local\Temp\ccNU6x1i.s 			page 98


 5659              	I2C_ITError:
 5660              		@ args = 0, pretend = 0, frame = 0
 5661              		@ frame_needed = 0, uses_anonymous_args = 0
 5662 0000 10B5     		push	{r4, lr}
 5663 0002 0446     		mov	r4, r0
 5664 0004 90F84130 		ldrb	r3, [r0, #65]	@ zero_extendqisi2
 5665 0008 0022     		movs	r2, #0
 5666 000a 80F84220 		strb	r2, [r0, #66]
 5667 000e 4548     		ldr	r0, .L710
 5668 0010 E062     		str	r0, [r4, #44]
 5669 0012 6285     		strh	r2, [r4, #42]	@ movhi
 5670 0014 626C     		ldr	r2, [r4, #68]
 5671 0016 0A43     		orrs	r2, r2, r1
 5672 0018 6264     		str	r2, [r4, #68]
 5673 001a 283B     		subs	r3, r3, #40
 5674 001c DBB2     		uxtb	r3, r3
 5675 001e 022B     		cmp	r3, #2
 5676 0020 2DD8     		bhi	.L698
 5677 0022 0321     		movs	r1, #3
 5678 0024 2046     		mov	r0, r4
 5679 0026 FFF7FEFF 		bl	I2C_Disable_IRQ
 5680 002a 2823     		movs	r3, #40
 5681 002c 84F84130 		strb	r3, [r4, #65]
 5682 0030 3D4B     		ldr	r3, .L710+4
 5683 0032 6363     		str	r3, [r4, #52]
 5684              	.L699:
 5685 0034 236B     		ldr	r3, [r4, #48]
 5686 0036 A26B     		ldr	r2, [r4, #56]
 5687 0038 002A     		cmp	r2, #0
 5688 003a 48D0     		beq	.L702
 5689 003c 212B     		cmp	r3, #33
 5690 003e 18BF     		it	ne
 5691 0040 112B     		cmpne	r3, #17
 5692 0042 44D1     		bne	.L702
 5693 0044 2368     		ldr	r3, [r4]
 5694 0046 1A68     		ldr	r2, [r3]
 5695 0048 12F4804F 		tst	r2, #16384
 5696 004c 03D0     		beq	.L703
 5697 004e 1A68     		ldr	r2, [r3]
 5698 0050 22F48042 		bic	r2, r2, #16384
 5699 0054 1A60     		str	r2, [r3]
 5700              	.L703:
 5701 0056 A06B     		ldr	r0, [r4, #56]
 5702 0058 FFF7FEFF 		bl	HAL_DMA_GetState
 5703 005c 0128     		cmp	r0, #1
 5704 005e 32D0     		beq	.L704
 5705 0060 A36B     		ldr	r3, [r4, #56]
 5706 0062 324A     		ldr	r2, .L710+8
 5707 0064 1A65     		str	r2, [r3, #80]
 5708 0066 0023     		movs	r3, #0
 5709 0068 84F84030 		strb	r3, [r4, #64]
 5710 006c A06B     		ldr	r0, [r4, #56]
 5711 006e FFF7FEFF 		bl	HAL_DMA_Abort_IT
 5712 0072 0028     		cmp	r0, #0
 5713 0074 54D0     		beq	.L697
 5714 0076 A06B     		ldr	r0, [r4, #56]
 5715 0078 036D     		ldr	r3, [r0, #80]
ARM GAS  C:\Users\aticl\AppData\Local\Temp\ccNU6x1i.s 			page 99


 5716 007a 9847     		blx	r3
 5717 007c 50E0     		b	.L697
 5718              	.L698:
 5719 007e 48F20301 		movw	r1, #32771
 5720 0082 2046     		mov	r0, r4
 5721 0084 FFF7FEFF 		bl	I2C_Disable_IRQ
 5722 0088 2046     		mov	r0, r4
 5723 008a FFF7FEFF 		bl	I2C_Flush_TXDR
 5724 008e 94F84130 		ldrb	r3, [r4, #65]	@ zero_extendqisi2
 5725 0092 602B     		cmp	r3, #96
 5726 0094 14D0     		beq	.L700
 5727 0096 2023     		movs	r3, #32
 5728 0098 84F84130 		strb	r3, [r4, #65]
 5729 009c 2368     		ldr	r3, [r4]
 5730 009e 9A69     		ldr	r2, [r3, #24]
 5731 00a0 12F0200F 		tst	r2, #32
 5732 00a4 0CD0     		beq	.L700
 5733 00a6 9A69     		ldr	r2, [r3, #24]
 5734 00a8 12F0100F 		tst	r2, #16
 5735 00ac 05D0     		beq	.L701
 5736 00ae 1022     		movs	r2, #16
 5737 00b0 DA61     		str	r2, [r3, #28]
 5738 00b2 636C     		ldr	r3, [r4, #68]
 5739 00b4 43F00403 		orr	r3, r3, #4
 5740 00b8 6364     		str	r3, [r4, #68]
 5741              	.L701:
 5742 00ba 2368     		ldr	r3, [r4]
 5743 00bc 2022     		movs	r2, #32
 5744 00be DA61     		str	r2, [r3, #28]
 5745              	.L700:
 5746 00c0 0023     		movs	r3, #0
 5747 00c2 6363     		str	r3, [r4, #52]
 5748 00c4 B6E7     		b	.L699
 5749              	.L704:
 5750 00c6 2046     		mov	r0, r4
 5751 00c8 FFF7FEFF 		bl	I2C_TreatErrorCallback
 5752 00cc 28E0     		b	.L697
 5753              	.L702:
 5754 00ce E26B     		ldr	r2, [r4, #60]
 5755 00d0 1AB3     		cbz	r2, .L706
 5756 00d2 222B     		cmp	r3, #34
 5757 00d4 18BF     		it	ne
 5758 00d6 122B     		cmpne	r3, #18
 5759 00d8 1FD1     		bne	.L706
 5760 00da 2368     		ldr	r3, [r4]
 5761 00dc 1A68     		ldr	r2, [r3]
 5762 00de 12F4004F 		tst	r2, #32768
 5763 00e2 03D0     		beq	.L707
 5764 00e4 1A68     		ldr	r2, [r3]
 5765 00e6 22F40042 		bic	r2, r2, #32768
 5766 00ea 1A60     		str	r2, [r3]
 5767              	.L707:
 5768 00ec E06B     		ldr	r0, [r4, #60]
 5769 00ee FFF7FEFF 		bl	HAL_DMA_GetState
 5770 00f2 0128     		cmp	r0, #1
 5771 00f4 0DD0     		beq	.L708
 5772 00f6 E36B     		ldr	r3, [r4, #60]
ARM GAS  C:\Users\aticl\AppData\Local\Temp\ccNU6x1i.s 			page 100


 5773 00f8 0C4A     		ldr	r2, .L710+8
 5774 00fa 1A65     		str	r2, [r3, #80]
 5775 00fc 0023     		movs	r3, #0
 5776 00fe 84F84030 		strb	r3, [r4, #64]
 5777 0102 E06B     		ldr	r0, [r4, #60]
 5778 0104 FFF7FEFF 		bl	HAL_DMA_Abort_IT
 5779 0108 50B1     		cbz	r0, .L697
 5780 010a E06B     		ldr	r0, [r4, #60]
 5781 010c 036D     		ldr	r3, [r0, #80]
 5782 010e 9847     		blx	r3
 5783 0110 06E0     		b	.L697
 5784              	.L708:
 5785 0112 2046     		mov	r0, r4
 5786 0114 FFF7FEFF 		bl	I2C_TreatErrorCallback
 5787 0118 02E0     		b	.L697
 5788              	.L706:
 5789 011a 2046     		mov	r0, r4
 5790 011c FFF7FEFF 		bl	I2C_TreatErrorCallback
 5791              	.L697:
 5792 0120 10BD     		pop	{r4, pc}
 5793              	.L711:
 5794 0122 00BF     		.align	2
 5795              	.L710:
 5796 0124 0000FFFF 		.word	-65536
 5797 0128 00000000 		.word	I2C_Slave_ISR_IT
 5798 012c 00000000 		.word	I2C_DMAAbort
 5800              		.section	.text.I2C_ITSlaveCplt,"ax",%progbits
 5801              		.align	1
 5802              		.syntax unified
 5803              		.thumb
 5804              		.thumb_func
 5806              	I2C_ITSlaveCplt:
 5807              		@ args = 0, pretend = 0, frame = 0
 5808              		@ frame_needed = 0, uses_anonymous_args = 0
 5809 0000 F8B5     		push	{r3, r4, r5, r6, r7, lr}
 5810 0002 0446     		mov	r4, r0
 5811 0004 0D46     		mov	r5, r1
 5812 0006 0268     		ldr	r2, [r0]
 5813 0008 1668     		ldr	r6, [r2]
 5814 000a C76A     		ldr	r7, [r0, #44]
 5815 000c 90F84130 		ldrb	r3, [r0, #65]	@ zero_extendqisi2
 5816 0010 2021     		movs	r1, #32
 5817 0012 D161     		str	r1, [r2, #28]
 5818 0014 213B     		subs	r3, r3, #33
 5819 0016 092B     		cmp	r3, #9
 5820 0018 0CD8     		bhi	.L713
 5821 001a DFE803F0 		tbb	[pc, r3]
 5822              	.L715:
 5823 001e 05       		.byte	(.L716-.L715)/2
 5824 001f 5F       		.byte	(.L714-.L715)/2
 5825 0020 0B       		.byte	(.L713-.L715)/2
 5826 0021 0B       		.byte	(.L713-.L715)/2
 5827 0022 0B       		.byte	(.L713-.L715)/2
 5828 0023 0B       		.byte	(.L713-.L715)/2
 5829 0024 0B       		.byte	(.L713-.L715)/2
 5830 0025 66       		.byte	(.L717-.L715)/2
 5831 0026 05       		.byte	(.L716-.L715)/2
ARM GAS  C:\Users\aticl\AppData\Local\Temp\ccNU6x1i.s 			page 101


 5832 0027 5F       		.byte	(.L714-.L715)/2
 5833              		.p2align 1
 5834              	.L716:
 5835 0028 48F20101 		movw	r1, #32769
 5836 002c FFF7FEFF 		bl	I2C_Disable_IRQ
 5837 0030 2123     		movs	r3, #33
 5838 0032 2363     		str	r3, [r4, #48]
 5839              	.L713:
 5840 0034 2268     		ldr	r2, [r4]
 5841 0036 5368     		ldr	r3, [r2, #4]
 5842 0038 43F40043 		orr	r3, r3, #32768
 5843 003c 5360     		str	r3, [r2, #4]
 5844 003e 2268     		ldr	r2, [r4]
 5845 0040 5368     		ldr	r3, [r2, #4]
 5846 0042 23F0FF73 		bic	r3, r3, #33423360
 5847 0046 23F48B33 		bic	r3, r3, #71168
 5848 004a 23F4FF73 		bic	r3, r3, #510
 5849 004e 23F00103 		bic	r3, r3, #1
 5850 0052 5360     		str	r3, [r2, #4]
 5851 0054 2046     		mov	r0, r4
 5852 0056 FFF7FEFF 		bl	I2C_Flush_TXDR
 5853 005a 16F4804F 		tst	r6, #16384
 5854 005e 00F09B80 		beq	.L718
 5855 0062 2268     		ldr	r2, [r4]
 5856 0064 1368     		ldr	r3, [r2]
 5857 0066 23F48043 		bic	r3, r3, #16384
 5858 006a 1360     		str	r3, [r2]
 5859 006c A36B     		ldr	r3, [r4, #56]
 5860 006e 002B     		cmp	r3, #0
 5861 0070 45D0     		beq	.L719
 5862 0072 1B68     		ldr	r3, [r3]
 5863 0074 9249     		ldr	r1, .L743
 5864 0076 934A     		ldr	r2, .L743+4
 5865 0078 9342     		cmp	r3, r2
 5866 007a 18BF     		it	ne
 5867 007c 8B42     		cmpne	r3, r1
 5868 007e 3BD0     		beq	.L720
 5869 0080 1832     		adds	r2, r2, #24
 5870 0082 9342     		cmp	r3, r2
 5871 0084 38D0     		beq	.L720
 5872 0086 1832     		adds	r2, r2, #24
 5873 0088 9342     		cmp	r3, r2
 5874 008a 35D0     		beq	.L720
 5875 008c 1832     		adds	r2, r2, #24
 5876 008e 9342     		cmp	r3, r2
 5877 0090 32D0     		beq	.L720
 5878 0092 1832     		adds	r2, r2, #24
 5879 0094 9342     		cmp	r3, r2
 5880 0096 2FD0     		beq	.L720
 5881 0098 1832     		adds	r2, r2, #24
 5882 009a 9342     		cmp	r3, r2
 5883 009c 2CD0     		beq	.L720
 5884 009e 1832     		adds	r2, r2, #24
 5885 00a0 9342     		cmp	r3, r2
 5886 00a2 29D0     		beq	.L720
 5887 00a4 02F55672 		add	r2, r2, #856
 5888 00a8 9342     		cmp	r3, r2
ARM GAS  C:\Users\aticl\AppData\Local\Temp\ccNU6x1i.s 			page 102


 5889 00aa 25D0     		beq	.L720
 5890 00ac 1832     		adds	r2, r2, #24
 5891 00ae 9342     		cmp	r3, r2
 5892 00b0 22D0     		beq	.L720
 5893 00b2 1832     		adds	r2, r2, #24
 5894 00b4 9342     		cmp	r3, r2
 5895 00b6 1FD0     		beq	.L720
 5896 00b8 1832     		adds	r2, r2, #24
 5897 00ba 9342     		cmp	r3, r2
 5898 00bc 1CD0     		beq	.L720
 5899 00be 1832     		adds	r2, r2, #24
 5900 00c0 9342     		cmp	r3, r2
 5901 00c2 19D0     		beq	.L720
 5902 00c4 1832     		adds	r2, r2, #24
 5903 00c6 9342     		cmp	r3, r2
 5904 00c8 16D0     		beq	.L720
 5905 00ca 1832     		adds	r2, r2, #24
 5906 00cc 9342     		cmp	r3, r2
 5907 00ce 13D0     		beq	.L720
 5908 00d0 1832     		adds	r2, r2, #24
 5909 00d2 9342     		cmp	r3, r2
 5910 00d4 10D0     		beq	.L720
 5911 00d6 5B68     		ldr	r3, [r3, #4]
 5912 00d8 9BB2     		uxth	r3, r3
 5913 00da 0FE0     		b	.L722
 5914              	.L714:
 5915 00dc 48F20201 		movw	r1, #32770
 5916 00e0 FFF7FEFF 		bl	I2C_Disable_IRQ
 5917 00e4 2223     		movs	r3, #34
 5918 00e6 2363     		str	r3, [r4, #48]
 5919 00e8 A4E7     		b	.L713
 5920              	.L717:
 5921 00ea 48F20301 		movw	r1, #32771
 5922 00ee FFF7FEFF 		bl	I2C_Disable_IRQ
 5923 00f2 0023     		movs	r3, #0
 5924 00f4 2363     		str	r3, [r4, #48]
 5925 00f6 9DE7     		b	.L713
 5926              	.L720:
 5927 00f8 5B68     		ldr	r3, [r3, #4]
 5928 00fa 9BB2     		uxth	r3, r3
 5929              	.L722:
 5930 00fc 6385     		strh	r3, [r4, #42]	@ movhi
 5931              	.L719:
 5932 00fe 15F0040F 		tst	r5, #4
 5933 0102 11D0     		beq	.L726
 5934 0104 25F00405 		bic	r5, r5, #4
 5935 0108 2368     		ldr	r3, [r4]
 5936 010a 5A6A     		ldr	r2, [r3, #36]
 5937 010c 636A     		ldr	r3, [r4, #36]
 5938 010e 1A70     		strb	r2, [r3]
 5939 0110 636A     		ldr	r3, [r4, #36]
 5940 0112 0133     		adds	r3, r3, #1
 5941 0114 6362     		str	r3, [r4, #36]
 5942 0116 238D     		ldrh	r3, [r4, #40]
 5943 0118 33B1     		cbz	r3, .L726
 5944 011a 013B     		subs	r3, r3, #1
 5945 011c 2385     		strh	r3, [r4, #40]	@ movhi
ARM GAS  C:\Users\aticl\AppData\Local\Temp\ccNU6x1i.s 			page 103


 5946 011e 638D     		ldrh	r3, [r4, #42]
 5947 0120 9BB2     		uxth	r3, r3
 5948 0122 013B     		subs	r3, r3, #1
 5949 0124 9BB2     		uxth	r3, r3
 5950 0126 6385     		strh	r3, [r4, #42]	@ movhi
 5951              	.L726:
 5952 0128 638D     		ldrh	r3, [r4, #42]
 5953 012a 9BB2     		uxth	r3, r3
 5954 012c 1BB1     		cbz	r3, .L727
 5955 012e 636C     		ldr	r3, [r4, #68]
 5956 0130 43F00403 		orr	r3, r3, #4
 5957 0134 6364     		str	r3, [r4, #68]
 5958              	.L727:
 5959 0136 15F0100F 		tst	r5, #16
 5960 013a 11D0     		beq	.L728
 5961 013c 16F0100F 		tst	r6, #16
 5962 0140 0ED0     		beq	.L728
 5963 0142 638D     		ldrh	r3, [r4, #42]
 5964 0144 9BB2     		uxth	r3, r3
 5965 0146 002B     		cmp	r3, #0
 5966 0148 7FD1     		bne	.L729
 5967 014a 94F84130 		ldrb	r3, [r4, #65]	@ zero_extendqisi2
 5968 014e 282B     		cmp	r3, #40
 5969 0150 66D0     		beq	.L738
 5970              	.L730:
 5971 0152 94F84130 		ldrb	r3, [r4, #65]	@ zero_extendqisi2
 5972 0156 292B     		cmp	r3, #41
 5973 0158 6AD0     		beq	.L739
 5974              	.L731:
 5975 015a 2368     		ldr	r3, [r4]
 5976 015c 1022     		movs	r2, #16
 5977 015e DA61     		str	r2, [r3, #28]
 5978              	.L728:
 5979 0160 0023     		movs	r3, #0
 5980 0162 84F84230 		strb	r3, [r4, #66]
 5981 0166 6363     		str	r3, [r4, #52]
 5982 0168 636C     		ldr	r3, [r4, #68]
 5983 016a 002B     		cmp	r3, #0
 5984 016c 7FD1     		bne	.L740
 5985 016e E36A     		ldr	r3, [r4, #44]
 5986 0170 13F5803F 		cmn	r3, #65536
 5987 0174 40F08880 		bne	.L741
 5988 0178 94F84130 		ldrb	r3, [r4, #65]	@ zero_extendqisi2
 5989 017c 222B     		cmp	r3, #34
 5990 017e 00F09380 		beq	.L742
 5991 0182 2023     		movs	r3, #32
 5992 0184 84F84130 		strb	r3, [r4, #65]
 5993 0188 0023     		movs	r3, #0
 5994 018a 2363     		str	r3, [r4, #48]
 5995 018c 84F84030 		strb	r3, [r4, #64]
 5996 0190 2046     		mov	r0, r4
 5997 0192 FFF7FEFF 		bl	HAL_I2C_SlaveTxCpltCallback
 5998 0196 86E0     		b	.L712
 5999              	.L718:
 6000 0198 16F4004F 		tst	r6, #32768
 6001 019c AFD0     		beq	.L719
 6002 019e 2268     		ldr	r2, [r4]
ARM GAS  C:\Users\aticl\AppData\Local\Temp\ccNU6x1i.s 			page 104


 6003 01a0 1368     		ldr	r3, [r2]
 6004 01a2 23F40043 		bic	r3, r3, #32768
 6005 01a6 1360     		str	r3, [r2]
 6006 01a8 E36B     		ldr	r3, [r4, #60]
 6007 01aa 002B     		cmp	r3, #0
 6008 01ac A7D0     		beq	.L719
 6009 01ae 1B68     		ldr	r3, [r3]
 6010 01b0 4349     		ldr	r1, .L743
 6011 01b2 444A     		ldr	r2, .L743+4
 6012 01b4 9342     		cmp	r3, r2
 6013 01b6 18BF     		it	ne
 6014 01b8 8B42     		cmpne	r3, r1
 6015 01ba 2DD0     		beq	.L723
 6016 01bc 1832     		adds	r2, r2, #24
 6017 01be 9342     		cmp	r3, r2
 6018 01c0 2AD0     		beq	.L723
 6019 01c2 1832     		adds	r2, r2, #24
 6020 01c4 9342     		cmp	r3, r2
 6021 01c6 27D0     		beq	.L723
 6022 01c8 1832     		adds	r2, r2, #24
 6023 01ca 9342     		cmp	r3, r2
 6024 01cc 24D0     		beq	.L723
 6025 01ce 1832     		adds	r2, r2, #24
 6026 01d0 9342     		cmp	r3, r2
 6027 01d2 21D0     		beq	.L723
 6028 01d4 1832     		adds	r2, r2, #24
 6029 01d6 9342     		cmp	r3, r2
 6030 01d8 1ED0     		beq	.L723
 6031 01da 1832     		adds	r2, r2, #24
 6032 01dc 9342     		cmp	r3, r2
 6033 01de 1BD0     		beq	.L723
 6034 01e0 02F55672 		add	r2, r2, #856
 6035 01e4 9342     		cmp	r3, r2
 6036 01e6 17D0     		beq	.L723
 6037 01e8 1832     		adds	r2, r2, #24
 6038 01ea 9342     		cmp	r3, r2
 6039 01ec 14D0     		beq	.L723
 6040 01ee 1832     		adds	r2, r2, #24
 6041 01f0 9342     		cmp	r3, r2
 6042 01f2 11D0     		beq	.L723
 6043 01f4 1832     		adds	r2, r2, #24
 6044 01f6 9342     		cmp	r3, r2
 6045 01f8 0ED0     		beq	.L723
 6046 01fa 1832     		adds	r2, r2, #24
 6047 01fc 9342     		cmp	r3, r2
 6048 01fe 0BD0     		beq	.L723
 6049 0200 1832     		adds	r2, r2, #24
 6050 0202 9342     		cmp	r3, r2
 6051 0204 08D0     		beq	.L723
 6052 0206 1832     		adds	r2, r2, #24
 6053 0208 9342     		cmp	r3, r2
 6054 020a 05D0     		beq	.L723
 6055 020c 1832     		adds	r2, r2, #24
 6056 020e 9342     		cmp	r3, r2
 6057 0210 02D0     		beq	.L723
 6058 0212 5B68     		ldr	r3, [r3, #4]
 6059 0214 9BB2     		uxth	r3, r3
ARM GAS  C:\Users\aticl\AppData\Local\Temp\ccNU6x1i.s 			page 105


 6060 0216 01E0     		b	.L725
 6061              	.L723:
 6062 0218 5B68     		ldr	r3, [r3, #4]
 6063 021a 9BB2     		uxth	r3, r3
 6064              	.L725:
 6065 021c 6385     		strh	r3, [r4, #42]	@ movhi
 6066 021e 6EE7     		b	.L719
 6067              	.L738:
 6068 0220 B7F1007F 		cmp	r7, #33554432
 6069 0224 95D1     		bne	.L730
 6070 0226 2946     		mov	r1, r5
 6071 0228 2046     		mov	r0, r4
 6072 022a FFF7FEFF 		bl	I2C_ITListenCplt
 6073 022e 97E7     		b	.L728
 6074              	.L739:
 6075 0230 17F5803F 		cmn	r7, #65536
 6076 0234 91D0     		beq	.L731
 6077 0236 2368     		ldr	r3, [r4]
 6078 0238 1022     		movs	r2, #16
 6079 023a DA61     		str	r2, [r3, #28]
 6080 023c 2046     		mov	r0, r4
 6081 023e FFF7FEFF 		bl	I2C_Flush_TXDR
 6082 0242 2046     		mov	r0, r4
 6083 0244 FFF7FEFF 		bl	I2C_ITSlaveSeqCplt
 6084 0248 8AE7     		b	.L728
 6085              	.L729:
 6086 024a 2368     		ldr	r3, [r4]
 6087 024c 1022     		movs	r2, #16
 6088 024e DA61     		str	r2, [r3, #28]
 6089 0250 636C     		ldr	r3, [r4, #68]
 6090 0252 43F00403 		orr	r3, r3, #4
 6091 0256 6364     		str	r3, [r4, #68]
 6092 0258 B7F1807F 		cmp	r7, #16777216
 6093 025c 18BF     		it	ne
 6094 025e 002F     		cmpne	r7, #0
 6095 0260 7FF47EAF 		bne	.L728
 6096 0264 616C     		ldr	r1, [r4, #68]
 6097 0266 2046     		mov	r0, r4
 6098 0268 FFF7FEFF 		bl	I2C_ITError
 6099 026c 78E7     		b	.L728
 6100              	.L740:
 6101 026e 616C     		ldr	r1, [r4, #68]
 6102 0270 2046     		mov	r0, r4
 6103 0272 FFF7FEFF 		bl	I2C_ITError
 6104 0276 94F84130 		ldrb	r3, [r4, #65]	@ zero_extendqisi2
 6105 027a 282B     		cmp	r3, #40
 6106 027c 13D1     		bne	.L712
 6107 027e 2946     		mov	r1, r5
 6108 0280 2046     		mov	r0, r4
 6109 0282 FFF7FEFF 		bl	I2C_ITListenCplt
 6110 0286 0EE0     		b	.L712
 6111              	.L741:
 6112 0288 2046     		mov	r0, r4
 6113 028a FFF7FEFF 		bl	I2C_ITSlaveSeqCplt
 6114 028e 0E4B     		ldr	r3, .L743+8
 6115 0290 E362     		str	r3, [r4, #44]
 6116 0292 2023     		movs	r3, #32
ARM GAS  C:\Users\aticl\AppData\Local\Temp\ccNU6x1i.s 			page 106


 6117 0294 84F84130 		strb	r3, [r4, #65]
 6118 0298 0023     		movs	r3, #0
 6119 029a 2363     		str	r3, [r4, #48]
 6120 029c 84F84030 		strb	r3, [r4, #64]
 6121 02a0 2046     		mov	r0, r4
 6122 02a2 FFF7FEFF 		bl	HAL_I2C_ListenCpltCallback
 6123              	.L712:
 6124 02a6 F8BD     		pop	{r3, r4, r5, r6, r7, pc}
 6125              	.L742:
 6126 02a8 2023     		movs	r3, #32
 6127 02aa 84F84130 		strb	r3, [r4, #65]
 6128 02ae 0023     		movs	r3, #0
 6129 02b0 2363     		str	r3, [r4, #48]
 6130 02b2 84F84030 		strb	r3, [r4, #64]
 6131 02b6 2046     		mov	r0, r4
 6132 02b8 FFF7FEFF 		bl	HAL_I2C_SlaveRxCpltCallback
 6133 02bc F3E7     		b	.L712
 6134              	.L744:
 6135 02be 00BF     		.align	2
 6136              	.L743:
 6137 02c0 10000240 		.word	1073872912
 6138 02c4 28000240 		.word	1073872936
 6139 02c8 0000FFFF 		.word	-65536
 6141              		.section	.text.I2C_Slave_ISR_IT,"ax",%progbits
 6142              		.align	1
 6143              		.syntax unified
 6144              		.thumb
 6145              		.thumb_func
 6147              	I2C_Slave_ISR_IT:
 6148              		@ args = 0, pretend = 0, frame = 0
 6149              		@ frame_needed = 0, uses_anonymous_args = 0
 6150 0000 10B5     		push	{r4, lr}
 6151 0002 0446     		mov	r4, r0
 6152 0004 C06A     		ldr	r0, [r0, #44]
 6153 0006 94F84030 		ldrb	r3, [r4, #64]	@ zero_extendqisi2
 6154 000a 012B     		cmp	r3, #1
 6155 000c 00F09980 		beq	.L757
 6156 0010 0123     		movs	r3, #1
 6157 0012 84F84030 		strb	r3, [r4, #64]
 6158 0016 11F0200F 		tst	r1, #32
 6159 001a 02D0     		beq	.L747
 6160 001c 12F0200F 		tst	r2, #32
 6161 0020 14D1     		bne	.L759
 6162              	.L747:
 6163 0022 11F0100F 		tst	r1, #16
 6164 0026 3DD0     		beq	.L749
 6165 0028 12F0100F 		tst	r2, #16
 6166 002c 3AD0     		beq	.L749
 6167 002e 638D     		ldrh	r3, [r4, #42]
 6168 0030 9BB2     		uxth	r3, r3
 6169 0032 33BB     		cbnz	r3, .L750
 6170 0034 94F84130 		ldrb	r3, [r4, #65]	@ zero_extendqisi2
 6171 0038 282B     		cmp	r3, #40
 6172 003a 0ED0     		beq	.L760
 6173              	.L751:
 6174 003c 94F84130 		ldrb	r3, [r4, #65]	@ zero_extendqisi2
 6175 0040 292B     		cmp	r3, #41
ARM GAS  C:\Users\aticl\AppData\Local\Temp\ccNU6x1i.s 			page 107


 6176 0042 11D0     		beq	.L761
 6177              	.L752:
 6178 0044 2368     		ldr	r3, [r4]
 6179 0046 1022     		movs	r2, #16
 6180 0048 DA61     		str	r2, [r3, #28]
 6181 004a 02E0     		b	.L748
 6182              	.L759:
 6183 004c 2046     		mov	r0, r4
 6184 004e FFF7FEFF 		bl	I2C_ITSlaveCplt
 6185              	.L748:
 6186 0052 0020     		movs	r0, #0
 6187 0054 84F84000 		strb	r0, [r4, #64]
 6188              	.L746:
 6189 0058 10BD     		pop	{r4, pc}
 6190              	.L760:
 6191 005a B0F1007F 		cmp	r0, #33554432
 6192 005e EDD1     		bne	.L751
 6193 0060 2046     		mov	r0, r4
 6194 0062 FFF7FEFF 		bl	I2C_ITListenCplt
 6195 0066 F4E7     		b	.L748
 6196              	.L761:
 6197 0068 10F5803F 		cmn	r0, #65536
 6198 006c EAD0     		beq	.L752
 6199 006e 2368     		ldr	r3, [r4]
 6200 0070 1022     		movs	r2, #16
 6201 0072 DA61     		str	r2, [r3, #28]
 6202 0074 2046     		mov	r0, r4
 6203 0076 FFF7FEFF 		bl	I2C_Flush_TXDR
 6204 007a 2046     		mov	r0, r4
 6205 007c FFF7FEFF 		bl	I2C_ITSlaveSeqCplt
 6206 0080 E7E7     		b	.L748
 6207              	.L750:
 6208 0082 2368     		ldr	r3, [r4]
 6209 0084 1022     		movs	r2, #16
 6210 0086 DA61     		str	r2, [r3, #28]
 6211 0088 636C     		ldr	r3, [r4, #68]
 6212 008a 43F00403 		orr	r3, r3, #4
 6213 008e 6364     		str	r3, [r4, #68]
 6214 0090 B0F1807F 		cmp	r0, #16777216
 6215 0094 18BF     		it	ne
 6216 0096 0028     		cmpne	r0, #0
 6217 0098 DBD1     		bne	.L748
 6218 009a 616C     		ldr	r1, [r4, #68]
 6219 009c 2046     		mov	r0, r4
 6220 009e FFF7FEFF 		bl	I2C_ITError
 6221 00a2 D6E7     		b	.L748
 6222              	.L749:
 6223 00a4 11F0040F 		tst	r1, #4
 6224 00a8 1FD0     		beq	.L753
 6225 00aa 12F0040F 		tst	r2, #4
 6226 00ae 1CD0     		beq	.L753
 6227 00b0 638D     		ldrh	r3, [r4, #42]
 6228 00b2 9BB2     		uxth	r3, r3
 6229 00b4 73B1     		cbz	r3, .L754
 6230 00b6 2368     		ldr	r3, [r4]
 6231 00b8 5A6A     		ldr	r2, [r3, #36]
 6232 00ba 636A     		ldr	r3, [r4, #36]
ARM GAS  C:\Users\aticl\AppData\Local\Temp\ccNU6x1i.s 			page 108


 6233 00bc 1A70     		strb	r2, [r3]
 6234 00be 636A     		ldr	r3, [r4, #36]
 6235 00c0 0133     		adds	r3, r3, #1
 6236 00c2 6362     		str	r3, [r4, #36]
 6237 00c4 238D     		ldrh	r3, [r4, #40]
 6238 00c6 013B     		subs	r3, r3, #1
 6239 00c8 2385     		strh	r3, [r4, #40]	@ movhi
 6240 00ca 638D     		ldrh	r3, [r4, #42]
 6241 00cc 9BB2     		uxth	r3, r3
 6242 00ce 013B     		subs	r3, r3, #1
 6243 00d0 9BB2     		uxth	r3, r3
 6244 00d2 6385     		strh	r3, [r4, #42]	@ movhi
 6245              	.L754:
 6246 00d4 638D     		ldrh	r3, [r4, #42]
 6247 00d6 9BB2     		uxth	r3, r3
 6248 00d8 002B     		cmp	r3, #0
 6249 00da BAD1     		bne	.L748
 6250 00dc 10F5803F 		cmn	r0, #65536
 6251 00e0 B7D0     		beq	.L748
 6252 00e2 2046     		mov	r0, r4
 6253 00e4 FFF7FEFF 		bl	I2C_ITSlaveSeqCplt
 6254 00e8 B3E7     		b	.L748
 6255              	.L753:
 6256 00ea 11F0080F 		tst	r1, #8
 6257 00ee 02D0     		beq	.L755
 6258 00f0 12F0080F 		tst	r2, #8
 6259 00f4 18D1     		bne	.L762
 6260              	.L755:
 6261 00f6 11F0020F 		tst	r1, #2
 6262 00fa AAD0     		beq	.L748
 6263 00fc 12F0020F 		tst	r2, #2
 6264 0100 A7D0     		beq	.L748
 6265 0102 638D     		ldrh	r3, [r4, #42]
 6266 0104 9BB2     		uxth	r3, r3
 6267 0106 9BB1     		cbz	r3, .L756
 6268 0108 626A     		ldr	r2, [r4, #36]
 6269 010a 2368     		ldr	r3, [r4]
 6270 010c 1278     		ldrb	r2, [r2]	@ zero_extendqisi2
 6271 010e 9A62     		str	r2, [r3, #40]
 6272 0110 636A     		ldr	r3, [r4, #36]
 6273 0112 0133     		adds	r3, r3, #1
 6274 0114 6362     		str	r3, [r4, #36]
 6275 0116 638D     		ldrh	r3, [r4, #42]
 6276 0118 9BB2     		uxth	r3, r3
 6277 011a 013B     		subs	r3, r3, #1
 6278 011c 9BB2     		uxth	r3, r3
 6279 011e 6385     		strh	r3, [r4, #42]	@ movhi
 6280 0120 238D     		ldrh	r3, [r4, #40]
 6281 0122 013B     		subs	r3, r3, #1
 6282 0124 2385     		strh	r3, [r4, #40]	@ movhi
 6283 0126 94E7     		b	.L748
 6284              	.L762:
 6285 0128 2046     		mov	r0, r4
 6286 012a FFF7FEFF 		bl	I2C_ITAddrCplt
 6287 012e 90E7     		b	.L748
 6288              	.L756:
 6289 0130 0028     		cmp	r0, #0
ARM GAS  C:\Users\aticl\AppData\Local\Temp\ccNU6x1i.s 			page 109


 6290 0132 18BF     		it	ne
 6291 0134 B0F1807F 		cmpne	r0, #16777216
 6292 0138 8BD1     		bne	.L748
 6293 013a 2046     		mov	r0, r4
 6294 013c FFF7FEFF 		bl	I2C_ITSlaveSeqCplt
 6295 0140 87E7     		b	.L748
 6296              	.L757:
 6297 0142 0220     		movs	r0, #2
 6298 0144 88E7     		b	.L746
 6300              		.section	.text.I2C_ITMasterCplt,"ax",%progbits
 6301              		.align	1
 6302              		.syntax unified
 6303              		.thumb
 6304              		.thumb_func
 6306              	I2C_ITMasterCplt:
 6307              		@ args = 0, pretend = 0, frame = 8
 6308              		@ frame_needed = 0, uses_anonymous_args = 0
 6309 0000 30B5     		push	{r4, r5, lr}
 6310 0002 83B0     		sub	sp, sp, #12
 6311 0004 0446     		mov	r4, r0
 6312 0006 0D46     		mov	r5, r1
 6313 0008 0368     		ldr	r3, [r0]
 6314 000a 2022     		movs	r2, #32
 6315 000c DA61     		str	r2, [r3, #28]
 6316 000e 90F84130 		ldrb	r3, [r0, #65]	@ zero_extendqisi2
 6317 0012 212B     		cmp	r3, #33
 6318 0014 30D0     		beq	.L775
 6319 0016 90F84130 		ldrb	r3, [r0, #65]	@ zero_extendqisi2
 6320 001a 222B     		cmp	r3, #34
 6321 001c 32D0     		beq	.L776
 6322              	.L765:
 6323 001e 2268     		ldr	r2, [r4]
 6324 0020 5368     		ldr	r3, [r2, #4]
 6325 0022 23F0FF73 		bic	r3, r3, #33423360
 6326 0026 23F48B33 		bic	r3, r3, #71168
 6327 002a 23F4FF73 		bic	r3, r3, #510
 6328 002e 23F00103 		bic	r3, r3, #1
 6329 0032 5360     		str	r3, [r2, #4]
 6330 0034 0023     		movs	r3, #0
 6331 0036 6363     		str	r3, [r4, #52]
 6332 0038 A3F58033 		sub	r3, r3, #65536
 6333 003c E362     		str	r3, [r4, #44]
 6334 003e 15F0100F 		tst	r5, #16
 6335 0042 06D0     		beq	.L766
 6336 0044 2368     		ldr	r3, [r4]
 6337 0046 1022     		movs	r2, #16
 6338 0048 DA61     		str	r2, [r3, #28]
 6339 004a 636C     		ldr	r3, [r4, #68]
 6340 004c 43F00403 		orr	r3, r3, #4
 6341 0050 6364     		str	r3, [r4, #68]
 6342              	.L766:
 6343 0052 94F84130 		ldrb	r3, [r4, #65]	@ zero_extendqisi2
 6344 0056 602B     		cmp	r3, #96
 6345 0058 1AD0     		beq	.L777
 6346              	.L767:
 6347 005a 2046     		mov	r0, r4
 6348 005c FFF7FEFF 		bl	I2C_Flush_TXDR
ARM GAS  C:\Users\aticl\AppData\Local\Temp\ccNU6x1i.s 			page 110


 6349 0060 626C     		ldr	r2, [r4, #68]
 6350 0062 94F84130 		ldrb	r3, [r4, #65]	@ zero_extendqisi2
 6351 0066 602B     		cmp	r3, #96
 6352 0068 00D0     		beq	.L768
 6353 006a D2B1     		cbz	r2, .L769
 6354              	.L768:
 6355 006c 616C     		ldr	r1, [r4, #68]
 6356 006e 2046     		mov	r0, r4
 6357 0070 FFF7FEFF 		bl	I2C_ITError
 6358              	.L763:
 6359 0074 03B0     		add	sp, sp, #12
 6360              		@ sp needed
 6361 0076 30BD     		pop	{r4, r5, pc}
 6362              	.L775:
 6363 0078 0121     		movs	r1, #1
 6364 007a FFF7FEFF 		bl	I2C_Disable_IRQ
 6365 007e 1123     		movs	r3, #17
 6366 0080 2363     		str	r3, [r4, #48]
 6367 0082 CCE7     		b	.L765
 6368              	.L776:
 6369 0084 0221     		movs	r1, #2
 6370 0086 FFF7FEFF 		bl	I2C_Disable_IRQ
 6371 008a 1223     		movs	r3, #18
 6372 008c 2363     		str	r3, [r4, #48]
 6373 008e C6E7     		b	.L765
 6374              	.L777:
 6375 0090 15F0040F 		tst	r5, #4
 6376 0094 E1D0     		beq	.L767
 6377 0096 2368     		ldr	r3, [r4]
 6378 0098 5B6A     		ldr	r3, [r3, #36]
 6379 009a DBB2     		uxtb	r3, r3
 6380 009c 0193     		str	r3, [sp, #4]
 6381 009e 019B     		ldr	r3, [sp, #4]
 6382 00a0 DBE7     		b	.L767
 6383              	.L769:
 6384 00a2 94F84130 		ldrb	r3, [r4, #65]	@ zero_extendqisi2
 6385 00a6 212B     		cmp	r3, #33
 6386 00a8 15D0     		beq	.L778
 6387 00aa 94F84130 		ldrb	r3, [r4, #65]	@ zero_extendqisi2
 6388 00ae 222B     		cmp	r3, #34
 6389 00b0 E0D1     		bne	.L763
 6390 00b2 2023     		movs	r3, #32
 6391 00b4 84F84130 		strb	r3, [r4, #65]
 6392 00b8 0023     		movs	r3, #0
 6393 00ba 2363     		str	r3, [r4, #48]
 6394 00bc 94F84230 		ldrb	r3, [r4, #66]	@ zero_extendqisi2
 6395 00c0 402B     		cmp	r3, #64
 6396 00c2 23D0     		beq	.L779
 6397 00c4 0023     		movs	r3, #0
 6398 00c6 84F84230 		strb	r3, [r4, #66]
 6399 00ca 84F84030 		strb	r3, [r4, #64]
 6400 00ce 2046     		mov	r0, r4
 6401 00d0 FFF7FEFF 		bl	HAL_I2C_MasterRxCpltCallback
 6402 00d4 CEE7     		b	.L763
 6403              	.L778:
 6404 00d6 2023     		movs	r3, #32
 6405 00d8 84F84130 		strb	r3, [r4, #65]
ARM GAS  C:\Users\aticl\AppData\Local\Temp\ccNU6x1i.s 			page 111


 6406 00dc 0023     		movs	r3, #0
 6407 00de 2363     		str	r3, [r4, #48]
 6408 00e0 94F84230 		ldrb	r3, [r4, #66]	@ zero_extendqisi2
 6409 00e4 402B     		cmp	r3, #64
 6410 00e6 08D0     		beq	.L780
 6411 00e8 0023     		movs	r3, #0
 6412 00ea 84F84230 		strb	r3, [r4, #66]
 6413 00ee 84F84030 		strb	r3, [r4, #64]
 6414 00f2 2046     		mov	r0, r4
 6415 00f4 FFF7FEFF 		bl	HAL_I2C_MasterTxCpltCallback
 6416 00f8 BCE7     		b	.L763
 6417              	.L780:
 6418 00fa 0023     		movs	r3, #0
 6419 00fc 84F84230 		strb	r3, [r4, #66]
 6420 0100 84F84030 		strb	r3, [r4, #64]
 6421 0104 2046     		mov	r0, r4
 6422 0106 FFF7FEFF 		bl	HAL_I2C_MemTxCpltCallback
 6423 010a B3E7     		b	.L763
 6424              	.L779:
 6425 010c 0023     		movs	r3, #0
 6426 010e 84F84230 		strb	r3, [r4, #66]
 6427 0112 84F84030 		strb	r3, [r4, #64]
 6428 0116 2046     		mov	r0, r4
 6429 0118 FFF7FEFF 		bl	HAL_I2C_MemRxCpltCallback
 6430 011c AAE7     		b	.L763
 6432              		.section	.text.I2C_Master_ISR_IT,"ax",%progbits
 6433              		.align	1
 6434              		.syntax unified
 6435              		.thumb
 6436              		.thumb_func
 6438              	I2C_Master_ISR_IT:
 6439              		@ args = 0, pretend = 0, frame = 0
 6440              		@ frame_needed = 0, uses_anonymous_args = 0
 6441 0000 90F84030 		ldrb	r3, [r0, #64]	@ zero_extendqisi2
 6442 0004 012B     		cmp	r3, #1
 6443 0006 00F0C280 		beq	.L795
 6444 000a 70B5     		push	{r4, r5, r6, lr}
 6445 000c 82B0     		sub	sp, sp, #8
 6446 000e 0446     		mov	r4, r0
 6447 0010 0D46     		mov	r5, r1
 6448 0012 1646     		mov	r6, r2
 6449 0014 0123     		movs	r3, #1
 6450 0016 80F84030 		strb	r3, [r0, #64]
 6451 001a 11F0100F 		tst	r1, #16
 6452 001e 02D0     		beq	.L783
 6453 0020 12F0100F 		tst	r2, #16
 6454 0024 22D1     		bne	.L800
 6455              	.L783:
 6456 0026 15F0040F 		tst	r5, #4
 6457 002a 29D0     		beq	.L785
 6458 002c 16F0040F 		tst	r6, #4
 6459 0030 26D0     		beq	.L785
 6460 0032 25F00405 		bic	r5, r5, #4
 6461 0036 2368     		ldr	r3, [r4]
 6462 0038 5A6A     		ldr	r2, [r3, #36]
 6463 003a 636A     		ldr	r3, [r4, #36]
 6464 003c 1A70     		strb	r2, [r3]
ARM GAS  C:\Users\aticl\AppData\Local\Temp\ccNU6x1i.s 			page 112


 6465 003e 636A     		ldr	r3, [r4, #36]
 6466 0040 0133     		adds	r3, r3, #1
 6467 0042 6362     		str	r3, [r4, #36]
 6468 0044 238D     		ldrh	r3, [r4, #40]
 6469 0046 013B     		subs	r3, r3, #1
 6470 0048 2385     		strh	r3, [r4, #40]	@ movhi
 6471 004a 638D     		ldrh	r3, [r4, #42]
 6472 004c 9BB2     		uxth	r3, r3
 6473 004e 013B     		subs	r3, r3, #1
 6474 0050 9BB2     		uxth	r3, r3
 6475 0052 6385     		strh	r3, [r4, #42]	@ movhi
 6476              	.L784:
 6477 0054 15F0200F 		tst	r5, #32
 6478 0058 03D0     		beq	.L794
 6479 005a 16F0200F 		tst	r6, #32
 6480 005e 40F09180 		bne	.L801
 6481              	.L794:
 6482 0062 0020     		movs	r0, #0
 6483 0064 84F84000 		strb	r0, [r4, #64]
 6484 0068 02B0     		add	sp, sp, #8
 6485              		@ sp needed
 6486 006a 70BD     		pop	{r4, r5, r6, pc}
 6487              	.L800:
 6488 006c 0368     		ldr	r3, [r0]
 6489 006e 1022     		movs	r2, #16
 6490 0070 DA61     		str	r2, [r3, #28]
 6491 0072 436C     		ldr	r3, [r0, #68]
 6492 0074 43F00403 		orr	r3, r3, #4
 6493 0078 4364     		str	r3, [r0, #68]
 6494 007a FFF7FEFF 		bl	I2C_Flush_TXDR
 6495 007e E9E7     		b	.L784
 6496              	.L785:
 6497 0080 C5F38013 		ubfx	r3, r5, #6, #1
 6498 0084 15F0400F 		tst	r5, #64
 6499 0088 19D1     		bne	.L786
 6500 008a 15F0020F 		tst	r5, #2
 6501 008e 16D0     		beq	.L786
 6502 0090 16F0020F 		tst	r6, #2
 6503 0094 13D0     		beq	.L786
 6504 0096 638D     		ldrh	r3, [r4, #42]
 6505 0098 9BB2     		uxth	r3, r3
 6506 009a 002B     		cmp	r3, #0
 6507 009c DAD0     		beq	.L784
 6508 009e 626A     		ldr	r2, [r4, #36]
 6509 00a0 2368     		ldr	r3, [r4]
 6510 00a2 1278     		ldrb	r2, [r2]	@ zero_extendqisi2
 6511 00a4 9A62     		str	r2, [r3, #40]
 6512 00a6 636A     		ldr	r3, [r4, #36]
 6513 00a8 0133     		adds	r3, r3, #1
 6514 00aa 6362     		str	r3, [r4, #36]
 6515 00ac 238D     		ldrh	r3, [r4, #40]
 6516 00ae 013B     		subs	r3, r3, #1
 6517 00b0 2385     		strh	r3, [r4, #40]	@ movhi
 6518 00b2 638D     		ldrh	r3, [r4, #42]
 6519 00b4 9BB2     		uxth	r3, r3
 6520 00b6 013B     		subs	r3, r3, #1
 6521 00b8 9BB2     		uxth	r3, r3
ARM GAS  C:\Users\aticl\AppData\Local\Temp\ccNU6x1i.s 			page 113


 6522 00ba 6385     		strh	r3, [r4, #42]	@ movhi
 6523 00bc CAE7     		b	.L784
 6524              	.L786:
 6525 00be 15F0800F 		tst	r5, #128
 6526 00c2 3FD0     		beq	.L787
 6527 00c4 16F0400F 		tst	r6, #64
 6528 00c8 3CD0     		beq	.L787
 6529 00ca 638D     		ldrh	r3, [r4, #42]
 6530 00cc 9BB2     		uxth	r3, r3
 6531 00ce 5BB3     		cbz	r3, .L788
 6532 00d0 238D     		ldrh	r3, [r4, #40]
 6533 00d2 4BBB     		cbnz	r3, .L788
 6534 00d4 2368     		ldr	r3, [r4]
 6535 00d6 5968     		ldr	r1, [r3, #4]
 6536 00d8 C1F30901 		ubfx	r1, r1, #0, #10
 6537 00dc 638D     		ldrh	r3, [r4, #42]
 6538 00de 9BB2     		uxth	r3, r3
 6539 00e0 FF2B     		cmp	r3, #255
 6540 00e2 0ED8     		bhi	.L802
 6541 00e4 628D     		ldrh	r2, [r4, #42]
 6542 00e6 92B2     		uxth	r2, r2
 6543 00e8 2285     		strh	r2, [r4, #40]	@ movhi
 6544 00ea E36A     		ldr	r3, [r4, #44]
 6545 00ec 13F5803F 		cmn	r3, #65536
 6546 00f0 11D0     		beq	.L790
 6547 00f2 E36A     		ldr	r3, [r4, #44]
 6548 00f4 0020     		movs	r0, #0
 6549 00f6 0090     		str	r0, [sp]
 6550 00f8 D2B2     		uxtb	r2, r2
 6551 00fa 2046     		mov	r0, r4
 6552 00fc FFF7FEFF 		bl	I2C_TransferConfig
 6553 0100 A8E7     		b	.L784
 6554              	.L802:
 6555 0102 FF22     		movs	r2, #255
 6556 0104 2285     		strh	r2, [r4, #40]	@ movhi
 6557 0106 0023     		movs	r3, #0
 6558 0108 0093     		str	r3, [sp]
 6559 010a 4FF08073 		mov	r3, #16777216
 6560 010e 2046     		mov	r0, r4
 6561 0110 FFF7FEFF 		bl	I2C_TransferConfig
 6562 0114 9EE7     		b	.L784
 6563              	.L790:
 6564 0116 0023     		movs	r3, #0
 6565 0118 0093     		str	r3, [sp]
 6566 011a 4FF00073 		mov	r3, #33554432
 6567 011e D2B2     		uxtb	r2, r2
 6568 0120 2046     		mov	r0, r4
 6569 0122 FFF7FEFF 		bl	I2C_TransferConfig
 6570 0126 95E7     		b	.L784
 6571              	.L788:
 6572 0128 2368     		ldr	r3, [r4]
 6573 012a 5B68     		ldr	r3, [r3, #4]
 6574 012c 13F0007F 		tst	r3, #33554432
 6575 0130 03D1     		bne	.L791
 6576 0132 2046     		mov	r0, r4
 6577 0134 FFF7FEFF 		bl	I2C_ITMasterSeqCplt
 6578 0138 8CE7     		b	.L784
ARM GAS  C:\Users\aticl\AppData\Local\Temp\ccNU6x1i.s 			page 114


 6579              	.L791:
 6580 013a 4021     		movs	r1, #64
 6581 013c 2046     		mov	r0, r4
 6582 013e FFF7FEFF 		bl	I2C_ITError
 6583 0142 87E7     		b	.L784
 6584              	.L787:
 6585 0144 002B     		cmp	r3, #0
 6586 0146 85D0     		beq	.L784
 6587 0148 16F0400F 		tst	r6, #64
 6588 014c 82D0     		beq	.L784
 6589 014e 638D     		ldrh	r3, [r4, #42]
 6590 0150 9BB2     		uxth	r3, r3
 6591 0152 93B9     		cbnz	r3, .L792
 6592 0154 2368     		ldr	r3, [r4]
 6593 0156 5A68     		ldr	r2, [r3, #4]
 6594 0158 12F0007F 		tst	r2, #33554432
 6595 015c 7FF47AAF 		bne	.L784
 6596 0160 E26A     		ldr	r2, [r4, #44]
 6597 0162 12F5803F 		cmn	r2, #65536
 6598 0166 04D1     		bne	.L793
 6599 0168 5A68     		ldr	r2, [r3, #4]
 6600 016a 42F48042 		orr	r2, r2, #16384
 6601 016e 5A60     		str	r2, [r3, #4]
 6602 0170 70E7     		b	.L784
 6603              	.L793:
 6604 0172 2046     		mov	r0, r4
 6605 0174 FFF7FEFF 		bl	I2C_ITMasterSeqCplt
 6606 0178 6CE7     		b	.L784
 6607              	.L792:
 6608 017a 4021     		movs	r1, #64
 6609 017c 2046     		mov	r0, r4
 6610 017e FFF7FEFF 		bl	I2C_ITError
 6611 0182 67E7     		b	.L784
 6612              	.L801:
 6613 0184 2946     		mov	r1, r5
 6614 0186 2046     		mov	r0, r4
 6615 0188 FFF7FEFF 		bl	I2C_ITMasterCplt
 6616 018c 69E7     		b	.L794
 6617              	.L795:
 6618 018e 0220     		movs	r0, #2
 6619 0190 7047     		bx	lr
 6621              		.section	.text.I2C_Mem_ISR_DMA,"ax",%progbits
 6622              		.align	1
 6623              		.syntax unified
 6624              		.thumb
 6625              		.thumb_func
 6627              	I2C_Mem_ISR_DMA:
 6628              		@ args = 0, pretend = 0, frame = 0
 6629              		@ frame_needed = 0, uses_anonymous_args = 0
 6630 0000 90F84030 		ldrb	r3, [r0, #64]	@ zero_extendqisi2
 6631 0004 012B     		cmp	r3, #1
 6632 0006 00F0C580 		beq	.L818
 6633 000a 10B5     		push	{r4, lr}
 6634 000c 82B0     		sub	sp, sp, #8
 6635 000e 0446     		mov	r4, r0
 6636 0010 0123     		movs	r3, #1
 6637 0012 80F84030 		strb	r3, [r0, #64]
ARM GAS  C:\Users\aticl\AppData\Local\Temp\ccNU6x1i.s 			page 115


 6638 0016 11F0100F 		tst	r1, #16
 6639 001a 02D0     		beq	.L805
 6640 001c 12F0100F 		tst	r2, #16
 6641 0020 10D1     		bne	.L824
 6642              	.L805:
 6643 0022 11F0020F 		tst	r1, #2
 6644 0026 1BD0     		beq	.L807
 6645 0028 12F0020F 		tst	r2, #2
 6646 002c 18D0     		beq	.L807
 6647 002e 2368     		ldr	r3, [r4]
 6648 0030 226D     		ldr	r2, [r4, #80]
 6649 0032 9A62     		str	r2, [r3, #40]
 6650 0034 4FF0FF33 		mov	r3, #-1
 6651 0038 2365     		str	r3, [r4, #80]
 6652              	.L806:
 6653 003a 0020     		movs	r0, #0
 6654 003c 84F84000 		strb	r0, [r4, #64]
 6655 0040 02B0     		add	sp, sp, #8
 6656              		@ sp needed
 6657 0042 10BD     		pop	{r4, pc}
 6658              	.L824:
 6659 0044 0368     		ldr	r3, [r0]
 6660 0046 1022     		movs	r2, #16
 6661 0048 DA61     		str	r2, [r3, #28]
 6662 004a 436C     		ldr	r3, [r0, #68]
 6663 004c 43F00403 		orr	r3, r3, #4
 6664 0050 4364     		str	r3, [r0, #68]
 6665 0052 2021     		movs	r1, #32
 6666 0054 FFF7FEFF 		bl	I2C_Enable_IRQ
 6667 0058 2046     		mov	r0, r4
