ARM GAS  C:\Users\aticl\AppData\Local\Temp\ccAdNd3N.s 			page 1


   1              		.cpu cortex-m7
   2              		.arch armv7e-m
   3              		.fpu fpv5-d16
   4              		.eabi_attribute 28, 1
   5              		.eabi_attribute 20, 1
   6              		.eabi_attribute 21, 1
   7              		.eabi_attribute 23, 3
   8              		.eabi_attribute 24, 1
   9              		.eabi_attribute 25, 1
  10              		.eabi_attribute 26, 1
  11              		.eabi_attribute 30, 1
  12              		.eabi_attribute 34, 1
  13              		.eabi_attribute 18, 4
  14              		.file	"stm32h7xx_hal_dma_ex.c"
  15              		.text
  16              		.section	.text.DMA_MultiBufferSetConfig,"ax",%progbits
  17              		.align	1
  18              		.syntax unified
  19              		.thumb
  20              		.thumb_func
  22              	DMA_MultiBufferSetConfig:
  23              		@ args = 0, pretend = 0, frame = 0
  24              		@ frame_needed = 0, uses_anonymous_args = 0
  25              		@ link register save eliminated.
  26 0000 70B4     		push	{r4, r5, r6}
  27 0002 0468     		ldr	r4, [r0]
  28 0004 264E     		ldr	r6, .L11
  29 0006 274D     		ldr	r5, .L11+4
  30 0008 AC42     		cmp	r4, r5
  31 000a 18BF     		it	ne
  32 000c B442     		cmpne	r4, r6
  33 000e 33D0     		beq	.L2
  34 0010 1835     		adds	r5, r5, #24
  35 0012 AC42     		cmp	r4, r5
  36 0014 30D0     		beq	.L2
  37 0016 1835     		adds	r5, r5, #24
  38 0018 AC42     		cmp	r4, r5
  39 001a 2DD0     		beq	.L2
  40 001c 1835     		adds	r5, r5, #24
  41 001e AC42     		cmp	r4, r5
  42 0020 2AD0     		beq	.L2
  43 0022 1835     		adds	r5, r5, #24
  44 0024 AC42     		cmp	r4, r5
  45 0026 27D0     		beq	.L2
  46 0028 1835     		adds	r5, r5, #24
  47 002a AC42     		cmp	r4, r5
  48 002c 24D0     		beq	.L2
  49 002e 1835     		adds	r5, r5, #24
  50 0030 AC42     		cmp	r4, r5
  51 0032 21D0     		beq	.L2
  52 0034 05F55675 		add	r5, r5, #856
  53 0038 AC42     		cmp	r4, r5
  54 003a 1DD0     		beq	.L2
  55 003c 1835     		adds	r5, r5, #24
  56 003e AC42     		cmp	r4, r5
  57 0040 1AD0     		beq	.L2
  58 0042 1835     		adds	r5, r5, #24
ARM GAS  C:\Users\aticl\AppData\Local\Temp\ccAdNd3N.s 			page 2


  59 0044 AC42     		cmp	r4, r5
  60 0046 17D0     		beq	.L2
  61 0048 1835     		adds	r5, r5, #24
  62 004a AC42     		cmp	r4, r5
  63 004c 14D0     		beq	.L2
  64 004e 1835     		adds	r5, r5, #24
  65 0050 AC42     		cmp	r4, r5
  66 0052 11D0     		beq	.L2
  67 0054 1835     		adds	r5, r5, #24
  68 0056 AC42     		cmp	r4, r5
  69 0058 0ED0     		beq	.L2
  70 005a 1835     		adds	r5, r5, #24
  71 005c AC42     		cmp	r4, r5
  72 005e 0BD0     		beq	.L2
  73 0060 1835     		adds	r5, r5, #24
  74 0062 AC42     		cmp	r4, r5
  75 0064 08D0     		beq	.L2
  76 0066 6360     		str	r3, [r4, #4]
  77 0068 8368     		ldr	r3, [r0, #8]
  78 006a 402B     		cmp	r3, #64
  79 006c 13D0     		beq	.L9
  80 006e 0368     		ldr	r3, [r0]
  81 0070 9960     		str	r1, [r3, #8]
  82 0072 0368     		ldr	r3, [r0]
  83 0074 DA60     		str	r2, [r3, #12]
  84 0076 07E0     		b	.L1
  85              	.L2:
  86 0078 6360     		str	r3, [r4, #4]
  87 007a 8368     		ldr	r3, [r0, #8]
  88 007c 402B     		cmp	r3, #64
  89 007e 05D0     		beq	.L10
  90 0080 0368     		ldr	r3, [r0]
  91 0082 9960     		str	r1, [r3, #8]
  92 0084 0368     		ldr	r3, [r0]
  93 0086 DA60     		str	r2, [r3, #12]
  94              	.L1:
  95 0088 70BC     		pop	{r4, r5, r6}
  96 008a 7047     		bx	lr
  97              	.L10:
  98 008c 0368     		ldr	r3, [r0]
  99 008e 9A60     		str	r2, [r3, #8]
 100 0090 0368     		ldr	r3, [r0]
 101 0092 D960     		str	r1, [r3, #12]
 102 0094 F8E7     		b	.L1
 103              	.L9:
 104 0096 0368     		ldr	r3, [r0]
 105 0098 9A60     		str	r2, [r3, #8]
 106 009a 0368     		ldr	r3, [r0]
 107 009c D960     		str	r1, [r3, #12]
 108 009e F3E7     		b	.L1
 109              	.L12:
 110              		.align	2
 111              	.L11:
 112 00a0 10000240 		.word	1073872912
 113 00a4 28000240 		.word	1073872936
 115              		.section	.text.HAL_DMAEx_MultiBufferStart,"ax",%progbits
 116              		.align	1
ARM GAS  C:\Users\aticl\AppData\Local\Temp\ccAdNd3N.s 			page 3


 117              		.global	HAL_DMAEx_MultiBufferStart
 118              		.syntax unified
 119              		.thumb
 120              		.thumb_func
 122              	HAL_DMAEx_MultiBufferStart:
 123              		@ args = 4, pretend = 0, frame = 0
 124              		@ frame_needed = 0, uses_anonymous_args = 0
 125 0000 70B5     		push	{r4, r5, r6, lr}
 126 0002 0446     		mov	r4, r0
 127 0004 8068     		ldr	r0, [r0, #8]
 128 0006 8028     		cmp	r0, #128
 129 0008 10D0     		beq	.L25
 130 000a 94F83400 		ldrb	r0, [r4, #52]	@ zero_extendqisi2
 131 000e 0128     		cmp	r0, #1
 132 0010 00F0F880 		beq	.L23
 133 0014 0120     		movs	r0, #1
 134 0016 84F83400 		strb	r0, [r4, #52]
 135 001a 94F83500 		ldrb	r0, [r4, #53]	@ zero_extendqisi2
 136 001e 0128     		cmp	r0, #1
 137 0020 09D0     		beq	.L26
 138 0022 4FF40063 		mov	r3, #2048
 139 0026 6365     		str	r3, [r4, #84]
 140 0028 0120     		movs	r0, #1
 141              	.L15:
 142 002a 70BD     		pop	{r4, r5, r6, pc}
 143              	.L25:
 144 002c 4FF48073 		mov	r3, #256
 145 0030 6365     		str	r3, [r4, #84]
 146 0032 0120     		movs	r0, #1
 147 0034 F9E7     		b	.L15
 148              	.L26:
 149 0036 0220     		movs	r0, #2
 150 0038 84F83500 		strb	r0, [r4, #53]
 151 003c 0020     		movs	r0, #0
 152 003e 6065     		str	r0, [r4, #84]
 153 0040 2068     		ldr	r0, [r4]
 154 0042 714E     		ldr	r6, .L27
 155 0044 714D     		ldr	r5, .L27+4
 156 0046 A842     		cmp	r0, r5
 157 0048 18BF     		it	ne
 158 004a B042     		cmpne	r0, r6
 159 004c 39D0     		beq	.L17
 160 004e 1835     		adds	r5, r5, #24
 161 0050 A842     		cmp	r0, r5
 162 0052 36D0     		beq	.L17
 163 0054 1835     		adds	r5, r5, #24
 164 0056 A842     		cmp	r0, r5
 165 0058 33D0     		beq	.L17
 166 005a 1835     		adds	r5, r5, #24
 167 005c A842     		cmp	r0, r5
 168 005e 30D0     		beq	.L17
 169 0060 1835     		adds	r5, r5, #24
 170 0062 A842     		cmp	r0, r5
 171 0064 2DD0     		beq	.L17
 172 0066 1835     		adds	r5, r5, #24
 173 0068 A842     		cmp	r0, r5
 174 006a 2AD0     		beq	.L17
ARM GAS  C:\Users\aticl\AppData\Local\Temp\ccAdNd3N.s 			page 4


 175 006c 1835     		adds	r5, r5, #24
 176 006e A842     		cmp	r0, r5
 177 0070 27D0     		beq	.L17
 178 0072 05F55675 		add	r5, r5, #856
 179 0076 A842     		cmp	r0, r5
 180 0078 23D0     		beq	.L17
 181 007a 1835     		adds	r5, r5, #24
 182 007c A842     		cmp	r0, r5
 183 007e 20D0     		beq	.L17
 184 0080 1835     		adds	r5, r5, #24
 185 0082 A842     		cmp	r0, r5
 186 0084 1DD0     		beq	.L17
 187 0086 1835     		adds	r5, r5, #24
 188 0088 A842     		cmp	r0, r5
 189 008a 1AD0     		beq	.L17
 190 008c 1835     		adds	r5, r5, #24
 191 008e A842     		cmp	r0, r5
 192 0090 17D0     		beq	.L17
 193 0092 1835     		adds	r5, r5, #24
 194 0094 A842     		cmp	r0, r5
 195 0096 14D0     		beq	.L17
 196 0098 1835     		adds	r5, r5, #24
 197 009a A842     		cmp	r0, r5
 198 009c 11D0     		beq	.L17
 199 009e 1835     		adds	r5, r5, #24
 200 00a0 A842     		cmp	r0, r5
 201 00a2 0ED0     		beq	.L17
 202 00a4 0668     		ldr	r6, [r0]
 203 00a6 48F22005 		movw	r5, #32800
 204 00aa 3543     		orrs	r5, r5, r6
 205 00ac 0560     		str	r5, [r0]
 206 00ae 2068     		ldr	r0, [r4]
 207 00b0 0361     		str	r3, [r0, #16]
 208 00b2 A56D     		ldr	r5, [r4, #88]
 209 00b4 E36D     		ldr	r3, [r4, #92]
 210 00b6 03F01F00 		and	r0, r3, #31
 211 00ba 0123     		movs	r3, #1
 212 00bc 8340     		lsls	r3, r3, r0
 213 00be 6B60     		str	r3, [r5, #4]
 214 00c0 0CE0     		b	.L18
 215              	.L17:
 216 00c2 0568     		ldr	r5, [r0]
 217 00c4 45F48025 		orr	r5, r5, #262144
 218 00c8 0560     		str	r5, [r0]
 219 00ca 2068     		ldr	r0, [r4]
 220 00cc 0361     		str	r3, [r0, #16]
 221 00ce A56D     		ldr	r5, [r4, #88]
 222 00d0 E36D     		ldr	r3, [r4, #92]
 223 00d2 03F01F00 		and	r0, r3, #31
 224 00d6 3F23     		movs	r3, #63
 225 00d8 8340     		lsls	r3, r3, r0
 226 00da AB60     		str	r3, [r5, #8]
 227              	.L18:
 228 00dc 2368     		ldr	r3, [r4]
 229 00de 4A4D     		ldr	r5, .L27
 230 00e0 4A48     		ldr	r0, .L27+4
 231 00e2 8342     		cmp	r3, r0
ARM GAS  C:\Users\aticl\AppData\Local\Temp\ccAdNd3N.s 			page 5


 232 00e4 18BF     		it	ne
 233 00e6 AB42     		cmpne	r3, r5
 234 00e8 42D0     		beq	.L19
 235 00ea 1830     		adds	r0, r0, #24
 236 00ec 8342     		cmp	r3, r0
 237 00ee 3FD0     		beq	.L19
 238 00f0 1830     		adds	r0, r0, #24
 239 00f2 8342     		cmp	r3, r0
 240 00f4 3CD0     		beq	.L19
 241 00f6 1830     		adds	r0, r0, #24
 242 00f8 8342     		cmp	r3, r0
 243 00fa 39D0     		beq	.L19
 244 00fc 1830     		adds	r0, r0, #24
 245 00fe 8342     		cmp	r3, r0
 246 0100 36D0     		beq	.L19
 247 0102 1830     		adds	r0, r0, #24
 248 0104 8342     		cmp	r3, r0
 249 0106 33D0     		beq	.L19
 250 0108 1830     		adds	r0, r0, #24
 251 010a 8342     		cmp	r3, r0
 252 010c 30D0     		beq	.L19
 253 010e 00F55670 		add	r0, r0, #856
 254 0112 8342     		cmp	r3, r0
 255 0114 2CD0     		beq	.L19
 256 0116 1830     		adds	r0, r0, #24
 257 0118 8342     		cmp	r3, r0
 258 011a 29D0     		beq	.L19
 259 011c 1830     		adds	r0, r0, #24
 260 011e 8342     		cmp	r3, r0
 261 0120 26D0     		beq	.L19
 262 0122 1830     		adds	r0, r0, #24
 263 0124 8342     		cmp	r3, r0
 264 0126 23D0     		beq	.L19
 265 0128 1830     		adds	r0, r0, #24
 266 012a 8342     		cmp	r3, r0
 267 012c 20D0     		beq	.L19
 268 012e 1830     		adds	r0, r0, #24
 269 0130 8342     		cmp	r3, r0
 270 0132 1DD0     		beq	.L19
 271 0134 1830     		adds	r0, r0, #24
 272 0136 8342     		cmp	r3, r0
 273 0138 1AD0     		beq	.L19
 274 013a 1830     		adds	r0, r0, #24
 275 013c 8342     		cmp	r3, r0
 276 013e 17D0     		beq	.L19
 277 0140 3348     		ldr	r0, .L27+8
 278 0142 8342     		cmp	r3, r0
 279 0144 14D0     		beq	.L19
 280 0146 1430     		adds	r0, r0, #20
 281 0148 8342     		cmp	r3, r0
 282 014a 11D0     		beq	.L19
 283 014c 1430     		adds	r0, r0, #20
 284 014e 8342     		cmp	r3, r0
 285 0150 0ED0     		beq	.L19
 286 0152 1430     		adds	r0, r0, #20
 287 0154 8342     		cmp	r3, r0
 288 0156 0BD0     		beq	.L19
ARM GAS  C:\Users\aticl\AppData\Local\Temp\ccAdNd3N.s 			page 6


 289 0158 1430     		adds	r0, r0, #20
 290 015a 8342     		cmp	r3, r0
 291 015c 08D0     		beq	.L19
 292 015e 1430     		adds	r0, r0, #20
 293 0160 8342     		cmp	r3, r0
 294 0162 05D0     		beq	.L19
 295 0164 1430     		adds	r0, r0, #20
 296 0166 8342     		cmp	r3, r0
 297 0168 02D0     		beq	.L19
 298 016a 1430     		adds	r0, r0, #20
 299 016c 8342     		cmp	r3, r0
 300 016e 0BD1     		bne	.L20
 301              	.L19:
 302 0170 049B     		ldr	r3, [sp, #16]
 303 0172 2046     		mov	r0, r4
 304 0174 FFF7FEFF 		bl	DMA_MultiBufferSetConfig
 305 0178 636E     		ldr	r3, [r4, #100]
 306 017a A26E     		ldr	r2, [r4, #104]
 307 017c 5A60     		str	r2, [r3, #4]
 308 017e E36E     		ldr	r3, [r4, #108]
 309 0180 13B1     		cbz	r3, .L20
 310 0182 236F     		ldr	r3, [r4, #112]
 311 0184 626F     		ldr	r2, [r4, #116]
 312 0186 5A60     		str	r2, [r3, #4]
 313              	.L20:
 314 0188 2368     		ldr	r3, [r4]
 315 018a 1F49     		ldr	r1, .L27
 316 018c 1F4A     		ldr	r2, .L27+4
 317 018e 9342     		cmp	r3, r2
 318 0190 18BF     		it	ne
 319 0192 8B42     		cmpne	r3, r1
 320 0194 30D0     		beq	.L21
 321 0196 1832     		adds	r2, r2, #24
 322 0198 9342     		cmp	r3, r2
 323 019a 2DD0     		beq	.L21
 324 019c 1832     		adds	r2, r2, #24
 325 019e 9342     		cmp	r3, r2
 326 01a0 2AD0     		beq	.L21
 327 01a2 1832     		adds	r2, r2, #24
 328 01a4 9342     		cmp	r3, r2
 329 01a6 27D0     		beq	.L21
 330 01a8 1832     		adds	r2, r2, #24
 331 01aa 9342     		cmp	r3, r2
 332 01ac 24D0     		beq	.L21
 333 01ae 1832     		adds	r2, r2, #24
 334 01b0 9342     		cmp	r3, r2
 335 01b2 21D0     		beq	.L21
 336 01b4 1832     		adds	r2, r2, #24
 337 01b6 9342     		cmp	r3, r2
 338 01b8 1ED0     		beq	.L21
 339 01ba 02F55672 		add	r2, r2, #856
 340 01be 9342     		cmp	r3, r2
 341 01c0 1AD0     		beq	.L21
 342 01c2 1832     		adds	r2, r2, #24
 343 01c4 9342     		cmp	r3, r2
 344 01c6 17D0     		beq	.L21
 345 01c8 1832     		adds	r2, r2, #24
ARM GAS  C:\Users\aticl\AppData\Local\Temp\ccAdNd3N.s 			page 7


 346 01ca 9342     		cmp	r3, r2
 347 01cc 14D0     		beq	.L21
 348 01ce 1832     		adds	r2, r2, #24
 349 01d0 9342     		cmp	r3, r2
 350 01d2 11D0     		beq	.L21
 351 01d4 1832     		adds	r2, r2, #24
 352 01d6 9342     		cmp	r3, r2
 353 01d8 0ED0     		beq	.L21
 354 01da 1832     		adds	r2, r2, #24
 355 01dc 9342     		cmp	r3, r2
 356 01de 0BD0     		beq	.L21
 357 01e0 1832     		adds	r2, r2, #24
 358 01e2 9342     		cmp	r3, r2
 359 01e4 08D0     		beq	.L21
 360 01e6 1832     		adds	r2, r2, #24
 361 01e8 9342     		cmp	r3, r2
 362 01ea 05D0     		beq	.L21
 363 01ec 1A68     		ldr	r2, [r3]
 364 01ee 42F00102 		orr	r2, r2, #1
 365 01f2 1A60     		str	r2, [r3]
 366 01f4 0020     		movs	r0, #0
 367 01f6 18E7     		b	.L15
 368              	.L21:
 369 01f8 1A68     		ldr	r2, [r3]
 370 01fa 42F00102 		orr	r2, r2, #1
 371 01fe 1A60     		str	r2, [r3]
 372 0200 0020     		movs	r0, #0
 373 0202 12E7     		b	.L15
 374              	.L23:
 375 0204 0220     		movs	r0, #2
 376 0206 10E7     		b	.L15
 377              	.L28:
 378              		.align	2
 379              	.L27:
 380 0208 10000240 		.word	1073872912
 381 020c 28000240 		.word	1073872936
 382 0210 08540258 		.word	1476547592
 384              		.section	.text.HAL_DMAEx_MultiBufferStart_IT,"ax",%progbits
 385              		.align	1
 386              		.global	HAL_DMAEx_MultiBufferStart_IT
 387              		.syntax unified
 388              		.thumb
 389              		.thumb_func
 391              	HAL_DMAEx_MultiBufferStart_IT:
 392              		@ args = 4, pretend = 0, frame = 0
 393              		@ frame_needed = 0, uses_anonymous_args = 0
 394 0000 70B5     		push	{r4, r5, r6, lr}
 395 0002 0446     		mov	r4, r0
 396 0004 8068     		ldr	r0, [r0, #8]
 397 0006 8028     		cmp	r0, #128
 398 0008 10D0     		beq	.L50
 399 000a 94F83400 		ldrb	r0, [r4, #52]	@ zero_extendqisi2
 400 000e 0128     		cmp	r0, #1
 401 0010 00F0B781 		beq	.L47
 402 0014 0120     		movs	r0, #1
 403 0016 84F83400 		strb	r0, [r4, #52]
 404 001a 94F83500 		ldrb	r0, [r4, #53]	@ zero_extendqisi2
ARM GAS  C:\Users\aticl\AppData\Local\Temp\ccAdNd3N.s 			page 8


 405 001e 0128     		cmp	r0, #1
 406 0020 09D0     		beq	.L51
 407 0022 4FF40063 		mov	r3, #2048
 408 0026 6365     		str	r3, [r4, #84]
 409 0028 0120     		movs	r0, #1
 410              	.L31:
 411 002a 70BD     		pop	{r4, r5, r6, pc}
 412              	.L50:
 413 002c 4FF48073 		mov	r3, #256
 414 0030 6365     		str	r3, [r4, #84]
 415 0032 0120     		movs	r0, #1
 416 0034 F9E7     		b	.L31
 417              	.L51:
 418 0036 0220     		movs	r0, #2
 419 0038 84F83500 		strb	r0, [r4, #53]
 420 003c 0020     		movs	r0, #0
 421 003e 6065     		str	r0, [r4, #84]
 422 0040 2068     		ldr	r0, [r4]
 423 0042 724E     		ldr	r6, .L54
 424 0044 724D     		ldr	r5, .L54+4
 425 0046 A842     		cmp	r0, r5
 426 0048 18BF     		it	ne
 427 004a B042     		cmpne	r0, r6
 428 004c 39D0     		beq	.L33
 429 004e 1835     		adds	r5, r5, #24
 430 0050 A842     		cmp	r0, r5
 431 0052 36D0     		beq	.L33
 432 0054 1835     		adds	r5, r5, #24
 433 0056 A842     		cmp	r0, r5
 434 0058 33D0     		beq	.L33
 435 005a 1835     		adds	r5, r5, #24
 436 005c A842     		cmp	r0, r5
 437 005e 30D0     		beq	.L33
 438 0060 1835     		adds	r5, r5, #24
 439 0062 A842     		cmp	r0, r5
 440 0064 2DD0     		beq	.L33
 441 0066 1835     		adds	r5, r5, #24
 442 0068 A842     		cmp	r0, r5
 443 006a 2AD0     		beq	.L33
 444 006c 1835     		adds	r5, r5, #24
 445 006e A842     		cmp	r0, r5
 446 0070 27D0     		beq	.L33
 447 0072 05F55675 		add	r5, r5, #856
 448 0076 A842     		cmp	r0, r5
 449 0078 23D0     		beq	.L33
 450 007a 1835     		adds	r5, r5, #24
 451 007c A842     		cmp	r0, r5
 452 007e 20D0     		beq	.L33
 453 0080 1835     		adds	r5, r5, #24
 454 0082 A842     		cmp	r0, r5
 455 0084 1DD0     		beq	.L33
 456 0086 1835     		adds	r5, r5, #24
 457 0088 A842     		cmp	r0, r5
 458 008a 1AD0     		beq	.L33
 459 008c 1835     		adds	r5, r5, #24
 460 008e A842     		cmp	r0, r5
 461 0090 17D0     		beq	.L33
ARM GAS  C:\Users\aticl\AppData\Local\Temp\ccAdNd3N.s 			page 9


 462 0092 1835     		adds	r5, r5, #24
 463 0094 A842     		cmp	r0, r5
 464 0096 14D0     		beq	.L33
 465 0098 1835     		adds	r5, r5, #24
 466 009a A842     		cmp	r0, r5
 467 009c 11D0     		beq	.L33
 468 009e 1835     		adds	r5, r5, #24
 469 00a0 A842     		cmp	r0, r5
 470 00a2 0ED0     		beq	.L33
 471 00a4 0668     		ldr	r6, [r0]
 472 00a6 48F22005 		movw	r5, #32800
 473 00aa 3543     		orrs	r5, r5, r6
 474 00ac 0560     		str	r5, [r0]
 475 00ae 2068     		ldr	r0, [r4]
 476 00b0 0361     		str	r3, [r0, #16]
 477 00b2 A56D     		ldr	r5, [r4, #88]
 478 00b4 E36D     		ldr	r3, [r4, #92]
 479 00b6 03F01F00 		and	r0, r3, #31
 480 00ba 0123     		movs	r3, #1
 481 00bc 8340     		lsls	r3, r3, r0
 482 00be 6B60     		str	r3, [r5, #4]
 483 00c0 0CE0     		b	.L34
 484              	.L33:
 485 00c2 0568     		ldr	r5, [r0]
 486 00c4 45F48025 		orr	r5, r5, #262144
 487 00c8 0560     		str	r5, [r0]
 488 00ca 2068     		ldr	r0, [r4]
 489 00cc 0361     		str	r3, [r0, #16]
 490 00ce A56D     		ldr	r5, [r4, #88]
 491 00d0 E36D     		ldr	r3, [r4, #92]
 492 00d2 03F01F00 		and	r0, r3, #31
 493 00d6 3F23     		movs	r3, #63
 494 00d8 8340     		lsls	r3, r3, r0
 495 00da AB60     		str	r3, [r5, #8]
 496              	.L34:
 497 00dc 049B     		ldr	r3, [sp, #16]
 498 00de 2046     		mov	r0, r4
 499 00e0 FFF7FEFF 		bl	DMA_MultiBufferSetConfig
 500 00e4 2368     		ldr	r3, [r4]
 501 00e6 4949     		ldr	r1, .L54
 502 00e8 494A     		ldr	r2, .L54+4
 503 00ea 9342     		cmp	r3, r2
 504 00ec 18BF     		it	ne
 505 00ee 8B42     		cmpne	r3, r1
 506 00f0 42D0     		beq	.L35
 507 00f2 1832     		adds	r2, r2, #24
 508 00f4 9342     		cmp	r3, r2
 509 00f6 3FD0     		beq	.L35
 510 00f8 1832     		adds	r2, r2, #24
 511 00fa 9342     		cmp	r3, r2
 512 00fc 3CD0     		beq	.L35
 513 00fe 1832     		adds	r2, r2, #24
 514 0100 9342     		cmp	r3, r2
 515 0102 39D0     		beq	.L35
 516 0104 1832     		adds	r2, r2, #24
 517 0106 9342     		cmp	r3, r2
 518 0108 36D0     		beq	.L35
ARM GAS  C:\Users\aticl\AppData\Local\Temp\ccAdNd3N.s 			page 10


 519 010a 1832     		adds	r2, r2, #24
 520 010c 9342     		cmp	r3, r2
 521 010e 33D0     		beq	.L35
 522 0110 1832     		adds	r2, r2, #24
 523 0112 9342     		cmp	r3, r2
 524 0114 30D0     		beq	.L35
 525 0116 02F55672 		add	r2, r2, #856
 526 011a 9342     		cmp	r3, r2
 527 011c 2CD0     		beq	.L35
 528 011e 1832     		adds	r2, r2, #24
 529 0120 9342     		cmp	r3, r2
 530 0122 29D0     		beq	.L35
 531 0124 1832     		adds	r2, r2, #24
 532 0126 9342     		cmp	r3, r2
 533 0128 26D0     		beq	.L35
 534 012a 1832     		adds	r2, r2, #24
 535 012c 9342     		cmp	r3, r2
 536 012e 23D0     		beq	.L35
 537 0130 1832     		adds	r2, r2, #24
 538 0132 9342     		cmp	r3, r2
 539 0134 20D0     		beq	.L35
 540 0136 1832     		adds	r2, r2, #24
 541 0138 9342     		cmp	r3, r2
 542 013a 1DD0     		beq	.L35
 543 013c 1832     		adds	r2, r2, #24
 544 013e 9342     		cmp	r3, r2
 545 0140 1AD0     		beq	.L35
 546 0142 1832     		adds	r2, r2, #24
 547 0144 9342     		cmp	r3, r2
 548 0146 17D0     		beq	.L35
 549 0148 324A     		ldr	r2, .L54+8
 550 014a 9342     		cmp	r3, r2
 551 014c 14D0     		beq	.L35
 552 014e 1432     		adds	r2, r2, #20
 553 0150 9342     		cmp	r3, r2
 554 0152 11D0     		beq	.L35
 555 0154 1432     		adds	r2, r2, #20
 556 0156 9342     		cmp	r3, r2
 557 0158 0ED0     		beq	.L35
 558 015a 1432     		adds	r2, r2, #20
 559 015c 9342     		cmp	r3, r2
 560 015e 0BD0     		beq	.L35
 561 0160 1432     		adds	r2, r2, #20
 562 0162 9342     		cmp	r3, r2
 563 0164 08D0     		beq	.L35
 564 0166 1432     		adds	r2, r2, #20
 565 0168 9342     		cmp	r3, r2
 566 016a 05D0     		beq	.L35
 567 016c 1432     		adds	r2, r2, #20
 568 016e 9342     		cmp	r3, r2
 569 0170 02D0     		beq	.L35
 570 0172 1432     		adds	r2, r2, #20
 571 0174 9342     		cmp	r3, r2
 572 0176 07D1     		bne	.L36
 573              	.L35:
 574 0178 636E     		ldr	r3, [r4, #100]
 575 017a A26E     		ldr	r2, [r4, #104]
ARM GAS  C:\Users\aticl\AppData\Local\Temp\ccAdNd3N.s 			page 11


 576 017c 5A60     		str	r2, [r3, #4]
 577 017e E36E     		ldr	r3, [r4, #108]
 578 0180 13B1     		cbz	r3, .L36
 579 0182 236F     		ldr	r3, [r4, #112]
 580 0184 626F     		ldr	r2, [r4, #116]
 581 0186 5A60     		str	r2, [r3, #4]
 582              	.L36:
 583 0188 2368     		ldr	r3, [r4]
 584 018a 2049     		ldr	r1, .L54
 585 018c 204A     		ldr	r2, .L54+4
 586 018e 9342     		cmp	r3, r2
 587 0190 18BF     		it	ne
 588 0192 8B42     		cmpne	r3, r1
 589 0194 40D0     		beq	.L37
 590 0196 1832     		adds	r2, r2, #24
 591 0198 9342     		cmp	r3, r2
 592 019a 3DD0     		beq	.L37
 593 019c 1832     		adds	r2, r2, #24
 594 019e 9342     		cmp	r3, r2
 595 01a0 3AD0     		beq	.L37
 596 01a2 1832     		adds	r2, r2, #24
 597 01a4 9342     		cmp	r3, r2
 598 01a6 37D0     		beq	.L37
 599 01a8 1832     		adds	r2, r2, #24
 600 01aa 9342     		cmp	r3, r2
 601 01ac 34D0     		beq	.L37
 602 01ae 1832     		adds	r2, r2, #24
 603 01b0 9342     		cmp	r3, r2
 604 01b2 31D0     		beq	.L37
 605 01b4 1832     		adds	r2, r2, #24
 606 01b6 9342     		cmp	r3, r2
 607 01b8 2ED0     		beq	.L37
 608 01ba 02F55672 		add	r2, r2, #856
 609 01be 9342     		cmp	r3, r2
 610 01c0 2AD0     		beq	.L37
 611 01c2 1832     		adds	r2, r2, #24
 612 01c4 9342     		cmp	r3, r2
 613 01c6 27D0     		beq	.L37
 614 01c8 1832     		adds	r2, r2, #24
 615 01ca 9342     		cmp	r3, r2
 616 01cc 24D0     		beq	.L37
 617 01ce 1832     		adds	r2, r2, #24
 618 01d0 9342     		cmp	r3, r2
 619 01d2 21D0     		beq	.L37
 620 01d4 1832     		adds	r2, r2, #24
 621 01d6 9342     		cmp	r3, r2
 622 01d8 1ED0     		beq	.L37
 623 01da 1832     		adds	r2, r2, #24
 624 01dc 9342     		cmp	r3, r2
 625 01de 1BD0     		beq	.L37
 626 01e0 1832     		adds	r2, r2, #24
 627 01e2 9342     		cmp	r3, r2
 628 01e4 18D0     		beq	.L37
 629 01e6 1832     		adds	r2, r2, #24
 630 01e8 9342     		cmp	r3, r2
 631 01ea 15D0     		beq	.L37
 632 01ec 1A68     		ldr	r2, [r3]
ARM GAS  C:\Users\aticl\AppData\Local\Temp\ccAdNd3N.s 			page 12


 633 01ee 22F00E02 		bic	r2, r2, #14
 634 01f2 42F00A02 		orr	r2, r2, #10
 635 01f6 1A60     		str	r2, [r3]
 636 01f8 236C     		ldr	r3, [r4, #64]
 637 01fa 002B     		cmp	r3, #0
 638 01fc 00F0B680 		beq	.L52
 639              	.L38:
 640 0200 2268     		ldr	r2, [r4]
 641 0202 1368     		ldr	r3, [r2]
 642 0204 43F00403 		orr	r3, r3, #4
 643 0208 1360     		str	r3, [r2]
 644 020a 19E0     		b	.L41
 645              	.L55:
 646              		.align	2
 647              	.L54:
 648 020c 10000240 		.word	1073872912
 649 0210 28000240 		.word	1073872936
 650 0214 08540258 		.word	1476547592
 651              	.L37:
 652 0218 1A68     		ldr	r2, [r3]
 653 021a 22F01E02 		bic	r2, r2, #30
 654 021e 42F01602 		orr	r2, r2, #22
 655 0222 1A60     		str	r2, [r3]
 656 0224 2268     		ldr	r2, [r4]
 657 0226 5369     		ldr	r3, [r2, #20]
 658 0228 43F08003 		orr	r3, r3, #128
 659 022c 5361     		str	r3, [r2, #20]
 660 022e 236C     		ldr	r3, [r4, #64]
 661 0230 002B     		cmp	r3, #0
 662 0232 00F09680 		beq	.L53
 663              	.L40:
 664 0236 2268     		ldr	r2, [r4]
 665 0238 1368     		ldr	r3, [r2]
 666 023a 43F00803 		orr	r3, r3, #8
 667 023e 1360     		str	r3, [r2]
 668              	.L41:
 669 0240 2368     		ldr	r3, [r4]
 670 0242 5149     		ldr	r1, .L56
 671 0244 514A     		ldr	r2, .L56+4
 672 0246 9342     		cmp	r3, r2
 673 0248 18BF     		it	ne
 674 024a 8B42     		cmpne	r3, r1
 675 024c 42D0     		beq	.L42
 676 024e 1832     		adds	r2, r2, #24
 677 0250 9342     		cmp	r3, r2
 678 0252 3FD0     		beq	.L42
 679 0254 1832     		adds	r2, r2, #24
 680 0256 9342     		cmp	r3, r2
 681 0258 3CD0     		beq	.L42
 682 025a 1832     		adds	r2, r2, #24
 683 025c 9342     		cmp	r3, r2
 684 025e 39D0     		beq	.L42
 685 0260 1832     		adds	r2, r2, #24
 686 0262 9342     		cmp	r3, r2
 687 0264 36D0     		beq	.L42
 688 0266 1832     		adds	r2, r2, #24
 689 0268 9342     		cmp	r3, r2
ARM GAS  C:\Users\aticl\AppData\Local\Temp\ccAdNd3N.s 			page 13


 690 026a 33D0     		beq	.L42
 691 026c 1832     		adds	r2, r2, #24
 692 026e 9342     		cmp	r3, r2
 693 0270 30D0     		beq	.L42
 694 0272 02F55672 		add	r2, r2, #856
 695 0276 9342     		cmp	r3, r2
 696 0278 2CD0     		beq	.L42
 697 027a 1832     		adds	r2, r2, #24
 698 027c 9342     		cmp	r3, r2
 699 027e 29D0     		beq	.L42
 700 0280 1832     		adds	r2, r2, #24
 701 0282 9342     		cmp	r3, r2
 702 0284 26D0     		beq	.L42
 703 0286 1832     		adds	r2, r2, #24
 704 0288 9342     		cmp	r3, r2
 705 028a 23D0     		beq	.L42
 706 028c 1832     		adds	r2, r2, #24
 707 028e 9342     		cmp	r3, r2
 708 0290 20D0     		beq	.L42
 709 0292 1832     		adds	r2, r2, #24
 710 0294 9342     		cmp	r3, r2
 711 0296 1DD0     		beq	.L42
 712 0298 1832     		adds	r2, r2, #24
 713 029a 9342     		cmp	r3, r2
 714 029c 1AD0     		beq	.L42
 715 029e 1832     		adds	r2, r2, #24
 716 02a0 9342     		cmp	r3, r2
 717 02a2 17D0     		beq	.L42
 718 02a4 3A4A     		ldr	r2, .L56+8
 719 02a6 9342     		cmp	r3, r2
 720 02a8 14D0     		beq	.L42
 721 02aa 1432     		adds	r2, r2, #20
 722 02ac 9342     		cmp	r3, r2
 723 02ae 11D0     		beq	.L42
 724 02b0 1432     		adds	r2, r2, #20
 725 02b2 9342     		cmp	r3, r2
 726 02b4 0ED0     		beq	.L42
 727 02b6 1432     		adds	r2, r2, #20
 728 02b8 9342     		cmp	r3, r2
 729 02ba 0BD0     		beq	.L42
 730 02bc 1432     		adds	r2, r2, #20
 731 02be 9342     		cmp	r3, r2
 732 02c0 08D0     		beq	.L42
 733 02c2 1432     		adds	r2, r2, #20
 734 02c4 9342     		cmp	r3, r2
 735 02c6 05D0     		beq	.L42
 736 02c8 1432     		adds	r2, r2, #20
 737 02ca 9342     		cmp	r3, r2
 738 02cc 02D0     		beq	.L42
 739 02ce 1432     		adds	r2, r2, #20
 740 02d0 9342     		cmp	r3, r2
 741 02d2 0ED1     		bne	.L43
 742              	.L42:
 743 02d4 236E     		ldr	r3, [r4, #96]
 744 02d6 1A68     		ldr	r2, [r3]
 745 02d8 12F4803F 		tst	r2, #65536
 746 02dc 03D0     		beq	.L44
ARM GAS  C:\Users\aticl\AppData\Local\Temp\ccAdNd3N.s 			page 14


 747 02de 1A68     		ldr	r2, [r3]
 748 02e0 42F48072 		orr	r2, r2, #256
 749 02e4 1A60     		str	r2, [r3]
 750              	.L44:
 751 02e6 E36E     		ldr	r3, [r4, #108]
 752 02e8 1BB1     		cbz	r3, .L43
 753 02ea 1A68     		ldr	r2, [r3]
 754 02ec 42F48072 		orr	r2, r2, #256
 755 02f0 1A60     		str	r2, [r3]
 756              	.L43:
 757 02f2 2368     		ldr	r3, [r4]
 758 02f4 2449     		ldr	r1, .L56
 759 02f6 254A     		ldr	r2, .L56+4
 760 02f8 9342     		cmp	r3, r2
 761 02fa 18BF     		it	ne
 762 02fc 8B42     		cmpne	r3, r1
 763 02fe 3AD0     		beq	.L45
 764 0300 1832     		adds	r2, r2, #24
 765 0302 9342     		cmp	r3, r2
 766 0304 37D0     		beq	.L45
 767 0306 1832     		adds	r2, r2, #24
 768 0308 9342     		cmp	r3, r2
 769 030a 34D0     		beq	.L45
 770 030c 1832     		adds	r2, r2, #24
 771 030e 9342     		cmp	r3, r2
 772 0310 31D0     		beq	.L45
 773 0312 1832     		adds	r2, r2, #24
 774 0314 9342     		cmp	r3, r2
 775 0316 2ED0     		beq	.L45
 776 0318 1832     		adds	r2, r2, #24
 777 031a 9342     		cmp	r3, r2
 778 031c 2BD0     		beq	.L45
 779 031e 1832     		adds	r2, r2, #24
 780 0320 9342     		cmp	r3, r2
 781 0322 28D0     		beq	.L45
 782 0324 02F55672 		add	r2, r2, #856
 783 0328 9342     		cmp	r3, r2
 784 032a 24D0     		beq	.L45
 785 032c 1832     		adds	r2, r2, #24
 786 032e 9342     		cmp	r3, r2
 787 0330 21D0     		beq	.L45
 788 0332 1832     		adds	r2, r2, #24
 789 0334 9342     		cmp	r3, r2
 790 0336 1ED0     		beq	.L45
 791 0338 1832     		adds	r2, r2, #24
 792 033a 9342     		cmp	r3, r2
 793 033c 1BD0     		beq	.L45
 794 033e 1832     		adds	r2, r2, #24
 795 0340 9342     		cmp	r3, r2
 796 0342 18D0     		beq	.L45
 797 0344 1832     		adds	r2, r2, #24
 798 0346 9342     		cmp	r3, r2
 799 0348 15D0     		beq	.L45
 800 034a 1832     		adds	r2, r2, #24
 801 034c 9342     		cmp	r3, r2
 802 034e 12D0     		beq	.L45
 803 0350 1832     		adds	r2, r2, #24
ARM GAS  C:\Users\aticl\AppData\Local\Temp\ccAdNd3N.s 			page 15


 804 0352 9342     		cmp	r3, r2
 805 0354 0FD0     		beq	.L45
 806 0356 1A68     		ldr	r2, [r3]
 807 0358 42F00102 		orr	r2, r2, #1
 808 035c 1A60     		str	r2, [r3]
 809 035e 0020     		movs	r0, #0
 810 0360 63E6     		b	.L31
 811              	.L53:
 812 0362 A36C     		ldr	r3, [r4, #72]
 813 0364 002B     		cmp	r3, #0
 814 0366 7FF466AF 		bne	.L40
 815 036a 69E7     		b	.L41
 816              	.L52:
 817 036c A36C     		ldr	r3, [r4, #72]
 818 036e 002B     		cmp	r3, #0
 819 0370 7FF446AF 		bne	.L38
 820 0374 64E7     		b	.L41
 821              	.L45:
 822 0376 1A68     		ldr	r2, [r3]
 823 0378 42F00102 		orr	r2, r2, #1
 824 037c 1A60     		str	r2, [r3]
 825 037e 0020     		movs	r0, #0
 826 0380 53E6     		b	.L31
 827              	.L47:
 828 0382 0220     		movs	r0, #2
 829 0384 51E6     		b	.L31
 830              	.L57:
 831 0386 00BF     		.align	2
 832              	.L56:
 833 0388 10000240 		.word	1073872912
 834 038c 28000240 		.word	1073872936
 835 0390 08540258 		.word	1476547592
 837              		.section	.text.HAL_DMAEx_ChangeMemory,"ax",%progbits
 838              		.align	1
 839              		.global	HAL_DMAEx_ChangeMemory
 840              		.syntax unified
 841              		.thumb
 842              		.thumb_func
 844              	HAL_DMAEx_ChangeMemory:
 845              		@ args = 0, pretend = 0, frame = 0
 846              		@ frame_needed = 0, uses_anonymous_args = 0
 847              		@ link register save eliminated.
 848 0000 10B4     		push	{r4}
 849 0002 0368     		ldr	r3, [r0]
 850 0004 1E4C     		ldr	r4, .L66
 851 0006 1F48     		ldr	r0, .L66+4
 852 0008 8342     		cmp	r3, r0
 853 000a 18BF     		it	ne
 854 000c A342     		cmpne	r3, r4
 855 000e 2DD0     		beq	.L59
 856 0010 1830     		adds	r0, r0, #24
 857 0012 8342     		cmp	r3, r0
 858 0014 2AD0     		beq	.L59
 859 0016 1830     		adds	r0, r0, #24
 860 0018 8342     		cmp	r3, r0
 861 001a 27D0     		beq	.L59
 862 001c 1830     		adds	r0, r0, #24
ARM GAS  C:\Users\aticl\AppData\Local\Temp\ccAdNd3N.s 			page 16


 863 001e 8342     		cmp	r3, r0
 864 0020 24D0     		beq	.L59
 865 0022 1830     		adds	r0, r0, #24
 866 0024 8342     		cmp	r3, r0
 867 0026 21D0     		beq	.L59
 868 0028 1830     		adds	r0, r0, #24
 869 002a 8342     		cmp	r3, r0
 870 002c 1ED0     		beq	.L59
 871 002e 1830     		adds	r0, r0, #24
 872 0030 8342     		cmp	r3, r0
 873 0032 1BD0     		beq	.L59
 874 0034 00F55670 		add	r0, r0, #856
 875 0038 8342     		cmp	r3, r0
 876 003a 17D0     		beq	.L59
 877 003c 1830     		adds	r0, r0, #24
 878 003e 8342     		cmp	r3, r0
 879 0040 14D0     		beq	.L59
 880 0042 1830     		adds	r0, r0, #24
 881 0044 8342     		cmp	r3, r0
 882 0046 11D0     		beq	.L59
 883 0048 1830     		adds	r0, r0, #24
 884 004a 8342     		cmp	r3, r0
 885 004c 0ED0     		beq	.L59
 886 004e 1830     		adds	r0, r0, #24
 887 0050 8342     		cmp	r3, r0
 888 0052 0BD0     		beq	.L59
 889 0054 1830     		adds	r0, r0, #24
 890 0056 8342     		cmp	r3, r0
 891 0058 08D0     		beq	.L59
 892 005a 1830     		adds	r0, r0, #24
 893 005c 8342     		cmp	r3, r0
 894 005e 05D0     		beq	.L59
 895 0060 1830     		adds	r0, r0, #24
 896 0062 8342     		cmp	r3, r0
 897 0064 02D0     		beq	.L59
 898 0066 4AB1     		cbz	r2, .L60
 899 0068 1961     		str	r1, [r3, #16]
 900 006a 01E0     		b	.L63
 901              	.L59:
 902 006c 22B9     		cbnz	r2, .L62
 903 006e D960     		str	r1, [r3, #12]
 904              	.L63:
 905 0070 0020     		movs	r0, #0
 906 0072 5DF8044B 		ldr	r4, [sp], #4
 907 0076 7047     		bx	lr
 908              	.L62:
 909 0078 1961     		str	r1, [r3, #16]
 910 007a F9E7     		b	.L63
 911              	.L60:
 912 007c D960     		str	r1, [r3, #12]
 913 007e F7E7     		b	.L63
 914              	.L67:
 915              		.align	2
 916              	.L66:
 917 0080 10000240 		.word	1073872912
 918 0084 28000240 		.word	1073872936
 920              		.section	.text.HAL_DMAEx_ConfigMuxSync,"ax",%progbits
ARM GAS  C:\Users\aticl\AppData\Local\Temp\ccAdNd3N.s 			page 17


 921              		.align	1
 922              		.global	HAL_DMAEx_ConfigMuxSync
 923              		.syntax unified
 924              		.thumb
 925              		.thumb_func
 927              	HAL_DMAEx_ConfigMuxSync:
 928              		@ args = 0, pretend = 0, frame = 0
 929              		@ frame_needed = 0, uses_anonymous_args = 0
 930              		@ link register save eliminated.
 931 0000 70B4     		push	{r4, r5, r6}
 932 0002 0B7A     		ldrb	r3, [r1, #8]	@ zero_extendqisi2
 933 0004 012B     		cmp	r3, #1
 934 0006 27D0     		beq	.L75
 935 0008 0024     		movs	r4, #0
 936 000a 2546     		mov	r5, r4
 937              	.L69:
 938 000c 90F83530 		ldrb	r3, [r0, #53]	@ zero_extendqisi2
 939 0010 012B     		cmp	r3, #1
 940 0012 24D1     		bne	.L70
 941 0014 90F83430 		ldrb	r3, [r0, #52]	@ zero_extendqisi2
 942 0018 012B     		cmp	r3, #1
 943 001a 26D0     		beq	.L73
 944 001c 0123     		movs	r3, #1
 945 001e 80F83430 		strb	r3, [r0, #52]
 946 0022 026E     		ldr	r2, [r0, #96]
 947 0024 1368     		ldr	r3, [r2]
 948 0026 23F48133 		bic	r3, r3, #66048
 949 002a 1360     		str	r3, [r2]
 950 002c 066E     		ldr	r6, [r0, #96]
 951 002e 3268     		ldr	r2, [r6]
 952 0030 D2B2     		uxtb	r2, r2
 953 0032 CB68     		ldr	r3, [r1, #12]
 954 0034 013B     		subs	r3, r3, #1
 955 0036 DB04     		lsls	r3, r3, #19
 956 0038 43EA0563 		orr	r3, r3, r5, lsl #24
 957 003c 2343     		orrs	r3, r3, r4
 958 003e 0C7A     		ldrb	r4, [r1, #8]	@ zero_extendqisi2
 959 0040 43EA0443 		orr	r3, r3, r4, lsl #16
 960 0044 497A     		ldrb	r1, [r1, #9]	@ zero_extendqisi2
 961 0046 43EA4123 		orr	r3, r3, r1, lsl #9
 962 004a 1343     		orrs	r3, r3, r2
 963 004c 3360     		str	r3, [r6]
 964 004e 0023     		movs	r3, #0
 965 0050 80F83430 		strb	r3, [r0, #52]
 966 0054 1846     		mov	r0, r3
 967 0056 06E0     		b	.L71
 968              	.L75:
 969 0058 0D68     		ldr	r5, [r1]
 970 005a 4C68     		ldr	r4, [r1, #4]
 971 005c D6E7     		b	.L69
 972              	.L70:
 973 005e 4FF40063 		mov	r3, #2048
 974 0062 4365     		str	r3, [r0, #84]
 975 0064 0120     		movs	r0, #1
 976              	.L71:
 977 0066 70BC     		pop	{r4, r5, r6}
 978 0068 7047     		bx	lr
ARM GAS  C:\Users\aticl\AppData\Local\Temp\ccAdNd3N.s 			page 18


 979              	.L73:
 980 006a 0220     		movs	r0, #2
 981 006c FBE7     		b	.L71
 983              		.section	.text.HAL_DMAEx_ConfigMuxRequestGenerator,"ax",%progbits
 984              		.align	1
 985              		.global	HAL_DMAEx_ConfigMuxRequestGenerator
 986              		.syntax unified
 987              		.thumb
 988              		.thumb_func
 990              	HAL_DMAEx_ConfigMuxRequestGenerator:
 991              		@ args = 0, pretend = 0, frame = 0
 992              		@ frame_needed = 0, uses_anonymous_args = 0
 993              		@ link register save eliminated.
 994 0000 90F83530 		ldrb	r3, [r0, #53]	@ zero_extendqisi2
 995 0004 C26E     		ldr	r2, [r0, #108]
 996 0006 72B1     		cbz	r2, .L84
 997 0008 10B4     		push	{r4}
 998 000a DBB2     		uxtb	r3, r3
 999 000c 1468     		ldr	r4, [r2]
 1000 000e 14F4803F 		tst	r4, #65536
 1001 0012 01D1     		bne	.L79
 1002 0014 012B     		cmp	r3, #1
 1003 0016 0AD0     		beq	.L85
 1004              	.L79:
 1005 0018 4FF40063 		mov	r3, #2048
 1006 001c 4365     		str	r3, [r0, #84]
 1007 001e 0120     		movs	r0, #1
 1008              	.L78:
 1009 0020 5DF8044B 		ldr	r4, [sp], #4
 1010 0024 7047     		bx	lr
 1011              	.L84:
 1012 0026 4023     		movs	r3, #64
 1013 0028 4365     		str	r3, [r0, #84]
 1014 002a 0120     		movs	r0, #1
 1015 002c 7047     		bx	lr
 1016              	.L85:
 1017 002e 90F83430 		ldrb	r3, [r0, #52]	@ zero_extendqisi2
 1018 0032 012B     		cmp	r3, #1
 1019 0034 0FD0     		beq	.L80
 1020 0036 0123     		movs	r3, #1
 1021 0038 80F83430 		strb	r3, [r0, #52]
 1022 003c 0B68     		ldr	r3, [r1]
 1023 003e 8C68     		ldr	r4, [r1, #8]
 1024 0040 013C     		subs	r4, r4, #1
 1025 0042 43EAC443 		orr	r3, r3, r4, lsl #19
 1026 0046 4968     		ldr	r1, [r1, #4]
 1027 0048 0B43     		orrs	r3, r3, r1
 1028 004a 1360     		str	r3, [r2]
 1029 004c 0023     		movs	r3, #0
 1030 004e 80F83430 		strb	r3, [r0, #52]
 1031 0052 1846     		mov	r0, r3
 1032 0054 E4E7     		b	.L78
 1033              	.L80:
 1034 0056 0220     		movs	r0, #2
 1035 0058 E2E7     		b	.L78
 1037              		.section	.text.HAL_DMAEx_EnableMuxRequestGenerator,"ax",%progbits
 1038              		.align	1
ARM GAS  C:\Users\aticl\AppData\Local\Temp\ccAdNd3N.s 			page 19


 1039              		.global	HAL_DMAEx_EnableMuxRequestGenerator
 1040              		.syntax unified
 1041              		.thumb
 1042              		.thumb_func
 1044              	HAL_DMAEx_EnableMuxRequestGenerator:
 1045              		@ args = 0, pretend = 0, frame = 0
 1046              		@ frame_needed = 0, uses_anonymous_args = 0
 1047              		@ link register save eliminated.
 1048 0000 90F83530 		ldrb	r3, [r0, #53]	@ zero_extendqisi2
 1049 0004 3BB1     		cbz	r3, .L88
 1050 0006 C36E     		ldr	r3, [r0, #108]
 1051 0008 3BB1     		cbz	r3, .L89
 1052 000a 1A68     		ldr	r2, [r3]
 1053 000c 42F48032 		orr	r2, r2, #65536
 1054 0010 1A60     		str	r2, [r3]
 1055 0012 0020     		movs	r0, #0
 1056 0014 7047     		bx	lr
 1057              	.L88:
 1058 0016 0120     		movs	r0, #1
 1059 0018 7047     		bx	lr
 1060              	.L89:
 1061 001a 0120     		movs	r0, #1
 1062 001c 7047     		bx	lr
 1064              		.section	.text.HAL_DMAEx_DisableMuxRequestGenerator,"ax",%progbits
 1065              		.align	1
 1066              		.global	HAL_DMAEx_DisableMuxRequestGenerator
 1067              		.syntax unified
 1068              		.thumb
 1069              		.thumb_func
 1071              	HAL_DMAEx_DisableMuxRequestGenerator:
 1072              		@ args = 0, pretend = 0, frame = 0
 1073              		@ frame_needed = 0, uses_anonymous_args = 0
 1074              		@ link register save eliminated.
 1075 0000 90F83530 		ldrb	r3, [r0, #53]	@ zero_extendqisi2
 1076 0004 3BB1     		cbz	r3, .L92
 1077 0006 C36E     		ldr	r3, [r0, #108]
 1078 0008 3BB1     		cbz	r3, .L93
 1079 000a 1A68     		ldr	r2, [r3]
 1080 000c 22F48032 		bic	r2, r2, #65536
 1081 0010 1A60     		str	r2, [r3]
 1082 0012 0020     		movs	r0, #0
 1083 0014 7047     		bx	lr
 1084              	.L92:
 1085 0016 0120     		movs	r0, #1
 1086 0018 7047     		bx	lr
 1087              	.L93:
 1088 001a 0120     		movs	r0, #1
 1089 001c 7047     		bx	lr
 1091              		.section	.text.HAL_DMAEx_MUX_IRQHandler,"ax",%progbits
 1092              		.align	1
 1093              		.global	HAL_DMAEx_MUX_IRQHandler
 1094              		.syntax unified
 1095              		.thumb
 1096              		.thumb_func
 1098              	HAL_DMAEx_MUX_IRQHandler:
 1099              		@ args = 0, pretend = 0, frame = 0
 1100              		@ frame_needed = 0, uses_anonymous_args = 0
ARM GAS  C:\Users\aticl\AppData\Local\Temp\ccAdNd3N.s 			page 20


 1101 0000 10B5     		push	{r4, lr}
 1102 0002 0446     		mov	r4, r0
 1103 0004 436E     		ldr	r3, [r0, #100]
 1104 0006 1A68     		ldr	r2, [r3]
 1105 0008 836E     		ldr	r3, [r0, #104]
 1106 000a 1A42     		tst	r2, r3
 1107 000c 0ED0     		beq	.L95
 1108 000e 026E     		ldr	r2, [r0, #96]
 1109 0010 1368     		ldr	r3, [r2]
 1110 0012 23F48073 		bic	r3, r3, #256
 1111 0016 1360     		str	r3, [r2]
 1112 0018 436E     		ldr	r3, [r0, #100]
 1113 001a 826E     		ldr	r2, [r0, #104]
 1114 001c 5A60     		str	r2, [r3, #4]
 1115 001e 436D     		ldr	r3, [r0, #84]
 1116 0020 43F40073 		orr	r3, r3, #512
 1117 0024 4365     		str	r3, [r0, #84]
 1118 0026 C36C     		ldr	r3, [r0, #76]
 1119 0028 03B1     		cbz	r3, .L95
 1120 002a 9847     		blx	r3
 1121              	.L95:
 1122 002c E36E     		ldr	r3, [r4, #108]
 1123 002e 9BB1     		cbz	r3, .L94
 1124 0030 226F     		ldr	r2, [r4, #112]
 1125 0032 1168     		ldr	r1, [r2]
 1126 0034 626F     		ldr	r2, [r4, #116]
 1127 0036 1142     		tst	r1, r2
 1128 0038 0ED0     		beq	.L94
 1129 003a 1A68     		ldr	r2, [r3]
 1130 003c 22F48072 		bic	r2, r2, #256
 1131 0040 1A60     		str	r2, [r3]
 1132 0042 236F     		ldr	r3, [r4, #112]
 1133 0044 626F     		ldr	r2, [r4, #116]
 1134 0046 5A60     		str	r2, [r3, #4]
 1135 0048 636D     		ldr	r3, [r4, #84]
 1136 004a 43F48063 		orr	r3, r3, #1024
 1137 004e 6365     		str	r3, [r4, #84]
 1138 0050 E36C     		ldr	r3, [r4, #76]
 1139 0052 0BB1     		cbz	r3, .L94
 1140 0054 2046     		mov	r0, r4
 1141 0056 9847     		blx	r3
 1142              	.L94:
 1143 0058 10BD     		pop	{r4, pc}
 1145              		.ident	"GCC: (xPack GNU Arm Embedded GCC x86_64) 14.2.1 20241119"
ARM GAS  C:\Users\aticl\AppData\Local\Temp\ccAdNd3N.s 			page 21

