ARM GAS  C:\Users\aticl\AppData\Local\Temp\ccOWzlhH.s 			page 1


   1              		.cpu cortex-m7
   2              		.arch armv7e-m
   3              		.fpu fpv5-d16
   4              		.eabi_attribute 28, 1
   5              		.eabi_attribute 20, 1
   6              		.eabi_attribute 21, 1
   7              		.eabi_attribute 23, 3
   8              		.eabi_attribute 24, 1
   9              		.eabi_attribute 25, 1
  10              		.eabi_attribute 26, 1
  11              		.eabi_attribute 30, 1
  12              		.eabi_attribute 34, 1
  13              		.eabi_attribute 18, 4
  14              		.file	"stm32h7xx_hal.c"
  15              		.text
  16              		.section	.text.HAL_MspInit,"ax",%progbits
  17              		.align	1
  18              		.weak	HAL_MspInit
  19              		.syntax unified
  20              		.thumb
  21              		.thumb_func
  23              	HAL_MspInit:
  24              		@ args = 0, pretend = 0, frame = 0
  25              		@ frame_needed = 0, uses_anonymous_args = 0
  26              		@ link register save eliminated.
  27 0000 7047     		bx	lr
  29              		.section	.text.HAL_MspDeInit,"ax",%progbits
  30              		.align	1
  31              		.weak	HAL_MspDeInit
  32              		.syntax unified
  33              		.thumb
  34              		.thumb_func
  36              	HAL_MspDeInit:
  37              		@ args = 0, pretend = 0, frame = 0
  38              		@ frame_needed = 0, uses_anonymous_args = 0
  39              		@ link register save eliminated.
  40 0000 7047     		bx	lr
  42              		.section	.text.HAL_DeInit,"ax",%progbits
  43              		.align	1
  44              		.global	HAL_DeInit
  45              		.syntax unified
  46              		.thumb
  47              		.thumb_func
  49              	HAL_DeInit:
  50              		@ args = 0, pretend = 0, frame = 0
  51              		@ frame_needed = 0, uses_anonymous_args = 0
  52 0000 10B5     		push	{r4, lr}
  53 0002 194B     		ldr	r3, .L5
  54 0004 194A     		ldr	r2, .L5+4
  55 0006 DA67     		str	r2, [r3, #124]
  56 0008 0024     		movs	r4, #0
  57 000a DC67     		str	r4, [r3, #124]
  58 000c 184A     		ldr	r2, .L5+8
  59 000e C3F88020 		str	r2, [r3, #128]
  60 0012 C3F88040 		str	r4, [r3, #128]
  61 0016 40F27122 		movw	r2, #625
  62 001a C3F88420 		str	r2, [r3, #132]
ARM GAS  C:\Users\aticl\AppData\Local\Temp\ccOWzlhH.s 			page 2


  63 001e C3F88440 		str	r4, [r3, #132]
  64 0022 144A     		ldr	r2, .L5+12
  65 0024 C3F88820 		str	r2, [r3, #136]
  66 0028 C3F88840 		str	r4, [r3, #136]
  67 002c 1822     		movs	r2, #24
  68 002e C3F88C20 		str	r2, [r3, #140]
  69 0032 C3F88C40 		str	r4, [r3, #140]
  70 0036 104A     		ldr	r2, .L5+16
  71 0038 C3F89020 		str	r2, [r3, #144]
  72 003c C3F89040 		str	r4, [r3, #144]
  73 0040 4FF49B72 		mov	r2, #310
  74 0044 C3F89420 		str	r2, [r3, #148]
  75 0048 C3F89440 		str	r4, [r3, #148]
  76 004c 0B4A     		ldr	r2, .L5+20
  77 004e C3F89820 		str	r2, [r3, #152]
  78 0052 C3F89840 		str	r4, [r3, #152]
  79 0056 0A4A     		ldr	r2, .L5+24
  80 0058 C3F89C20 		str	r2, [r3, #156]
  81 005c C3F89C40 		str	r4, [r3, #156]
  82 0060 FFF7FEFF 		bl	HAL_MspDeInit
  83 0064 2046     		mov	r0, r4
  84 0066 10BD     		pop	{r4, pc}
  85              	.L6:
  86              		.align	2
  87              	.L5:
  88 0068 00440258 		.word	1476543488
  89 006c 31500100 		.word	86065
  90 0070 23C0000A 		.word	167821347
  91 0074 FF072803 		.word	52955135
  92 0078 FFC3FFE8 		.word	-385891329
  93 007c 3330D731 		.word	836186163
  94 0080 AADE2000 		.word	2154154
  96              		.section	.text.HAL_InitTick,"ax",%progbits
  97              		.align	1
  98              		.weak	HAL_InitTick
  99              		.syntax unified
 100              		.thumb
 101              		.thumb_func
 103              	HAL_InitTick:
 104              		@ args = 0, pretend = 0, frame = 0
 105              		@ frame_needed = 0, uses_anonymous_args = 0
 106 0000 104B     		ldr	r3, .L18
 107 0002 1B78     		ldrb	r3, [r3]	@ zero_extendqisi2
 108 0004 0BB9     		cbnz	r3, .L16
 109 0006 0120     		movs	r0, #1
 110 0008 7047     		bx	lr
 111              	.L16:
 112 000a 10B5     		push	{r4, lr}
 113 000c 0446     		mov	r4, r0
 114 000e 4FF47A70 		mov	r0, #1000
 115 0012 B0FBF3F3 		udiv	r3, r0, r3
 116 0016 0C4A     		ldr	r2, .L18+4
 117 0018 1068     		ldr	r0, [r2]
 118 001a B0FBF3F0 		udiv	r0, r0, r3
 119 001e FFF7FEFF 		bl	HAL_SYSTICK_Config
 120 0022 68B9     		cbnz	r0, .L10
 121 0024 0F2C     		cmp	r4, #15
ARM GAS  C:\Users\aticl\AppData\Local\Temp\ccOWzlhH.s 			page 3


 122 0026 01D9     		bls	.L17
 123 0028 0120     		movs	r0, #1
 124 002a 0AE0     		b	.L8
 125              	.L17:
 126 002c 0022     		movs	r2, #0
 127 002e 2146     		mov	r1, r4
 128 0030 4FF0FF30 		mov	r0, #-1
 129 0034 FFF7FEFF 		bl	HAL_NVIC_SetPriority
 130 0038 044B     		ldr	r3, .L18+8
 131 003a 1C60     		str	r4, [r3]
 132 003c 0020     		movs	r0, #0
 133 003e 00E0     		b	.L8
 134              	.L10:
 135 0040 0120     		movs	r0, #1
 136              	.L8:
 137 0042 10BD     		pop	{r4, pc}
 138              	.L19:
 139              		.align	2
 140              	.L18:
 141 0044 00000000 		.word	uwTickFreq
 142 0048 00000000 		.word	SystemCoreClock
 143 004c 00000000 		.word	uwTickPrio
 145              		.section	.text.HAL_Init,"ax",%progbits
 146              		.align	1
 147              		.global	HAL_Init
 148              		.syntax unified
 149              		.thumb
 150              		.thumb_func
 152              	HAL_Init:
 153              		@ args = 0, pretend = 0, frame = 0
 154              		@ frame_needed = 0, uses_anonymous_args = 0
 155 0000 10B5     		push	{r4, lr}
 156 0002 0320     		movs	r0, #3
 157 0004 FFF7FEFF 		bl	HAL_NVIC_SetPriorityGrouping
 158 0008 FFF7FEFF 		bl	HAL_RCC_GetSysClockFreq
 159 000c 0F49     		ldr	r1, .L25
 160 000e 8B69     		ldr	r3, [r1, #24]
 161 0010 C3F30323 		ubfx	r3, r3, #8, #4
 162 0014 0E4A     		ldr	r2, .L25+4
 163 0016 D35C     		ldrb	r3, [r2, r3]	@ zero_extendqisi2
 164 0018 03F01F03 		and	r3, r3, #31
 165 001c D840     		lsrs	r0, r0, r3
 166 001e 8B69     		ldr	r3, [r1, #24]
 167 0020 03F00F03 		and	r3, r3, #15
 168 0024 D35C     		ldrb	r3, [r2, r3]	@ zero_extendqisi2
 169 0026 03F01F03 		and	r3, r3, #31
 170 002a 20FA03F3 		lsr	r3, r0, r3
 171 002e 094A     		ldr	r2, .L25+8
 172 0030 1360     		str	r3, [r2]
 173 0032 094B     		ldr	r3, .L25+12
 174 0034 1860     		str	r0, [r3]
 175 0036 0F20     		movs	r0, #15
 176 0038 FFF7FEFF 		bl	HAL_InitTick
 177 003c 10B1     		cbz	r0, .L24
 178 003e 0124     		movs	r4, #1
 179              	.L21:
 180 0040 2046     		mov	r0, r4
ARM GAS  C:\Users\aticl\AppData\Local\Temp\ccOWzlhH.s 			page 4


 181 0042 10BD     		pop	{r4, pc}
 182              	.L24:
 183 0044 0446     		mov	r4, r0
 184 0046 FFF7FEFF 		bl	HAL_MspInit
 185 004a F9E7     		b	.L21
 186              	.L26:
 187              		.align	2
 188              	.L25:
 189 004c 00440258 		.word	1476543488
 190 0050 00000000 		.word	D1CorePrescTable
 191 0054 00000000 		.word	SystemD2Clock
 192 0058 00000000 		.word	SystemCoreClock
 194              		.section	.text.HAL_IncTick,"ax",%progbits
 195              		.align	1
 196              		.weak	HAL_IncTick
 197              		.syntax unified
 198              		.thumb
 199              		.thumb_func
 201              	HAL_IncTick:
 202              		@ args = 0, pretend = 0, frame = 0
 203              		@ frame_needed = 0, uses_anonymous_args = 0
 204              		@ link register save eliminated.
 205 0000 034B     		ldr	r3, .L28
 206 0002 1B78     		ldrb	r3, [r3]	@ zero_extendqisi2
 207 0004 034A     		ldr	r2, .L28+4
 208 0006 1168     		ldr	r1, [r2]
 209 0008 0B44     		add	r3, r3, r1
 210 000a 1360     		str	r3, [r2]
 211 000c 7047     		bx	lr
 212              	.L29:
 213 000e 00BF     		.align	2
 214              	.L28:
 215 0010 00000000 		.word	uwTickFreq
 216 0014 00000000 		.word	uwTick
 218              		.section	.text.HAL_GetTick,"ax",%progbits
 219              		.align	1
 220              		.weak	HAL_GetTick
 221              		.syntax unified
 222              		.thumb
 223              		.thumb_func
 225              	HAL_GetTick:
 226              		@ args = 0, pretend = 0, frame = 0
 227              		@ frame_needed = 0, uses_anonymous_args = 0
 228              		@ link register save eliminated.
 229 0000 014B     		ldr	r3, .L31
 230 0002 1868     		ldr	r0, [r3]
 231 0004 7047     		bx	lr
 232              	.L32:
 233 0006 00BF     		.align	2
 234              	.L31:
 235 0008 00000000 		.word	uwTick
 237              		.section	.text.HAL_GetTickPrio,"ax",%progbits
 238              		.align	1
 239              		.global	HAL_GetTickPrio
 240              		.syntax unified
 241              		.thumb
 242              		.thumb_func
ARM GAS  C:\Users\aticl\AppData\Local\Temp\ccOWzlhH.s 			page 5


 244              	HAL_GetTickPrio:
 245              		@ args = 0, pretend = 0, frame = 0
 246              		@ frame_needed = 0, uses_anonymous_args = 0
 247              		@ link register save eliminated.
 248 0000 014B     		ldr	r3, .L34
 249 0002 1868     		ldr	r0, [r3]
 250 0004 7047     		bx	lr
 251              	.L35:
 252 0006 00BF     		.align	2
 253              	.L34:
 254 0008 00000000 		.word	uwTickPrio
 256              		.section	.text.HAL_SetTickFreq,"ax",%progbits
 257              		.align	1
 258              		.global	HAL_SetTickFreq
 259              		.syntax unified
 260              		.thumb
 261              		.thumb_func
 263              	HAL_SetTickFreq:
 264              		@ args = 0, pretend = 0, frame = 0
 265              		@ frame_needed = 0, uses_anonymous_args = 0
 266 0000 10B5     		push	{r4, lr}
 267 0002 084B     		ldr	r3, .L41
 268 0004 1C78     		ldrb	r4, [r3]	@ zero_extendqisi2
 269 0006 8442     		cmp	r4, r0
 270 0008 01D1     		bne	.L40
 271 000a 0020     		movs	r0, #0
 272              	.L37:
 273 000c 10BD     		pop	{r4, pc}
 274              	.L40:
 275 000e 1870     		strb	r0, [r3]
 276 0010 054B     		ldr	r3, .L41+4
 277 0012 1868     		ldr	r0, [r3]
 278 0014 FFF7FEFF 		bl	HAL_InitTick
 279 0018 0028     		cmp	r0, #0
 280 001a F7D0     		beq	.L37
 281 001c 014B     		ldr	r3, .L41
 282 001e 1C70     		strb	r4, [r3]
 283 0020 F4E7     		b	.L37
 284              	.L42:
 285 0022 00BF     		.align	2
 286              	.L41:
 287 0024 00000000 		.word	uwTickFreq
 288 0028 00000000 		.word	uwTickPrio
 290              		.section	.text.HAL_GetTickFreq,"ax",%progbits
 291              		.align	1
 292              		.global	HAL_GetTickFreq
 293              		.syntax unified
 294              		.thumb
 295              		.thumb_func
 297              	HAL_GetTickFreq:
 298              		@ args = 0, pretend = 0, frame = 0
 299              		@ frame_needed = 0, uses_anonymous_args = 0
 300              		@ link register save eliminated.
 301 0000 014B     		ldr	r3, .L44
 302 0002 1878     		ldrb	r0, [r3]	@ zero_extendqisi2
 303 0004 7047     		bx	lr
 304              	.L45:
ARM GAS  C:\Users\aticl\AppData\Local\Temp\ccOWzlhH.s 			page 6


 305 0006 00BF     		.align	2
 306              	.L44:
 307 0008 00000000 		.word	uwTickFreq
 309              		.section	.text.HAL_Delay,"ax",%progbits
 310              		.align	1
 311              		.weak	HAL_Delay
 312              		.syntax unified
 313              		.thumb
 314              		.thumb_func
 316              	HAL_Delay:
 317              		@ args = 0, pretend = 0, frame = 0
 318              		@ frame_needed = 0, uses_anonymous_args = 0
 319 0000 38B5     		push	{r3, r4, r5, lr}
 320 0002 0446     		mov	r4, r0
 321 0004 FFF7FEFF 		bl	HAL_GetTick
 322 0008 0546     		mov	r5, r0
 323 000a B4F1FF3F 		cmp	r4, #-1
 324 000e 02D0     		beq	.L48
 325 0010 044B     		ldr	r3, .L50
 326 0012 1B78     		ldrb	r3, [r3]	@ zero_extendqisi2
 327 0014 1C44     		add	r4, r4, r3
 328              	.L48:
 329 0016 FFF7FEFF 		bl	HAL_GetTick
 330 001a 401B     		subs	r0, r0, r5
 331 001c A042     		cmp	r0, r4
 332 001e FAD3     		bcc	.L48
 333 0020 38BD     		pop	{r3, r4, r5, pc}
 334              	.L51:
 335 0022 00BF     		.align	2
 336              	.L50:
 337 0024 00000000 		.word	uwTickFreq
 339              		.section	.text.HAL_SuspendTick,"ax",%progbits
 340              		.align	1
 341              		.weak	HAL_SuspendTick
 342              		.syntax unified
 343              		.thumb
 344              		.thumb_func
 346              	HAL_SuspendTick:
 347              		@ args = 0, pretend = 0, frame = 0
 348              		@ frame_needed = 0, uses_anonymous_args = 0
 349              		@ link register save eliminated.
 350 0000 4FF0E022 		mov	r2, #-536813568
 351 0004 1369     		ldr	r3, [r2, #16]
 352 0006 23F00203 		bic	r3, r3, #2
 353 000a 1361     		str	r3, [r2, #16]
 354 000c 7047     		bx	lr
 356              		.section	.text.HAL_ResumeTick,"ax",%progbits
 357              		.align	1
 358              		.weak	HAL_ResumeTick
 359              		.syntax unified
 360              		.thumb
 361              		.thumb_func
 363              	HAL_ResumeTick:
 364              		@ args = 0, pretend = 0, frame = 0
 365              		@ frame_needed = 0, uses_anonymous_args = 0
 366              		@ link register save eliminated.
 367 0000 4FF0E022 		mov	r2, #-536813568
ARM GAS  C:\Users\aticl\AppData\Local\Temp\ccOWzlhH.s 			page 7


 368 0004 1369     		ldr	r3, [r2, #16]
 369 0006 43F00203 		orr	r3, r3, #2
 370 000a 1361     		str	r3, [r2, #16]
 371 000c 7047     		bx	lr
 373              		.section	.text.HAL_GetHalVersion,"ax",%progbits
 374              		.align	1
 375              		.global	HAL_GetHalVersion
 376              		.syntax unified
 377              		.thumb
 378              		.thumb_func
 380              	HAL_GetHalVersion:
 381              		@ args = 0, pretend = 0, frame = 0
 382              		@ frame_needed = 0, uses_anonymous_args = 0
 383              		@ link register save eliminated.
 384 0000 0048     		ldr	r0, .L55
 385 0002 7047     		bx	lr
 386              	.L56:
 387              		.align	2
 388              	.L55:
 389 0004 00050B01 		.word	17499392
 391              		.section	.text.HAL_GetREVID,"ax",%progbits
 392              		.align	1
 393              		.global	HAL_GetREVID
 394              		.syntax unified
 395              		.thumb
 396              		.thumb_func
 398              	HAL_GetREVID:
 399              		@ args = 0, pretend = 0, frame = 0
 400              		@ frame_needed = 0, uses_anonymous_args = 0
 401              		@ link register save eliminated.
 402 0000 014B     		ldr	r3, .L58
 403 0002 1868     		ldr	r0, [r3]
 404 0004 000C     		lsrs	r0, r0, #16
 405 0006 7047     		bx	lr
 406              	.L59:
 407              		.align	2
 408              	.L58:
 409 0008 0010005C 		.word	1543507968
 411              		.section	.text.HAL_GetDEVID,"ax",%progbits
 412              		.align	1
 413              		.global	HAL_GetDEVID
 414              		.syntax unified
 415              		.thumb
 416              		.thumb_func
 418              	HAL_GetDEVID:
 419              		@ args = 0, pretend = 0, frame = 0
 420              		@ frame_needed = 0, uses_anonymous_args = 0
 421              		@ link register save eliminated.
 422 0000 024B     		ldr	r3, .L61
 423 0002 1868     		ldr	r0, [r3]
 424 0004 C0F30B00 		ubfx	r0, r0, #0, #12
 425 0008 7047     		bx	lr
 426              	.L62:
 427 000a 00BF     		.align	2
 428              	.L61:
 429 000c 0010005C 		.word	1543507968
 431              		.section	.text.HAL_GetUIDw0,"ax",%progbits
ARM GAS  C:\Users\aticl\AppData\Local\Temp\ccOWzlhH.s 			page 8


 432              		.align	1
 433              		.global	HAL_GetUIDw0
 434              		.syntax unified
 435              		.thumb
 436              		.thumb_func
 438              	HAL_GetUIDw0:
 439              		@ args = 0, pretend = 0, frame = 0
 440              		@ frame_needed = 0, uses_anonymous_args = 0
 441              		@ link register save eliminated.
 442 0000 014B     		ldr	r3, .L64
 443 0002 D3F80008 		ldr	r0, [r3, #2048]
 444 0006 7047     		bx	lr
 445              	.L65:
 446              		.align	2
 447              	.L64:
 448 0008 00E0F11F 		.word	535945216
 450              		.section	.text.HAL_GetUIDw1,"ax",%progbits
 451              		.align	1
 452              		.global	HAL_GetUIDw1
 453              		.syntax unified
 454              		.thumb
 455              		.thumb_func
 457              	HAL_GetUIDw1:
 458              		@ args = 0, pretend = 0, frame = 0
 459              		@ frame_needed = 0, uses_anonymous_args = 0
 460              		@ link register save eliminated.
 461 0000 014B     		ldr	r3, .L67
 462 0002 D3F80408 		ldr	r0, [r3, #2052]
 463 0006 7047     		bx	lr
 464              	.L68:
 465              		.align	2
 466              	.L67:
 467 0008 00E0F11F 		.word	535945216
 469              		.section	.text.HAL_GetUIDw2,"ax",%progbits
 470              		.align	1
 471              		.global	HAL_GetUIDw2
 472              		.syntax unified
 473              		.thumb
 474              		.thumb_func
 476              	HAL_GetUIDw2:
 477              		@ args = 0, pretend = 0, frame = 0
 478              		@ frame_needed = 0, uses_anonymous_args = 0
 479              		@ link register save eliminated.
 480 0000 014B     		ldr	r3, .L70
 481 0002 D3F80808 		ldr	r0, [r3, #2056]
 482 0006 7047     		bx	lr
 483              	.L71:
 484              		.align	2
 485              	.L70:
 486 0008 00E0F11F 		.word	535945216
 488              		.section	.text.HAL_SYSCFG_VREFBUF_VoltageScalingConfig,"ax",%progbits
 489              		.align	1
 490              		.global	HAL_SYSCFG_VREFBUF_VoltageScalingConfig
 491              		.syntax unified
 492              		.thumb
 493              		.thumb_func
 495              	HAL_SYSCFG_VREFBUF_VoltageScalingConfig:
ARM GAS  C:\Users\aticl\AppData\Local\Temp\ccOWzlhH.s 			page 9


 496              		@ args = 0, pretend = 0, frame = 0
 497              		@ frame_needed = 0, uses_anonymous_args = 0
 498              		@ link register save eliminated.
 499 0000 034A     		ldr	r2, .L73
 500 0002 1368     		ldr	r3, [r2]
 501 0004 23F07003 		bic	r3, r3, #112
 502 0008 0343     		orrs	r3, r3, r0
 503 000a 1360     		str	r3, [r2]
 504 000c 7047     		bx	lr
 505              	.L74:
 506 000e 00BF     		.align	2
 507              	.L73:
 508 0010 003C0058 		.word	1476410368
 510              		.section	.text.HAL_SYSCFG_VREFBUF_HighImpedanceConfig,"ax",%progbits
 511              		.align	1
 512              		.global	HAL_SYSCFG_VREFBUF_HighImpedanceConfig
 513              		.syntax unified
 514              		.thumb
 515              		.thumb_func
 517              	HAL_SYSCFG_VREFBUF_HighImpedanceConfig:
 518              		@ args = 0, pretend = 0, frame = 0
 519              		@ frame_needed = 0, uses_anonymous_args = 0
 520              		@ link register save eliminated.
 521 0000 034A     		ldr	r2, .L76
 522 0002 1368     		ldr	r3, [r2]
 523 0004 23F00203 		bic	r3, r3, #2
 524 0008 0343     		orrs	r3, r3, r0
 525 000a 1360     		str	r3, [r2]
 526 000c 7047     		bx	lr
 527              	.L77:
 528 000e 00BF     		.align	2
 529              	.L76:
 530 0010 003C0058 		.word	1476410368
 532              		.section	.text.HAL_SYSCFG_VREFBUF_TrimmingConfig,"ax",%progbits
 533              		.align	1
 534              		.global	HAL_SYSCFG_VREFBUF_TrimmingConfig
 535              		.syntax unified
 536              		.thumb
 537              		.thumb_func
 539              	HAL_SYSCFG_VREFBUF_TrimmingConfig:
 540              		@ args = 0, pretend = 0, frame = 0
 541              		@ frame_needed = 0, uses_anonymous_args = 0
 542              		@ link register save eliminated.
 543 0000 034A     		ldr	r2, .L79
 544 0002 5368     		ldr	r3, [r2, #4]
 545 0004 23F03F03 		bic	r3, r3, #63
 546 0008 0343     		orrs	r3, r3, r0
 547 000a 5360     		str	r3, [r2, #4]
 548 000c 7047     		bx	lr
 549              	.L80:
 550 000e 00BF     		.align	2
 551              	.L79:
 552 0010 003C0058 		.word	1476410368
 554              		.section	.text.HAL_SYSCFG_EnableVREFBUF,"ax",%progbits
 555              		.align	1
 556              		.global	HAL_SYSCFG_EnableVREFBUF
 557              		.syntax unified
ARM GAS  C:\Users\aticl\AppData\Local\Temp\ccOWzlhH.s 			page 10


 558              		.thumb
 559              		.thumb_func
 561              	HAL_SYSCFG_EnableVREFBUF:
 562              		@ args = 0, pretend = 0, frame = 0
 563              		@ frame_needed = 0, uses_anonymous_args = 0
 564 0000 10B5     		push	{r4, lr}
 565 0002 0B4A     		ldr	r2, .L88
 566 0004 1368     		ldr	r3, [r2]
 567 0006 43F00103 		orr	r3, r3, #1
 568 000a 1360     		str	r3, [r2]
 569 000c FFF7FEFF 		bl	HAL_GetTick
 570 0010 0446     		mov	r4, r0
 571              	.L82:
 572 0012 074B     		ldr	r3, .L88
 573 0014 1B68     		ldr	r3, [r3]
 574 0016 13F0080F 		tst	r3, #8
 575 001a 06D1     		bne	.L87
 576 001c FFF7FEFF 		bl	HAL_GetTick
 577 0020 001B     		subs	r0, r0, r4
 578 0022 0A28     		cmp	r0, #10
 579 0024 F5D9     		bls	.L82
 580 0026 0320     		movs	r0, #3
 581 0028 00E0     		b	.L83
 582              	.L87:
 583 002a 0020     		movs	r0, #0
 584              	.L83:
 585 002c 10BD     		pop	{r4, pc}
 586              	.L89:
 587 002e 00BF     		.align	2
 588              	.L88:
 589 0030 003C0058 		.word	1476410368
 591              		.section	.text.HAL_SYSCFG_DisableVREFBUF,"ax",%progbits
 592              		.align	1
 593              		.global	HAL_SYSCFG_DisableVREFBUF
 594              		.syntax unified
 595              		.thumb
 596              		.thumb_func
 598              	HAL_SYSCFG_DisableVREFBUF:
 599              		@ args = 0, pretend = 0, frame = 0
 600              		@ frame_needed = 0, uses_anonymous_args = 0
 601              		@ link register save eliminated.
 602 0000 024A     		ldr	r2, .L91
 603 0002 1368     		ldr	r3, [r2]
 604 0004 23F00103 		bic	r3, r3, #1
 605 0008 1360     		str	r3, [r2]
 606 000a 7047     		bx	lr
 607              	.L92:
 608              		.align	2
 609              	.L91:
 610 000c 003C0058 		.word	1476410368
 612              		.section	.text.HAL_SYSCFG_ETHInterfaceSelect,"ax",%progbits
 613              		.align	1
 614              		.global	HAL_SYSCFG_ETHInterfaceSelect
 615              		.syntax unified
 616              		.thumb
 617              		.thumb_func
 619              	HAL_SYSCFG_ETHInterfaceSelect:
ARM GAS  C:\Users\aticl\AppData\Local\Temp\ccOWzlhH.s 			page 11


 620              		@ args = 0, pretend = 0, frame = 0
 621              		@ frame_needed = 0, uses_anonymous_args = 0
 622              		@ link register save eliminated.
 623 0000 034A     		ldr	r2, .L94
 624 0002 5368     		ldr	r3, [r2, #4]
 625 0004 23F46003 		bic	r3, r3, #14680064
 626 0008 0343     		orrs	r3, r3, r0
 627 000a 5360     		str	r3, [r2, #4]
 628 000c 7047     		bx	lr
 629              	.L95:
 630 000e 00BF     		.align	2
 631              	.L94:
 632 0010 00040058 		.word	1476396032
 634              		.section	.text.HAL_SYSCFG_AnalogSwitchConfig,"ax",%progbits
 635              		.align	1
 636              		.global	HAL_SYSCFG_AnalogSwitchConfig
 637              		.syntax unified
 638              		.thumb
 639              		.thumb_func
 641              	HAL_SYSCFG_AnalogSwitchConfig:
 642              		@ args = 0, pretend = 0, frame = 0
 643              		@ frame_needed = 0, uses_anonymous_args = 0
 644              		@ link register save eliminated.
 645 0000 034A     		ldr	r2, .L97
 646 0002 5368     		ldr	r3, [r2, #4]
 647 0004 23EA0003 		bic	r3, r3, r0
 648 0008 0B43     		orrs	r3, r3, r1
 649 000a 5360     		str	r3, [r2, #4]
 650 000c 7047     		bx	lr
 651              	.L98:
 652 000e 00BF     		.align	2
 653              	.L97:
 654 0010 00040058 		.word	1476396032
 656              		.section	.text.HAL_SYSCFG_EnableBOOST,"ax",%progbits
 657              		.align	1
 658              		.global	HAL_SYSCFG_EnableBOOST
 659              		.syntax unified
 660              		.thumb
 661              		.thumb_func
 663              	HAL_SYSCFG_EnableBOOST:
 664              		@ args = 0, pretend = 0, frame = 0
 665              		@ frame_needed = 0, uses_anonymous_args = 0
 666              		@ link register save eliminated.
 667 0000 024A     		ldr	r2, .L100
 668 0002 5368     		ldr	r3, [r2, #4]
 669 0004 43F48073 		orr	r3, r3, #256
 670 0008 5360     		str	r3, [r2, #4]
 671 000a 7047     		bx	lr
 672              	.L101:
 673              		.align	2
 674              	.L100:
 675 000c 00040058 		.word	1476396032
 677              		.section	.text.HAL_SYSCFG_DisableBOOST,"ax",%progbits
 678              		.align	1
 679              		.global	HAL_SYSCFG_DisableBOOST
 680              		.syntax unified
 681              		.thumb
ARM GAS  C:\Users\aticl\AppData\Local\Temp\ccOWzlhH.s 			page 12


 682              		.thumb_func
 684              	HAL_SYSCFG_DisableBOOST:
 685              		@ args = 0, pretend = 0, frame = 0
 686              		@ frame_needed = 0, uses_anonymous_args = 0
 687              		@ link register save eliminated.
 688 0000 024A     		ldr	r2, .L103
 689 0002 5368     		ldr	r3, [r2, #4]
 690 0004 23F48073 		bic	r3, r3, #256
 691 0008 5360     		str	r3, [r2, #4]
 692 000a 7047     		bx	lr
 693              	.L104:
 694              		.align	2
 695              	.L103:
 696 000c 00040058 		.word	1476396032
 698              		.section	.text.HAL_SYSCFG_CM7BootAddConfig,"ax",%progbits
 699              		.align	1
 700              		.global	HAL_SYSCFG_CM7BootAddConfig
 701              		.syntax unified
 702              		.thumb
 703              		.thumb_func
 705              	HAL_SYSCFG_CM7BootAddConfig:
 706              		@ args = 0, pretend = 0, frame = 0
 707              		@ frame_needed = 0, uses_anonymous_args = 0
 708              		@ link register save eliminated.
 709 0000 48B9     		cbnz	r0, .L106
 710 0002 0A4A     		ldr	r2, .L108
 711 0004 D2F80833 		ldr	r3, [r2, #776]
 712 0008 9BB2     		uxth	r3, r3
 713 000a 6FF30F01 		bfc	r1, #0, #16
 714 000e 0B43     		orrs	r3, r3, r1
 715 0010 C2F80833 		str	r3, [r2, #776]
 716 0014 7047     		bx	lr
 717              	.L106:
 718 0016 054A     		ldr	r2, .L108
 719 0018 D2F80C33 		ldr	r3, [r2, #780]
 720 001c 6FF30F03 		bfc	r3, #0, #16
 721 0020 43EA1143 		orr	r3, r3, r1, lsr #16
 722 0024 C2F80C33 		str	r3, [r2, #780]
 723 0028 7047     		bx	lr
 724              	.L109:
 725 002a 00BF     		.align	2
 726              	.L108:
 727 002c 00040058 		.word	1476396032
 729              		.section	.text.HAL_EnableCompensationCell,"ax",%progbits
 730              		.align	1
 731              		.global	HAL_EnableCompensationCell
 732              		.syntax unified
 733              		.thumb
 734              		.thumb_func
 736              	HAL_EnableCompensationCell:
 737              		@ args = 0, pretend = 0, frame = 0
 738              		@ frame_needed = 0, uses_anonymous_args = 0
 739              		@ link register save eliminated.
 740 0000 024A     		ldr	r2, .L111
 741 0002 136A     		ldr	r3, [r2, #32]
 742 0004 43F00103 		orr	r3, r3, #1
 743 0008 1362     		str	r3, [r2, #32]
ARM GAS  C:\Users\aticl\AppData\Local\Temp\ccOWzlhH.s 			page 13


 744 000a 7047     		bx	lr
 745              	.L112:
 746              		.align	2
 747              	.L111:
 748 000c 00040058 		.word	1476396032
 750              		.section	.text.HAL_DisableCompensationCell,"ax",%progbits
 751              		.align	1
 752              		.global	HAL_DisableCompensationCell
 753              		.syntax unified
 754              		.thumb
 755              		.thumb_func
 757              	HAL_DisableCompensationCell:
 758              		@ args = 0, pretend = 0, frame = 0
 759              		@ frame_needed = 0, uses_anonymous_args = 0
 760              		@ link register save eliminated.
 761 0000 024A     		ldr	r2, .L114
 762 0002 136A     		ldr	r3, [r2, #32]
 763 0004 23F00103 		bic	r3, r3, #1
 764 0008 1362     		str	r3, [r2, #32]
 765 000a 7047     		bx	lr
 766              	.L115:
 767              		.align	2
 768              	.L114:
 769 000c 00040058 		.word	1476396032
 771              		.section	.text.HAL_SYSCFG_EnableIOSpeedOptimize,"ax",%progbits
 772              		.align	1
 773              		.global	HAL_SYSCFG_EnableIOSpeedOptimize
 774              		.syntax unified
 775              		.thumb
 776              		.thumb_func
 778              	HAL_SYSCFG_EnableIOSpeedOptimize:
 779              		@ args = 0, pretend = 0, frame = 0
 780              		@ frame_needed = 0, uses_anonymous_args = 0
 781              		@ link register save eliminated.
 782 0000 024A     		ldr	r2, .L117
 783 0002 136A     		ldr	r3, [r2, #32]
 784 0004 43F48033 		orr	r3, r3, #65536
 785 0008 1362     		str	r3, [r2, #32]
 786 000a 7047     		bx	lr
 787              	.L118:
 788              		.align	2
 789              	.L117:
 790 000c 00040058 		.word	1476396032
 792              		.section	.text.HAL_SYSCFG_DisableIOSpeedOptimize,"ax",%progbits
 793              		.align	1
 794              		.global	HAL_SYSCFG_DisableIOSpeedOptimize
 795              		.syntax unified
 796              		.thumb
 797              		.thumb_func
 799              	HAL_SYSCFG_DisableIOSpeedOptimize:
 800              		@ args = 0, pretend = 0, frame = 0
 801              		@ frame_needed = 0, uses_anonymous_args = 0
 802              		@ link register save eliminated.
 803 0000 024A     		ldr	r2, .L120
 804 0002 136A     		ldr	r3, [r2, #32]
 805 0004 23F48033 		bic	r3, r3, #65536
 806 0008 1362     		str	r3, [r2, #32]
ARM GAS  C:\Users\aticl\AppData\Local\Temp\ccOWzlhH.s 			page 14


 807 000a 7047     		bx	lr
 808              	.L121:
 809              		.align	2
 810              	.L120:
 811 000c 00040058 		.word	1476396032
 813              		.section	.text.HAL_SYSCFG_CompensationCodeSelect,"ax",%progbits
 814              		.align	1
 815              		.global	HAL_SYSCFG_CompensationCodeSelect
 816              		.syntax unified
 817              		.thumb
 818              		.thumb_func
 820              	HAL_SYSCFG_CompensationCodeSelect:
 821              		@ args = 0, pretend = 0, frame = 0
 822              		@ frame_needed = 0, uses_anonymous_args = 0
 823              		@ link register save eliminated.
 824 0000 034A     		ldr	r2, .L123
 825 0002 136A     		ldr	r3, [r2, #32]
 826 0004 23F00203 		bic	r3, r3, #2
 827 0008 0343     		orrs	r3, r3, r0
 828 000a 1362     		str	r3, [r2, #32]
 829 000c 7047     		bx	lr
 830              	.L124:
 831 000e 00BF     		.align	2
 832              	.L123:
 833 0010 00040058 		.word	1476396032
 835              		.section	.text.HAL_SYSCFG_CompensationCodeConfig,"ax",%progbits
 836              		.align	1
 837              		.global	HAL_SYSCFG_CompensationCodeConfig
 838              		.syntax unified
 839              		.thumb
 840              		.thumb_func
 842              	HAL_SYSCFG_CompensationCodeConfig:
 843              		@ args = 0, pretend = 0, frame = 0
 844              		@ frame_needed = 0, uses_anonymous_args = 0
 845              		@ link register save eliminated.
 846 0000 044A     		ldr	r2, .L126
 847 0002 936A     		ldr	r3, [r2, #40]
 848 0004 23F0FF03 		bic	r3, r3, #255
 849 0008 41EA0011 		orr	r1, r1, r0, lsl #4
 850 000c 0B43     		orrs	r3, r3, r1
 851 000e 9362     		str	r3, [r2, #40]
 852 0010 7047     		bx	lr
 853              	.L127:
 854 0012 00BF     		.align	2
 855              	.L126:
 856 0014 00040058 		.word	1476396032
 858              		.section	.text.HAL_DBGMCU_EnableDBGSleepMode,"ax",%progbits
 859              		.align	1
 860              		.global	HAL_DBGMCU_EnableDBGSleepMode
 861              		.syntax unified
 862              		.thumb
 863              		.thumb_func
 865              	HAL_DBGMCU_EnableDBGSleepMode:
 866              		@ args = 0, pretend = 0, frame = 0
 867              		@ frame_needed = 0, uses_anonymous_args = 0
 868              		@ link register save eliminated.
 869 0000 024A     		ldr	r2, .L129
ARM GAS  C:\Users\aticl\AppData\Local\Temp\ccOWzlhH.s 			page 15


 870 0002 5368     		ldr	r3, [r2, #4]
 871 0004 43F00103 		orr	r3, r3, #1
 872 0008 5360     		str	r3, [r2, #4]
 873 000a 7047     		bx	lr
 874              	.L130:
 875              		.align	2
 876              	.L129:
 877 000c 0010005C 		.word	1543507968
 879              		.section	.text.HAL_DBGMCU_DisableDBGSleepMode,"ax",%progbits
 880              		.align	1
 881              		.global	HAL_DBGMCU_DisableDBGSleepMode
 882              		.syntax unified
 883              		.thumb
 884              		.thumb_func
 886              	HAL_DBGMCU_DisableDBGSleepMode:
 887              		@ args = 0, pretend = 0, frame = 0
 888              		@ frame_needed = 0, uses_anonymous_args = 0
 889              		@ link register save eliminated.
 890 0000 024A     		ldr	r2, .L132
 891 0002 5368     		ldr	r3, [r2, #4]
 892 0004 23F00103 		bic	r3, r3, #1
 893 0008 5360     		str	r3, [r2, #4]
 894 000a 7047     		bx	lr
 895              	.L133:
 896              		.align	2
 897              	.L132:
 898 000c 0010005C 		.word	1543507968
 900              		.section	.text.HAL_DBGMCU_EnableDBGStopMode,"ax",%progbits
 901              		.align	1
 902              		.global	HAL_DBGMCU_EnableDBGStopMode
 903              		.syntax unified
 904              		.thumb
 905              		.thumb_func
 907              	HAL_DBGMCU_EnableDBGStopMode:
 908              		@ args = 0, pretend = 0, frame = 0
 909              		@ frame_needed = 0, uses_anonymous_args = 0
 910              		@ link register save eliminated.
 911 0000 024A     		ldr	r2, .L135
 912 0002 5368     		ldr	r3, [r2, #4]
 913 0004 43F00203 		orr	r3, r3, #2
 914 0008 5360     		str	r3, [r2, #4]
 915 000a 7047     		bx	lr
 916              	.L136:
 917              		.align	2
 918              	.L135:
 919 000c 0010005C 		.word	1543507968
 921              		.section	.text.HAL_DBGMCU_DisableDBGStopMode,"ax",%progbits
 922              		.align	1
 923              		.global	HAL_DBGMCU_DisableDBGStopMode
 924              		.syntax unified
 925              		.thumb
 926              		.thumb_func
 928              	HAL_DBGMCU_DisableDBGStopMode:
 929              		@ args = 0, pretend = 0, frame = 0
 930              		@ frame_needed = 0, uses_anonymous_args = 0
 931              		@ link register save eliminated.
 932 0000 024A     		ldr	r2, .L138
ARM GAS  C:\Users\aticl\AppData\Local\Temp\ccOWzlhH.s 			page 16


 933 0002 5368     		ldr	r3, [r2, #4]
 934 0004 23F00203 		bic	r3, r3, #2
 935 0008 5360     		str	r3, [r2, #4]
 936 000a 7047     		bx	lr
 937              	.L139:
 938              		.align	2
 939              	.L138:
 940 000c 0010005C 		.word	1543507968
 942              		.section	.text.HAL_DBGMCU_EnableDBGStandbyMode,"ax",%progbits
 943              		.align	1
 944              		.global	HAL_DBGMCU_EnableDBGStandbyMode
 945              		.syntax unified
 946              		.thumb
 947              		.thumb_func
 949              	HAL_DBGMCU_EnableDBGStandbyMode:
 950              		@ args = 0, pretend = 0, frame = 0
 951              		@ frame_needed = 0, uses_anonymous_args = 0
 952              		@ link register save eliminated.
 953 0000 024A     		ldr	r2, .L141
 954 0002 5368     		ldr	r3, [r2, #4]
 955 0004 43F00403 		orr	r3, r3, #4
 956 0008 5360     		str	r3, [r2, #4]
 957 000a 7047     		bx	lr
 958              	.L142:
 959              		.align	2
 960              	.L141:
 961 000c 0010005C 		.word	1543507968
 963              		.section	.text.HAL_DBGMCU_DisableDBGStandbyMode,"ax",%progbits
 964              		.align	1
 965              		.global	HAL_DBGMCU_DisableDBGStandbyMode
 966              		.syntax unified
 967              		.thumb
 968              		.thumb_func
 970              	HAL_DBGMCU_DisableDBGStandbyMode:
 971              		@ args = 0, pretend = 0, frame = 0
 972              		@ frame_needed = 0, uses_anonymous_args = 0
 973              		@ link register save eliminated.
 974 0000 024A     		ldr	r2, .L144
 975 0002 5368     		ldr	r3, [r2, #4]
 976 0004 23F00403 		bic	r3, r3, #4
 977 0008 5360     		str	r3, [r2, #4]
 978 000a 7047     		bx	lr
 979              	.L145:
 980              		.align	2
 981              	.L144:
 982 000c 0010005C 		.word	1543507968
 984              		.section	.text.HAL_SetFMCMemorySwappingConfig,"ax",%progbits
 985              		.align	1
 986              		.global	HAL_SetFMCMemorySwappingConfig
 987              		.syntax unified
 988              		.thumb
 989              		.thumb_func
 991              	HAL_SetFMCMemorySwappingConfig:
 992              		@ args = 0, pretend = 0, frame = 0
 993              		@ frame_needed = 0, uses_anonymous_args = 0
 994              		@ link register save eliminated.
 995 0000 034A     		ldr	r2, .L147
ARM GAS  C:\Users\aticl\AppData\Local\Temp\ccOWzlhH.s 			page 17


 996 0002 1368     		ldr	r3, [r2]
 997 0004 23F04073 		bic	r3, r3, #50331648
 998 0008 0343     		orrs	r3, r3, r0
 999 000a 1360     		str	r3, [r2]
 1000 000c 7047     		bx	lr
 1001              	.L148:
 1002 000e 00BF     		.align	2
 1003              	.L147:
 1004 0010 00400052 		.word	1375748096
 1006              		.section	.text.HAL_GetFMCMemorySwappingConfig,"ax",%progbits
 1007              		.align	1
 1008              		.global	HAL_GetFMCMemorySwappingConfig
 1009              		.syntax unified
 1010              		.thumb
 1011              		.thumb_func
 1013              	HAL_GetFMCMemorySwappingConfig:
 1014              		@ args = 0, pretend = 0, frame = 0
 1015              		@ frame_needed = 0, uses_anonymous_args = 0
 1016              		@ link register save eliminated.
 1017 0000 024B     		ldr	r3, .L150
 1018 0002 1868     		ldr	r0, [r3]
 1019 0004 00F04070 		and	r0, r0, #50331648
 1020 0008 7047     		bx	lr
 1021              	.L151:
 1022 000a 00BF     		.align	2
 1023              	.L150:
 1024 000c 00400052 		.word	1375748096
 1026              		.section	.text.HAL_EXTI_EdgeConfig,"ax",%progbits
 1027              		.align	1
 1028              		.global	HAL_EXTI_EdgeConfig
 1029              		.syntax unified
 1030              		.thumb
 1031              		.thumb_func
 1033              	HAL_EXTI_EdgeConfig:
 1034              		@ args = 0, pretend = 0, frame = 0
 1035              		@ frame_needed = 0, uses_anonymous_args = 0
 1036              		@ link register save eliminated.
 1037 0000 30B4     		push	{r4, r5}
 1038 0002 4309     		lsrs	r3, r0, #5
 1039 0004 20F01F0C 		bic	ip, r0, #31
 1040 0008 104C     		ldr	r4, .L156
 1041 000a 5CF80450 		ldr	r5, [ip, r4]
 1042 000e 00F01F00 		and	r0, r0, #31
 1043 0012 0122     		movs	r2, #1
 1044 0014 8240     		lsls	r2, r2, r0
 1045 0016 25EA0205 		bic	r5, r5, r2
 1046 001a 4CF80450 		str	r5, [ip, r4]
 1047 001e 03F13073 		add	r3, r3, #46137344
 1048 0022 5B01     		lsls	r3, r3, #5
 1049 0024 1868     		ldr	r0, [r3]
 1050 0026 20EA0200 		bic	r0, r0, r2
 1051 002a 1860     		str	r0, [r3]
 1052 002c 11F4801F 		tst	r1, #1048576
 1053 0030 02D0     		beq	.L153
 1054 0032 1868     		ldr	r0, [r3]
 1055 0034 1043     		orrs	r0, r0, r2
 1056 0036 1860     		str	r0, [r3]
ARM GAS  C:\Users\aticl\AppData\Local\Temp\ccOWzlhH.s 			page 18


 1057              	.L153:
 1058 0038 11F4001F 		tst	r1, #2097152
 1059 003c 04D0     		beq	.L152
 1060 003e 5CF80430 		ldr	r3, [ip, r4]
 1061 0042 1A43     		orrs	r2, r2, r3
 1062 0044 4CF80420 		str	r2, [ip, r4]
 1063              	.L152:
 1064 0048 30BC     		pop	{r4, r5}
 1065 004a 7047     		bx	lr
 1066              	.L157:
 1067              		.align	2
 1068              	.L156:
 1069 004c 04000058 		.word	1476395012
 1071              		.section	.text.HAL_EXTI_GenerateSWInterrupt,"ax",%progbits
 1072              		.align	1
 1073              		.global	HAL_EXTI_GenerateSWInterrupt
 1074              		.syntax unified
 1075              		.thumb
 1076              		.thumb_func
 1078              	HAL_EXTI_GenerateSWInterrupt:
 1079              		@ args = 0, pretend = 0, frame = 0
 1080              		@ frame_needed = 0, uses_anonymous_args = 0
 1081              		@ link register save eliminated.
 1082 0000 20F01F0C 		bic	ip, r0, #31
 1083 0004 0549     		ldr	r1, .L159
 1084 0006 5CF80130 		ldr	r3, [ip, r1]
 1085 000a 00F01F00 		and	r0, r0, #31
 1086 000e 0122     		movs	r2, #1
 1087 0010 8240     		lsls	r2, r2, r0
 1088 0012 1343     		orrs	r3, r3, r2
 1089 0014 4CF80130 		str	r3, [ip, r1]
 1090 0018 7047     		bx	lr
 1091              	.L160:
 1092 001a 00BF     		.align	2
 1093              	.L159:
 1094 001c 08000058 		.word	1476395016
 1096              		.section	.text.HAL_EXTI_D1_ClearFlag,"ax",%progbits
 1097              		.align	1
 1098              		.global	HAL_EXTI_D1_ClearFlag
 1099              		.syntax unified
 1100              		.thumb
 1101              		.thumb_func
 1103              	HAL_EXTI_D1_ClearFlag:
 1104              		@ args = 0, pretend = 0, frame = 0
 1105              		@ frame_needed = 0, uses_anonymous_args = 0
 1106              		@ link register save eliminated.
 1107 0000 00F01F02 		and	r2, r0, #31
 1108 0004 4009     		lsrs	r0, r0, #5
 1109 0006 0001     		lsls	r0, r0, #4
 1110 0008 0123     		movs	r3, #1
 1111 000a 9340     		lsls	r3, r3, r2
 1112 000c 014A     		ldr	r2, .L162
 1113 000e 8350     		str	r3, [r0, r2]
 1114 0010 7047     		bx	lr
 1115              	.L163:
 1116 0012 00BF     		.align	2
 1117              	.L162:
ARM GAS  C:\Users\aticl\AppData\Local\Temp\ccOWzlhH.s 			page 19


 1118 0014 88000058 		.word	1476395144
 1120              		.section	.text.HAL_EXTI_D1_EventInputConfig,"ax",%progbits
 1121              		.align	1
 1122              		.global	HAL_EXTI_D1_EventInputConfig
 1123              		.syntax unified
 1124              		.thumb
 1125              		.thumb_func
 1127              	HAL_EXTI_D1_EventInputConfig:
 1128              		@ args = 0, pretend = 0, frame = 0
 1129              		@ frame_needed = 0, uses_anonymous_args = 0
 1130 0000 10B5     		push	{r4, lr}
 1131 0002 11F4803F 		tst	r1, #65536
 1132 0006 0ED0     		beq	.L165
 1133 0008 EAB9     		cbnz	r2, .L166
 1134 000a 1C4B     		ldr	r3, .L170
 1135 000c 03EB5013 		add	r3, r3, r0, lsr #5
 1136 0010 1B01     		lsls	r3, r3, #4
 1137 0012 1C68     		ldr	r4, [r3]
 1138 0014 00F01F0E 		and	lr, r0, #31
 1139 0018 4FF0010C 		mov	ip, #1
 1140 001c 0CFA0EFC 		lsl	ip, ip, lr
 1141 0020 24EA0C04 		bic	r4, r4, ip
 1142 0024 1C60     		str	r4, [r3]
 1143              	.L165:
 1144 0026 11F4003F 		tst	r1, #131072
 1145 002a 0BD0     		beq	.L164
 1146 002c D2B9     		cbnz	r2, .L168
 1147 002e 4309     		lsrs	r3, r0, #5
 1148 0030 1B01     		lsls	r3, r3, #4
 1149 0032 134C     		ldr	r4, .L170+4
 1150 0034 1A59     		ldr	r2, [r3, r4]
 1151 0036 00F01F00 		and	r0, r0, #31
 1152 003a 0121     		movs	r1, #1
 1153 003c 8140     		lsls	r1, r1, r0
 1154 003e 22EA0102 		bic	r2, r2, r1
 1155 0042 1A51     		str	r2, [r3, r4]
 1156              	.L164:
 1157 0044 10BD     		pop	{r4, pc}
 1158              	.L166:
 1159 0046 0D4B     		ldr	r3, .L170
 1160 0048 03EB5013 		add	r3, r3, r0, lsr #5
 1161 004c 1B01     		lsls	r3, r3, #4
 1162 004e 1C68     		ldr	r4, [r3]
 1163 0050 00F01F0E 		and	lr, r0, #31
 1164 0054 4FF0010C 		mov	ip, #1
 1165 0058 0CFA0EFC 		lsl	ip, ip, lr
 1166 005c 44EA0C04 		orr	r4, r4, ip
 1167 0060 1C60     		str	r4, [r3]
 1168 0062 E0E7     		b	.L165
 1169              	.L168:
 1170 0064 4309     		lsrs	r3, r0, #5
 1171 0066 1B01     		lsls	r3, r3, #4
 1172 0068 054C     		ldr	r4, .L170+4
 1173 006a 1A59     		ldr	r2, [r3, r4]
 1174 006c 00F01F00 		and	r0, r0, #31
 1175 0070 0121     		movs	r1, #1
 1176 0072 8140     		lsls	r1, r1, r0
ARM GAS  C:\Users\aticl\AppData\Local\Temp\ccOWzlhH.s 			page 20


 1177 0074 0A43     		orrs	r2, r2, r1
 1178 0076 1A51     		str	r2, [r3, r4]
 1179 0078 E4E7     		b	.L164
 1180              	.L171:
 1181 007a 00BF     		.align	2
 1182              	.L170:
 1183 007c 08008005 		.word	92274696
 1184 0080 84000058 		.word	1476395140
 1186              		.section	.text.HAL_EXTI_D3_EventInputConfig,"ax",%progbits
 1187              		.align	1
 1188              		.global	HAL_EXTI_D3_EventInputConfig
 1189              		.syntax unified
 1190              		.thumb
 1191              		.thumb_func
 1193              	HAL_EXTI_D3_EventInputConfig:
 1194              		@ args = 0, pretend = 0, frame = 0
 1195              		@ frame_needed = 0, uses_anonymous_args = 0
 1196 0000 10B5     		push	{r4, lr}
 1197 0002 09BB     		cbnz	r1, .L173
 1198 0004 20F01F03 		bic	r3, r0, #31
 1199 0008 194C     		ldr	r4, .L178
 1200 000a 1959     		ldr	r1, [r3, r4]
 1201 000c 00F01F0E 		and	lr, r0, #31
 1202 0010 4FF0010C 		mov	ip, #1
 1203 0014 0CFA0EFC 		lsl	ip, ip, lr
 1204 0018 21EA0C01 		bic	r1, r1, ip
 1205 001c 1951     		str	r1, [r3, r4]
 1206              	.L174:
 1207 001e 10F0100F 		tst	r0, #16
 1208 0022 1FD1     		bne	.L175
 1209 0024 20F01F03 		bic	r3, r0, #31
 1210 0028 1249     		ldr	r1, .L178+4
 1211 002a 1944     		add	r1, r1, r3
 1212              	.L176:
 1213 002c 0B68     		ldr	r3, [r1]
 1214 002e 4000     		lsls	r0, r0, #1
 1215 0030 00F01E00 		and	r0, r0, #30
 1216 0034 4FF0030C 		mov	ip, #3
 1217 0038 0CFA00FC 		lsl	ip, ip, r0
 1218 003c 23EA0C03 		bic	r3, r3, ip
 1219 0040 8240     		lsls	r2, r2, r0
 1220 0042 1A43     		orrs	r2, r2, r3
 1221 0044 0A60     		str	r2, [r1]
 1222 0046 10BD     		pop	{r4, pc}
 1223              	.L173:
 1224 0048 20F01F03 		bic	r3, r0, #31
 1225 004c 084C     		ldr	r4, .L178
 1226 004e 1959     		ldr	r1, [r3, r4]
 1227 0050 00F01F0E 		and	lr, r0, #31
 1228 0054 4FF0010C 		mov	ip, #1
 1229 0058 0CFA0EFC 		lsl	ip, ip, lr
 1230 005c 41EA0C01 		orr	r1, r1, ip
 1231 0060 1951     		str	r1, [r3, r4]
 1232 0062 DCE7     		b	.L174
 1233              	.L175:
 1234 0064 20F01F03 		bic	r3, r0, #31
 1235 0068 0349     		ldr	r1, .L178+8
ARM GAS  C:\Users\aticl\AppData\Local\Temp\ccOWzlhH.s 			page 21


 1236 006a 1944     		add	r1, r1, r3
 1237 006c DEE7     		b	.L176
 1238              	.L179:
 1239 006e 00BF     		.align	2
 1240              	.L178:
 1241 0070 0C000058 		.word	1476395020
 1242 0074 10000058 		.word	1476395024
 1243 0078 14000058 		.word	1476395028
 1245              		.global	uwTickFreq
 1246              		.section	.data.uwTickFreq,"aw"
 1249              	uwTickFreq:
 1250 0000 01       		.byte	1
 1251              		.global	uwTickPrio
 1252              		.section	.data.uwTickPrio,"aw"
 1253              		.align	2
 1256              	uwTickPrio:
 1257 0000 10000000 		.word	16
 1258              		.global	uwTick
 1259              		.section	.bss.uwTick,"aw",%nobits
 1260              		.align	2
 1263              	uwTick:
 1264 0000 00000000 		.space	4
 1265              		.ident	"GCC: (xPack GNU Arm Embedded GCC x86_64) 14.2.1 20241119"
ARM GAS  C:\Users\aticl\AppData\Local\Temp\ccOWzlhH.s 			page 22

