ARM GAS  C:\Users\aticl\AppData\Local\Temp\cc3kZn0i.s 			page 1


   1              		.cpu cortex-m7
   2              		.arch armv7e-m
   3              		.fpu fpv5-d16
   4              		.eabi_attribute 28, 1
   5              		.eabi_attribute 20, 1
   6              		.eabi_attribute 21, 1
   7              		.eabi_attribute 23, 3
   8              		.eabi_attribute 24, 1
   9              		.eabi_attribute 25, 1
  10              		.eabi_attribute 26, 1
  11              		.eabi_attribute 30, 1
  12              		.eabi_attribute 34, 1
  13              		.eabi_attribute 18, 4
  14              		.file	"stm32h7xx_hal_i2c_ex.c"
  15              		.text
  16              		.section	.text.HAL_I2CEx_ConfigAnalogFilter,"ax",%progbits
  17              		.align	1
  18              		.global	HAL_I2CEx_ConfigAnalogFilter
  19              		.syntax unified
  20              		.thumb
  21              		.thumb_func
  23              	HAL_I2CEx_ConfigAnalogFilter:
  24              		@ args = 0, pretend = 0, frame = 0
  25              		@ frame_needed = 0, uses_anonymous_args = 0
  26              		@ link register save eliminated.
  27 0000 0346     		mov	r3, r0
  28 0002 90F84120 		ldrb	r2, [r0, #65]	@ zero_extendqisi2
  29 0006 202A     		cmp	r2, #32
  30 0008 23D1     		bne	.L3
  31 000a 90F84020 		ldrb	r2, [r0, #64]	@ zero_extendqisi2
  32 000e 012A     		cmp	r2, #1
  33 0010 21D0     		beq	.L4
  34 0012 0122     		movs	r2, #1
  35 0014 80F84020 		strb	r2, [r0, #64]
  36 0018 2422     		movs	r2, #36
  37 001a 80F84120 		strb	r2, [r0, #65]
  38 001e 0068     		ldr	r0, [r0]
  39 0020 0268     		ldr	r2, [r0]
  40 0022 22F00102 		bic	r2, r2, #1
  41 0026 0260     		str	r2, [r0]
  42 0028 1868     		ldr	r0, [r3]
  43 002a 0268     		ldr	r2, [r0]
  44 002c 22F48052 		bic	r2, r2, #4096
  45 0030 0260     		str	r2, [r0]
  46 0032 1868     		ldr	r0, [r3]
  47 0034 0268     		ldr	r2, [r0]
  48 0036 0A43     		orrs	r2, r2, r1
  49 0038 0260     		str	r2, [r0]
  50 003a 1968     		ldr	r1, [r3]
  51 003c 0A68     		ldr	r2, [r1]
  52 003e 42F00102 		orr	r2, r2, #1
  53 0042 0A60     		str	r2, [r1]
  54 0044 2022     		movs	r2, #32
  55 0046 83F84120 		strb	r2, [r3, #65]
  56 004a 0020     		movs	r0, #0
  57 004c 83F84000 		strb	r0, [r3, #64]
  58 0050 7047     		bx	lr
ARM GAS  C:\Users\aticl\AppData\Local\Temp\cc3kZn0i.s 			page 2


  59              	.L3:
  60 0052 0220     		movs	r0, #2
  61 0054 7047     		bx	lr
  62              	.L4:
  63 0056 0220     		movs	r0, #2
  64 0058 7047     		bx	lr
  66              		.section	.text.HAL_I2CEx_ConfigDigitalFilter,"ax",%progbits
  67              		.align	1
  68              		.global	HAL_I2CEx_ConfigDigitalFilter
  69              		.syntax unified
  70              		.thumb
  71              		.thumb_func
  73              	HAL_I2CEx_ConfigDigitalFilter:
  74              		@ args = 0, pretend = 0, frame = 0
  75              		@ frame_needed = 0, uses_anonymous_args = 0
  76              		@ link register save eliminated.
  77 0000 0346     		mov	r3, r0
  78 0002 90F84120 		ldrb	r2, [r0, #65]	@ zero_extendqisi2
  79 0006 202A     		cmp	r2, #32
  80 0008 21D1     		bne	.L7
  81 000a 90F84020 		ldrb	r2, [r0, #64]	@ zero_extendqisi2
  82 000e 012A     		cmp	r2, #1
  83 0010 1FD0     		beq	.L8
  84 0012 0122     		movs	r2, #1
  85 0014 80F84020 		strb	r2, [r0, #64]
  86 0018 2422     		movs	r2, #36
  87 001a 80F84120 		strb	r2, [r0, #65]
  88 001e 0068     		ldr	r0, [r0]
  89 0020 0268     		ldr	r2, [r0]
  90 0022 22F00102 		bic	r2, r2, #1
  91 0026 0260     		str	r2, [r0]
  92 0028 1868     		ldr	r0, [r3]
  93 002a 0268     		ldr	r2, [r0]
  94 002c 22F47062 		bic	r2, r2, #3840
  95 0030 42EA0122 		orr	r2, r2, r1, lsl #8
  96 0034 0260     		str	r2, [r0]
  97 0036 1968     		ldr	r1, [r3]
  98 0038 0A68     		ldr	r2, [r1]
  99 003a 42F00102 		orr	r2, r2, #1
 100 003e 0A60     		str	r2, [r1]
 101 0040 2022     		movs	r2, #32
 102 0042 83F84120 		strb	r2, [r3, #65]
 103 0046 0020     		movs	r0, #0
 104 0048 83F84000 		strb	r0, [r3, #64]
 105 004c 7047     		bx	lr
 106              	.L7:
 107 004e 0220     		movs	r0, #2
 108 0050 7047     		bx	lr
 109              	.L8:
 110 0052 0220     		movs	r0, #2
 111 0054 7047     		bx	lr
 113              		.section	.text.HAL_I2CEx_EnableWakeUp,"ax",%progbits
 114              		.align	1
 115              		.global	HAL_I2CEx_EnableWakeUp
 116              		.syntax unified
 117              		.thumb
 118              		.thumb_func
ARM GAS  C:\Users\aticl\AppData\Local\Temp\cc3kZn0i.s 			page 3


 120              	HAL_I2CEx_EnableWakeUp:
 121              		@ args = 0, pretend = 0, frame = 0
 122              		@ frame_needed = 0, uses_anonymous_args = 0
 123              		@ link register save eliminated.
 124 0000 0346     		mov	r3, r0
 125 0002 90F84120 		ldrb	r2, [r0, #65]	@ zero_extendqisi2
 126 0006 202A     		cmp	r2, #32
 127 0008 1FD1     		bne	.L11
 128 000a 90F84020 		ldrb	r2, [r0, #64]	@ zero_extendqisi2
 129 000e 012A     		cmp	r2, #1
 130 0010 1DD0     		beq	.L12
 131 0012 0122     		movs	r2, #1
 132 0014 80F84020 		strb	r2, [r0, #64]
 133 0018 2422     		movs	r2, #36
 134 001a 80F84120 		strb	r2, [r0, #65]
 135 001e 0168     		ldr	r1, [r0]
 136 0020 0A68     		ldr	r2, [r1]
 137 0022 22F00102 		bic	r2, r2, #1
 138 0026 0A60     		str	r2, [r1]
 139 0028 0168     		ldr	r1, [r0]
 140 002a 0A68     		ldr	r2, [r1]
 141 002c 42F48022 		orr	r2, r2, #262144
 142 0030 0A60     		str	r2, [r1]
 143 0032 0168     		ldr	r1, [r0]
 144 0034 0A68     		ldr	r2, [r1]
 145 0036 42F00102 		orr	r2, r2, #1
 146 003a 0A60     		str	r2, [r1]
 147 003c 2022     		movs	r2, #32
 148 003e 80F84120 		strb	r2, [r0, #65]
 149 0042 0020     		movs	r0, #0
 150 0044 83F84000 		strb	r0, [r3, #64]
 151 0048 7047     		bx	lr
 152              	.L11:
 153 004a 0220     		movs	r0, #2
 154 004c 7047     		bx	lr
 155              	.L12:
 156 004e 0220     		movs	r0, #2
 157 0050 7047     		bx	lr
 159              		.section	.text.HAL_I2CEx_DisableWakeUp,"ax",%progbits
 160              		.align	1
 161              		.global	HAL_I2CEx_DisableWakeUp
 162              		.syntax unified
 163              		.thumb
 164              		.thumb_func
 166              	HAL_I2CEx_DisableWakeUp:
 167              		@ args = 0, pretend = 0, frame = 0
 168              		@ frame_needed = 0, uses_anonymous_args = 0
 169              		@ link register save eliminated.
 170 0000 0346     		mov	r3, r0
 171 0002 90F84120 		ldrb	r2, [r0, #65]	@ zero_extendqisi2
 172 0006 202A     		cmp	r2, #32
 173 0008 1FD1     		bne	.L15
 174 000a 90F84020 		ldrb	r2, [r0, #64]	@ zero_extendqisi2
 175 000e 012A     		cmp	r2, #1
 176 0010 1DD0     		beq	.L16
 177 0012 0122     		movs	r2, #1
 178 0014 80F84020 		strb	r2, [r0, #64]
ARM GAS  C:\Users\aticl\AppData\Local\Temp\cc3kZn0i.s 			page 4


 179 0018 2422     		movs	r2, #36
 180 001a 80F84120 		strb	r2, [r0, #65]
 181 001e 0168     		ldr	r1, [r0]
 182 0020 0A68     		ldr	r2, [r1]
 183 0022 22F00102 		bic	r2, r2, #1
 184 0026 0A60     		str	r2, [r1]
 185 0028 0168     		ldr	r1, [r0]
 186 002a 0A68     		ldr	r2, [r1]
 187 002c 22F48022 		bic	r2, r2, #262144
 188 0030 0A60     		str	r2, [r1]
 189 0032 0168     		ldr	r1, [r0]
 190 0034 0A68     		ldr	r2, [r1]
 191 0036 42F00102 		orr	r2, r2, #1
 192 003a 0A60     		str	r2, [r1]
 193 003c 2022     		movs	r2, #32
 194 003e 80F84120 		strb	r2, [r0, #65]
 195 0042 0020     		movs	r0, #0
 196 0044 83F84000 		strb	r0, [r3, #64]
 197 0048 7047     		bx	lr
 198              	.L15:
 199 004a 0220     		movs	r0, #2
 200 004c 7047     		bx	lr
 201              	.L16:
 202 004e 0220     		movs	r0, #2
 203 0050 7047     		bx	lr
 205              		.section	.text.HAL_I2CEx_EnableFastModePlus,"ax",%progbits
 206              		.align	1
 207              		.global	HAL_I2CEx_EnableFastModePlus
 208              		.syntax unified
 209              		.thumb
 210              		.thumb_func
 212              	HAL_I2CEx_EnableFastModePlus:
 213              		@ args = 0, pretend = 0, frame = 8
 214              		@ frame_needed = 0, uses_anonymous_args = 0
 215              		@ link register save eliminated.
 216 0000 82B0     		sub	sp, sp, #8
 217 0002 094B     		ldr	r3, .L19
 218 0004 D3F8F420 		ldr	r2, [r3, #244]
 219 0008 42F00202 		orr	r2, r2, #2
 220 000c C3F8F420 		str	r2, [r3, #244]
 221 0010 D3F8F430 		ldr	r3, [r3, #244]
 222 0014 03F00203 		and	r3, r3, #2
 223 0018 0193     		str	r3, [sp, #4]
 224 001a 019B     		ldr	r3, [sp, #4]
 225 001c 034A     		ldr	r2, .L19+4
 226 001e 5368     		ldr	r3, [r2, #4]
 227 0020 0343     		orrs	r3, r3, r0
 228 0022 5360     		str	r3, [r2, #4]
 229 0024 02B0     		add	sp, sp, #8
 230              		@ sp needed
 231 0026 7047     		bx	lr
 232              	.L20:
 233              		.align	2
 234              	.L19:
 235 0028 00440258 		.word	1476543488
 236 002c 00040058 		.word	1476396032
 238              		.section	.text.HAL_I2CEx_DisableFastModePlus,"ax",%progbits
ARM GAS  C:\Users\aticl\AppData\Local\Temp\cc3kZn0i.s 			page 5


 239              		.align	1
 240              		.global	HAL_I2CEx_DisableFastModePlus
 241              		.syntax unified
 242              		.thumb
 243              		.thumb_func
 245              	HAL_I2CEx_DisableFastModePlus:
 246              		@ args = 0, pretend = 0, frame = 8
 247              		@ frame_needed = 0, uses_anonymous_args = 0
 248              		@ link register save eliminated.
 249 0000 82B0     		sub	sp, sp, #8
 250 0002 0A4B     		ldr	r3, .L23
 251 0004 D3F8F420 		ldr	r2, [r3, #244]
 252 0008 42F00202 		orr	r2, r2, #2
 253 000c C3F8F420 		str	r2, [r3, #244]
 254 0010 D3F8F430 		ldr	r3, [r3, #244]
 255 0014 03F00203 		and	r3, r3, #2
 256 0018 0193     		str	r3, [sp, #4]
 257 001a 019B     		ldr	r3, [sp, #4]
 258 001c 044A     		ldr	r2, .L23+4
 259 001e 5368     		ldr	r3, [r2, #4]
 260 0020 23EA0003 		bic	r3, r3, r0
 261 0024 5360     		str	r3, [r2, #4]
 262 0026 02B0     		add	sp, sp, #8
 263              		@ sp needed
 264 0028 7047     		bx	lr
 265              	.L24:
 266 002a 00BF     		.align	2
 267              	.L23:
 268 002c 00440258 		.word	1476543488
 269 0030 00040058 		.word	1476396032
 271              		.ident	"GCC: (xPack GNU Arm Embedded GCC x86_64) 14.2.1 20241119"
ARM GAS  C:\Users\aticl\AppData\Local\Temp\cc3kZn0i.s 			page 6

