ARM GAS  C:\Users\aticl\AppData\Local\Temp\ccvLHuXi.s 			page 1


   1              		.cpu cortex-m7
   2              		.arch armv7e-m
   3              		.fpu fpv5-d16
   4              		.eabi_attribute 28, 1
   5              		.eabi_attribute 20, 1
   6              		.eabi_attribute 21, 1
   7              		.eabi_attribute 23, 3
   8              		.eabi_attribute 24, 1
   9              		.eabi_attribute 25, 1
  10              		.eabi_attribute 26, 1
  11              		.eabi_attribute 30, 1
  12              		.eabi_attribute 34, 1
  13              		.eabi_attribute 18, 4
  14              		.file	"stm32h7xx_hal_gpio.c"
  15              		.text
  16              		.section	.text.HAL_GPIO_Init,"ax",%progbits
  17              		.align	1
  18              		.global	HAL_GPIO_Init
  19              		.syntax unified
  20              		.thumb
  21              		.thumb_func
  23              	HAL_GPIO_Init:
  24              		@ args = 0, pretend = 0, frame = 8
  25              		@ frame_needed = 0, uses_anonymous_args = 0
  26 0000 F0B5     		push	{r4, r5, r6, r7, lr}
  27 0002 83B0     		sub	sp, sp, #12
  28 0004 0023     		movs	r3, #0
  29 0006 6BE0     		b	.L2
  30              	.L25:
  31 0008 8568     		ldr	r5, [r0, #8]
  32 000a 5E00     		lsls	r6, r3, #1
  33 000c 0324     		movs	r4, #3
  34 000e B440     		lsls	r4, r4, r6
  35 0010 25EA0405 		bic	r5, r5, r4
  36 0014 CC68     		ldr	r4, [r1, #12]
  37 0016 B440     		lsls	r4, r4, r6
  38 0018 2C43     		orrs	r4, r4, r5
  39 001a 8460     		str	r4, [r0, #8]
  40 001c 4568     		ldr	r5, [r0, #4]
  41 001e 25EA0C05 		bic	r5, r5, ip
  42 0022 4C68     		ldr	r4, [r1, #4]
  43 0024 C4F30014 		ubfx	r4, r4, #4, #1
  44 0028 9C40     		lsls	r4, r4, r3
  45 002a 2C43     		orrs	r4, r4, r5
  46 002c 4460     		str	r4, [r0, #4]
  47 002e 69E0     		b	.L4
  48              	.L26:
  49 0030 DD08     		lsrs	r5, r3, #3
  50 0032 0835     		adds	r5, r5, #8
  51 0034 50F82540 		ldr	r4, [r0, r5, lsl #2]
  52 0038 03F0070C 		and	ip, r3, #7
  53 003c 4FEA8C0C 		lsl	ip, ip, #2
  54 0040 4FF00F0E 		mov	lr, #15
  55 0044 0EFA0CFE 		lsl	lr, lr, ip
  56 0048 24EA0E0E 		bic	lr, r4, lr
  57 004c 0C69     		ldr	r4, [r1, #16]
  58 004e 04FA0CF4 		lsl	r4, r4, ip
ARM GAS  C:\Users\aticl\AppData\Local\Temp\ccvLHuXi.s 			page 2


  59 0052 44EA0E04 		orr	r4, r4, lr
  60 0056 40F82540 		str	r4, [r0, r5, lsl #2]
  61 005a 6BE0     		b	.L6
  62              	.L27:
  63 005c 0924     		movs	r4, #9
  64 005e 00E0     		b	.L7
  65              	.L13:
  66 0060 0024     		movs	r4, #0
  67              	.L7:
  68 0062 04FA0EF4 		lsl	r4, r4, lr
  69 0066 2C43     		orrs	r4, r4, r5
  70 0068 0CF1020C 		add	ip, ip, #2
  71 006c 694D     		ldr	r5, .L28
  72 006e 45F82C40 		str	r4, [r5, ip, lsl #2]
  73 0072 4FF0B044 		mov	r4, #1476395008
  74 0076 2568     		ldr	r5, [r4]
  75 0078 D443     		mvns	r4, r2
  76 007a 25EA0206 		bic	r6, r5, r2
  77 007e 4F68     		ldr	r7, [r1, #4]
  78 0080 17F4801F 		tst	r7, #1048576
  79 0084 01D0     		beq	.L8
  80 0086 42EA0506 		orr	r6, r2, r5
  81              	.L8:
  82 008a 4FF0B045 		mov	r5, #1476395008
  83 008e 2E60     		str	r6, [r5]
  84 0090 6D68     		ldr	r5, [r5, #4]
  85 0092 04EA0506 		and	r6, r4, r5
  86 0096 4F68     		ldr	r7, [r1, #4]
  87 0098 17F4001F 		tst	r7, #2097152
  88 009c 01D0     		beq	.L9
  89 009e 42EA0506 		orr	r6, r2, r5
  90              	.L9:
  91 00a2 4FF0B045 		mov	r5, #1476395008
  92 00a6 6E60     		str	r6, [r5, #4]
  93 00a8 D5F88450 		ldr	r5, [r5, #132]
  94 00ac 04EA0506 		and	r6, r4, r5
  95 00b0 4F68     		ldr	r7, [r1, #4]
  96 00b2 17F4003F 		tst	r7, #131072
  97 00b6 01D0     		beq	.L10
  98 00b8 42EA0506 		orr	r6, r2, r5
  99              	.L10:
 100 00bc 4FF0B045 		mov	r5, #1476395008
 101 00c0 C5F88460 		str	r6, [r5, #132]
 102 00c4 D5F88050 		ldr	r5, [r5, #128]
 103 00c8 2C40     		ands	r4, r4, r5
 104 00ca 4E68     		ldr	r6, [r1, #4]
 105 00cc 16F4803F 		tst	r6, #65536
 106 00d0 01D0     		beq	.L11
 107 00d2 42EA0504 		orr	r4, r2, r5
 108              	.L11:
 109 00d6 4FF0B042 		mov	r2, #1476395008
 110 00da C2F88040 		str	r4, [r2, #128]
 111              	.L3:
 112 00de 0133     		adds	r3, r3, #1
 113              	.L2:
 114 00e0 0A68     		ldr	r2, [r1]
 115 00e2 32FA03F4 		lsrs	r4, r2, r3
ARM GAS  C:\Users\aticl\AppData\Local\Temp\ccvLHuXi.s 			page 3


 116 00e6 00F09280 		beq	.L24
 117 00ea 4FF0010C 		mov	ip, #1
 118 00ee 0CFA03FC 		lsl	ip, ip, r3
 119 00f2 1CEA0202 		ands	r2, ip, r2
 120 00f6 F2D0     		beq	.L3
 121 00f8 4C68     		ldr	r4, [r1, #4]
 122 00fa 04F00304 		and	r4, r4, #3
 123 00fe 013C     		subs	r4, r4, #1
 124 0100 012C     		cmp	r4, #1
 125 0102 81D9     		bls	.L25
 126              	.L4:
 127 0104 4C68     		ldr	r4, [r1, #4]
 128 0106 04F00304 		and	r4, r4, #3
 129 010a 032C     		cmp	r4, #3
 130 010c 0CD0     		beq	.L5
 131 010e C468     		ldr	r4, [r0, #12]
 132 0110 5D00     		lsls	r5, r3, #1
 133 0112 4FF0030C 		mov	ip, #3
 134 0116 0CFA05FC 		lsl	ip, ip, r5
 135 011a 24EA0C0C 		bic	ip, r4, ip
 136 011e 8C68     		ldr	r4, [r1, #8]
 137 0120 AC40     		lsls	r4, r4, r5
 138 0122 44EA0C04 		orr	r4, r4, ip
 139 0126 C460     		str	r4, [r0, #12]
 140              	.L5:
 141 0128 4C68     		ldr	r4, [r1, #4]
 142 012a 04F00304 		and	r4, r4, #3
 143 012e 022C     		cmp	r4, #2
 144 0130 3FF47EAF 		beq	.L26
 145              	.L6:
 146 0134 0468     		ldr	r4, [r0]
 147 0136 4FEA430E 		lsl	lr, r3, #1
 148 013a 4FF0030C 		mov	ip, #3
 149 013e 0CFA0EFC 		lsl	ip, ip, lr
 150 0142 24EA0C0C 		bic	ip, r4, ip
 151 0146 4C68     		ldr	r4, [r1, #4]
 152 0148 04F00304 		and	r4, r4, #3
 153 014c 04FA0EF4 		lsl	r4, r4, lr
 154 0150 44EA0C04 		orr	r4, r4, ip
 155 0154 0460     		str	r4, [r0]
 156 0156 4C68     		ldr	r4, [r1, #4]
 157 0158 14F4403F 		tst	r4, #196608
 158 015c BFD0     		beq	.L3
 159 015e 2E4C     		ldr	r4, .L28+4
 160 0160 D4F8F450 		ldr	r5, [r4, #244]
 161 0164 45F00205 		orr	r5, r5, #2
 162 0168 C4F8F450 		str	r5, [r4, #244]
 163 016c D4F8F440 		ldr	r4, [r4, #244]
 164 0170 04F00204 		and	r4, r4, #2
 165 0174 0194     		str	r4, [sp, #4]
 166 0176 019C     		ldr	r4, [sp, #4]
 167 0178 4FEA930C 		lsr	ip, r3, #2
 168 017c 0CF10205 		add	r5, ip, #2
 169 0180 244C     		ldr	r4, .L28
 170 0182 54F82550 		ldr	r5, [r4, r5, lsl #2]
 171 0186 03F0030E 		and	lr, r3, #3
 172 018a 4FEA8E0E 		lsl	lr, lr, #2
ARM GAS  C:\Users\aticl\AppData\Local\Temp\ccvLHuXi.s 			page 4


 173 018e 0F24     		movs	r4, #15
 174 0190 04FA0EF4 		lsl	r4, r4, lr
 175 0194 25EA0405 		bic	r5, r5, r4
 176 0198 204C     		ldr	r4, .L28+8
 177 019a A042     		cmp	r0, r4
 178 019c 3FF460AF 		beq	.L13
 179 01a0 04F58064 		add	r4, r4, #1024
 180 01a4 A042     		cmp	r0, r4
 181 01a6 22D0     		beq	.L14
 182 01a8 04F58064 		add	r4, r4, #1024
 183 01ac A042     		cmp	r0, r4
 184 01ae 20D0     		beq	.L15
 185 01b0 04F58064 		add	r4, r4, #1024
 186 01b4 A042     		cmp	r0, r4
 187 01b6 1ED0     		beq	.L16
 188 01b8 04F58064 		add	r4, r4, #1024
 189 01bc A042     		cmp	r0, r4
 190 01be 1CD0     		beq	.L17
 191 01c0 04F58064 		add	r4, r4, #1024
 192 01c4 A042     		cmp	r0, r4
 193 01c6 1AD0     		beq	.L18
 194 01c8 04F58064 		add	r4, r4, #1024
 195 01cc A042     		cmp	r0, r4
 196 01ce 18D0     		beq	.L19
 197 01d0 04F58064 		add	r4, r4, #1024
 198 01d4 A042     		cmp	r0, r4
 199 01d6 16D0     		beq	.L20
 200 01d8 04F58064 		add	r4, r4, #1024
 201 01dc A042     		cmp	r0, r4
 202 01de 14D0     		beq	.L21
 203 01e0 04F58064 		add	r4, r4, #1024
 204 01e4 A042     		cmp	r0, r4
 205 01e6 3FF439AF 		beq	.L27
 206 01ea 0A24     		movs	r4, #10
 207 01ec 39E7     		b	.L7
 208              	.L14:
 209 01ee 0124     		movs	r4, #1
 210 01f0 37E7     		b	.L7
 211              	.L15:
 212 01f2 0224     		movs	r4, #2
 213 01f4 35E7     		b	.L7
 214              	.L16:
 215 01f6 0324     		movs	r4, #3
 216 01f8 33E7     		b	.L7
 217              	.L17:
 218 01fa 0424     		movs	r4, #4
 219 01fc 31E7     		b	.L7
 220              	.L18:
 221 01fe 0524     		movs	r4, #5
 222 0200 2FE7     		b	.L7
 223              	.L19:
 224 0202 0624     		movs	r4, #6
 225 0204 2DE7     		b	.L7
 226              	.L20:
 227 0206 0724     		movs	r4, #7
 228 0208 2BE7     		b	.L7
 229              	.L21:
ARM GAS  C:\Users\aticl\AppData\Local\Temp\ccvLHuXi.s 			page 5


 230 020a 0824     		movs	r4, #8
 231 020c 29E7     		b	.L7
 232              	.L24:
 233 020e 03B0     		add	sp, sp, #12
 234              		@ sp needed
 235 0210 F0BD     		pop	{r4, r5, r6, r7, pc}
 236              	.L29:
 237 0212 00BF     		.align	2
 238              	.L28:
 239 0214 00040058 		.word	1476396032
 240 0218 00440258 		.word	1476543488
 241 021c 00000258 		.word	1476526080
 243              		.section	.text.HAL_GPIO_DeInit,"ax",%progbits
 244              		.align	1
 245              		.global	HAL_GPIO_DeInit
 246              		.syntax unified
 247              		.thumb
 248              		.thumb_func
 250              	HAL_GPIO_DeInit:
 251              		@ args = 0, pretend = 0, frame = 0
 252              		@ frame_needed = 0, uses_anonymous_args = 0
 253 0000 0023     		movs	r3, #0
 254 0002 31FA03F2 		lsrs	r2, r1, r3
 255 0006 00F09D80 		beq	.L49
 256 000a F0B5     		push	{r4, r5, r6, r7, lr}
 257 000c 2EE0     		b	.L35
 258              	.L52:
 259 000e 0925     		movs	r5, #9
 260 0010 00E0     		b	.L33
 261              	.L36:
 262 0012 0025     		movs	r5, #0
 263              	.L33:
 264 0014 05FA0CF5 		lsl	r5, r5, ip
 265 0018 A542     		cmp	r5, r4
 266 001a 72D0     		beq	.L50
 267              	.L34:
 268 001c 0468     		ldr	r4, [r0]
 269 001e 5D00     		lsls	r5, r3, #1
 270 0020 4FF0030C 		mov	ip, #3
 271 0024 0CFA05FC 		lsl	ip, ip, r5
 272 0028 44EA0C04 		orr	r4, r4, ip
 273 002c 0460     		str	r4, [r0]
 274 002e 4FEAD30E 		lsr	lr, r3, #3
 275 0032 0EF1080E 		add	lr, lr, #8
 276 0036 50F82E40 		ldr	r4, [r0, lr, lsl #2]
 277 003a 03F00706 		and	r6, r3, #7
 278 003e B600     		lsls	r6, r6, #2
 279 0040 0F25     		movs	r5, #15
 280 0042 B540     		lsls	r5, r5, r6
 281 0044 24EA0504 		bic	r4, r4, r5
 282 0048 40F82E40 		str	r4, [r0, lr, lsl #2]
 283 004c C468     		ldr	r4, [r0, #12]
 284 004e 24EA0C04 		bic	r4, r4, ip
 285 0052 C460     		str	r4, [r0, #12]
 286 0054 4468     		ldr	r4, [r0, #4]
 287 0056 24EA0202 		bic	r2, r4, r2
 288 005a 4260     		str	r2, [r0, #4]
ARM GAS  C:\Users\aticl\AppData\Local\Temp\ccvLHuXi.s 			page 6


 289 005c 8268     		ldr	r2, [r0, #8]
 290 005e 22EA0C02 		bic	r2, r2, ip
 291 0062 8260     		str	r2, [r0, #8]
 292              	.L32:
 293 0064 0133     		adds	r3, r3, #1
 294 0066 31FA03F2 		lsrs	r2, r1, r3
 295 006a 6AD0     		beq	.L51
 296              	.L35:
 297 006c 0122     		movs	r2, #1
 298 006e 9A40     		lsls	r2, r2, r3
 299 0070 12EA010E 		ands	lr, r2, r1
 300 0074 F6D0     		beq	.L32
 301 0076 9E08     		lsrs	r6, r3, #2
 302 0078 B51C     		adds	r5, r6, #2
 303 007a 334C     		ldr	r4, .L53
 304 007c 54F82540 		ldr	r4, [r4, r5, lsl #2]
 305 0080 03F0030C 		and	ip, r3, #3
 306 0084 4FEA8C0C 		lsl	ip, ip, #2
 307 0088 0F25     		movs	r5, #15
 308 008a 05FA0CF7 		lsl	r7, r5, ip
 309 008e 3C40     		ands	r4, r4, r7
 310 0090 2E4D     		ldr	r5, .L53+4
 311 0092 A842     		cmp	r0, r5
 312 0094 BDD0     		beq	.L36
 313 0096 05F58065 		add	r5, r5, #1024
 314 009a A842     		cmp	r0, r5
 315 009c 21D0     		beq	.L37
 316 009e 05F58065 		add	r5, r5, #1024
 317 00a2 A842     		cmp	r0, r5
 318 00a4 1FD0     		beq	.L38
 319 00a6 05F58065 		add	r5, r5, #1024
 320 00aa A842     		cmp	r0, r5
 321 00ac 1DD0     		beq	.L39
 322 00ae 05F58065 		add	r5, r5, #1024
 323 00b2 A842     		cmp	r0, r5
 324 00b4 1BD0     		beq	.L40
 325 00b6 05F58065 		add	r5, r5, #1024
 326 00ba A842     		cmp	r0, r5
 327 00bc 19D0     		beq	.L41
 328 00be 05F58065 		add	r5, r5, #1024
 329 00c2 A842     		cmp	r0, r5
 330 00c4 17D0     		beq	.L42
 331 00c6 05F58065 		add	r5, r5, #1024
 332 00ca A842     		cmp	r0, r5
 333 00cc 15D0     		beq	.L43
 334 00ce 05F58065 		add	r5, r5, #1024
 335 00d2 A842     		cmp	r0, r5
 336 00d4 13D0     		beq	.L44
 337 00d6 05F58065 		add	r5, r5, #1024
 338 00da A842     		cmp	r0, r5
 339 00dc 97D0     		beq	.L52
 340 00de 0A25     		movs	r5, #10
 341 00e0 98E7     		b	.L33
 342              	.L37:
 343 00e2 0125     		movs	r5, #1
 344 00e4 96E7     		b	.L33
 345              	.L38:
ARM GAS  C:\Users\aticl\AppData\Local\Temp\ccvLHuXi.s 			page 7


 346 00e6 0225     		movs	r5, #2
 347 00e8 94E7     		b	.L33
 348              	.L39:
 349 00ea 0325     		movs	r5, #3
 350 00ec 92E7     		b	.L33
 351              	.L40:
 352 00ee 0425     		movs	r5, #4
 353 00f0 90E7     		b	.L33
 354              	.L41:
 355 00f2 0525     		movs	r5, #5
 356 00f4 8EE7     		b	.L33
 357              	.L42:
 358 00f6 0625     		movs	r5, #6
 359 00f8 8CE7     		b	.L33
 360              	.L43:
 361 00fa 0725     		movs	r5, #7
 362 00fc 8AE7     		b	.L33
 363              	.L44:
 364 00fe 0825     		movs	r5, #8
 365 0100 88E7     		b	.L33
 366              	.L50:
 367 0102 4FF0B044 		mov	r4, #1476395008
 368 0106 D4F88050 		ldr	r5, [r4, #128]
 369 010a 25EA0E05 		bic	r5, r5, lr
 370 010e C4F88050 		str	r5, [r4, #128]
 371 0112 D4F88450 		ldr	r5, [r4, #132]
 372 0116 25EA0E05 		bic	r5, r5, lr
 373 011a C4F88450 		str	r5, [r4, #132]
 374 011e 6568     		ldr	r5, [r4, #4]
 375 0120 25EA0E05 		bic	r5, r5, lr
 376 0124 6560     		str	r5, [r4, #4]
 377 0126 2568     		ldr	r5, [r4]
 378 0128 25EA0E05 		bic	r5, r5, lr
 379 012c 2560     		str	r5, [r4]
 380 012e DFF818C0 		ldr	ip, .L53
 381 0132 B41C     		adds	r4, r6, #2
 382 0134 5CF82450 		ldr	r5, [ip, r4, lsl #2]
 383 0138 25EA0705 		bic	r5, r5, r7
 384 013c 4CF82450 		str	r5, [ip, r4, lsl #2]
 385 0140 6CE7     		b	.L34
 386              	.L51:
 387 0142 F0BD     		pop	{r4, r5, r6, r7, pc}
 388              	.L49:
 389 0144 7047     		bx	lr
 390              	.L54:
 391 0146 00BF     		.align	2
 392              	.L53:
 393 0148 00040058 		.word	1476396032
 394 014c 00000258 		.word	1476526080
 396              		.section	.text.HAL_GPIO_ReadPin,"ax",%progbits
 397              		.align	1
 398              		.global	HAL_GPIO_ReadPin
 399              		.syntax unified
 400              		.thumb
 401              		.thumb_func
 403              	HAL_GPIO_ReadPin:
 404              		@ args = 0, pretend = 0, frame = 0
ARM GAS  C:\Users\aticl\AppData\Local\Temp\ccvLHuXi.s 			page 8


 405              		@ frame_needed = 0, uses_anonymous_args = 0
 406              		@ link register save eliminated.
 407 0000 0369     		ldr	r3, [r0, #16]
 408 0002 1942     		tst	r1, r3
 409 0004 01D0     		beq	.L57
 410 0006 0120     		movs	r0, #1
 411 0008 7047     		bx	lr
 412              	.L57:
 413 000a 0020     		movs	r0, #0
 414 000c 7047     		bx	lr
 416              		.section	.text.HAL_GPIO_WritePin,"ax",%progbits
 417              		.align	1
 418              		.global	HAL_GPIO_WritePin
 419              		.syntax unified
 420              		.thumb
 421              		.thumb_func
 423              	HAL_GPIO_WritePin:
 424              		@ args = 0, pretend = 0, frame = 0
 425              		@ frame_needed = 0, uses_anonymous_args = 0
 426              		@ link register save eliminated.
 427 0000 0AB1     		cbz	r2, .L59
 428 0002 8161     		str	r1, [r0, #24]
 429 0004 7047     		bx	lr
 430              	.L59:
 431 0006 0904     		lsls	r1, r1, #16
 432 0008 8161     		str	r1, [r0, #24]
 433 000a 7047     		bx	lr
 435              		.section	.text.HAL_GPIO_TogglePin,"ax",%progbits
 436              		.align	1
 437              		.global	HAL_GPIO_TogglePin
 438              		.syntax unified
 439              		.thumb
 440              		.thumb_func
 442              	HAL_GPIO_TogglePin:
 443              		@ args = 0, pretend = 0, frame = 0
 444              		@ frame_needed = 0, uses_anonymous_args = 0
 445              		@ link register save eliminated.
 446 0000 4369     		ldr	r3, [r0, #20]
 447 0002 01EA0302 		and	r2, r1, r3
 448 0006 21EA0301 		bic	r1, r1, r3
 449 000a 41EA0241 		orr	r1, r1, r2, lsl #16
 450 000e 8161     		str	r1, [r0, #24]
 451 0010 7047     		bx	lr
 453              		.section	.text.HAL_GPIO_LockPin,"ax",%progbits
 454              		.align	1
 455              		.global	HAL_GPIO_LockPin
 456              		.syntax unified
 457              		.thumb
 458              		.thumb_func
 460              	HAL_GPIO_LockPin:
 461              		@ args = 0, pretend = 0, frame = 8
 462              		@ frame_needed = 0, uses_anonymous_args = 0
 463              		@ link register save eliminated.
 464 0000 82B0     		sub	sp, sp, #8
 465 0002 4FF48033 		mov	r3, #65536
 466 0006 0193     		str	r3, [sp, #4]
 467 0008 019B     		ldr	r3, [sp, #4]
ARM GAS  C:\Users\aticl\AppData\Local\Temp\ccvLHuXi.s 			page 9


 468 000a 0B43     		orrs	r3, r3, r1
 469 000c 0193     		str	r3, [sp, #4]
 470 000e 019B     		ldr	r3, [sp, #4]
 471 0010 C361     		str	r3, [r0, #28]
 472 0012 C161     		str	r1, [r0, #28]
 473 0014 019B     		ldr	r3, [sp, #4]
 474 0016 C361     		str	r3, [r0, #28]
 475 0018 C369     		ldr	r3, [r0, #28]
 476 001a 0193     		str	r3, [sp, #4]
 477 001c C369     		ldr	r3, [r0, #28]
 478 001e 13F4803F 		tst	r3, #65536
 479 0022 02D0     		beq	.L64
 480 0024 0020     		movs	r0, #0
 481              	.L63:
 482 0026 02B0     		add	sp, sp, #8
 483              		@ sp needed
 484 0028 7047     		bx	lr
 485              	.L64:
 486 002a 0120     		movs	r0, #1
 487 002c FBE7     		b	.L63
 489              		.section	.text.HAL_GPIO_EXTI_Callback,"ax",%progbits
 490              		.align	1
 491              		.weak	HAL_GPIO_EXTI_Callback
 492              		.syntax unified
 493              		.thumb
 494              		.thumb_func
 496              	HAL_GPIO_EXTI_Callback:
 497              		@ args = 0, pretend = 0, frame = 0
 498              		@ frame_needed = 0, uses_anonymous_args = 0
 499              		@ link register save eliminated.
 500 0000 7047     		bx	lr
 502              		.section	.text.HAL_GPIO_EXTI_IRQHandler,"ax",%progbits
 503              		.align	1
 504              		.global	HAL_GPIO_EXTI_IRQHandler
 505              		.syntax unified
 506              		.thumb
 507              		.thumb_func
 509              	HAL_GPIO_EXTI_IRQHandler:
 510              		@ args = 0, pretend = 0, frame = 0
 511              		@ frame_needed = 0, uses_anonymous_args = 0
 512 0000 08B5     		push	{r3, lr}
 513 0002 4FF0B043 		mov	r3, #1476395008
 514 0006 D3F88830 		ldr	r3, [r3, #136]
 515 000a 0342     		tst	r3, r0
 516 000c 00D1     		bne	.L70
 517              	.L67:
 518 000e 08BD     		pop	{r3, pc}
 519              	.L70:
 520 0010 4FF0B043 		mov	r3, #1476395008
 521 0014 C3F88800 		str	r0, [r3, #136]
 522 0018 FFF7FEFF 		bl	HAL_GPIO_EXTI_Callback
 523 001c F7E7     		b	.L67
 525              		.ident	"GCC: (xPack GNU Arm Embedded GCC x86_64) 14.2.1 20241119"
ARM GAS  C:\Users\aticl\AppData\Local\Temp\ccvLHuXi.s 			page 10

