ARM GAS  C:\Users\aticl\AppData\Local\Temp\cc1ZIyt6.s 			page 1


   1              		.cpu cortex-m7
   2              		.arch armv7e-m
   3              		.fpu fpv5-d16
   4              		.eabi_attribute 28, 1
   5              		.eabi_attribute 20, 1
   6              		.eabi_attribute 21, 1
   7              		.eabi_attribute 23, 3
   8              		.eabi_attribute 24, 1
   9              		.eabi_attribute 25, 1
  10              		.eabi_attribute 26, 1
  11              		.eabi_attribute 30, 1
  12              		.eabi_attribute 34, 1
  13              		.eabi_attribute 18, 4
  14              		.file	"stm32h7xx_hal_rcc_ex.c"
  15              		.text
  16              		.section	.text.RCCEx_PLL2_Config,"ax",%progbits
  17              		.align	1
  18              		.syntax unified
  19              		.thumb
  20              		.thumb_func
  22              	RCCEx_PLL2_Config:
  23              		@ args = 0, pretend = 0, frame = 0
  24              		@ frame_needed = 0, uses_anonymous_args = 0
  25 0000 404B     		ldr	r3, .L20
  26 0002 9B6A     		ldr	r3, [r3, #40]
  27 0004 03F00303 		and	r3, r3, #3
  28 0008 032B     		cmp	r3, #3
  29 000a 79D0     		beq	.L10
  30 000c 70B5     		push	{r4, r5, r6, lr}
  31 000e 0546     		mov	r5, r0
  32 0010 0E46     		mov	r6, r1
  33 0012 3C4A     		ldr	r2, .L20
  34 0014 1368     		ldr	r3, [r2]
  35 0016 23F08063 		bic	r3, r3, #67108864
  36 001a 1360     		str	r3, [r2]
  37 001c FFF7FEFF 		bl	HAL_GetTick
  38 0020 0446     		mov	r4, r0
  39              	.L3:
  40 0022 384B     		ldr	r3, .L20
  41 0024 1B68     		ldr	r3, [r3]
  42 0026 13F0006F 		tst	r3, #134217728
  43 002a 06D0     		beq	.L17
  44 002c FFF7FEFF 		bl	HAL_GetTick
  45 0030 031B     		subs	r3, r0, r4
  46 0032 022B     		cmp	r3, #2
  47 0034 F5D9     		bls	.L3
  48 0036 0320     		movs	r0, #3
  49              	.L2:
  50 0038 70BD     		pop	{r4, r5, r6, pc}
  51              	.L17:
  52 003a 324B     		ldr	r3, .L20
  53 003c 9A6A     		ldr	r2, [r3, #40]
  54 003e 22F47C32 		bic	r2, r2, #258048
  55 0042 2968     		ldr	r1, [r5]
  56 0044 42EA0132 		orr	r2, r2, r1, lsl #12
  57 0048 9A62     		str	r2, [r3, #40]
  58 004a 6A68     		ldr	r2, [r5, #4]
ARM GAS  C:\Users\aticl\AppData\Local\Temp\cc1ZIyt6.s 			page 2


  59 004c 013A     		subs	r2, r2, #1
  60 004e C2F30802 		ubfx	r2, r2, #0, #9
  61 0052 A968     		ldr	r1, [r5, #8]
  62 0054 0139     		subs	r1, r1, #1
  63 0056 4902     		lsls	r1, r1, #9
  64 0058 89B2     		uxth	r1, r1
  65 005a 0A43     		orrs	r2, r2, r1
  66 005c E968     		ldr	r1, [r5, #12]
  67 005e 0139     		subs	r1, r1, #1
  68 0060 0904     		lsls	r1, r1, #16
  69 0062 01F4FE01 		and	r1, r1, #8323072
  70 0066 0A43     		orrs	r2, r2, r1
  71 0068 2969     		ldr	r1, [r5, #16]
  72 006a 0139     		subs	r1, r1, #1
  73 006c 0906     		lsls	r1, r1, #24
  74 006e 01F0FE41 		and	r1, r1, #2130706432
  75 0072 0A43     		orrs	r2, r2, r1
  76 0074 9A63     		str	r2, [r3, #56]
  77 0076 DA6A     		ldr	r2, [r3, #44]
  78 0078 22F0C002 		bic	r2, r2, #192
  79 007c 6969     		ldr	r1, [r5, #20]
  80 007e 0A43     		orrs	r2, r2, r1
  81 0080 DA62     		str	r2, [r3, #44]
  82 0082 DA6A     		ldr	r2, [r3, #44]
  83 0084 22F02002 		bic	r2, r2, #32
  84 0088 A969     		ldr	r1, [r5, #24]
  85 008a 0A43     		orrs	r2, r2, r1
  86 008c DA62     		str	r2, [r3, #44]
  87 008e DA6A     		ldr	r2, [r3, #44]
  88 0090 22F01002 		bic	r2, r2, #16
  89 0094 DA62     		str	r2, [r3, #44]
  90 0096 DA6B     		ldr	r2, [r3, #60]
  91 0098 6FF3CF02 		bfc	r2, #3, #13
  92 009c E969     		ldr	r1, [r5, #28]
  93 009e 42EAC102 		orr	r2, r2, r1, lsl #3
  94 00a2 DA63     		str	r2, [r3, #60]
  95 00a4 DA6A     		ldr	r2, [r3, #44]
  96 00a6 42F01002 		orr	r2, r2, #16
  97 00aa DA62     		str	r2, [r3, #44]
  98 00ac C6B9     		cbnz	r6, .L5
  99 00ae 1A46     		mov	r2, r3
 100 00b0 DB6A     		ldr	r3, [r3, #44]
 101 00b2 43F40023 		orr	r3, r3, #524288
 102 00b6 D362     		str	r3, [r2, #44]
 103              	.L6:
 104 00b8 124A     		ldr	r2, .L20
 105 00ba 1368     		ldr	r3, [r2]
 106 00bc 43F08063 		orr	r3, r3, #67108864
 107 00c0 1360     		str	r3, [r2]
 108 00c2 FFF7FEFF 		bl	HAL_GetTick
 109 00c6 0446     		mov	r4, r0
 110              	.L8:
 111 00c8 0E4B     		ldr	r3, .L20
 112 00ca 1B68     		ldr	r3, [r3]
 113 00cc 13F0006F 		tst	r3, #134217728
 114 00d0 14D1     		bne	.L18
 115 00d2 FFF7FEFF 		bl	HAL_GetTick
ARM GAS  C:\Users\aticl\AppData\Local\Temp\cc1ZIyt6.s 			page 3


 116 00d6 001B     		subs	r0, r0, r4
 117 00d8 0228     		cmp	r0, #2
 118 00da F5D9     		bls	.L8
 119 00dc 0320     		movs	r0, #3
 120 00de ABE7     		b	.L2
 121              	.L5:
 122 00e0 012E     		cmp	r6, #1
 123 00e2 05D0     		beq	.L19
 124 00e4 074A     		ldr	r2, .L20
 125 00e6 D36A     		ldr	r3, [r2, #44]
 126 00e8 43F40013 		orr	r3, r3, #2097152
 127 00ec D362     		str	r3, [r2, #44]
 128 00ee E3E7     		b	.L6
 129              	.L19:
 130 00f0 044A     		ldr	r2, .L20
 131 00f2 D36A     		ldr	r3, [r2, #44]
 132 00f4 43F48013 		orr	r3, r3, #1048576
 133 00f8 D362     		str	r3, [r2, #44]
 134 00fa DDE7     		b	.L6
 135              	.L18:
 136 00fc 0020     		movs	r0, #0
 137 00fe 9BE7     		b	.L2
 138              	.L10:
 139 0100 0120     		movs	r0, #1
 140 0102 7047     		bx	lr
 141              	.L21:
 142              		.align	2
 143              	.L20:
 144 0104 00440258 		.word	1476543488
 146              		.section	.text.RCCEx_PLL3_Config,"ax",%progbits
 147              		.align	1
 148              		.syntax unified
 149              		.thumb
 150              		.thumb_func
 152              	RCCEx_PLL3_Config:
 153              		@ args = 0, pretend = 0, frame = 0
 154              		@ frame_needed = 0, uses_anonymous_args = 0
 155 0000 404B     		ldr	r3, .L41
 156 0002 9B6A     		ldr	r3, [r3, #40]
 157 0004 03F00303 		and	r3, r3, #3
 158 0008 032B     		cmp	r3, #3
 159 000a 79D0     		beq	.L31
 160 000c 70B5     		push	{r4, r5, r6, lr}
 161 000e 0546     		mov	r5, r0
 162 0010 0E46     		mov	r6, r1
 163 0012 3C4A     		ldr	r2, .L41
 164 0014 1368     		ldr	r3, [r2]
 165 0016 23F08053 		bic	r3, r3, #268435456
 166 001a 1360     		str	r3, [r2]
 167 001c FFF7FEFF 		bl	HAL_GetTick
 168 0020 0446     		mov	r4, r0
 169              	.L24:
 170 0022 384B     		ldr	r3, .L41
 171 0024 1B68     		ldr	r3, [r3]
 172 0026 13F0005F 		tst	r3, #536870912
 173 002a 06D0     		beq	.L38
 174 002c FFF7FEFF 		bl	HAL_GetTick
ARM GAS  C:\Users\aticl\AppData\Local\Temp\cc1ZIyt6.s 			page 4


 175 0030 031B     		subs	r3, r0, r4
 176 0032 022B     		cmp	r3, #2
 177 0034 F5D9     		bls	.L24
 178 0036 0320     		movs	r0, #3
 179              	.L23:
 180 0038 70BD     		pop	{r4, r5, r6, pc}
 181              	.L38:
 182 003a 324B     		ldr	r3, .L41
 183 003c 9A6A     		ldr	r2, [r3, #40]
 184 003e 22F07C72 		bic	r2, r2, #66060288
 185 0042 2968     		ldr	r1, [r5]
 186 0044 42EA0152 		orr	r2, r2, r1, lsl #20
 187 0048 9A62     		str	r2, [r3, #40]
 188 004a 6A68     		ldr	r2, [r5, #4]
 189 004c 013A     		subs	r2, r2, #1
 190 004e C2F30802 		ubfx	r2, r2, #0, #9
 191 0052 A968     		ldr	r1, [r5, #8]
 192 0054 0139     		subs	r1, r1, #1
 193 0056 4902     		lsls	r1, r1, #9
 194 0058 89B2     		uxth	r1, r1
 195 005a 0A43     		orrs	r2, r2, r1
 196 005c E968     		ldr	r1, [r5, #12]
 197 005e 0139     		subs	r1, r1, #1
 198 0060 0904     		lsls	r1, r1, #16
 199 0062 01F4FE01 		and	r1, r1, #8323072
 200 0066 0A43     		orrs	r2, r2, r1
 201 0068 2969     		ldr	r1, [r5, #16]
 202 006a 0139     		subs	r1, r1, #1
 203 006c 0906     		lsls	r1, r1, #24
 204 006e 01F0FE41 		and	r1, r1, #2130706432
 205 0072 0A43     		orrs	r2, r2, r1
 206 0074 1A64     		str	r2, [r3, #64]
 207 0076 DA6A     		ldr	r2, [r3, #44]
 208 0078 22F44062 		bic	r2, r2, #3072
 209 007c 6969     		ldr	r1, [r5, #20]
 210 007e 0A43     		orrs	r2, r2, r1
 211 0080 DA62     		str	r2, [r3, #44]
 212 0082 DA6A     		ldr	r2, [r3, #44]
 213 0084 22F40072 		bic	r2, r2, #512
 214 0088 A969     		ldr	r1, [r5, #24]
 215 008a 0A43     		orrs	r2, r2, r1
 216 008c DA62     		str	r2, [r3, #44]
 217 008e DA6A     		ldr	r2, [r3, #44]
 218 0090 22F48072 		bic	r2, r2, #256
 219 0094 DA62     		str	r2, [r3, #44]
 220 0096 5A6C     		ldr	r2, [r3, #68]
 221 0098 6FF3CF02 		bfc	r2, #3, #13
 222 009c E969     		ldr	r1, [r5, #28]
 223 009e 42EAC102 		orr	r2, r2, r1, lsl #3
 224 00a2 5A64     		str	r2, [r3, #68]
 225 00a4 DA6A     		ldr	r2, [r3, #44]
 226 00a6 42F48072 		orr	r2, r2, #256
 227 00aa DA62     		str	r2, [r3, #44]
 228 00ac C6B9     		cbnz	r6, .L26
 229 00ae 1A46     		mov	r2, r3
 230 00b0 DB6A     		ldr	r3, [r3, #44]
 231 00b2 43F48003 		orr	r3, r3, #4194304
ARM GAS  C:\Users\aticl\AppData\Local\Temp\cc1ZIyt6.s 			page 5


 232 00b6 D362     		str	r3, [r2, #44]
 233              	.L27:
 234 00b8 124A     		ldr	r2, .L41
 235 00ba 1368     		ldr	r3, [r2]
 236 00bc 43F08053 		orr	r3, r3, #268435456
 237 00c0 1360     		str	r3, [r2]
 238 00c2 FFF7FEFF 		bl	HAL_GetTick
 239 00c6 0446     		mov	r4, r0
 240              	.L29:
 241 00c8 0E4B     		ldr	r3, .L41
 242 00ca 1B68     		ldr	r3, [r3]
 243 00cc 13F0005F 		tst	r3, #536870912
 244 00d0 14D1     		bne	.L39
 245 00d2 FFF7FEFF 		bl	HAL_GetTick
 246 00d6 001B     		subs	r0, r0, r4
 247 00d8 0228     		cmp	r0, #2
 248 00da F5D9     		bls	.L29
 249 00dc 0320     		movs	r0, #3
 250 00de ABE7     		b	.L23
 251              	.L26:
 252 00e0 012E     		cmp	r6, #1
 253 00e2 05D0     		beq	.L40
 254 00e4 074A     		ldr	r2, .L41
 255 00e6 D36A     		ldr	r3, [r2, #44]
 256 00e8 43F08073 		orr	r3, r3, #16777216
 257 00ec D362     		str	r3, [r2, #44]
 258 00ee E3E7     		b	.L27
 259              	.L40:
 260 00f0 044A     		ldr	r2, .L41
 261 00f2 D36A     		ldr	r3, [r2, #44]
 262 00f4 43F40003 		orr	r3, r3, #8388608
 263 00f8 D362     		str	r3, [r2, #44]
 264 00fa DDE7     		b	.L27
 265              	.L39:
 266 00fc 0020     		movs	r0, #0
 267 00fe 9BE7     		b	.L23
 268              	.L31:
 269 0100 0120     		movs	r0, #1
 270 0102 7047     		bx	lr
 271              	.L42:
 272              		.align	2
 273              	.L41:
 274 0104 00440258 		.word	1476543488
 276              		.section	.text.HAL_RCCEx_PeriphCLKConfig,"ax",%progbits
 277              		.align	1
 278              		.global	HAL_RCCEx_PeriphCLKConfig
 279              		.syntax unified
 280              		.thumb
 281              		.thumb_func
 283              	HAL_RCCEx_PeriphCLKConfig:
 284              		@ args = 0, pretend = 0, frame = 0
 285              		@ frame_needed = 0, uses_anonymous_args = 0
 286 0000 F8B5     		push	{r3, r4, r5, r6, r7, lr}
 287 0002 0446     		mov	r4, r0
 288 0004 0368     		ldr	r3, [r0]
 289 0006 13F0006F 		tst	r3, #134217728
 290 000a 30D0     		beq	.L177
ARM GAS  C:\Users\aticl\AppData\Local\Temp\cc1ZIyt6.s 			page 6


 291 000c 836E     		ldr	r3, [r0, #104]
 292 000e B3F5001F 		cmp	r3, #2097152
 293 0012 26D0     		beq	.L45
 294 0014 0ED8     		bhi	.L46
 295 0016 ABB1     		cbz	r3, .L47
 296 0018 B3F5801F 		cmp	r3, #1048576
 297 001c 07D1     		bne	.L226
 298 001e 0221     		movs	r1, #2
 299 0020 0830     		adds	r0, r0, #8
 300 0022 FFF7FEFF 		bl	RCCEx_PLL2_Config
 301 0026 0546     		mov	r5, r0
 302              	.L50:
 303 0028 95B1     		cbz	r5, .L49
 304 002a 2E46     		mov	r6, r5
 305 002c 21E0     		b	.L44
 306              	.L226:
 307 002e 0126     		movs	r6, #1
 308 0030 3546     		mov	r5, r6
 309 0032 1EE0     		b	.L44
 310              	.L46:
 311 0034 B3F5401F 		cmp	r3, #3145728
 312 0038 01D1     		bne	.L227
 313 003a 0025     		movs	r5, #0
 314 003c 08E0     		b	.L49
 315              	.L227:
 316 003e 0126     		movs	r6, #1
 317 0040 3546     		mov	r5, r6
 318 0042 16E0     		b	.L44
 319              	.L47:
 320 0044 9A4A     		ldr	r2, .L251
 321 0046 D36A     		ldr	r3, [r2, #44]
 322 0048 43F40033 		orr	r3, r3, #131072
 323 004c D362     		str	r3, [r2, #44]
 324 004e 0025     		movs	r5, #0
 325              	.L49:
 326 0050 974A     		ldr	r2, .L251
 327 0052 136D     		ldr	r3, [r2, #80]
 328 0054 23F44013 		bic	r3, r3, #3145728
 329 0058 A16E     		ldr	r1, [r4, #104]
 330 005a 0B43     		orrs	r3, r3, r1
 331 005c 1365     		str	r3, [r2, #80]
 332 005e 0026     		movs	r6, #0
 333 0060 07E0     		b	.L44
 334              	.L45:
 335 0062 0221     		movs	r1, #2
 336 0064 2830     		adds	r0, r0, #40
 337 0066 FFF7FEFF 		bl	RCCEx_PLL3_Config
 338 006a 0546     		mov	r5, r0
 339 006c DCE7     		b	.L50
 340              	.L177:
 341 006e 0026     		movs	r6, #0
 342 0070 3546     		mov	r5, r6
 343              	.L44:
 344 0072 2368     		ldr	r3, [r4]
 345 0074 13F4807F 		tst	r3, #256
 346 0078 14D0     		beq	.L51
 347 007a A36D     		ldr	r3, [r4, #88]
ARM GAS  C:\Users\aticl\AppData\Local\Temp\cc1ZIyt6.s 			page 7


 348 007c 042B     		cmp	r3, #4
 349 007e 31D8     		bhi	.L180
 350 0080 DFE803F0 		tbb	[pc, r3]
 351              	.L53:
 352 0084 03       		.byte	(.L56-.L53)/2
 353 0085 22       		.byte	(.L55-.L53)/2
 354 0086 29       		.byte	(.L54-.L53)/2
 355 0087 08       		.byte	(.L52-.L53)/2
 356 0088 08       		.byte	(.L52-.L53)/2
 357 0089 00       		.p2align 1
 358              	.L56:
 359 008a 894A     		ldr	r2, .L251
 360 008c D36A     		ldr	r3, [r2, #44]
 361 008e 43F40033 		orr	r3, r3, #131072
 362 0092 D362     		str	r3, [r2, #44]
 363              	.L52:
 364 0094 4DBB     		cbnz	r5, .L181
 365 0096 864A     		ldr	r2, .L251
 366 0098 136D     		ldr	r3, [r2, #80]
 367 009a 23F00703 		bic	r3, r3, #7
 368 009e A16D     		ldr	r1, [r4, #88]
 369 00a0 0B43     		orrs	r3, r3, r1
 370 00a2 1365     		str	r3, [r2, #80]
 371              	.L51:
 372 00a4 2368     		ldr	r3, [r4]
 373 00a6 13F4007F 		tst	r3, #512
 374 00aa 3FD0     		beq	.L57
 375 00ac E36D     		ldr	r3, [r4, #92]
 376 00ae 802B     		cmp	r3, #128
 377 00b0 2ED0     		beq	.L58
 378 00b2 1FD8     		bhi	.L59
 379 00b4 33B3     		cbz	r3, .L60
 380 00b6 402B     		cmp	r3, #64
 381 00b8 19D1     		bne	.L228
 382 00ba 0021     		movs	r1, #0
 383 00bc 04F10800 		add	r0, r4, #8
 384 00c0 FFF7FEFF 		bl	RCCEx_PLL2_Config
 385 00c4 0546     		mov	r5, r0
 386 00c6 29E0     		b	.L62
 387              	.L55:
 388 00c8 0021     		movs	r1, #0
 389 00ca 04F10800 		add	r0, r4, #8
 390 00ce FFF7FEFF 		bl	RCCEx_PLL2_Config
 391 00d2 0546     		mov	r5, r0
 392 00d4 DEE7     		b	.L52
 393              	.L54:
 394 00d6 0021     		movs	r1, #0
 395 00d8 04F12800 		add	r0, r4, #40
 396 00dc FFF7FEFF 		bl	RCCEx_PLL3_Config
 397 00e0 0546     		mov	r5, r0
 398 00e2 D7E7     		b	.L52
 399              	.L180:
 400 00e4 0126     		movs	r6, #1
 401 00e6 3546     		mov	r5, r6
 402 00e8 DCE7     		b	.L51
 403              	.L181:
 404 00ea 2E46     		mov	r6, r5
ARM GAS  C:\Users\aticl\AppData\Local\Temp\cc1ZIyt6.s 			page 8


 405 00ec DAE7     		b	.L51
 406              	.L228:
 407 00ee 0126     		movs	r6, #1
 408 00f0 3546     		mov	r5, r6
 409 00f2 1BE0     		b	.L57
 410              	.L59:
 411 00f4 C02B     		cmp	r3, #192
 412 00f6 11D0     		beq	.L62
 413 00f8 B3F5807F 		cmp	r3, #256
 414 00fc 0ED0     		beq	.L62
 415 00fe 0126     		movs	r6, #1
 416 0100 3546     		mov	r5, r6
 417 0102 13E0     		b	.L57
 418              	.L60:
 419 0104 6A4A     		ldr	r2, .L251
 420 0106 D36A     		ldr	r3, [r2, #44]
 421 0108 43F40033 		orr	r3, r3, #131072
 422 010c D362     		str	r3, [r2, #44]
 423 010e 05E0     		b	.L62
 424              	.L58:
 425 0110 0021     		movs	r1, #0
 426 0112 04F12800 		add	r0, r4, #40
 427 0116 FFF7FEFF 		bl	RCCEx_PLL3_Config
 428 011a 0546     		mov	r5, r0
 429              	.L62:
 430 011c DDB9     		cbnz	r5, .L182
 431 011e 644A     		ldr	r2, .L251
 432 0120 136D     		ldr	r3, [r2, #80]
 433 0122 23F4E073 		bic	r3, r3, #448
 434 0126 E16D     		ldr	r1, [r4, #92]
 435 0128 0B43     		orrs	r3, r3, r1
 436 012a 1365     		str	r3, [r2, #80]
 437              	.L57:
 438 012c 2368     		ldr	r3, [r4]
 439 012e 13F4806F 		tst	r3, #1024
 440 0132 33D0     		beq	.L63
 441 0134 D4F8A830 		ldr	r3, [r4, #168]
 442 0138 B3F5800F 		cmp	r3, #4194304
 443 013c 1FD0     		beq	.L64
 444 013e 0FD8     		bhi	.L65
 445 0140 BBB1     		cbz	r3, .L66
 446 0142 B3F5001F 		cmp	r3, #2097152
 447 0146 08D1     		bne	.L229
 448 0148 0021     		movs	r1, #0
 449 014a 04F10800 		add	r0, r4, #8
 450 014e FFF7FEFF 		bl	RCCEx_PLL2_Config
 451 0152 0546     		mov	r5, r0
 452 0154 19E0     		b	.L68
 453              	.L182:
 454 0156 2E46     		mov	r6, r5
 455 0158 E8E7     		b	.L57
 456              	.L229:
 457 015a 0126     		movs	r6, #1
 458 015c 3546     		mov	r5, r6
 459 015e 1DE0     		b	.L63
 460              	.L65:
 461 0160 B3F5C00F 		cmp	r3, #6291456
ARM GAS  C:\Users\aticl\AppData\Local\Temp\cc1ZIyt6.s 			page 9


 462 0164 11D0     		beq	.L68
 463 0166 B3F5000F 		cmp	r3, #8388608
 464 016a 0ED0     		beq	.L68
 465 016c 0126     		movs	r6, #1
 466 016e 3546     		mov	r5, r6
 467 0170 14E0     		b	.L63
 468              	.L66:
 469 0172 4F4A     		ldr	r2, .L251
 470 0174 D36A     		ldr	r3, [r2, #44]
 471 0176 43F40033 		orr	r3, r3, #131072
 472 017a D362     		str	r3, [r2, #44]
 473 017c 05E0     		b	.L68
 474              	.L64:
 475 017e 0021     		movs	r1, #0
 476 0180 04F12800 		add	r0, r4, #40
 477 0184 FFF7FEFF 		bl	RCCEx_PLL3_Config
 478 0188 0546     		mov	r5, r0
 479              	.L68:
 480 018a E5B9     		cbnz	r5, .L183
 481 018c 484A     		ldr	r2, .L251
 482 018e 936D     		ldr	r3, [r2, #88]
 483 0190 23F46003 		bic	r3, r3, #14680064
 484 0194 D4F8A810 		ldr	r1, [r4, #168]
 485 0198 0B43     		orrs	r3, r3, r1
 486 019a 9365     		str	r3, [r2, #88]
 487              	.L63:
 488 019c 2368     		ldr	r3, [r4]
 489 019e 13F4006F 		tst	r3, #2048
 490 01a2 34D0     		beq	.L69
 491 01a4 D4F8AC30 		ldr	r3, [r4, #172]
 492 01a8 B3F1007F 		cmp	r3, #33554432
 493 01ac 1FD0     		beq	.L70
 494 01ae 0FD8     		bhi	.L71
 495 01b0 BBB1     		cbz	r3, .L72
 496 01b2 B3F1807F 		cmp	r3, #16777216
 497 01b6 08D1     		bne	.L230
 498 01b8 0021     		movs	r1, #0
 499 01ba 04F10800 		add	r0, r4, #8
 500 01be FFF7FEFF 		bl	RCCEx_PLL2_Config
 501 01c2 0546     		mov	r5, r0
 502 01c4 19E0     		b	.L74
 503              	.L183:
 504 01c6 2E46     		mov	r6, r5
 505 01c8 E8E7     		b	.L63
 506              	.L230:
 507 01ca 0126     		movs	r6, #1
 508 01cc 3546     		mov	r5, r6
 509 01ce 1EE0     		b	.L69
 510              	.L71:
 511 01d0 B3F1407F 		cmp	r3, #50331648
 512 01d4 11D0     		beq	.L74
 513 01d6 B3F1806F 		cmp	r3, #67108864
 514 01da 0ED0     		beq	.L74
 515 01dc 0126     		movs	r6, #1
 516 01de 3546     		mov	r5, r6
 517 01e0 15E0     		b	.L69
 518              	.L72:
ARM GAS  C:\Users\aticl\AppData\Local\Temp\cc1ZIyt6.s 			page 10


 519 01e2 334A     		ldr	r2, .L251
 520 01e4 D36A     		ldr	r3, [r2, #44]
 521 01e6 43F40033 		orr	r3, r3, #131072
 522 01ea D362     		str	r3, [r2, #44]
 523 01ec 05E0     		b	.L74
 524              	.L70:
 525 01ee 0021     		movs	r1, #0
 526 01f0 04F12800 		add	r0, r4, #40
 527 01f4 FFF7FEFF 		bl	RCCEx_PLL3_Config
 528 01f8 0546     		mov	r5, r0
 529              	.L74:
 530 01fa 002D     		cmp	r5, #0
 531 01fc 33D1     		bne	.L184
 532 01fe 2C4A     		ldr	r2, .L251
 533 0200 936D     		ldr	r3, [r2, #88]
 534 0202 23F0E063 		bic	r3, r3, #117440512
 535 0206 D4F8AC10 		ldr	r1, [r4, #172]
 536 020a 0B43     		orrs	r3, r3, r1
 537 020c 9365     		str	r3, [r2, #88]
 538              	.L69:
 539 020e 2368     		ldr	r3, [r4]
 540 0210 13F0007F 		tst	r3, #33554432
 541 0214 13D0     		beq	.L75
 542 0216 E36C     		ldr	r3, [r4, #76]
 543 0218 202B     		cmp	r3, #32
 544 021a 2ED0     		beq	.L76
 545 021c 28D8     		bhi	.L77
 546 021e 33B1     		cbz	r3, .L78
 547 0220 102B     		cmp	r3, #16
 548 0222 22D1     		bne	.L231
 549 0224 224A     		ldr	r2, .L251
 550 0226 D36A     		ldr	r3, [r2, #44]
 551 0228 43F40033 		orr	r3, r3, #131072
 552 022c D362     		str	r3, [r2, #44]
 553              	.L78:
 554 022e 5DBB     		cbnz	r5, .L185
 555 0230 1F4A     		ldr	r2, .L251
 556 0232 D36C     		ldr	r3, [r2, #76]
 557 0234 23F03003 		bic	r3, r3, #48
 558 0238 E16C     		ldr	r1, [r4, #76]
 559 023a 0B43     		orrs	r3, r3, r1
 560 023c D364     		str	r3, [r2, #76]
 561              	.L75:
 562 023e 2368     		ldr	r3, [r4]
 563 0240 13F4805F 		tst	r3, #4096
 564 0244 46D0     		beq	.L80
 565 0246 236E     		ldr	r3, [r4, #96]
 566 0248 B3F5005F 		cmp	r3, #8192
 567 024c 32D0     		beq	.L81
 568 024e 20D8     		bhi	.L82
 569 0250 43B3     		cbz	r3, .L83
 570 0252 B3F5805F 		cmp	r3, #4096
 571 0256 19D1     		bne	.L232
 572 0258 0021     		movs	r1, #0
 573 025a 04F10800 		add	r0, r4, #8
 574 025e FFF7FEFF 		bl	RCCEx_PLL2_Config
 575 0262 0546     		mov	r5, r0
ARM GAS  C:\Users\aticl\AppData\Local\Temp\cc1ZIyt6.s 			page 11


 576 0264 2CE0     		b	.L85
 577              	.L184:
 578 0266 2E46     		mov	r6, r5
 579 0268 D1E7     		b	.L69
 580              	.L231:
 581 026a 0126     		movs	r6, #1
 582 026c 3546     		mov	r5, r6
 583 026e E6E7     		b	.L75
 584              	.L77:
 585 0270 302B     		cmp	r3, #48
 586 0272 DCD0     		beq	.L78
 587 0274 0126     		movs	r6, #1
 588 0276 3546     		mov	r5, r6
 589 0278 E1E7     		b	.L75
 590              	.L76:
 591 027a 0221     		movs	r1, #2
 592 027c 04F10800 		add	r0, r4, #8
 593 0280 FFF7FEFF 		bl	RCCEx_PLL2_Config
 594 0284 0546     		mov	r5, r0
 595 0286 D2E7     		b	.L78
 596              	.L185:
 597 0288 2E46     		mov	r6, r5
 598 028a D8E7     		b	.L75
 599              	.L232:
 600 028c 0126     		movs	r6, #1
 601 028e 3546     		mov	r5, r6
 602 0290 20E0     		b	.L80
 603              	.L82:
 604 0292 B3F5405F 		cmp	r3, #12288
 605 0296 13D0     		beq	.L85
 606 0298 B3F5804F 		cmp	r3, #16384
 607 029c 10D0     		beq	.L85
 608 029e 0126     		movs	r6, #1
 609 02a0 3546     		mov	r5, r6
 610 02a2 17E0     		b	.L80
 611              	.L83:
 612 02a4 024A     		ldr	r2, .L251
 613 02a6 D36A     		ldr	r3, [r2, #44]
 614 02a8 43F40033 		orr	r3, r3, #131072
 615 02ac D362     		str	r3, [r2, #44]
 616 02ae 07E0     		b	.L85
 617              	.L252:
 618              		.align	2
 619              	.L251:
 620 02b0 00440258 		.word	1476543488
 621              	.L81:
 622 02b4 0021     		movs	r1, #0
 623 02b6 04F12800 		add	r0, r4, #40
 624 02ba FFF7FEFF 		bl	RCCEx_PLL3_Config
 625 02be 0546     		mov	r5, r0
 626              	.L85:
 627 02c0 3DB9     		cbnz	r5, .L186
 628 02c2 704A     		ldr	r2, .L253
 629 02c4 136D     		ldr	r3, [r2, #80]
 630 02c6 23F4E043 		bic	r3, r3, #28672
 631 02ca 216E     		ldr	r1, [r4, #96]
 632 02cc 0B43     		orrs	r3, r3, r1
ARM GAS  C:\Users\aticl\AppData\Local\Temp\cc1ZIyt6.s 			page 12


 633 02ce 1365     		str	r3, [r2, #80]
 634 02d0 00E0     		b	.L80
 635              	.L186:
 636 02d2 2E46     		mov	r6, r5
 637              	.L80:
 638 02d4 2368     		ldr	r3, [r4]
 639 02d6 13F4005F 		tst	r3, #8192
 640 02da 17D0     		beq	.L86
 641 02dc 636E     		ldr	r3, [r4, #100]
 642 02de B3F5003F 		cmp	r3, #131072
 643 02e2 4FD0     		beq	.L87
 644 02e4 42D8     		bhi	.L88
 645 02e6 43B1     		cbz	r3, .L89
 646 02e8 B3F5803F 		cmp	r3, #65536
 647 02ec 3BD1     		bne	.L233
 648 02ee 0121     		movs	r1, #1
 649 02f0 04F10800 		add	r0, r4, #8
 650 02f4 FFF7FEFF 		bl	RCCEx_PLL2_Config
 651 02f8 0546     		mov	r5, r0
 652              	.L89:
 653 02fa 002D     		cmp	r5, #0
 654 02fc 49D1     		bne	.L187
 655 02fe 614A     		ldr	r2, .L253
 656 0300 136D     		ldr	r3, [r2, #80]
 657 0302 23F4E023 		bic	r3, r3, #458752
 658 0306 616E     		ldr	r1, [r4, #100]
 659 0308 0B43     		orrs	r3, r3, r1
 660 030a 1365     		str	r3, [r2, #80]
 661              	.L86:
 662 030c 2368     		ldr	r3, [r4]
 663 030e 13F4804F 		tst	r3, #16384
 664 0312 19D0     		beq	.L91
 665 0314 D4F8B030 		ldr	r3, [r4, #176]
 666 0318 B3F1005F 		cmp	r3, #536870912
 667 031c 4AD0     		beq	.L92
 668 031e 3DD8     		bhi	.L93
 669 0320 43B1     		cbz	r3, .L94
 670 0322 B3F1805F 		cmp	r3, #268435456
 671 0326 36D1     		bne	.L234
 672 0328 0121     		movs	r1, #1
 673 032a 04F10800 		add	r0, r4, #8
 674 032e FFF7FEFF 		bl	RCCEx_PLL2_Config
 675 0332 0546     		mov	r5, r0
 676              	.L94:
 677 0334 002D     		cmp	r5, #0
 678 0336 44D1     		bne	.L188
 679 0338 524A     		ldr	r2, .L253
 680 033a 936D     		ldr	r3, [r2, #88]
 681 033c 23F0E043 		bic	r3, r3, #1879048192
 682 0340 D4F8B010 		ldr	r1, [r4, #176]
 683 0344 0B43     		orrs	r3, r3, r1
 684 0346 9365     		str	r3, [r2, #88]
 685              	.L91:
 686 0348 2368     		ldr	r3, [r4]
 687 034a 13F4004F 		tst	r3, #32768
 688 034e 47D0     		beq	.L96
 689 0350 236F     		ldr	r3, [r4, #112]
ARM GAS  C:\Users\aticl\AppData\Local\Temp\cc1ZIyt6.s 			page 13


 690 0352 B3F1805F 		cmp	r3, #268435456
 691 0356 36D0     		beq	.L97
 692 0358 B3F1005F 		cmp	r3, #536870912
 693 035c 4BD0     		beq	.L98
 694 035e BBB3     		cbz	r3, .L99
 695 0360 0126     		movs	r6, #1
 696 0362 3546     		mov	r5, r6
 697 0364 3CE0     		b	.L96
 698              	.L233:
 699 0366 0126     		movs	r6, #1
 700 0368 3546     		mov	r5, r6
 701 036a CFE7     		b	.L86
 702              	.L88:
 703 036c B3F5802F 		cmp	r3, #262144
 704 0370 C3D0     		beq	.L89
 705 0372 B3F5A02F 		cmp	r3, #327680
 706 0376 C0D0     		beq	.L89
 707 0378 B3F5403F 		cmp	r3, #196608
 708 037c BDD0     		beq	.L89
 709 037e 0126     		movs	r6, #1
 710 0380 3546     		mov	r5, r6
 711 0382 C3E7     		b	.L86
 712              	.L87:
 713 0384 0121     		movs	r1, #1
 714 0386 04F12800 		add	r0, r4, #40
 715 038a FFF7FEFF 		bl	RCCEx_PLL3_Config
 716 038e 0546     		mov	r5, r0
 717 0390 B3E7     		b	.L89
 718              	.L187:
 719 0392 2E46     		mov	r6, r5
 720 0394 BAE7     		b	.L86
 721              	.L234:
 722 0396 0126     		movs	r6, #1
 723 0398 3546     		mov	r5, r6
 724 039a D5E7     		b	.L91
 725              	.L93:
 726 039c B3F1804F 		cmp	r3, #1073741824
 727 03a0 C8D0     		beq	.L94
 728 03a2 B3F1A04F 		cmp	r3, #1342177280
 729 03a6 C5D0     		beq	.L94
 730 03a8 B3F1405F 		cmp	r3, #805306368
 731 03ac C2D0     		beq	.L94
 732 03ae 0126     		movs	r6, #1
 733 03b0 3546     		mov	r5, r6
 734 03b2 C9E7     		b	.L91
 735              	.L92:
 736 03b4 0121     		movs	r1, #1
 737 03b6 04F12800 		add	r0, r4, #40
 738 03ba FFF7FEFF 		bl	RCCEx_PLL3_Config
 739 03be 0546     		mov	r5, r0
 740 03c0 B8E7     		b	.L94
 741              	.L188:
 742 03c2 2E46     		mov	r6, r5
 743 03c4 C0E7     		b	.L91
 744              	.L97:
 745 03c6 2F4A     		ldr	r2, .L253
 746 03c8 D36A     		ldr	r3, [r2, #44]
ARM GAS  C:\Users\aticl\AppData\Local\Temp\cc1ZIyt6.s 			page 14


 747 03ca 43F40033 		orr	r3, r3, #131072
 748 03ce D362     		str	r3, [r2, #44]
 749              	.L99:
 750 03d0 C5B9     		cbnz	r5, .L189
 751 03d2 2C4A     		ldr	r2, .L253
 752 03d4 136D     		ldr	r3, [r2, #80]
 753 03d6 23F04053 		bic	r3, r3, #805306368
 754 03da 216F     		ldr	r1, [r4, #112]
 755 03dc 0B43     		orrs	r3, r3, r1
 756 03de 1365     		str	r3, [r2, #80]
 757              	.L96:
 758 03e0 2368     		ldr	r3, [r4]
 759 03e2 13F0807F 		tst	r3, #16777216
 760 03e6 1CD0     		beq	.L100
 761 03e8 A36C     		ldr	r3, [r4, #72]
 762 03ea 032B     		cmp	r3, #3
 763 03ec 44D8     		bhi	.L190
 764 03ee DFE803F0 		tbb	[pc, r3]
 765              	.L102:
 766 03f2 10       		.byte	(.L101-.L102)/2
 767 03f3 0B       		.byte	(.L104-.L102)/2
 768 03f4 3C       		.byte	(.L103-.L102)/2
 769 03f5 10       		.byte	(.L101-.L102)/2
 770              		.p2align 1
 771              	.L98:
 772 03f6 0121     		movs	r1, #1
 773 03f8 04F10800 		add	r0, r4, #8
 774 03fc FFF7FEFF 		bl	RCCEx_PLL2_Config
 775 0400 0546     		mov	r5, r0
 776 0402 E5E7     		b	.L99
 777              	.L189:
 778 0404 2E46     		mov	r6, r5
 779 0406 EBE7     		b	.L96
 780              	.L104:
 781 0408 1E4A     		ldr	r2, .L253
 782 040a D36A     		ldr	r3, [r2, #44]
 783 040c 43F40033 		orr	r3, r3, #131072
 784 0410 D362     		str	r3, [r2, #44]
 785              	.L101:
 786 0412 A5BB     		cbnz	r5, .L191
 787 0414 1B4A     		ldr	r2, .L253
 788 0416 D36C     		ldr	r3, [r2, #76]
 789 0418 23F00303 		bic	r3, r3, #3
 790 041c A16C     		ldr	r1, [r4, #72]
 791 041e 0B43     		orrs	r3, r3, r1
 792 0420 D364     		str	r3, [r2, #76]
 793              	.L100:
 794 0422 2368     		ldr	r3, [r4]
 795 0424 13F4800F 		tst	r3, #4194304
 796 0428 2ED1     		bne	.L235
 797              	.L105:
 798 042a 2368     		ldr	r3, [r4]
 799 042c 13F0010F 		tst	r3, #1
 800 0430 00F0A680 		beq	.L115
 801 0434 E36F     		ldr	r3, [r4, #124]
 802 0436 282B     		cmp	r3, #40
 803 0438 00F2A080 		bhi	.L196
ARM GAS  C:\Users\aticl\AppData\Local\Temp\cc1ZIyt6.s 			page 15


 804 043c DFE803F0 		tbb	[pc, r3]
 805              	.L117:
 806 0440 8E       		.byte	(.L116-.L117)/2
 807 0441 9E       		.byte	(.L196-.L117)/2
 808 0442 9E       		.byte	(.L196-.L117)/2
 809 0443 9E       		.byte	(.L196-.L117)/2
 810 0444 9E       		.byte	(.L196-.L117)/2
 811 0445 9E       		.byte	(.L196-.L117)/2
 812 0446 9E       		.byte	(.L196-.L117)/2
 813 0447 9E       		.byte	(.L196-.L117)/2
 814 0448 88       		.byte	(.L119-.L117)/2
 815 0449 9E       		.byte	(.L196-.L117)/2
 816 044a 9E       		.byte	(.L196-.L117)/2
 817 044b 9E       		.byte	(.L196-.L117)/2
 818 044c 9E       		.byte	(.L196-.L117)/2
 819 044d 9E       		.byte	(.L196-.L117)/2
 820 044e 9E       		.byte	(.L196-.L117)/2
 821 044f 9E       		.byte	(.L196-.L117)/2
 822 0450 97       		.byte	(.L118-.L117)/2
 823 0451 9E       		.byte	(.L196-.L117)/2
 824 0452 9E       		.byte	(.L196-.L117)/2
 825 0453 9E       		.byte	(.L196-.L117)/2
 826 0454 9E       		.byte	(.L196-.L117)/2
 827 0455 9E       		.byte	(.L196-.L117)/2
 828 0456 9E       		.byte	(.L196-.L117)/2
 829 0457 9E       		.byte	(.L196-.L117)/2
 830 0458 8E       		.byte	(.L116-.L117)/2
 831 0459 9E       		.byte	(.L196-.L117)/2
 832 045a 9E       		.byte	(.L196-.L117)/2
 833 045b 9E       		.byte	(.L196-.L117)/2
 834 045c 9E       		.byte	(.L196-.L117)/2
 835 045d 9E       		.byte	(.L196-.L117)/2
 836 045e 9E       		.byte	(.L196-.L117)/2
 837 045f 9E       		.byte	(.L196-.L117)/2
 838 0460 8E       		.byte	(.L116-.L117)/2
 839 0461 9E       		.byte	(.L196-.L117)/2
 840 0462 9E       		.byte	(.L196-.L117)/2
 841 0463 9E       		.byte	(.L196-.L117)/2
 842 0464 9E       		.byte	(.L196-.L117)/2
 843 0465 9E       		.byte	(.L196-.L117)/2
 844 0466 9E       		.byte	(.L196-.L117)/2
 845 0467 9E       		.byte	(.L196-.L117)/2
 846 0468 8E       		.byte	(.L116-.L117)/2
 847 0469 00       		.p2align 1
 848              	.L103:
 849 046a 0221     		movs	r1, #2
 850 046c 04F10800 		add	r0, r4, #8
 851 0470 FFF7FEFF 		bl	RCCEx_PLL2_Config
 852 0474 0546     		mov	r5, r0
 853 0476 CCE7     		b	.L101
 854              	.L190:
 855 0478 0126     		movs	r6, #1
 856 047a 3546     		mov	r5, r6
 857 047c D1E7     		b	.L100
 858              	.L191:
 859 047e 2E46     		mov	r6, r5
 860 0480 CFE7     		b	.L100
ARM GAS  C:\Users\aticl\AppData\Local\Temp\cc1ZIyt6.s 			page 16


 861              	.L254:
 862 0482 00BF     		.align	2
 863              	.L253:
 864 0484 00440258 		.word	1476543488
 865              	.L235:
 866 0488 5A4A     		ldr	r2, .L255
 867 048a 1368     		ldr	r3, [r2]
 868 048c 43F48073 		orr	r3, r3, #256
 869 0490 1360     		str	r3, [r2]
 870 0492 FFF7FEFF 		bl	HAL_GetTick
 871 0496 0746     		mov	r7, r0
 872              	.L106:
 873 0498 564B     		ldr	r3, .L255
 874 049a 1B68     		ldr	r3, [r3]
 875 049c 13F4807F 		tst	r3, #256
 876 04a0 05D1     		bne	.L107
 877 04a2 FFF7FEFF 		bl	HAL_GetTick
 878 04a6 C01B     		subs	r0, r0, r7
 879 04a8 6428     		cmp	r0, #100
 880 04aa F5D9     		bls	.L106
 881 04ac 0325     		movs	r5, #3
 882              	.L107:
 883 04ae 002D     		cmp	r5, #0
 884 04b0 4AD1     		bne	.L193
 885 04b2 514B     		ldr	r3, .L255+4
 886 04b4 1B6F     		ldr	r3, [r3, #112]
 887 04b6 D4F8B420 		ldr	r2, [r4, #180]
 888 04ba 5340     		eors	r3, r3, r2
 889 04bc 13F4407F 		tst	r3, #768
 890 04c0 0CD0     		beq	.L109
 891 04c2 4D4B     		ldr	r3, .L255+4
 892 04c4 1A6F     		ldr	r2, [r3, #112]
 893 04c6 22F44072 		bic	r2, r2, #768
 894 04ca 196F     		ldr	r1, [r3, #112]
 895 04cc 41F48031 		orr	r1, r1, #65536
 896 04d0 1967     		str	r1, [r3, #112]
 897 04d2 196F     		ldr	r1, [r3, #112]
 898 04d4 21F48031 		bic	r1, r1, #65536
 899 04d8 1967     		str	r1, [r3, #112]
 900 04da 1A67     		str	r2, [r3, #112]
 901              	.L109:
 902 04dc D4F8B430 		ldr	r3, [r4, #180]
 903 04e0 B3F5807F 		cmp	r3, #256
 904 04e4 15D0     		beq	.L236
 905              	.L110:
 906 04e6 8DBB     		cbnz	r5, .L195
 907 04e8 D4F8B430 		ldr	r3, [r4, #180]
 908 04ec 03F44072 		and	r2, r3, #768
 909 04f0 B2F5407F 		cmp	r2, #768
 910 04f4 1ED0     		beq	.L237
 911 04f6 404A     		ldr	r2, .L255+4
 912 04f8 1369     		ldr	r3, [r2, #16]
 913 04fa 23F47C53 		bic	r3, r3, #16128
 914 04fe 1361     		str	r3, [r2, #16]
 915              	.L114:
 916 0500 3D49     		ldr	r1, .L255+4
 917 0502 0B6F     		ldr	r3, [r1, #112]
ARM GAS  C:\Users\aticl\AppData\Local\Temp\cc1ZIyt6.s 			page 17


 918 0504 D4F8B420 		ldr	r2, [r4, #180]
 919 0508 C2F30B02 		ubfx	r2, r2, #0, #12
 920 050c 1343     		orrs	r3, r3, r2
 921 050e 0B67     		str	r3, [r1, #112]
 922 0510 8BE7     		b	.L105
 923              	.L236:
 924 0512 FFF7FEFF 		bl	HAL_GetTick
 925 0516 0746     		mov	r7, r0
 926              	.L111:
 927 0518 374B     		ldr	r3, .L255+4
 928 051a 1B6F     		ldr	r3, [r3, #112]
 929 051c 13F0020F 		tst	r3, #2
 930 0520 E1D1     		bne	.L110
 931 0522 FFF7FEFF 		bl	HAL_GetTick
 932 0526 C01B     		subs	r0, r0, r7
 933 0528 41F28833 		movw	r3, #5000
 934 052c 9842     		cmp	r0, r3
 935 052e F3D9     		bls	.L111
 936 0530 0325     		movs	r5, #3
 937 0532 D8E7     		b	.L110
 938              	.L237:
 939 0534 3048     		ldr	r0, .L255+4
 940 0536 0269     		ldr	r2, [r0, #16]
 941 0538 22F47C52 		bic	r2, r2, #16128
 942 053c 2F49     		ldr	r1, .L255+8
 943 053e 01EA1313 		and	r3, r1, r3, lsr #4
 944 0542 1343     		orrs	r3, r3, r2
 945 0544 0361     		str	r3, [r0, #16]
 946 0546 DBE7     		b	.L114
 947              	.L193:
 948 0548 2E46     		mov	r6, r5
 949 054a 6EE7     		b	.L105
 950              	.L195:
 951 054c 2E46     		mov	r6, r5
 952 054e 6CE7     		b	.L105
 953              	.L119:
 954 0550 0121     		movs	r1, #1
 955 0552 04F10800 		add	r0, r4, #8
 956 0556 FFF7FEFF 		bl	RCCEx_PLL2_Config
 957 055a 0546     		mov	r5, r0
 958              	.L116:
 959 055c E5B9     		cbnz	r5, .L197
 960 055e 264A     		ldr	r2, .L255+4
 961 0560 536D     		ldr	r3, [r2, #84]
 962 0562 23F03803 		bic	r3, r3, #56
 963 0566 E16F     		ldr	r1, [r4, #124]
 964 0568 0B43     		orrs	r3, r3, r1
 965 056a 5365     		str	r3, [r2, #84]
 966 056c 08E0     		b	.L115
 967              	.L118:
 968 056e 0121     		movs	r1, #1
 969 0570 04F12800 		add	r0, r4, #40
 970 0574 FFF7FEFF 		bl	RCCEx_PLL3_Config
 971 0578 0546     		mov	r5, r0
 972 057a EFE7     		b	.L116
 973              	.L196:
 974 057c 0126     		movs	r6, #1
ARM GAS  C:\Users\aticl\AppData\Local\Temp\cc1ZIyt6.s 			page 18


 975 057e 3546     		mov	r5, r6
 976              	.L115:
 977 0580 2368     		ldr	r3, [r4]
 978 0582 13F0020F 		tst	r3, #2
 979 0586 17D0     		beq	.L120
 980 0588 A36F     		ldr	r3, [r4, #120]
 981 058a 052B     		cmp	r3, #5
 982 058c 2CD8     		bhi	.L198
 983 058e DFE803F0 		tbb	[pc, r3]
 984              	.L122:
 985 0592 0B       		.byte	(.L121-.L122)/2
 986 0593 05       		.byte	(.L124-.L122)/2
 987 0594 24       		.byte	(.L123-.L122)/2
 988 0595 0B       		.byte	(.L121-.L122)/2
 989 0596 0B       		.byte	(.L121-.L122)/2
 990 0597 0B       		.byte	(.L121-.L122)/2
 991              		.p2align 1
 992              	.L197:
 993 0598 2E46     		mov	r6, r5
 994 059a F1E7     		b	.L115
 995              	.L124:
 996 059c 0121     		movs	r1, #1
 997 059e 04F10800 		add	r0, r4, #8
 998 05a2 FFF7FEFF 		bl	RCCEx_PLL2_Config
 999 05a6 0546     		mov	r5, r0
 1000              	.L121:
 1001 05a8 0DBB     		cbnz	r5, .L199
 1002 05aa 134A     		ldr	r2, .L255+4
 1003 05ac 536D     		ldr	r3, [r2, #84]
 1004 05ae 23F00703 		bic	r3, r3, #7
 1005 05b2 A16F     		ldr	r1, [r4, #120]
 1006 05b4 0B43     		orrs	r3, r3, r1
 1007 05b6 5365     		str	r3, [r2, #84]
 1008              	.L120:
 1009 05b8 2368     		ldr	r3, [r4]
 1010 05ba 13F0040F 		tst	r3, #4
 1011 05be 30D0     		beq	.L125
 1012 05c0 D4F89430 		ldr	r3, [r4, #148]
 1013 05c4 052B     		cmp	r3, #5
 1014 05c6 00F20F81 		bhi	.L200
 1015 05ca DFE813F0 		tbh	[pc, r3, lsl #1]
 1016              	.L127:
 1017 05ce 1F00     		.2byte	(.L126-.L127)/2
 1018 05d0 1900     		.2byte	(.L129-.L127)/2
 1019 05d2 0601     		.2byte	(.L128-.L127)/2
 1020 05d4 1F00     		.2byte	(.L126-.L127)/2
 1021 05d6 1F00     		.2byte	(.L126-.L127)/2
 1022 05d8 1F00     		.2byte	(.L126-.L127)/2
 1023              		.p2align 1
 1024              	.L123:
 1025 05da 0121     		movs	r1, #1
 1026 05dc 04F12800 		add	r0, r4, #40
 1027 05e0 FFF7FEFF 		bl	RCCEx_PLL3_Config
 1028 05e4 0546     		mov	r5, r0
 1029 05e6 DFE7     		b	.L121
 1030              	.L198:
 1031 05e8 0126     		movs	r6, #1
ARM GAS  C:\Users\aticl\AppData\Local\Temp\cc1ZIyt6.s 			page 19


 1032 05ea 3546     		mov	r5, r6
 1033 05ec E4E7     		b	.L120
 1034              	.L199:
 1035 05ee 2E46     		mov	r6, r5
 1036 05f0 E2E7     		b	.L120
 1037              	.L256:
 1038 05f2 00BF     		.align	2
 1039              	.L255:
 1040 05f4 00480258 		.word	1476544512
 1041 05f8 00440258 		.word	1476543488
 1042 05fc CFFFFF00 		.word	16777167
 1043              	.L129:
 1044 0600 0121     		movs	r1, #1
 1045 0602 04F10800 		add	r0, r4, #8
 1046 0606 FFF7FEFF 		bl	RCCEx_PLL2_Config
 1047 060a 0546     		mov	r5, r0
 1048              	.L126:
 1049 060c 002D     		cmp	r5, #0
 1050 060e 40F0EE80 		bne	.L201
 1051 0612 B64A     		ldr	r2, .L257
 1052 0614 936D     		ldr	r3, [r2, #88]
 1053 0616 23F00703 		bic	r3, r3, #7
 1054 061a D4F89410 		ldr	r1, [r4, #148]
 1055 061e 0B43     		orrs	r3, r3, r1
 1056 0620 9365     		str	r3, [r2, #88]
 1057              	.L125:
 1058 0622 2368     		ldr	r3, [r4]
 1059 0624 13F0200F 		tst	r3, #32
 1060 0628 1DD0     		beq	.L130
 1061 062a D4F89030 		ldr	r3, [r4, #144]
 1062 062e B3F1005F 		cmp	r3, #536870912
 1063 0632 00F0F080 		beq	.L131
 1064 0636 00F2DF80 		bhi	.L132
 1065 063a 4BB1     		cbz	r3, .L133
 1066 063c B3F1805F 		cmp	r3, #268435456
 1067 0640 40F0D780 		bne	.L238
 1068 0644 0021     		movs	r1, #0
 1069 0646 04F10800 		add	r0, r4, #8
 1070 064a FFF7FEFF 		bl	RCCEx_PLL2_Config
 1071 064e 0546     		mov	r5, r0
 1072              	.L133:
 1073 0650 002D     		cmp	r5, #0
 1074 0652 40F0E780 		bne	.L202
 1075 0656 A54A     		ldr	r2, .L257
 1076 0658 536D     		ldr	r3, [r2, #84]
 1077 065a 23F0E043 		bic	r3, r3, #1879048192
 1078 065e D4F89010 		ldr	r1, [r4, #144]
 1079 0662 0B43     		orrs	r3, r3, r1
 1080 0664 5365     		str	r3, [r2, #84]
 1081              	.L130:
 1082 0666 2368     		ldr	r3, [r4]
 1083 0668 13F0400F 		tst	r3, #64
 1084 066c 1DD0     		beq	.L135
 1085 066e D4F89C30 		ldr	r3, [r4, #156]
 1086 0672 B3F5006F 		cmp	r3, #2048
 1087 0676 00F0E980 		beq	.L136
 1088 067a 00F2D880 		bhi	.L137
ARM GAS  C:\Users\aticl\AppData\Local\Temp\cc1ZIyt6.s 			page 20


 1089 067e 4BB1     		cbz	r3, .L138
 1090 0680 B3F5806F 		cmp	r3, #1024
 1091 0684 40F0D080 		bne	.L239
 1092 0688 0021     		movs	r1, #0
 1093 068a 04F10800 		add	r0, r4, #8
 1094 068e FFF7FEFF 		bl	RCCEx_PLL2_Config
 1095 0692 0546     		mov	r5, r0
 1096              	.L138:
 1097 0694 002D     		cmp	r5, #0
 1098 0696 40F0E080 		bne	.L203
 1099 069a 944A     		ldr	r2, .L257
 1100 069c 936D     		ldr	r3, [r2, #88]
 1101 069e 23F4E053 		bic	r3, r3, #7168
 1102 06a2 D4F89C10 		ldr	r1, [r4, #156]
 1103 06a6 0B43     		orrs	r3, r3, r1
 1104 06a8 9365     		str	r3, [r2, #88]
 1105              	.L135:
 1106 06aa 2368     		ldr	r3, [r4]
 1107 06ac 13F0800F 		tst	r3, #128
 1108 06b0 1DD0     		beq	.L140
 1109 06b2 D4F8A030 		ldr	r3, [r4, #160]
 1110 06b6 B3F5804F 		cmp	r3, #16384
 1111 06ba 00F0E280 		beq	.L141
 1112 06be 00F2D180 		bhi	.L142
 1113 06c2 4BB1     		cbz	r3, .L143
 1114 06c4 B3F5005F 		cmp	r3, #8192
 1115 06c8 40F0C980 		bne	.L240
 1116 06cc 0021     		movs	r1, #0
 1117 06ce 04F10800 		add	r0, r4, #8
 1118 06d2 FFF7FEFF 		bl	RCCEx_PLL2_Config
 1119 06d6 0546     		mov	r5, r0
 1120              	.L143:
 1121 06d8 002D     		cmp	r5, #0
 1122 06da 40F0D980 		bne	.L204
 1123 06de 834A     		ldr	r2, .L257
 1124 06e0 936D     		ldr	r3, [r2, #88]
 1125 06e2 23F46043 		bic	r3, r3, #57344
 1126 06e6 D4F8A010 		ldr	r1, [r4, #160]
 1127 06ea 0B43     		orrs	r3, r3, r1
 1128 06ec 9365     		str	r3, [r2, #88]
 1129              	.L140:
 1130 06ee 2368     		ldr	r3, [r4]
 1131 06f0 13F0080F 		tst	r3, #8
 1132 06f4 0DD0     		beq	.L145
 1133 06f6 D4F88430 		ldr	r3, [r4, #132]
 1134 06fa B3F5805F 		cmp	r3, #4096
 1135 06fe 00F0C980 		beq	.L241
 1136              	.L146:
 1137 0702 7A4A     		ldr	r2, .L257
 1138 0704 536D     		ldr	r3, [r2, #84]
 1139 0706 23F44053 		bic	r3, r3, #12288
 1140 070a D4F88410 		ldr	r1, [r4, #132]
 1141 070e 0B43     		orrs	r3, r3, r1
 1142 0710 5365     		str	r3, [r2, #84]
 1143              	.L145:
 1144 0712 2368     		ldr	r3, [r4]
 1145 0714 13F0100F 		tst	r3, #16
ARM GAS  C:\Users\aticl\AppData\Local\Temp\cc1ZIyt6.s 			page 21


 1146 0718 0DD0     		beq	.L147
 1147 071a D4F89830 		ldr	r3, [r4, #152]
 1148 071e B3F5807F 		cmp	r3, #256
 1149 0722 00F0C180 		beq	.L242
 1150              	.L148:
 1151 0726 714A     		ldr	r2, .L257
 1152 0728 936D     		ldr	r3, [r2, #88]
 1153 072a 23F44073 		bic	r3, r3, #768
 1154 072e D4F89810 		ldr	r1, [r4, #152]
 1155 0732 0B43     		orrs	r3, r3, r1
 1156 0734 9365     		str	r3, [r2, #88]
 1157              	.L147:
 1158 0736 2368     		ldr	r3, [r4]
 1159 0738 13F4002F 		tst	r3, #524288
 1160 073c 1CD0     		beq	.L149
 1161 073e D4F8A430 		ldr	r3, [r4, #164]
 1162 0742 B3F5803F 		cmp	r3, #65536
 1163 0746 00F0B980 		beq	.L150
 1164 074a B3F5003F 		cmp	r3, #131072
 1165 074e 08D0     		beq	.L151
 1166 0750 002B     		cmp	r3, #0
 1167 0752 40F0BA80 		bne	.L207
 1168 0756 0021     		movs	r1, #0
 1169 0758 04F10800 		add	r0, r4, #8
 1170 075c FFF7FEFF 		bl	RCCEx_PLL2_Config
 1171 0760 0546     		mov	r5, r0
 1172              	.L151:
 1173 0762 002D     		cmp	r5, #0
 1174 0764 40F0B480 		bne	.L208
 1175 0768 604A     		ldr	r2, .L257
 1176 076a 936D     		ldr	r3, [r2, #88]
 1177 076c 23F44033 		bic	r3, r3, #196608
 1178 0770 D4F8A410 		ldr	r1, [r4, #164]
 1179 0774 0B43     		orrs	r3, r3, r1
 1180 0776 9365     		str	r3, [r2, #88]
 1181              	.L149:
 1182 0778 2368     		ldr	r3, [r4]
 1183 077a 13F4802F 		tst	r3, #262144
 1184 077e 1CD0     		beq	.L152
 1185 0780 D4F88830 		ldr	r3, [r4, #136]
 1186 0784 B3F5001F 		cmp	r3, #2097152
 1187 0788 00F0A480 		beq	.L153
 1188 078c B3F5401F 		cmp	r3, #3145728
 1189 0790 08D0     		beq	.L154
 1190 0792 B3F5801F 		cmp	r3, #1048576
 1191 0796 40F0A480 		bne	.L209
 1192 079a 544A     		ldr	r2, .L257
 1193 079c D36A     		ldr	r3, [r2, #44]
 1194 079e 43F40033 		orr	r3, r3, #131072
 1195 07a2 D362     		str	r3, [r2, #44]
 1196              	.L154:
 1197 07a4 002D     		cmp	r5, #0
 1198 07a6 40F09F80 		bne	.L210
 1199 07aa 504A     		ldr	r2, .L257
 1200 07ac 536D     		ldr	r3, [r2, #84]
 1201 07ae 23F44013 		bic	r3, r3, #3145728
 1202 07b2 D4F88810 		ldr	r1, [r4, #136]
ARM GAS  C:\Users\aticl\AppData\Local\Temp\cc1ZIyt6.s 			page 22


 1203 07b6 0B43     		orrs	r3, r3, r1
 1204 07b8 5365     		str	r3, [r2, #84]
 1205              	.L152:
 1206 07ba 2368     		ldr	r3, [r4]
 1207 07bc 13F4803F 		tst	r3, #65536
 1208 07c0 00F0AC80 		beq	.L155
 1209 07c4 236D     		ldr	r3, [r4, #80]
 1210 07c6 002B     		cmp	r3, #0
 1211 07c8 00F09280 		beq	.L156
 1212 07cc B3F5803F 		cmp	r3, #65536
 1213 07d0 00F09C80 		beq	.L157
 1214 07d4 0126     		movs	r6, #1
 1215 07d6 3546     		mov	r5, r6
 1216 07d8 A0E0     		b	.L155
 1217              	.L128:
 1218 07da 0121     		movs	r1, #1
 1219 07dc 04F12800 		add	r0, r4, #40
 1220 07e0 FFF7FEFF 		bl	RCCEx_PLL3_Config
 1221 07e4 0546     		mov	r5, r0
 1222 07e6 11E7     		b	.L126
 1223              	.L200:
 1224 07e8 0126     		movs	r6, #1
 1225 07ea 3546     		mov	r5, r6
 1226 07ec 19E7     		b	.L125
 1227              	.L201:
 1228 07ee 2E46     		mov	r6, r5
 1229 07f0 17E7     		b	.L125
 1230              	.L238:
 1231 07f2 0126     		movs	r6, #1
 1232 07f4 3546     		mov	r5, r6
 1233 07f6 36E7     		b	.L130
 1234              	.L132:
 1235 07f8 B3F1804F 		cmp	r3, #1073741824
 1236 07fc 3FF428AF 		beq	.L133
 1237 0800 B3F1A04F 		cmp	r3, #1342177280
 1238 0804 3FF424AF 		beq	.L133
 1239 0808 B3F1405F 		cmp	r3, #805306368
 1240 080c 3FF420AF 		beq	.L133
 1241 0810 0126     		movs	r6, #1
 1242 0812 3546     		mov	r5, r6
 1243 0814 27E7     		b	.L130
 1244              	.L131:
 1245 0816 0221     		movs	r1, #2
 1246 0818 04F12800 		add	r0, r4, #40
 1247 081c FFF7FEFF 		bl	RCCEx_PLL3_Config
 1248 0820 0546     		mov	r5, r0
 1249 0822 15E7     		b	.L133
 1250              	.L202:
 1251 0824 2E46     		mov	r6, r5
 1252 0826 1EE7     		b	.L130
 1253              	.L239:
 1254 0828 0126     		movs	r6, #1
 1255 082a 3546     		mov	r5, r6
 1256 082c 3DE7     		b	.L135
 1257              	.L137:
 1258 082e B3F5805F 		cmp	r3, #4096
 1259 0832 3FF42FAF 		beq	.L138
ARM GAS  C:\Users\aticl\AppData\Local\Temp\cc1ZIyt6.s 			page 23


 1260 0836 B3F5A05F 		cmp	r3, #5120
 1261 083a 3FF42BAF 		beq	.L138
 1262 083e B3F5406F 		cmp	r3, #3072
 1263 0842 3FF427AF 		beq	.L138
 1264 0846 0126     		movs	r6, #1
 1265 0848 3546     		mov	r5, r6
 1266 084a 2EE7     		b	.L135
 1267              	.L136:
 1268 084c 0221     		movs	r1, #2
 1269 084e 04F12800 		add	r0, r4, #40
 1270 0852 FFF7FEFF 		bl	RCCEx_PLL3_Config
 1271 0856 0546     		mov	r5, r0
 1272 0858 1CE7     		b	.L138
 1273              	.L203:
 1274 085a 2E46     		mov	r6, r5
 1275 085c 25E7     		b	.L135
 1276              	.L240:
 1277 085e 0126     		movs	r6, #1
 1278 0860 3546     		mov	r5, r6
 1279 0862 44E7     		b	.L140
 1280              	.L142:
 1281 0864 B3F5004F 		cmp	r3, #32768
 1282 0868 3FF436AF 		beq	.L143
 1283 086c B3F5204F 		cmp	r3, #40960
 1284 0870 3FF432AF 		beq	.L143
 1285 0874 B3F5C04F 		cmp	r3, #24576
 1286 0878 3FF42EAF 		beq	.L143
 1287 087c 0126     		movs	r6, #1
 1288 087e 3546     		mov	r5, r6
 1289 0880 35E7     		b	.L140
 1290              	.L141:
 1291 0882 0221     		movs	r1, #2
 1292 0884 04F12800 		add	r0, r4, #40
 1293 0888 FFF7FEFF 		bl	RCCEx_PLL3_Config
 1294 088c 0546     		mov	r5, r0
 1295 088e 23E7     		b	.L143
 1296              	.L204:
 1297 0890 2E46     		mov	r6, r5
 1298 0892 2CE7     		b	.L140
 1299              	.L241:
 1300 0894 0221     		movs	r1, #2
 1301 0896 04F12800 		add	r0, r4, #40
 1302 089a FFF7FEFF 		bl	RCCEx_PLL3_Config
 1303 089e 0028     		cmp	r0, #0
 1304 08a0 3FF42FAF 		beq	.L146
 1305 08a4 0126     		movs	r6, #1
 1306 08a6 2CE7     		b	.L146
 1307              	.L242:
 1308 08a8 0221     		movs	r1, #2
 1309 08aa 04F12800 		add	r0, r4, #40
 1310 08ae FFF7FEFF 		bl	RCCEx_PLL3_Config
 1311 08b2 0028     		cmp	r0, #0
 1312 08b4 3FF437AF 		beq	.L148
 1313 08b8 0126     		movs	r6, #1
 1314 08ba 34E7     		b	.L148
 1315              	.L150:
 1316 08bc 0221     		movs	r1, #2
ARM GAS  C:\Users\aticl\AppData\Local\Temp\cc1ZIyt6.s 			page 24


 1317 08be 04F12800 		add	r0, r4, #40
 1318 08c2 FFF7FEFF 		bl	RCCEx_PLL3_Config
 1319 08c6 0546     		mov	r5, r0
 1320 08c8 4BE7     		b	.L151
 1321              	.L207:
 1322 08ca 0126     		movs	r6, #1
 1323 08cc 3546     		mov	r5, r6
 1324 08ce 53E7     		b	.L149
 1325              	.L208:
 1326 08d0 2E46     		mov	r6, r5
 1327 08d2 51E7     		b	.L149
 1328              	.L153:
 1329 08d4 0121     		movs	r1, #1
 1330 08d6 04F12800 		add	r0, r4, #40
 1331 08da FFF7FEFF 		bl	RCCEx_PLL3_Config
 1332 08de 0546     		mov	r5, r0
 1333 08e0 60E7     		b	.L154
 1334              	.L209:
 1335 08e2 0126     		movs	r6, #1
 1336 08e4 3546     		mov	r5, r6
 1337 08e6 68E7     		b	.L152
 1338              	.L210:
 1339 08e8 2E46     		mov	r6, r5
 1340 08ea 66E7     		b	.L152
 1341              	.L258:
 1342              		.align	2
 1343              	.L257:
 1344 08ec 00440258 		.word	1476543488
 1345              	.L156:
 1346 08f0 704A     		ldr	r2, .L259
 1347 08f2 D36A     		ldr	r3, [r2, #44]
 1348 08f4 43F40033 		orr	r3, r3, #131072
 1349 08f8 D362     		str	r3, [r2, #44]
 1350              	.L158:
 1351 08fa 75B9     		cbnz	r5, .L211
 1352 08fc 6D4A     		ldr	r2, .L259
 1353 08fe D36C     		ldr	r3, [r2, #76]
 1354 0900 23F48033 		bic	r3, r3, #65536
 1355 0904 216D     		ldr	r1, [r4, #80]
 1356 0906 0B43     		orrs	r3, r3, r1
 1357 0908 D364     		str	r3, [r2, #76]
 1358 090a 07E0     		b	.L155
 1359              	.L157:
 1360 090c 0221     		movs	r1, #2
 1361 090e 04F10800 		add	r0, r4, #8
 1362 0912 FFF7FEFF 		bl	RCCEx_PLL2_Config
 1363 0916 0546     		mov	r5, r0
 1364 0918 EFE7     		b	.L158
 1365              	.L211:
 1366 091a 2E46     		mov	r6, r5
 1367              	.L155:
 1368 091c 2368     		ldr	r3, [r4]
 1369 091e 13F0005F 		tst	r3, #536870912
 1370 0922 11D1     		bne	.L243
 1371              	.L159:
 1372 0924 2368     		ldr	r3, [r4]
 1373 0926 13F4003F 		tst	r3, #131072
ARM GAS  C:\Users\aticl\AppData\Local\Temp\cc1ZIyt6.s 			page 25


 1374 092a 28D0     		beq	.L160
 1375 092c D4F88030 		ldr	r3, [r4, #128]
 1376 0930 B3F5807F 		cmp	r3, #256
 1377 0934 14D0     		beq	.L161
 1378 0936 10D9     		bls	.L244
 1379 0938 B3F5007F 		cmp	r3, #512
 1380 093c 15D0     		beq	.L163
 1381 093e B3F5407F 		cmp	r3, #768
 1382 0942 12D0     		beq	.L163
 1383 0944 0126     		movs	r6, #1
 1384 0946 1AE0     		b	.L160
 1385              	.L243:
 1386 0948 0221     		movs	r1, #2
 1387 094a 04F12800 		add	r0, r4, #40
 1388 094e FFF7FEFF 		bl	RCCEx_PLL3_Config
 1389 0952 0028     		cmp	r0, #0
 1390 0954 E6D0     		beq	.L159
 1391 0956 0126     		movs	r6, #1
 1392 0958 E4E7     		b	.L159
 1393              	.L244:
 1394 095a 33B1     		cbz	r3, .L163
 1395 095c 0126     		movs	r6, #1
 1396 095e 0EE0     		b	.L160
 1397              	.L161:
 1398 0960 544A     		ldr	r2, .L259
 1399 0962 D36A     		ldr	r3, [r2, #44]
 1400 0964 43F40033 		orr	r3, r3, #131072
 1401 0968 D362     		str	r3, [r2, #44]
 1402              	.L163:
 1403 096a 002D     		cmp	r5, #0
 1404 096c 69D1     		bne	.L213
 1405 096e 514A     		ldr	r2, .L259
 1406 0970 536D     		ldr	r3, [r2, #84]
 1407 0972 23F44073 		bic	r3, r3, #768
 1408 0976 D4F88010 		ldr	r1, [r4, #128]
 1409 097a 0B43     		orrs	r3, r3, r1
 1410 097c 5365     		str	r3, [r2, #84]
 1411              	.L160:
 1412 097e 2368     		ldr	r3, [r4]
 1413 0980 13F4801F 		tst	r3, #1048576
 1414 0984 06D0     		beq	.L164
 1415 0986 4B4A     		ldr	r2, .L259
 1416 0988 136D     		ldr	r3, [r2, #80]
 1417 098a 23F00043 		bic	r3, r3, #-2147483648
 1418 098e 616F     		ldr	r1, [r4, #116]
 1419 0990 0B43     		orrs	r3, r3, r1
 1420 0992 1365     		str	r3, [r2, #80]
 1421              	.L164:
 1422 0994 2368     		ldr	r3, [r4]
 1423 0996 13F0805F 		tst	r3, #268435456
 1424 099a 07D0     		beq	.L165
 1425 099c 454A     		ldr	r2, .L259
 1426 099e 1369     		ldr	r3, [r2, #16]
 1427 09a0 23F48043 		bic	r3, r3, #16384
 1428 09a4 D4F8B810 		ldr	r1, [r4, #184]
 1429 09a8 0B43     		orrs	r3, r3, r1
 1430 09aa 1361     		str	r3, [r2, #16]
ARM GAS  C:\Users\aticl\AppData\Local\Temp\cc1ZIyt6.s 			page 26


 1431              	.L165:
 1432 09ac 2368     		ldr	r3, [r4]
 1433 09ae 13F4001F 		tst	r3, #2097152
 1434 09b2 06D0     		beq	.L166
 1435 09b4 3F4A     		ldr	r2, .L259
 1436 09b6 136D     		ldr	r3, [r2, #80]
 1437 09b8 23F08073 		bic	r3, r3, #16777216
 1438 09bc E16E     		ldr	r1, [r4, #108]
 1439 09be 0B43     		orrs	r3, r3, r1
 1440 09c0 1365     		str	r3, [r2, #80]
 1441              	.L166:
 1442 09c2 2368     		ldr	r3, [r4]
 1443 09c4 13F0804F 		tst	r3, #1073741824
 1444 09c8 09D0     		beq	.L167
 1445 09ca 3A4B     		ldr	r3, .L259
 1446 09cc 1A69     		ldr	r2, [r3, #16]
 1447 09ce 22F40042 		bic	r2, r2, #32768
 1448 09d2 1A61     		str	r2, [r3, #16]
 1449 09d4 1A69     		ldr	r2, [r3, #16]
 1450 09d6 D4F8BC10 		ldr	r1, [r4, #188]
 1451 09da 0A43     		orrs	r2, r2, r1
 1452 09dc 1A61     		str	r2, [r3, #16]
 1453              	.L167:
 1454 09de 2368     		ldr	r3, [r4]
 1455 09e0 002B     		cmp	r3, #0
 1456 09e2 06DA     		bge	.L168
 1457 09e4 334A     		ldr	r2, .L259
 1458 09e6 D36C     		ldr	r3, [r2, #76]
 1459 09e8 23F04053 		bic	r3, r3, #805306368
 1460 09ec 616D     		ldr	r1, [r4, #84]
 1461 09ee 0B43     		orrs	r3, r3, r1
 1462 09f0 D364     		str	r3, [r2, #76]
 1463              	.L168:
 1464 09f2 2368     		ldr	r3, [r4]
 1465 09f4 13F4000F 		tst	r3, #8388608
 1466 09f8 07D0     		beq	.L169
 1467 09fa 2E4A     		ldr	r2, .L259
 1468 09fc 536D     		ldr	r3, [r2, #84]
 1469 09fe 23F44003 		bic	r3, r3, #12582912
 1470 0a02 D4F88C10 		ldr	r1, [r4, #140]
 1471 0a06 0B43     		orrs	r3, r3, r1
 1472 0a08 5365     		str	r3, [r2, #84]
 1473              	.L169:
 1474 0a0a 6368     		ldr	r3, [r4, #4]
 1475 0a0c 13F0010F 		tst	r3, #1
 1476 0a10 19D1     		bne	.L245
 1477              	.L170:
 1478 0a12 6368     		ldr	r3, [r4, #4]
 1479 0a14 13F0020F 		tst	r3, #2
 1480 0a18 1ED1     		bne	.L246
 1481              	.L171:
 1482 0a1a 6368     		ldr	r3, [r4, #4]
 1483 0a1c 13F0040F 		tst	r3, #4
 1484 0a20 23D1     		bne	.L247
 1485              	.L172:
 1486 0a22 6368     		ldr	r3, [r4, #4]
 1487 0a24 13F0080F 		tst	r3, #8
ARM GAS  C:\Users\aticl\AppData\Local\Temp\cc1ZIyt6.s 			page 27


 1488 0a28 28D1     		bne	.L248
 1489              	.L173:
 1490 0a2a 6368     		ldr	r3, [r4, #4]
 1491 0a2c 13F0100F 		tst	r3, #16
 1492 0a30 2DD1     		bne	.L249
 1493              	.L174:
 1494 0a32 6368     		ldr	r3, [r4, #4]
 1495 0a34 13F0200F 		tst	r3, #32
 1496 0a38 32D1     		bne	.L250
 1497              	.L175:
 1498 0a3a 06B1     		cbz	r6, .L176
 1499 0a3c 0126     		movs	r6, #1
 1500              	.L176:
 1501 0a3e 3046     		mov	r0, r6
 1502 0a40 F8BD     		pop	{r3, r4, r5, r6, r7, pc}
 1503              	.L213:
 1504 0a42 2E46     		mov	r6, r5
 1505 0a44 9BE7     		b	.L160
 1506              	.L245:
 1507 0a46 0021     		movs	r1, #0
 1508 0a48 04F10800 		add	r0, r4, #8
 1509 0a4c FFF7FEFF 		bl	RCCEx_PLL2_Config
 1510 0a50 0028     		cmp	r0, #0
 1511 0a52 DED0     		beq	.L170
 1512 0a54 0646     		mov	r6, r0
 1513 0a56 DCE7     		b	.L170
 1514              	.L246:
 1515 0a58 0121     		movs	r1, #1
 1516 0a5a 04F10800 		add	r0, r4, #8
 1517 0a5e FFF7FEFF 		bl	RCCEx_PLL2_Config
 1518 0a62 0028     		cmp	r0, #0
 1519 0a64 D9D0     		beq	.L171
 1520 0a66 0646     		mov	r6, r0
 1521 0a68 D7E7     		b	.L171
 1522              	.L247:
 1523 0a6a 0221     		movs	r1, #2
 1524 0a6c 04F10800 		add	r0, r4, #8
 1525 0a70 FFF7FEFF 		bl	RCCEx_PLL2_Config
 1526 0a74 0028     		cmp	r0, #0
 1527 0a76 D4D0     		beq	.L172
 1528 0a78 0646     		mov	r6, r0
 1529 0a7a D2E7     		b	.L172
 1530              	.L248:
 1531 0a7c 0021     		movs	r1, #0
 1532 0a7e 04F12800 		add	r0, r4, #40
 1533 0a82 FFF7FEFF 		bl	RCCEx_PLL3_Config
 1534 0a86 0028     		cmp	r0, #0
 1535 0a88 CFD0     		beq	.L173
 1536 0a8a 0646     		mov	r6, r0
 1537 0a8c CDE7     		b	.L173
 1538              	.L249:
 1539 0a8e 0121     		movs	r1, #1
 1540 0a90 04F12800 		add	r0, r4, #40
 1541 0a94 FFF7FEFF 		bl	RCCEx_PLL3_Config
 1542 0a98 0028     		cmp	r0, #0
 1543 0a9a CAD0     		beq	.L174
 1544 0a9c 0646     		mov	r6, r0
ARM GAS  C:\Users\aticl\AppData\Local\Temp\cc1ZIyt6.s 			page 28


 1545 0a9e C8E7     		b	.L174
 1546              	.L250:
 1547 0aa0 0221     		movs	r1, #2
 1548 0aa2 04F12800 		add	r0, r4, #40
 1549 0aa6 FFF7FEFF 		bl	RCCEx_PLL3_Config
 1550 0aaa 0028     		cmp	r0, #0
 1551 0aac C5D0     		beq	.L175
 1552 0aae 0126     		movs	r6, #1
 1553 0ab0 C5E7     		b	.L176
 1554              	.L260:
 1555 0ab2 00BF     		.align	2
 1556              	.L259:
 1557 0ab4 00440258 		.word	1476543488
 1559              		.section	.text.HAL_RCCEx_GetPeriphCLKConfig,"ax",%progbits
 1560              		.align	1
 1561              		.global	HAL_RCCEx_GetPeriphCLKConfig
 1562              		.syntax unified
 1563              		.thumb
 1564              		.thumb_func
 1566              	HAL_RCCEx_GetPeriphCLKConfig:
 1567              		@ args = 0, pretend = 0, frame = 0
 1568              		@ frame_needed = 0, uses_anonymous_args = 0
 1569              		@ link register save eliminated.
 1570 0000 774A     		ldr	r2, .L264
 1571 0002 0023     		movs	r3, #0
 1572 0004 C0E90023 		strd	r2, [r0]
 1573 0008 764A     		ldr	r2, .L264+4
 1574 000a 0023     		movs	r3, #0
 1575 000c C0E90023 		strd	r2, [r0]
 1576 0010 754A     		ldr	r2, .L264+8
 1577 0012 0023     		movs	r3, #0
 1578 0014 C0E90023 		strd	r2, [r0]
 1579 0018 744A     		ldr	r2, .L264+12
 1580 001a 0023     		movs	r3, #0
 1581 001c C0E90023 		strd	r2, [r0]
 1582 0020 6FF05852 		mvn	r2, #905969664
 1583 0024 0023     		movs	r3, #0
 1584 0026 C0E90023 		strd	r2, [r0]
 1585 002a 6FF05052 		mvn	r2, #872415232
 1586 002e 0023     		movs	r3, #0
 1587 0030 C0E90023 		strd	r2, [r0]
 1588 0034 6FF01052 		mvn	r2, #603979776
 1589 0038 0023     		movs	r3, #0
 1590 003a C0E90023 		strd	r2, [r0]
 1591 003e 6FF08062 		mvn	r2, #67108864
 1592 0042 0023     		movs	r3, #0
 1593 0044 C0E90023 		strd	r2, [r0]
 1594 0048 694B     		ldr	r3, .L264+16
 1595 004a 9A6A     		ldr	r2, [r3, #40]
 1596 004c C2F30552 		ubfx	r2, r2, #20, #6
 1597 0050 8262     		str	r2, [r0, #40]
 1598 0052 1A6C     		ldr	r2, [r3, #64]
 1599 0054 C2F30802 		ubfx	r2, r2, #0, #9
 1600 0058 0132     		adds	r2, r2, #1
 1601 005a C262     		str	r2, [r0, #44]
 1602 005c 1A6C     		ldr	r2, [r3, #64]
 1603 005e C2F30662 		ubfx	r2, r2, #24, #7
ARM GAS  C:\Users\aticl\AppData\Local\Temp\cc1ZIyt6.s 			page 29


 1604 0062 0132     		adds	r2, r2, #1
 1605 0064 8263     		str	r2, [r0, #56]
 1606 0066 1A6C     		ldr	r2, [r3, #64]
 1607 0068 C2F34622 		ubfx	r2, r2, #9, #7
 1608 006c 0132     		adds	r2, r2, #1
 1609 006e 0263     		str	r2, [r0, #48]
 1610 0070 1A6C     		ldr	r2, [r3, #64]
 1611 0072 C2F30642 		ubfx	r2, r2, #16, #7
 1612 0076 0132     		adds	r2, r2, #1
 1613 0078 4263     		str	r2, [r0, #52]
 1614 007a DA6A     		ldr	r2, [r3, #44]
 1615 007c C2F38122 		ubfx	r2, r2, #10, #2
 1616 0080 C263     		str	r2, [r0, #60]
 1617 0082 DA6A     		ldr	r2, [r3, #44]
 1618 0084 C2F34022 		ubfx	r2, r2, #9, #1
 1619 0088 0264     		str	r2, [r0, #64]
 1620 008a 9A6A     		ldr	r2, [r3, #40]
 1621 008c C2F30532 		ubfx	r2, r2, #12, #6
 1622 0090 8260     		str	r2, [r0, #8]
 1623 0092 9A6B     		ldr	r2, [r3, #56]
 1624 0094 C2F30802 		ubfx	r2, r2, #0, #9
 1625 0098 0132     		adds	r2, r2, #1
 1626 009a C260     		str	r2, [r0, #12]
 1627 009c 9A6B     		ldr	r2, [r3, #56]
 1628 009e C2F30662 		ubfx	r2, r2, #24, #7
 1629 00a2 0132     		adds	r2, r2, #1
 1630 00a4 8261     		str	r2, [r0, #24]
 1631 00a6 9A6B     		ldr	r2, [r3, #56]
 1632 00a8 C2F34622 		ubfx	r2, r2, #9, #7
 1633 00ac 0132     		adds	r2, r2, #1
 1634 00ae 0261     		str	r2, [r0, #16]
 1635 00b0 9A6B     		ldr	r2, [r3, #56]
 1636 00b2 C2F30642 		ubfx	r2, r2, #16, #7
 1637 00b6 0132     		adds	r2, r2, #1
 1638 00b8 4261     		str	r2, [r0, #20]
 1639 00ba DA6A     		ldr	r2, [r3, #44]
 1640 00bc C2F38112 		ubfx	r2, r2, #6, #2
 1641 00c0 C261     		str	r2, [r0, #28]
 1642 00c2 DA6A     		ldr	r2, [r3, #44]
 1643 00c4 C2F34012 		ubfx	r2, r2, #5, #1
 1644 00c8 0262     		str	r2, [r0, #32]
 1645 00ca 5A6D     		ldr	r2, [r3, #84]
 1646 00cc 02F03802 		and	r2, r2, #56
 1647 00d0 C267     		str	r2, [r0, #124]
 1648 00d2 5A6D     		ldr	r2, [r3, #84]
 1649 00d4 02F00702 		and	r2, r2, #7
 1650 00d8 8267     		str	r2, [r0, #120]
 1651 00da 9A6D     		ldr	r2, [r3, #88]
 1652 00dc 02F00702 		and	r2, r2, #7
 1653 00e0 C0F89420 		str	r2, [r0, #148]
 1654 00e4 5A6D     		ldr	r2, [r3, #84]
 1655 00e6 02F44052 		and	r2, r2, #12288
 1656 00ea C0F88420 		str	r2, [r0, #132]
 1657 00ee 5A6D     		ldr	r2, [r3, #84]
 1658 00f0 02F0E042 		and	r2, r2, #1879048192
 1659 00f4 C0F89020 		str	r2, [r0, #144]
 1660 00f8 9A6D     		ldr	r2, [r3, #88]
ARM GAS  C:\Users\aticl\AppData\Local\Temp\cc1ZIyt6.s 			page 30


 1661 00fa 02F4E052 		and	r2, r2, #7168
 1662 00fe C0F89C20 		str	r2, [r0, #156]
 1663 0102 9A6D     		ldr	r2, [r3, #88]
 1664 0104 02F46042 		and	r2, r2, #57344
 1665 0108 C0F8A020 		str	r2, [r0, #160]
 1666 010c 1A6D     		ldr	r2, [r3, #80]
 1667 010e 02F00702 		and	r2, r2, #7
 1668 0112 8265     		str	r2, [r0, #88]
 1669 0114 1A6D     		ldr	r2, [r3, #80]
 1670 0116 02F4E072 		and	r2, r2, #448
 1671 011a C265     		str	r2, [r0, #92]
 1672 011c 9A6D     		ldr	r2, [r3, #88]
 1673 011e 02F46002 		and	r2, r2, #14680064
 1674 0122 C0F8A820 		str	r2, [r0, #168]
 1675 0126 9A6D     		ldr	r2, [r3, #88]
 1676 0128 02F0E062 		and	r2, r2, #117440512
 1677 012c C0F8AC20 		str	r2, [r0, #172]
 1678 0130 1A6F     		ldr	r2, [r3, #112]
 1679 0132 02F44072 		and	r2, r2, #768
 1680 0136 C0F8B420 		str	r2, [r0, #180]
 1681 013a 5A6D     		ldr	r2, [r3, #84]
 1682 013c 02F44012 		and	r2, r2, #3145728
 1683 0140 C0F88820 		str	r2, [r0, #136]
 1684 0144 DA6C     		ldr	r2, [r3, #76]
 1685 0146 02F48032 		and	r2, r2, #65536
 1686 014a 0265     		str	r2, [r0, #80]
 1687 014c 5A6D     		ldr	r2, [r3, #84]
 1688 014e 02F44072 		and	r2, r2, #768
 1689 0152 C0F88020 		str	r2, [r0, #128]
 1690 0156 1A69     		ldr	r2, [r3, #16]
 1691 0158 02F48042 		and	r2, r2, #16384
 1692 015c C0F8B820 		str	r2, [r0, #184]
 1693 0160 9A6D     		ldr	r2, [r3, #88]
 1694 0162 02F44032 		and	r2, r2, #196608
 1695 0166 C0F8A420 		str	r2, [r0, #164]
 1696 016a 1A6D     		ldr	r2, [r3, #80]
 1697 016c 02F00042 		and	r2, r2, #-2147483648
 1698 0170 4267     		str	r2, [r0, #116]
 1699 0172 1A6D     		ldr	r2, [r3, #80]
 1700 0174 02F08072 		and	r2, r2, #16777216
 1701 0178 C266     		str	r2, [r0, #108]
 1702 017a 1A6D     		ldr	r2, [r3, #80]
 1703 017c 02F44012 		and	r2, r2, #3145728
 1704 0180 8266     		str	r2, [r0, #104]
 1705 0182 1A6D     		ldr	r2, [r3, #80]
 1706 0184 02F4E042 		and	r2, r2, #28672
 1707 0188 0266     		str	r2, [r0, #96]
 1708 018a 1A6D     		ldr	r2, [r3, #80]
 1709 018c 02F4E022 		and	r2, r2, #458752
 1710 0190 4266     		str	r2, [r0, #100]
 1711 0192 9A6D     		ldr	r2, [r3, #88]
 1712 0194 02F0E042 		and	r2, r2, #1879048192
 1713 0198 C0F8B020 		str	r2, [r0, #176]
 1714 019c 1A6D     		ldr	r2, [r3, #80]
 1715 019e 02F04052 		and	r2, r2, #805306368
 1716 01a2 0267     		str	r2, [r0, #112]
 1717 01a4 5A6D     		ldr	r2, [r3, #84]
ARM GAS  C:\Users\aticl\AppData\Local\Temp\cc1ZIyt6.s 			page 31


 1718 01a6 02F44002 		and	r2, r2, #12582912
 1719 01aa C0F88C20 		str	r2, [r0, #140]
 1720 01ae DA6C     		ldr	r2, [r3, #76]
 1721 01b0 02F00302 		and	r2, r2, #3
 1722 01b4 8264     		str	r2, [r0, #72]
 1723 01b6 DA6C     		ldr	r2, [r3, #76]
 1724 01b8 02F03002 		and	r2, r2, #48
 1725 01bc C264     		str	r2, [r0, #76]
 1726 01be DA6C     		ldr	r2, [r3, #76]
 1727 01c0 02F04052 		and	r2, r2, #805306368
 1728 01c4 4265     		str	r2, [r0, #84]
 1729 01c6 1B69     		ldr	r3, [r3, #16]
 1730 01c8 13F4004F 		tst	r3, #32768
 1731 01cc 03D1     		bne	.L262
 1732 01ce 0023     		movs	r3, #0
 1733 01d0 C0F8BC30 		str	r3, [r0, #188]
 1734 01d4 7047     		bx	lr
 1735              	.L262:
 1736 01d6 4FF40043 		mov	r3, #32768
 1737 01da C0F8BC30 		str	r3, [r0, #188]
 1738 01de 7047     		bx	lr
 1739              	.L265:
 1740              		.align	2
 1741              	.L264:
 1742 01e0 F7F1FFC9 		.word	-905973257
 1743 01e4 FFF1FFC9 		.word	-905973249
 1744 01e8 FFF3FFC9 		.word	-905972737
 1745 01ec FFF7FFC9 		.word	-905971713
 1746 01f0 00440258 		.word	1476543488
 1748              		.section	.text.HAL_RCCEx_GetD1PCLK1Freq,"ax",%progbits
 1749              		.align	1
 1750              		.global	HAL_RCCEx_GetD1PCLK1Freq
 1751              		.syntax unified
 1752              		.thumb
 1753              		.thumb_func
 1755              	HAL_RCCEx_GetD1PCLK1Freq:
 1756              		@ args = 0, pretend = 0, frame = 0
 1757              		@ frame_needed = 0, uses_anonymous_args = 0
 1758 0000 08B5     		push	{r3, lr}
 1759 0002 FFF7FEFF 		bl	HAL_RCC_GetHCLKFreq
 1760 0006 054B     		ldr	r3, .L268
 1761 0008 9B69     		ldr	r3, [r3, #24]
 1762 000a C3F30213 		ubfx	r3, r3, #4, #3
 1763 000e 044A     		ldr	r2, .L268+4
 1764 0010 D35C     		ldrb	r3, [r2, r3]	@ zero_extendqisi2
 1765 0012 03F01F03 		and	r3, r3, #31
 1766 0016 D840     		lsrs	r0, r0, r3
 1767 0018 08BD     		pop	{r3, pc}
 1768              	.L269:
 1769 001a 00BF     		.align	2
 1770              	.L268:
 1771 001c 00440258 		.word	1476543488
 1772 0020 00000000 		.word	D1CorePrescTable
 1774              		.section	.text.HAL_RCCEx_GetD3PCLK1Freq,"ax",%progbits
 1775              		.align	1
 1776              		.global	HAL_RCCEx_GetD3PCLK1Freq
 1777              		.syntax unified
ARM GAS  C:\Users\aticl\AppData\Local\Temp\cc1ZIyt6.s 			page 32


 1778              		.thumb
 1779              		.thumb_func
 1781              	HAL_RCCEx_GetD3PCLK1Freq:
 1782              		@ args = 0, pretend = 0, frame = 0
 1783              		@ frame_needed = 0, uses_anonymous_args = 0
 1784 0000 08B5     		push	{r3, lr}
 1785 0002 FFF7FEFF 		bl	HAL_RCC_GetHCLKFreq
 1786 0006 054B     		ldr	r3, .L272
 1787 0008 1B6A     		ldr	r3, [r3, #32]
 1788 000a C3F30213 		ubfx	r3, r3, #4, #3
 1789 000e 044A     		ldr	r2, .L272+4
 1790 0010 D35C     		ldrb	r3, [r2, r3]	@ zero_extendqisi2
 1791 0012 03F01F03 		and	r3, r3, #31
 1792 0016 D840     		lsrs	r0, r0, r3
 1793 0018 08BD     		pop	{r3, pc}
 1794              	.L273:
 1795 001a 00BF     		.align	2
 1796              	.L272:
 1797 001c 00440258 		.word	1476543488
 1798 0020 00000000 		.word	D1CorePrescTable
 1800              		.section	.text.HAL_RCCEx_GetPLL2ClockFreq,"ax",%progbits
 1801              		.align	1
 1802              		.global	HAL_RCCEx_GetPLL2ClockFreq
 1803              		.syntax unified
 1804              		.thumb
 1805              		.thumb_func
 1807              	HAL_RCCEx_GetPLL2ClockFreq:
 1808              		@ args = 0, pretend = 0, frame = 0
 1809              		@ frame_needed = 0, uses_anonymous_args = 0
 1810              		@ link register save eliminated.
 1811 0000 10B4     		push	{r4}
 1812 0002 794B     		ldr	r3, .L283
 1813 0004 9A6A     		ldr	r2, [r3, #40]
 1814 0006 9C6A     		ldr	r4, [r3, #40]
 1815 0008 C4F3053C 		ubfx	ip, r4, #12, #6
 1816 000c D96A     		ldr	r1, [r3, #44]
 1817 000e C1F30011 		ubfx	r1, r1, #4, #1
 1818 0012 DB6B     		ldr	r3, [r3, #60]
 1819 0014 C3F3CC03 		ubfx	r3, r3, #3, #13
 1820 0018 01FB03F3 		mul	r3, r1, r3
 1821 001c 14F47C3F 		tst	r4, #258048
 1822 0020 00F0DD80 		beq	.L275
 1823 0024 02F00302 		and	r2, r2, #3
 1824 0028 07EE903A 		vmov	s15, r3	@ int
 1825 002c F8EE677A 		vcvt.f32.u32	s15, s15
 1826 0030 012A     		cmp	r2, #1
 1827 0032 4BD0     		beq	.L276
 1828 0034 022A     		cmp	r2, #2
 1829 0036 00F09880 		beq	.L277
 1830 003a 002A     		cmp	r2, #0
 1831 003c 40F0B280 		bne	.L278
 1832 0040 694B     		ldr	r3, .L283
 1833 0042 1B68     		ldr	r3, [r3]
 1834 0044 13F0200F 		tst	r3, #32
 1835 0048 23D0     		beq	.L279
 1836 004a 6749     		ldr	r1, .L283
 1837 004c 0A68     		ldr	r2, [r1]
ARM GAS  C:\Users\aticl\AppData\Local\Temp\cc1ZIyt6.s 			page 33


 1838 004e C2F3C102 		ubfx	r2, r2, #3, #2
 1839 0052 664B     		ldr	r3, .L283+4
 1840 0054 D340     		lsrs	r3, r3, r2
 1841 0056 07EE103A 		vmov	s14, r3	@ int
 1842 005a F8EE476A 		vcvt.f32.u32	s13, s14
 1843 005e 07EE10CA 		vmov	s14, ip	@ int
 1844 0062 B8EE476A 		vcvt.f32.u32	s12, s14
 1845 0066 86EE867A 		vdiv.f32	s14, s13, s12
 1846 006a 8B6B     		ldr	r3, [r1, #56]
 1847 006c C3F30803 		ubfx	r3, r3, #0, #9
 1848 0070 06EE903A 		vmov	s13, r3	@ int
 1849 0074 F8EE666A 		vcvt.f32.u32	s13, s13
 1850 0078 9FED5D6A 		vldr.32	s12, .L283+8
 1851 007c 67EE867A 		vmul.f32	s15, s15, s12
 1852 0080 76EEA77A 		vadd.f32	s15, s13, s15
 1853 0084 F7EE006A 		vmov.f32	s13, #1.0e+0
 1854 0088 77EEA67A 		vadd.f32	s15, s15, s13
 1855 008c 27EE277A 		vmul.f32	s14, s14, s15
 1856 0090 38E0     		b	.L280
 1857              	.L279:
 1858 0092 07EE10CA 		vmov	s14, ip	@ int
 1859 0096 F8EE476A 		vcvt.f32.u32	s13, s14
 1860 009a 9FED566A 		vldr.32	s12, .L283+12
 1861 009e 86EE267A 		vdiv.f32	s14, s12, s13
 1862 00a2 514B     		ldr	r3, .L283
 1863 00a4 9B6B     		ldr	r3, [r3, #56]
 1864 00a6 C3F30803 		ubfx	r3, r3, #0, #9
 1865 00aa 06EE903A 		vmov	s13, r3	@ int
 1866 00ae F8EE666A 		vcvt.f32.u32	s13, s13
 1867 00b2 9FED4F6A 		vldr.32	s12, .L283+8
 1868 00b6 67EE867A 		vmul.f32	s15, s15, s12
 1869 00ba 76EEA77A 		vadd.f32	s15, s13, s15
 1870 00be F7EE006A 		vmov.f32	s13, #1.0e+0
 1871 00c2 77EEA67A 		vadd.f32	s15, s15, s13
 1872 00c6 27EE277A 		vmul.f32	s14, s14, s15
 1873 00ca 1BE0     		b	.L280
 1874              	.L276:
 1875 00cc 07EE10CA 		vmov	s14, ip	@ int
 1876 00d0 F8EE476A 		vcvt.f32.u32	s13, s14
 1877 00d4 9FED486A 		vldr.32	s12, .L283+16
 1878 00d8 86EE267A 		vdiv.f32	s14, s12, s13
 1879 00dc 424B     		ldr	r3, .L283
 1880 00de 9B6B     		ldr	r3, [r3, #56]
 1881 00e0 C3F30803 		ubfx	r3, r3, #0, #9
 1882 00e4 06EE903A 		vmov	s13, r3	@ int
 1883 00e8 F8EE666A 		vcvt.f32.u32	s13, s13
 1884 00ec 9FED406A 		vldr.32	s12, .L283+8
 1885 00f0 67EE867A 		vmul.f32	s15, s15, s12
 1886 00f4 76EEA77A 		vadd.f32	s15, s13, s15
 1887 00f8 F7EE006A 		vmov.f32	s13, #1.0e+0
 1888 00fc 77EEA67A 		vadd.f32	s15, s15, s13
 1889 0100 27EE277A 		vmul.f32	s14, s14, s15
 1890              	.L280:
 1891 0104 384A     		ldr	r2, .L283
 1892 0106 936B     		ldr	r3, [r2, #56]
 1893 0108 C3F34623 		ubfx	r3, r3, #9, #7
 1894 010c 07EE903A 		vmov	s15, r3	@ int
ARM GAS  C:\Users\aticl\AppData\Local\Temp\cc1ZIyt6.s 			page 34


 1895 0110 F8EE677A 		vcvt.f32.u32	s15, s15
 1896 0114 F7EE006A 		vmov.f32	s13, #1.0e+0
 1897 0118 77EEA67A 		vadd.f32	s15, s15, s13
 1898 011c 87EE276A 		vdiv.f32	s12, s14, s15
 1899 0120 BCEEC66A 		vcvt.u32.f32	s12, s12
 1900 0124 80ED006A 		vstr.32	s12, [r0]	@ int
 1901 0128 936B     		ldr	r3, [r2, #56]
 1902 012a C3F30643 		ubfx	r3, r3, #16, #7
 1903 012e 07EE903A 		vmov	s15, r3	@ int
 1904 0132 F8EE677A 		vcvt.f32.u32	s15, s15
 1905 0136 77EEA67A 		vadd.f32	s15, s15, s13
 1906 013a 87EE276A 		vdiv.f32	s12, s14, s15
 1907 013e BCEEC66A 		vcvt.u32.f32	s12, s12
 1908 0142 80ED016A 		vstr.32	s12, [r0, #4]	@ int
 1909 0146 936B     		ldr	r3, [r2, #56]
 1910 0148 C3F30663 		ubfx	r3, r3, #24, #7
 1911 014c 07EE903A 		vmov	s15, r3	@ int
 1912 0150 F8EE677A 		vcvt.f32.u32	s15, s15
 1913 0154 77EEA67A 		vadd.f32	s15, s15, s13
 1914 0158 C7EE276A 		vdiv.f32	s13, s14, s15
 1915 015c FCEEE66A 		vcvt.u32.f32	s13, s13
 1916 0160 C0ED026A 		vstr.32	s13, [r0, #8]	@ int
 1917              	.L274:
 1918 0164 5DF8044B 		ldr	r4, [sp], #4
 1919 0168 7047     		bx	lr
 1920              	.L277:
 1921 016a 07EE10CA 		vmov	s14, ip	@ int
 1922 016e F8EE476A 		vcvt.f32.u32	s13, s14
 1923 0172 9FED226A 		vldr.32	s12, .L283+20
 1924 0176 86EE267A 		vdiv.f32	s14, s12, s13
 1925 017a 1B4B     		ldr	r3, .L283
 1926 017c 9B6B     		ldr	r3, [r3, #56]
 1927 017e C3F30803 		ubfx	r3, r3, #0, #9
 1928 0182 06EE903A 		vmov	s13, r3	@ int
 1929 0186 F8EE666A 		vcvt.f32.u32	s13, s13
 1930 018a 9FED196A 		vldr.32	s12, .L283+8
 1931 018e 67EE867A 		vmul.f32	s15, s15, s12
 1932 0192 76EEA77A 		vadd.f32	s15, s13, s15
 1933 0196 F7EE006A 		vmov.f32	s13, #1.0e+0
 1934 019a 77EEA67A 		vadd.f32	s15, s15, s13
 1935 019e 27EE277A 		vmul.f32	s14, s14, s15
 1936 01a2 AFE7     		b	.L280
 1937              	.L278:
 1938 01a4 07EE10CA 		vmov	s14, ip	@ int
 1939 01a8 F8EE476A 		vcvt.f32.u32	s13, s14
 1940 01ac 9FED126A 		vldr.32	s12, .L283+16
 1941 01b0 86EE267A 		vdiv.f32	s14, s12, s13
 1942 01b4 0C4B     		ldr	r3, .L283
 1943 01b6 9B6B     		ldr	r3, [r3, #56]
 1944 01b8 C3F30803 		ubfx	r3, r3, #0, #9
 1945 01bc 06EE903A 		vmov	s13, r3	@ int
 1946 01c0 F8EE666A 		vcvt.f32.u32	s13, s13
 1947 01c4 9FED0A6A 		vldr.32	s12, .L283+8
 1948 01c8 67EE867A 		vmul.f32	s15, s15, s12
 1949 01cc 76EEA77A 		vadd.f32	s15, s13, s15
 1950 01d0 F7EE006A 		vmov.f32	s13, #1.0e+0
 1951 01d4 77EEA67A 		vadd.f32	s15, s15, s13
ARM GAS  C:\Users\aticl\AppData\Local\Temp\cc1ZIyt6.s 			page 35


 1952 01d8 27EE277A 		vmul.f32	s14, s14, s15
 1953 01dc 92E7     		b	.L280
 1954              	.L275:
 1955 01de 0023     		movs	r3, #0
 1956 01e0 0360     		str	r3, [r0]
 1957 01e2 4360     		str	r3, [r0, #4]
 1958 01e4 8360     		str	r3, [r0, #8]
 1959 01e6 BDE7     		b	.L274
 1960              	.L284:
 1961              		.align	2
 1962              	.L283:
 1963 01e8 00440258 		.word	1476543488
 1964 01ec 0090D003 		.word	64000000
 1965 01f0 00000039 		.word	956301312
 1966 01f4 0024744C 		.word	1282679808
 1967 01f8 0024744A 		.word	1249125376
 1968 01fc 20BCBE4B 		.word	1270791200
 1970              		.section	.text.HAL_RCCEx_GetPLL3ClockFreq,"ax",%progbits
 1971              		.align	1
 1972              		.global	HAL_RCCEx_GetPLL3ClockFreq
 1973              		.syntax unified
 1974              		.thumb
 1975              		.thumb_func
 1977              	HAL_RCCEx_GetPLL3ClockFreq:
 1978              		@ args = 0, pretend = 0, frame = 0
 1979              		@ frame_needed = 0, uses_anonymous_args = 0
 1980              		@ link register save eliminated.
 1981 0000 10B4     		push	{r4}
 1982 0002 794B     		ldr	r3, .L294
 1983 0004 9A6A     		ldr	r2, [r3, #40]
 1984 0006 9C6A     		ldr	r4, [r3, #40]
 1985 0008 C4F3055C 		ubfx	ip, r4, #20, #6
 1986 000c D96A     		ldr	r1, [r3, #44]
 1987 000e C1F30021 		ubfx	r1, r1, #8, #1
 1988 0012 5B6C     		ldr	r3, [r3, #68]
 1989 0014 C3F3CC03 		ubfx	r3, r3, #3, #13
 1990 0018 01FB03F3 		mul	r3, r1, r3
 1991 001c 14F07C7F 		tst	r4, #66060288
 1992 0020 00F0DD80 		beq	.L286
 1993 0024 02F00302 		and	r2, r2, #3
 1994 0028 07EE903A 		vmov	s15, r3	@ int
 1995 002c F8EE677A 		vcvt.f32.u32	s15, s15
 1996 0030 012A     		cmp	r2, #1
 1997 0032 4BD0     		beq	.L287
 1998 0034 022A     		cmp	r2, #2
 1999 0036 00F09880 		beq	.L288
 2000 003a 002A     		cmp	r2, #0
 2001 003c 40F0B280 		bne	.L289
 2002 0040 694B     		ldr	r3, .L294
 2003 0042 1B68     		ldr	r3, [r3]
 2004 0044 13F0200F 		tst	r3, #32
 2005 0048 23D0     		beq	.L290
 2006 004a 6749     		ldr	r1, .L294
 2007 004c 0A68     		ldr	r2, [r1]
 2008 004e C2F3C102 		ubfx	r2, r2, #3, #2
 2009 0052 664B     		ldr	r3, .L294+4
 2010 0054 D340     		lsrs	r3, r3, r2
ARM GAS  C:\Users\aticl\AppData\Local\Temp\cc1ZIyt6.s 			page 36


 2011 0056 07EE103A 		vmov	s14, r3	@ int
 2012 005a F8EE476A 		vcvt.f32.u32	s13, s14
 2013 005e 07EE10CA 		vmov	s14, ip	@ int
 2014 0062 B8EE476A 		vcvt.f32.u32	s12, s14
 2015 0066 86EE867A 		vdiv.f32	s14, s13, s12
 2016 006a 0B6C     		ldr	r3, [r1, #64]
 2017 006c C3F30803 		ubfx	r3, r3, #0, #9
 2018 0070 06EE903A 		vmov	s13, r3	@ int
 2019 0074 F8EE666A 		vcvt.f32.u32	s13, s13
 2020 0078 9FED5D6A 		vldr.32	s12, .L294+8
 2021 007c 67EE867A 		vmul.f32	s15, s15, s12
 2022 0080 76EEA77A 		vadd.f32	s15, s13, s15
 2023 0084 F7EE006A 		vmov.f32	s13, #1.0e+0
 2024 0088 77EEA67A 		vadd.f32	s15, s15, s13
 2025 008c 27EE277A 		vmul.f32	s14, s14, s15
 2026 0090 38E0     		b	.L291
 2027              	.L290:
 2028 0092 07EE10CA 		vmov	s14, ip	@ int
 2029 0096 F8EE476A 		vcvt.f32.u32	s13, s14
 2030 009a 9FED566A 		vldr.32	s12, .L294+12
 2031 009e 86EE267A 		vdiv.f32	s14, s12, s13
 2032 00a2 514B     		ldr	r3, .L294
 2033 00a4 1B6C     		ldr	r3, [r3, #64]
 2034 00a6 C3F30803 		ubfx	r3, r3, #0, #9
 2035 00aa 06EE903A 		vmov	s13, r3	@ int
 2036 00ae F8EE666A 		vcvt.f32.u32	s13, s13
 2037 00b2 9FED4F6A 		vldr.32	s12, .L294+8
 2038 00b6 67EE867A 		vmul.f32	s15, s15, s12
 2039 00ba 76EEA77A 		vadd.f32	s15, s13, s15
 2040 00be F7EE006A 		vmov.f32	s13, #1.0e+0
 2041 00c2 77EEA67A 		vadd.f32	s15, s15, s13
 2042 00c6 27EE277A 		vmul.f32	s14, s14, s15
 2043 00ca 1BE0     		b	.L291
 2044              	.L287:
 2045 00cc 07EE10CA 		vmov	s14, ip	@ int
 2046 00d0 F8EE476A 		vcvt.f32.u32	s13, s14
 2047 00d4 9FED486A 		vldr.32	s12, .L294+16
 2048 00d8 86EE267A 		vdiv.f32	s14, s12, s13
 2049 00dc 424B     		ldr	r3, .L294
 2050 00de 1B6C     		ldr	r3, [r3, #64]
 2051 00e0 C3F30803 		ubfx	r3, r3, #0, #9
 2052 00e4 06EE903A 		vmov	s13, r3	@ int
 2053 00e8 F8EE666A 		vcvt.f32.u32	s13, s13
 2054 00ec 9FED406A 		vldr.32	s12, .L294+8
 2055 00f0 67EE867A 		vmul.f32	s15, s15, s12
 2056 00f4 76EEA77A 		vadd.f32	s15, s13, s15
 2057 00f8 F7EE006A 		vmov.f32	s13, #1.0e+0
 2058 00fc 77EEA67A 		vadd.f32	s15, s15, s13
 2059 0100 27EE277A 		vmul.f32	s14, s14, s15
 2060              	.L291:
 2061 0104 384A     		ldr	r2, .L294
 2062 0106 136C     		ldr	r3, [r2, #64]
 2063 0108 C3F34623 		ubfx	r3, r3, #9, #7
 2064 010c 07EE903A 		vmov	s15, r3	@ int
 2065 0110 F8EE677A 		vcvt.f32.u32	s15, s15
 2066 0114 F7EE006A 		vmov.f32	s13, #1.0e+0
 2067 0118 77EEA67A 		vadd.f32	s15, s15, s13
ARM GAS  C:\Users\aticl\AppData\Local\Temp\cc1ZIyt6.s 			page 37


 2068 011c 87EE276A 		vdiv.f32	s12, s14, s15
 2069 0120 BCEEC66A 		vcvt.u32.f32	s12, s12
 2070 0124 80ED006A 		vstr.32	s12, [r0]	@ int
 2071 0128 136C     		ldr	r3, [r2, #64]
 2072 012a C3F30643 		ubfx	r3, r3, #16, #7
 2073 012e 07EE903A 		vmov	s15, r3	@ int
 2074 0132 F8EE677A 		vcvt.f32.u32	s15, s15
 2075 0136 77EEA67A 		vadd.f32	s15, s15, s13
 2076 013a 87EE276A 		vdiv.f32	s12, s14, s15
 2077 013e BCEEC66A 		vcvt.u32.f32	s12, s12
 2078 0142 80ED016A 		vstr.32	s12, [r0, #4]	@ int
 2079 0146 136C     		ldr	r3, [r2, #64]
 2080 0148 C3F30663 		ubfx	r3, r3, #24, #7
 2081 014c 07EE903A 		vmov	s15, r3	@ int
 2082 0150 F8EE677A 		vcvt.f32.u32	s15, s15
 2083 0154 77EEA67A 		vadd.f32	s15, s15, s13
 2084 0158 C7EE276A 		vdiv.f32	s13, s14, s15
 2085 015c FCEEE66A 		vcvt.u32.f32	s13, s13
 2086 0160 C0ED026A 		vstr.32	s13, [r0, #8]	@ int
 2087              	.L285:
 2088 0164 5DF8044B 		ldr	r4, [sp], #4
 2089 0168 7047     		bx	lr
 2090              	.L288:
 2091 016a 07EE10CA 		vmov	s14, ip	@ int
 2092 016e F8EE476A 		vcvt.f32.u32	s13, s14
 2093 0172 9FED226A 		vldr.32	s12, .L294+20
 2094 0176 86EE267A 		vdiv.f32	s14, s12, s13
 2095 017a 1B4B     		ldr	r3, .L294
 2096 017c 1B6C     		ldr	r3, [r3, #64]
 2097 017e C3F30803 		ubfx	r3, r3, #0, #9
 2098 0182 06EE903A 		vmov	s13, r3	@ int
 2099 0186 F8EE666A 		vcvt.f32.u32	s13, s13
 2100 018a 9FED196A 		vldr.32	s12, .L294+8
 2101 018e 67EE867A 		vmul.f32	s15, s15, s12
 2102 0192 76EEA77A 		vadd.f32	s15, s13, s15
 2103 0196 F7EE006A 		vmov.f32	s13, #1.0e+0
 2104 019a 77EEA67A 		vadd.f32	s15, s15, s13
 2105 019e 27EE277A 		vmul.f32	s14, s14, s15
 2106 01a2 AFE7     		b	.L291
 2107              	.L289:
 2108 01a4 07EE10CA 		vmov	s14, ip	@ int
 2109 01a8 F8EE476A 		vcvt.f32.u32	s13, s14
 2110 01ac 9FED126A 		vldr.32	s12, .L294+16
 2111 01b0 86EE267A 		vdiv.f32	s14, s12, s13
 2112 01b4 0C4B     		ldr	r3, .L294
 2113 01b6 1B6C     		ldr	r3, [r3, #64]
 2114 01b8 C3F30803 		ubfx	r3, r3, #0, #9
 2115 01bc 06EE903A 		vmov	s13, r3	@ int
 2116 01c0 F8EE666A 		vcvt.f32.u32	s13, s13
 2117 01c4 9FED0A6A 		vldr.32	s12, .L294+8
 2118 01c8 67EE867A 		vmul.f32	s15, s15, s12
 2119 01cc 76EEA77A 		vadd.f32	s15, s13, s15
 2120 01d0 F7EE006A 		vmov.f32	s13, #1.0e+0
 2121 01d4 77EEA67A 		vadd.f32	s15, s15, s13
 2122 01d8 27EE277A 		vmul.f32	s14, s14, s15
 2123 01dc 92E7     		b	.L291
 2124              	.L286:
ARM GAS  C:\Users\aticl\AppData\Local\Temp\cc1ZIyt6.s 			page 38


 2125 01de 0023     		movs	r3, #0
 2126 01e0 0360     		str	r3, [r0]
 2127 01e2 4360     		str	r3, [r0, #4]
 2128 01e4 8360     		str	r3, [r0, #8]
 2129 01e6 BDE7     		b	.L285
 2130              	.L295:
 2131              		.align	2
 2132              	.L294:
 2133 01e8 00440258 		.word	1476543488
 2134 01ec 0090D003 		.word	64000000
 2135 01f0 00000039 		.word	956301312
 2136 01f4 0024744C 		.word	1282679808
 2137 01f8 0024744A 		.word	1249125376
 2138 01fc 20BCBE4B 		.word	1270791200
 2140              		.section	.text.HAL_RCCEx_GetPLL1ClockFreq,"ax",%progbits
 2141              		.align	1
 2142              		.global	HAL_RCCEx_GetPLL1ClockFreq
 2143              		.syntax unified
 2144              		.thumb
 2145              		.thumb_func
 2147              	HAL_RCCEx_GetPLL1ClockFreq:
 2148              		@ args = 0, pretend = 0, frame = 0
 2149              		@ frame_needed = 0, uses_anonymous_args = 0
 2150              		@ link register save eliminated.
 2151 0000 10B4     		push	{r4}
 2152 0002 794B     		ldr	r3, .L305
 2153 0004 9A6A     		ldr	r2, [r3, #40]
 2154 0006 9C6A     		ldr	r4, [r3, #40]
 2155 0008 C4F3051C 		ubfx	ip, r4, #4, #6
 2156 000c D96A     		ldr	r1, [r3, #44]
 2157 000e 01F00101 		and	r1, r1, #1
 2158 0012 5B6B     		ldr	r3, [r3, #52]
 2159 0014 C3F3CC03 		ubfx	r3, r3, #3, #13
 2160 0018 01FB03F3 		mul	r3, r1, r3
 2161 001c 14F47C7F 		tst	r4, #1008
 2162 0020 00F0DD80 		beq	.L297
 2163 0024 02F00302 		and	r2, r2, #3
 2164 0028 07EE903A 		vmov	s15, r3	@ int
 2165 002c F8EE677A 		vcvt.f32.u32	s15, s15
 2166 0030 012A     		cmp	r2, #1
 2167 0032 4BD0     		beq	.L298
 2168 0034 022A     		cmp	r2, #2
 2169 0036 00F09880 		beq	.L299
 2170 003a 002A     		cmp	r2, #0
 2171 003c 40F0B280 		bne	.L300
 2172 0040 694B     		ldr	r3, .L305
 2173 0042 1B68     		ldr	r3, [r3]
 2174 0044 13F0200F 		tst	r3, #32
 2175 0048 23D0     		beq	.L301
 2176 004a 6749     		ldr	r1, .L305
 2177 004c 0A68     		ldr	r2, [r1]
 2178 004e C2F3C102 		ubfx	r2, r2, #3, #2
 2179 0052 664B     		ldr	r3, .L305+4
 2180 0054 D340     		lsrs	r3, r3, r2
 2181 0056 07EE103A 		vmov	s14, r3	@ int
 2182 005a F8EE476A 		vcvt.f32.u32	s13, s14
 2183 005e 07EE10CA 		vmov	s14, ip	@ int
ARM GAS  C:\Users\aticl\AppData\Local\Temp\cc1ZIyt6.s 			page 39


 2184 0062 B8EE476A 		vcvt.f32.u32	s12, s14
 2185 0066 86EE867A 		vdiv.f32	s14, s13, s12
 2186 006a 0B6B     		ldr	r3, [r1, #48]
 2187 006c C3F30803 		ubfx	r3, r3, #0, #9
 2188 0070 06EE903A 		vmov	s13, r3	@ int
 2189 0074 F8EE666A 		vcvt.f32.u32	s13, s13
 2190 0078 9FED5D6A 		vldr.32	s12, .L305+8
 2191 007c 67EE867A 		vmul.f32	s15, s15, s12
 2192 0080 76EEA77A 		vadd.f32	s15, s13, s15
 2193 0084 F7EE006A 		vmov.f32	s13, #1.0e+0
 2194 0088 77EEA67A 		vadd.f32	s15, s15, s13
 2195 008c 27EE277A 		vmul.f32	s14, s14, s15
 2196 0090 38E0     		b	.L302
 2197              	.L301:
 2198 0092 07EE10CA 		vmov	s14, ip	@ int
 2199 0096 F8EE476A 		vcvt.f32.u32	s13, s14
 2200 009a 9FED566A 		vldr.32	s12, .L305+12
 2201 009e 86EE267A 		vdiv.f32	s14, s12, s13
 2202 00a2 514B     		ldr	r3, .L305
 2203 00a4 1B6B     		ldr	r3, [r3, #48]
 2204 00a6 C3F30803 		ubfx	r3, r3, #0, #9
 2205 00aa 06EE903A 		vmov	s13, r3	@ int
 2206 00ae F8EE666A 		vcvt.f32.u32	s13, s13
 2207 00b2 9FED4F6A 		vldr.32	s12, .L305+8
 2208 00b6 67EE867A 		vmul.f32	s15, s15, s12
 2209 00ba 76EEA77A 		vadd.f32	s15, s13, s15
 2210 00be F7EE006A 		vmov.f32	s13, #1.0e+0
 2211 00c2 77EEA67A 		vadd.f32	s15, s15, s13
 2212 00c6 27EE277A 		vmul.f32	s14, s14, s15
 2213 00ca 1BE0     		b	.L302
 2214              	.L298:
 2215 00cc 07EE10CA 		vmov	s14, ip	@ int
 2216 00d0 F8EE476A 		vcvt.f32.u32	s13, s14
 2217 00d4 9FED486A 		vldr.32	s12, .L305+16
 2218 00d8 86EE267A 		vdiv.f32	s14, s12, s13
 2219 00dc 424B     		ldr	r3, .L305
 2220 00de 1B6B     		ldr	r3, [r3, #48]
 2221 00e0 C3F30803 		ubfx	r3, r3, #0, #9
 2222 00e4 06EE903A 		vmov	s13, r3	@ int
 2223 00e8 F8EE666A 		vcvt.f32.u32	s13, s13
 2224 00ec 9FED406A 		vldr.32	s12, .L305+8
 2225 00f0 67EE867A 		vmul.f32	s15, s15, s12
 2226 00f4 76EEA77A 		vadd.f32	s15, s13, s15
 2227 00f8 F7EE006A 		vmov.f32	s13, #1.0e+0
 2228 00fc 77EEA67A 		vadd.f32	s15, s15, s13
 2229 0100 27EE277A 		vmul.f32	s14, s14, s15
 2230              	.L302:
 2231 0104 384A     		ldr	r2, .L305
 2232 0106 136B     		ldr	r3, [r2, #48]
 2233 0108 C3F34623 		ubfx	r3, r3, #9, #7
 2234 010c 07EE903A 		vmov	s15, r3	@ int
 2235 0110 F8EE677A 		vcvt.f32.u32	s15, s15
 2236 0114 F7EE006A 		vmov.f32	s13, #1.0e+0
 2237 0118 77EEA67A 		vadd.f32	s15, s15, s13
 2238 011c 87EE276A 		vdiv.f32	s12, s14, s15
 2239 0120 BCEEC66A 		vcvt.u32.f32	s12, s12
 2240 0124 80ED006A 		vstr.32	s12, [r0]	@ int
ARM GAS  C:\Users\aticl\AppData\Local\Temp\cc1ZIyt6.s 			page 40


 2241 0128 136B     		ldr	r3, [r2, #48]
 2242 012a C3F30643 		ubfx	r3, r3, #16, #7
 2243 012e 07EE903A 		vmov	s15, r3	@ int
 2244 0132 F8EE677A 		vcvt.f32.u32	s15, s15
 2245 0136 77EEA67A 		vadd.f32	s15, s15, s13
 2246 013a 87EE276A 		vdiv.f32	s12, s14, s15
 2247 013e BCEEC66A 		vcvt.u32.f32	s12, s12
 2248 0142 80ED016A 		vstr.32	s12, [r0, #4]	@ int
 2249 0146 136B     		ldr	r3, [r2, #48]
 2250 0148 C3F30663 		ubfx	r3, r3, #24, #7
 2251 014c 07EE903A 		vmov	s15, r3	@ int
 2252 0150 F8EE677A 		vcvt.f32.u32	s15, s15
 2253 0154 77EEA67A 		vadd.f32	s15, s15, s13
 2254 0158 C7EE276A 		vdiv.f32	s13, s14, s15
 2255 015c FCEEE66A 		vcvt.u32.f32	s13, s13
 2256 0160 C0ED026A 		vstr.32	s13, [r0, #8]	@ int
 2257              	.L296:
 2258 0164 5DF8044B 		ldr	r4, [sp], #4
 2259 0168 7047     		bx	lr
 2260              	.L299:
 2261 016a 07EE10CA 		vmov	s14, ip	@ int
 2262 016e F8EE476A 		vcvt.f32.u32	s13, s14
 2263 0172 9FED226A 		vldr.32	s12, .L305+20
 2264 0176 86EE267A 		vdiv.f32	s14, s12, s13
 2265 017a 1B4B     		ldr	r3, .L305
 2266 017c 1B6B     		ldr	r3, [r3, #48]
 2267 017e C3F30803 		ubfx	r3, r3, #0, #9
 2268 0182 06EE903A 		vmov	s13, r3	@ int
 2269 0186 F8EE666A 		vcvt.f32.u32	s13, s13
 2270 018a 9FED196A 		vldr.32	s12, .L305+8
 2271 018e 67EE867A 		vmul.f32	s15, s15, s12
 2272 0192 76EEA77A 		vadd.f32	s15, s13, s15
 2273 0196 F7EE006A 		vmov.f32	s13, #1.0e+0
 2274 019a 77EEA67A 		vadd.f32	s15, s15, s13
 2275 019e 27EE277A 		vmul.f32	s14, s14, s15
 2276 01a2 AFE7     		b	.L302
 2277              	.L300:
 2278 01a4 07EE10CA 		vmov	s14, ip	@ int
 2279 01a8 F8EE476A 		vcvt.f32.u32	s13, s14
 2280 01ac 9FED116A 		vldr.32	s12, .L305+12
 2281 01b0 86EE267A 		vdiv.f32	s14, s12, s13
 2282 01b4 0C4B     		ldr	r3, .L305
 2283 01b6 1B6B     		ldr	r3, [r3, #48]
 2284 01b8 C3F30803 		ubfx	r3, r3, #0, #9
 2285 01bc 06EE903A 		vmov	s13, r3	@ int
 2286 01c0 F8EE666A 		vcvt.f32.u32	s13, s13
 2287 01c4 9FED0A6A 		vldr.32	s12, .L305+8
 2288 01c8 67EE867A 		vmul.f32	s15, s15, s12
 2289 01cc 76EEA77A 		vadd.f32	s15, s13, s15
 2290 01d0 F7EE006A 		vmov.f32	s13, #1.0e+0
 2291 01d4 77EEA67A 		vadd.f32	s15, s15, s13
 2292 01d8 27EE277A 		vmul.f32	s14, s14, s15
 2293 01dc 92E7     		b	.L302
 2294              	.L297:
 2295 01de 0023     		movs	r3, #0
 2296 01e0 0360     		str	r3, [r0]
 2297 01e2 4360     		str	r3, [r0, #4]
ARM GAS  C:\Users\aticl\AppData\Local\Temp\cc1ZIyt6.s 			page 41


 2298 01e4 8360     		str	r3, [r0, #8]
 2299 01e6 BDE7     		b	.L296
 2300              	.L306:
 2301              		.align	2
 2302              	.L305:
 2303 01e8 00440258 		.word	1476543488
 2304 01ec 0090D003 		.word	64000000
 2305 01f0 00000039 		.word	956301312
 2306 01f4 0024744C 		.word	1282679808
 2307 01f8 0024744A 		.word	1249125376
 2308 01fc 20BCBE4B 		.word	1270791200
 2310              		.section	.text.HAL_RCCEx_GetPeriphCLKFreq,"ax",%progbits
 2311              		.align	1
 2312              		.global	HAL_RCCEx_GetPeriphCLKFreq
 2313              		.syntax unified
 2314              		.thumb
 2315              		.thumb_func
 2317              	HAL_RCCEx_GetPeriphCLKFreq:
 2318              		@ args = 0, pretend = 0, frame = 40
 2319              		@ frame_needed = 0, uses_anonymous_args = 0
 2320 0000 00B5     		push	{lr}
 2321 0002 8BB0     		sub	sp, sp, #44
 2322 0004 A0F58073 		sub	r3, r0, #256
 2323 0008 0B43     		orrs	r3, r3, r1
 2324 000a 2DD0     		beq	.L403
 2325 000c A0F50073 		sub	r3, r0, #512
 2326 0010 0B43     		orrs	r3, r3, r1
 2327 0012 7CD0     		beq	.L404
 2328 0014 A0F58063 		sub	r3, r0, #1024
 2329 0018 0B43     		orrs	r3, r3, r1
 2330 001a 00F0D080 		beq	.L405
 2331 001e A0F50063 		sub	r3, r0, #2048
 2332 0022 0B43     		orrs	r3, r3, r1
 2333 0024 00F02881 		beq	.L406
 2334 0028 A0F58053 		sub	r3, r0, #4096
 2335 002c 0B43     		orrs	r3, r3, r1
 2336 002e 00F08781 		beq	.L407
 2337 0032 A0F50053 		sub	r3, r0, #8192
 2338 0036 0B43     		orrs	r3, r3, r1
 2339 0038 00F0DF81 		beq	.L408
 2340 003c A0F50023 		sub	r3, r0, #524288
 2341 0040 0B43     		orrs	r3, r3, r1
 2342 0042 00F02882 		beq	.L409
 2343 0046 A0F58033 		sub	r3, r0, #65536
 2344 004a 0B43     		orrs	r3, r3, r1
 2345 004c 00F06B82 		beq	.L410
 2346 0050 A0F58043 		sub	r3, r0, #16384
 2347 0054 0B43     		orrs	r3, r3, r1
 2348 0056 00F08D82 		beq	.L411
 2349 005a A0F50040 		sub	r0, r0, #32768
 2350 005e 0843     		orrs	r0, r0, r1
 2351 0060 00F0D682 		beq	.L412
 2352 0064 0020     		movs	r0, #0
 2353 0066 0CE0     		b	.L307
 2354              	.L403:
 2355 0068 934B     		ldr	r3, .L429
 2356 006a 1B6D     		ldr	r3, [r3, #80]
ARM GAS  C:\Users\aticl\AppData\Local\Temp\cc1ZIyt6.s 			page 42


 2357 006c 03F00703 		and	r3, r3, #7
 2358 0070 042B     		cmp	r3, #4
 2359 0072 00F2F782 		bhi	.L376
 2360 0076 DFE803F0 		tbb	[pc, r3]
 2361              	.L311:
 2362 007a 07       		.byte	(.L315-.L311)/2
 2363 007b 11       		.byte	(.L314-.L311)/2
 2364 007c 1B       		.byte	(.L313-.L311)/2
 2365 007d 03       		.byte	(.L312-.L311)/2
 2366 007e 25       		.byte	(.L310-.L311)/2
 2367 007f 00       		.p2align 1
 2368              	.L312:
 2369 0080 8E48     		ldr	r0, .L429+4
 2370              	.L307:
 2371 0082 0BB0     		add	sp, sp, #44
 2372              		@ sp needed
 2373 0084 5DF804FB 		ldr	pc, [sp], #4
 2374              	.L315:
 2375 0088 8B4B     		ldr	r3, .L429
 2376 008a 1868     		ldr	r0, [r3]
 2377 008c 10F00070 		ands	r0, r0, #33554432
 2378 0090 F7D0     		beq	.L307
 2379 0092 07A8     		add	r0, sp, #28
 2380 0094 FFF7FEFF 		bl	HAL_RCCEx_GetPLL1ClockFreq
 2381 0098 0898     		ldr	r0, [sp, #32]
 2382 009a F2E7     		b	.L307
 2383              	.L314:
 2384 009c 864B     		ldr	r3, .L429
 2385 009e 1868     		ldr	r0, [r3]
 2386 00a0 10F00060 		ands	r0, r0, #134217728
 2387 00a4 EDD0     		beq	.L307
 2388 00a6 04A8     		add	r0, sp, #16
 2389 00a8 FFF7FEFF 		bl	HAL_RCCEx_GetPLL2ClockFreq
 2390 00ac 0498     		ldr	r0, [sp, #16]
 2391 00ae E8E7     		b	.L307
 2392              	.L313:
 2393 00b0 814B     		ldr	r3, .L429
 2394 00b2 1868     		ldr	r0, [r3]
 2395 00b4 10F00050 		ands	r0, r0, #536870912
 2396 00b8 E3D0     		beq	.L307
 2397 00ba 01A8     		add	r0, sp, #4
 2398 00bc FFF7FEFF 		bl	HAL_RCCEx_GetPLL3ClockFreq
 2399 00c0 0198     		ldr	r0, [sp, #4]
 2400 00c2 DEE7     		b	.L307
 2401              	.L310:
 2402 00c4 7C4A     		ldr	r2, .L429
 2403 00c6 D36C     		ldr	r3, [r2, #76]
 2404 00c8 03F04053 		and	r3, r3, #805306368
 2405 00cc 1268     		ldr	r2, [r2]
 2406 00ce 12F0040F 		tst	r2, #4
 2407 00d2 07D0     		beq	.L316
 2408 00d4 33B9     		cbnz	r3, .L316
 2409 00d6 784B     		ldr	r3, .L429
 2410 00d8 1B68     		ldr	r3, [r3]
 2411 00da C3F3C103 		ubfx	r3, r3, #3, #2
 2412 00de 7848     		ldr	r0, .L429+8
 2413 00e0 D840     		lsrs	r0, r0, r3
ARM GAS  C:\Users\aticl\AppData\Local\Temp\cc1ZIyt6.s 			page 43


 2414 00e2 CEE7     		b	.L307
 2415              	.L316:
 2416 00e4 744A     		ldr	r2, .L429
 2417 00e6 1268     		ldr	r2, [r2]
 2418 00e8 12F4807F 		tst	r2, #256
 2419 00ec 03D0     		beq	.L317
 2420 00ee B3F1805F 		cmp	r3, #268435456
 2421 00f2 00F0B982 		beq	.L377
 2422              	.L317:
 2423 00f6 704A     		ldr	r2, .L429
 2424 00f8 1268     		ldr	r2, [r2]
 2425 00fa 12F4003F 		tst	r2, #131072
 2426 00fe 00F0B582 		beq	.L378
 2427 0102 B3F1005F 		cmp	r3, #536870912
 2428 0106 00F0B382 		beq	.L379
 2429 010a 0020     		movs	r0, #0
 2430 010c B9E7     		b	.L307
 2431              	.L404:
 2432 010e 6A4B     		ldr	r3, .L429
 2433 0110 1B6D     		ldr	r3, [r3, #80]
 2434 0112 03F4E073 		and	r3, r3, #448
 2435 0116 802B     		cmp	r3, #128
 2436 0118 31D0     		beq	.L319
 2437 011a 15D9     		bls	.L413
 2438 011c C02B     		cmp	r3, #192
 2439 011e 00F0A982 		beq	.L380
 2440 0122 B3F5807F 		cmp	r3, #256
 2441 0126 1ED1     		bne	.L414
 2442 0128 634A     		ldr	r2, .L429
 2443 012a D36C     		ldr	r3, [r2, #76]
 2444 012c 03F04053 		and	r3, r3, #805306368
 2445 0130 1268     		ldr	r2, [r2]
 2446 0132 12F0040F 		tst	r2, #4
 2447 0136 2DD0     		beq	.L324
 2448 0138 63BB     		cbnz	r3, .L324
 2449 013a 5F4B     		ldr	r3, .L429
 2450 013c 1B68     		ldr	r3, [r3]
 2451 013e C3F3C103 		ubfx	r3, r3, #3, #2
 2452 0142 5F48     		ldr	r0, .L429+8
 2453 0144 D840     		lsrs	r0, r0, r3
 2454 0146 9CE7     		b	.L307
 2455              	.L413:
 2456 0148 7BB1     		cbz	r3, .L321
 2457 014a 402B     		cmp	r3, #64
 2458 014c 09D1     		bne	.L415
 2459 014e 5A4B     		ldr	r3, .L429
 2460 0150 1868     		ldr	r0, [r3]
 2461 0152 10F00060 		ands	r0, r0, #134217728
 2462 0156 94D0     		beq	.L307
 2463 0158 04A8     		add	r0, sp, #16
 2464 015a FFF7FEFF 		bl	HAL_RCCEx_GetPLL2ClockFreq
 2465 015e 0498     		ldr	r0, [sp, #16]
 2466 0160 8FE7     		b	.L307
 2467              	.L415:
 2468 0162 0020     		movs	r0, #0
 2469 0164 8DE7     		b	.L307
 2470              	.L414:
ARM GAS  C:\Users\aticl\AppData\Local\Temp\cc1ZIyt6.s 			page 44


 2471 0166 0020     		movs	r0, #0
 2472 0168 8BE7     		b	.L307
 2473              	.L321:
 2474 016a 534B     		ldr	r3, .L429
 2475 016c 1868     		ldr	r0, [r3]
 2476 016e 10F00070 		ands	r0, r0, #33554432
 2477 0172 86D0     		beq	.L307
 2478 0174 07A8     		add	r0, sp, #28
 2479 0176 FFF7FEFF 		bl	HAL_RCCEx_GetPLL1ClockFreq
 2480 017a 0898     		ldr	r0, [sp, #32]
 2481 017c 81E7     		b	.L307
 2482              	.L319:
 2483 017e 4E4B     		ldr	r3, .L429
 2484 0180 1868     		ldr	r0, [r3]
 2485 0182 10F00050 		ands	r0, r0, #536870912
 2486 0186 3FF47CAF 		beq	.L307
 2487 018a 01A8     		add	r0, sp, #4
 2488 018c FFF7FEFF 		bl	HAL_RCCEx_GetPLL3ClockFreq
 2489 0190 0198     		ldr	r0, [sp, #4]
 2490 0192 76E7     		b	.L307
 2491              	.L324:
 2492 0194 484A     		ldr	r2, .L429
 2493 0196 1268     		ldr	r2, [r2]
 2494 0198 12F4807F 		tst	r2, #256
 2495 019c 03D0     		beq	.L325
 2496 019e B3F1805F 		cmp	r3, #268435456
 2497 01a2 00F06982 		beq	.L381
 2498              	.L325:
 2499 01a6 444A     		ldr	r2, .L429
 2500 01a8 1268     		ldr	r2, [r2]
 2501 01aa 12F4003F 		tst	r2, #131072
 2502 01ae 00F06582 		beq	.L382
 2503 01b2 B3F1005F 		cmp	r3, #536870912
 2504 01b6 00F06382 		beq	.L383
 2505 01ba 0020     		movs	r0, #0
 2506 01bc 61E7     		b	.L307
 2507              	.L405:
 2508 01be 3E4B     		ldr	r3, .L429
 2509 01c0 9B6D     		ldr	r3, [r3, #88]
 2510 01c2 03F46003 		and	r3, r3, #14680064
 2511 01c6 B3F5800F 		cmp	r3, #4194304
 2512 01ca 35D0     		beq	.L327
 2513 01cc 16D9     		bls	.L416
 2514 01ce B3F5C00F 		cmp	r3, #6291456
 2515 01d2 00F05782 		beq	.L384
 2516 01d6 B3F5000F 		cmp	r3, #8388608
 2517 01da 20D1     		bne	.L417
 2518 01dc 364A     		ldr	r2, .L429
 2519 01de D36C     		ldr	r3, [r2, #76]
 2520 01e0 03F04053 		and	r3, r3, #805306368
 2521 01e4 1268     		ldr	r2, [r2]
 2522 01e6 12F0040F 		tst	r2, #4
 2523 01ea 30D0     		beq	.L332
 2524 01ec 7BBB     		cbnz	r3, .L332
 2525 01ee 324B     		ldr	r3, .L429
 2526 01f0 1B68     		ldr	r3, [r3]
 2527 01f2 C3F3C103 		ubfx	r3, r3, #3, #2
ARM GAS  C:\Users\aticl\AppData\Local\Temp\cc1ZIyt6.s 			page 45


 2528 01f6 3248     		ldr	r0, .L429+8
 2529 01f8 D840     		lsrs	r0, r0, r3
 2530 01fa 42E7     		b	.L307
 2531              	.L416:
 2532 01fc 8BB1     		cbz	r3, .L329
 2533 01fe B3F5001F 		cmp	r3, #2097152
 2534 0202 0AD1     		bne	.L418
 2535 0204 2C4B     		ldr	r3, .L429
 2536 0206 1868     		ldr	r0, [r3]
 2537 0208 10F00060 		ands	r0, r0, #134217728
 2538 020c 3FF439AF 		beq	.L307
 2539 0210 04A8     		add	r0, sp, #16
 2540 0212 FFF7FEFF 		bl	HAL_RCCEx_GetPLL2ClockFreq
 2541 0216 0498     		ldr	r0, [sp, #16]
 2542 0218 33E7     		b	.L307
 2543              	.L418:
 2544 021a 0020     		movs	r0, #0
 2545 021c 31E7     		b	.L307
 2546              	.L417:
 2547 021e 0020     		movs	r0, #0
 2548 0220 2FE7     		b	.L307
 2549              	.L329:
 2550 0222 254B     		ldr	r3, .L429
 2551 0224 1868     		ldr	r0, [r3]
 2552 0226 10F00070 		ands	r0, r0, #33554432
 2553 022a 3FF42AAF 		beq	.L307
 2554 022e 07A8     		add	r0, sp, #28
 2555 0230 FFF7FEFF 		bl	HAL_RCCEx_GetPLL1ClockFreq
 2556 0234 0898     		ldr	r0, [sp, #32]
 2557 0236 24E7     		b	.L307
 2558              	.L327:
 2559 0238 1F4B     		ldr	r3, .L429
 2560 023a 1868     		ldr	r0, [r3]
 2561 023c 10F00050 		ands	r0, r0, #536870912
 2562 0240 3FF41FAF 		beq	.L307
 2563 0244 01A8     		add	r0, sp, #4
 2564 0246 FFF7FEFF 		bl	HAL_RCCEx_GetPLL3ClockFreq
 2565 024a 0198     		ldr	r0, [sp, #4]
 2566 024c 19E7     		b	.L307
 2567              	.L332:
 2568 024e 1A4A     		ldr	r2, .L429
 2569 0250 1268     		ldr	r2, [r2]
 2570 0252 12F4807F 		tst	r2, #256
 2571 0256 03D0     		beq	.L333
 2572 0258 B3F1805F 		cmp	r3, #268435456
 2573 025c 00F01482 		beq	.L385
 2574              	.L333:
 2575 0260 154A     		ldr	r2, .L429
 2576 0262 1268     		ldr	r2, [r2]
 2577 0264 12F4003F 		tst	r2, #131072
 2578 0268 00F01082 		beq	.L386
 2579 026c B3F1005F 		cmp	r3, #536870912
 2580 0270 00F00E82 		beq	.L387
 2581 0274 0020     		movs	r0, #0
 2582 0276 04E7     		b	.L307
 2583              	.L406:
 2584 0278 0F4B     		ldr	r3, .L429
ARM GAS  C:\Users\aticl\AppData\Local\Temp\cc1ZIyt6.s 			page 46


 2585 027a 9B6D     		ldr	r3, [r3, #88]
 2586 027c 03F0E063 		and	r3, r3, #117440512
 2587 0280 B3F1007F 		cmp	r3, #33554432
 2588 0284 3CD0     		beq	.L335
 2589 0286 1DD9     		bls	.L419
 2590 0288 B3F1407F 		cmp	r3, #50331648
 2591 028c 00F00282 		beq	.L388
 2592 0290 B3F1806F 		cmp	r3, #67108864
 2593 0294 27D1     		bne	.L420
 2594 0296 084A     		ldr	r2, .L429
 2595 0298 D36C     		ldr	r3, [r2, #76]
 2596 029a 03F04053 		and	r3, r3, #805306368
 2597 029e 1268     		ldr	r2, [r2]
 2598 02a0 12F0040F 		tst	r2, #4
 2599 02a4 37D0     		beq	.L340
 2600 02a6 002B     		cmp	r3, #0
 2601 02a8 35D1     		bne	.L340
 2602 02aa 034B     		ldr	r3, .L429
 2603 02ac 1B68     		ldr	r3, [r3]
 2604 02ae C3F3C103 		ubfx	r3, r3, #3, #2
 2605 02b2 0348     		ldr	r0, .L429+8
 2606 02b4 D840     		lsrs	r0, r0, r3
 2607 02b6 E4E6     		b	.L307
 2608              	.L430:
 2609              		.align	2
 2610              	.L429:
 2611 02b8 00440258 		.word	1476543488
 2612 02bc 0080BB00 		.word	12288000
 2613 02c0 0090D003 		.word	64000000
 2614              	.L419:
 2615 02c4 8BB1     		cbz	r3, .L337
 2616 02c6 B3F1807F 		cmp	r3, #16777216
 2617 02ca 0AD1     		bne	.L421
 2618 02cc 9A4B     		ldr	r3, .L431
 2619 02ce 1868     		ldr	r0, [r3]
 2620 02d0 10F00060 		ands	r0, r0, #134217728
 2621 02d4 3FF4D5AE 		beq	.L307
 2622 02d8 04A8     		add	r0, sp, #16
 2623 02da FFF7FEFF 		bl	HAL_RCCEx_GetPLL2ClockFreq
 2624 02de 0498     		ldr	r0, [sp, #16]
 2625 02e0 CFE6     		b	.L307
 2626              	.L421:
 2627 02e2 0020     		movs	r0, #0
 2628 02e4 CDE6     		b	.L307
 2629              	.L420:
 2630 02e6 0020     		movs	r0, #0
 2631 02e8 CBE6     		b	.L307
 2632              	.L337:
 2633 02ea 934B     		ldr	r3, .L431
 2634 02ec 1868     		ldr	r0, [r3]
 2635 02ee 10F00070 		ands	r0, r0, #33554432
 2636 02f2 3FF4C6AE 		beq	.L307
 2637 02f6 07A8     		add	r0, sp, #28
 2638 02f8 FFF7FEFF 		bl	HAL_RCCEx_GetPLL1ClockFreq
 2639 02fc 0898     		ldr	r0, [sp, #32]
 2640 02fe C0E6     		b	.L307
 2641              	.L335:
ARM GAS  C:\Users\aticl\AppData\Local\Temp\cc1ZIyt6.s 			page 47


 2642 0300 8D4B     		ldr	r3, .L431
 2643 0302 1868     		ldr	r0, [r3]
 2644 0304 10F00050 		ands	r0, r0, #536870912
 2645 0308 3FF4BBAE 		beq	.L307
 2646 030c 01A8     		add	r0, sp, #4
 2647 030e FFF7FEFF 		bl	HAL_RCCEx_GetPLL3ClockFreq
 2648 0312 0198     		ldr	r0, [sp, #4]
 2649 0314 B5E6     		b	.L307
 2650              	.L340:
 2651 0316 884A     		ldr	r2, .L431
 2652 0318 1268     		ldr	r2, [r2]
 2653 031a 12F4807F 		tst	r2, #256
 2654 031e 03D0     		beq	.L341
 2655 0320 B3F1805F 		cmp	r3, #268435456
 2656 0324 00F0B881 		beq	.L389
 2657              	.L341:
 2658 0328 834A     		ldr	r2, .L431
 2659 032a 1268     		ldr	r2, [r2]
 2660 032c 12F4003F 		tst	r2, #131072
 2661 0330 00F0B481 		beq	.L390
 2662 0334 B3F1005F 		cmp	r3, #536870912
 2663 0338 00F0B281 		beq	.L391
 2664 033c 0020     		movs	r0, #0
 2665 033e A0E6     		b	.L307
 2666              	.L407:
 2667 0340 7D4B     		ldr	r3, .L431
 2668 0342 1B6D     		ldr	r3, [r3, #80]
 2669 0344 03F4E043 		and	r3, r3, #28672
 2670 0348 B3F5005F 		cmp	r3, #8192
 2671 034c 35D0     		beq	.L343
 2672 034e 16D9     		bls	.L422
 2673 0350 B3F5405F 		cmp	r3, #12288
 2674 0354 00F0A681 		beq	.L392
 2675 0358 B3F5804F 		cmp	r3, #16384
 2676 035c 20D1     		bne	.L423
 2677 035e 764A     		ldr	r2, .L431
 2678 0360 D36C     		ldr	r3, [r2, #76]
 2679 0362 03F04053 		and	r3, r3, #805306368
 2680 0366 1268     		ldr	r2, [r2]
 2681 0368 12F0040F 		tst	r2, #4
 2682 036c 30D0     		beq	.L348
 2683 036e 7BBB     		cbnz	r3, .L348
 2684 0370 714B     		ldr	r3, .L431
 2685 0372 1B68     		ldr	r3, [r3]
 2686 0374 C3F3C103 		ubfx	r3, r3, #3, #2
 2687 0378 7048     		ldr	r0, .L431+4
 2688 037a D840     		lsrs	r0, r0, r3
 2689 037c 81E6     		b	.L307
 2690              	.L422:
 2691 037e 8BB1     		cbz	r3, .L345
 2692 0380 B3F5805F 		cmp	r3, #4096
 2693 0384 0AD1     		bne	.L424
 2694 0386 6C4B     		ldr	r3, .L431
 2695 0388 1868     		ldr	r0, [r3]
 2696 038a 10F00060 		ands	r0, r0, #134217728
 2697 038e 3FF478AE 		beq	.L307
 2698 0392 04A8     		add	r0, sp, #16
ARM GAS  C:\Users\aticl\AppData\Local\Temp\cc1ZIyt6.s 			page 48


 2699 0394 FFF7FEFF 		bl	HAL_RCCEx_GetPLL2ClockFreq
 2700 0398 0498     		ldr	r0, [sp, #16]
 2701 039a 72E6     		b	.L307
 2702              	.L424:
 2703 039c 0020     		movs	r0, #0
 2704 039e 70E6     		b	.L307
 2705              	.L423:
 2706 03a0 0020     		movs	r0, #0
 2707 03a2 6EE6     		b	.L307
 2708              	.L345:
 2709 03a4 644B     		ldr	r3, .L431
 2710 03a6 1868     		ldr	r0, [r3]
 2711 03a8 10F00070 		ands	r0, r0, #33554432
 2712 03ac 3FF469AE 		beq	.L307
 2713 03b0 07A8     		add	r0, sp, #28
 2714 03b2 FFF7FEFF 		bl	HAL_RCCEx_GetPLL1ClockFreq
 2715 03b6 0898     		ldr	r0, [sp, #32]
 2716 03b8 63E6     		b	.L307
 2717              	.L343:
 2718 03ba 5F4B     		ldr	r3, .L431
 2719 03bc 1868     		ldr	r0, [r3]
 2720 03be 10F00050 		ands	r0, r0, #536870912
 2721 03c2 3FF45EAE 		beq	.L307
 2722 03c6 01A8     		add	r0, sp, #4
 2723 03c8 FFF7FEFF 		bl	HAL_RCCEx_GetPLL3ClockFreq
 2724 03cc 0198     		ldr	r0, [sp, #4]
 2725 03ce 58E6     		b	.L307
 2726              	.L348:
 2727 03d0 594A     		ldr	r2, .L431
 2728 03d2 1268     		ldr	r2, [r2]
 2729 03d4 12F4807F 		tst	r2, #256
 2730 03d8 03D0     		beq	.L349
 2731 03da B3F1805F 		cmp	r3, #268435456
 2732 03de 00F06381 		beq	.L393
 2733              	.L349:
 2734 03e2 554A     		ldr	r2, .L431
 2735 03e4 1268     		ldr	r2, [r2]
 2736 03e6 12F4003F 		tst	r2, #131072
 2737 03ea 00F05F81 		beq	.L394
 2738 03ee B3F1005F 		cmp	r3, #536870912
 2739 03f2 00F05D81 		beq	.L395
 2740 03f6 0020     		movs	r0, #0
 2741 03f8 43E6     		b	.L307
 2742              	.L408:
 2743 03fa 4F4B     		ldr	r3, .L431
 2744 03fc 1B6D     		ldr	r3, [r3, #80]
 2745 03fe 03F4E023 		and	r3, r3, #458752
 2746 0402 B3F5403F 		cmp	r3, #196608
 2747 0406 32D0     		beq	.L351
 2748 0408 0BD8     		bhi	.L352
 2749 040a B3F5803F 		cmp	r3, #65536
 2750 040e 18D0     		beq	.L353
 2751 0410 B3F5003F 		cmp	r3, #131072
 2752 0414 20D0     		beq	.L354
 2753 0416 13B9     		cbnz	r3, .L425
 2754 0418 FFF7FEFF 		bl	HAL_RCC_GetPCLK1Freq
 2755 041c 31E6     		b	.L307
ARM GAS  C:\Users\aticl\AppData\Local\Temp\cc1ZIyt6.s 			page 49


 2756              	.L425:
 2757 041e 0020     		movs	r0, #0
 2758 0420 2FE6     		b	.L307
 2759              	.L352:
 2760 0422 B3F5802F 		cmp	r3, #262144
 2761 0426 2ED0     		beq	.L356
 2762 0428 B3F5A02F 		cmp	r3, #327680
 2763 042c 07D1     		bne	.L426
 2764 042e 424B     		ldr	r3, .L431
 2765 0430 1868     		ldr	r0, [r3]
 2766 0432 10F40030 		ands	r0, r0, #131072
 2767 0436 3FF424AE 		beq	.L307
 2768 043a 4148     		ldr	r0, .L431+8
 2769 043c 21E6     		b	.L307
 2770              	.L426:
 2771 043e 0020     		movs	r0, #0
 2772 0440 1FE6     		b	.L307
 2773              	.L353:
 2774 0442 3D4B     		ldr	r3, .L431
 2775 0444 1868     		ldr	r0, [r3]
 2776 0446 10F00060 		ands	r0, r0, #134217728
 2777 044a 3FF41AAE 		beq	.L307
 2778 044e 04A8     		add	r0, sp, #16
 2779 0450 FFF7FEFF 		bl	HAL_RCCEx_GetPLL2ClockFreq
 2780 0454 0598     		ldr	r0, [sp, #20]
 2781 0456 14E6     		b	.L307
 2782              	.L354:
 2783 0458 374B     		ldr	r3, .L431
 2784 045a 1868     		ldr	r0, [r3]
 2785 045c 10F00050 		ands	r0, r0, #536870912
 2786 0460 3FF40FAE 		beq	.L307
 2787 0464 01A8     		add	r0, sp, #4
 2788 0466 FFF7FEFF 		bl	HAL_RCCEx_GetPLL3ClockFreq
 2789 046a 0298     		ldr	r0, [sp, #8]
 2790 046c 09E6     		b	.L307
 2791              	.L351:
 2792 046e 324B     		ldr	r3, .L431
 2793 0470 1868     		ldr	r0, [r3]
 2794 0472 10F00400 		ands	r0, r0, #4
 2795 0476 3FF404AE 		beq	.L307
 2796 047a 1B68     		ldr	r3, [r3]
 2797 047c C3F3C103 		ubfx	r3, r3, #3, #2
 2798 0480 2E48     		ldr	r0, .L431+4
 2799 0482 D840     		lsrs	r0, r0, r3
 2800 0484 FDE5     		b	.L307
 2801              	.L356:
 2802 0486 2C4B     		ldr	r3, .L431
 2803 0488 1868     		ldr	r0, [r3]
 2804 048a 10F48070 		ands	r0, r0, #256
 2805 048e 3FF4F8AD 		beq	.L307
 2806 0492 2C48     		ldr	r0, .L431+12
 2807 0494 F5E5     		b	.L307
 2808              	.L409:
 2809 0496 284B     		ldr	r3, .L431
 2810 0498 9B6D     		ldr	r3, [r3, #88]
 2811 049a 03F44033 		and	r3, r3, #196608
 2812 049e B3F5803F 		cmp	r3, #65536
ARM GAS  C:\Users\aticl\AppData\Local\Temp\cc1ZIyt6.s 			page 50


 2813 04a2 10D0     		beq	.L359
 2814 04a4 B3F5003F 		cmp	r3, #131072
 2815 04a8 18D0     		beq	.L360
 2816 04aa 002B     		cmp	r3, #0
 2817 04ac 40F00281 		bne	.L396
 2818 04b0 214B     		ldr	r3, .L431
 2819 04b2 1868     		ldr	r0, [r3]
 2820 04b4 10F00060 		ands	r0, r0, #134217728
 2821 04b8 3FF4E3AD 		beq	.L307
 2822 04bc 04A8     		add	r0, sp, #16
 2823 04be FFF7FEFF 		bl	HAL_RCCEx_GetPLL2ClockFreq
 2824 04c2 0498     		ldr	r0, [sp, #16]
 2825 04c4 DDE5     		b	.L307
 2826              	.L359:
 2827 04c6 1C4B     		ldr	r3, .L431
 2828 04c8 1868     		ldr	r0, [r3]
 2829 04ca 10F00050 		ands	r0, r0, #536870912
 2830 04ce 3FF4D8AD 		beq	.L307
 2831 04d2 01A8     		add	r0, sp, #4
 2832 04d4 FFF7FEFF 		bl	HAL_RCCEx_GetPLL3ClockFreq
 2833 04d8 0398     		ldr	r0, [sp, #12]
 2834 04da D2E5     		b	.L307
 2835              	.L360:
 2836 04dc 164A     		ldr	r2, .L431
 2837 04de D36C     		ldr	r3, [r2, #76]
 2838 04e0 03F04053 		and	r3, r3, #805306368
 2839 04e4 1268     		ldr	r2, [r2]
 2840 04e6 12F0040F 		tst	r2, #4
 2841 04ea 07D0     		beq	.L361
 2842 04ec 33B9     		cbnz	r3, .L361
 2843 04ee 124B     		ldr	r3, .L431
 2844 04f0 1B68     		ldr	r3, [r3]
 2845 04f2 C3F3C103 		ubfx	r3, r3, #3, #2
 2846 04f6 1148     		ldr	r0, .L431+4
 2847 04f8 D840     		lsrs	r0, r0, r3
 2848 04fa C2E5     		b	.L307
 2849              	.L361:
 2850 04fc 0E4A     		ldr	r2, .L431
 2851 04fe 1268     		ldr	r2, [r2]
 2852 0500 12F4807F 		tst	r2, #256
 2853 0504 03D0     		beq	.L362
 2854 0506 B3F1805F 		cmp	r3, #268435456
 2855 050a 00F0D580 		beq	.L397
 2856              	.L362:
 2857 050e 0A4A     		ldr	r2, .L431
 2858 0510 1268     		ldr	r2, [r2]
 2859 0512 12F4003F 		tst	r2, #131072
 2860 0516 00F0D180 		beq	.L398
 2861 051a B3F1005F 		cmp	r3, #536870912
 2862 051e 00F0CF80 		beq	.L399
 2863 0522 0020     		movs	r0, #0
 2864 0524 ADE5     		b	.L307
 2865              	.L410:
 2866 0526 044B     		ldr	r3, .L431
 2867 0528 DB6C     		ldr	r3, [r3, #76]
 2868 052a 13F48033 		ands	r3, r3, #65536
 2869 052e 0BD0     		beq	.L364
ARM GAS  C:\Users\aticl\AppData\Local\Temp\cc1ZIyt6.s 			page 51


 2870 0530 ABB9     		cbnz	r3, .L365
 2871 0532 0020     		movs	r0, #0
 2872 0534 A5E5     		b	.L307
 2873              	.L432:
 2874 0536 00BF     		.align	2
 2875              	.L431:
 2876 0538 00440258 		.word	1476543488
 2877 053c 0090D003 		.word	64000000
 2878 0540 40787D01 		.word	25000000
 2879 0544 00093D00 		.word	4000000
 2880              	.L364:
 2881 0548 5F4B     		ldr	r3, .L433
 2882 054a 1868     		ldr	r0, [r3]
 2883 054c 10F00070 		ands	r0, r0, #33554432
 2884 0550 3FF497AD 		beq	.L307
 2885 0554 07A8     		add	r0, sp, #28
 2886 0556 FFF7FEFF 		bl	HAL_RCCEx_GetPLL1ClockFreq
 2887 055a 0898     		ldr	r0, [sp, #32]
 2888 055c 91E5     		b	.L307
 2889              	.L365:
 2890 055e 5A4B     		ldr	r3, .L433
 2891 0560 1868     		ldr	r0, [r3]
 2892 0562 10F00060 		ands	r0, r0, #134217728
 2893 0566 3FF48CAD 		beq	.L307
 2894 056a 04A8     		add	r0, sp, #16
 2895 056c FFF7FEFF 		bl	HAL_RCCEx_GetPLL2ClockFreq
 2896 0570 0698     		ldr	r0, [sp, #24]
 2897 0572 86E5     		b	.L307
 2898              	.L411:
 2899 0574 544B     		ldr	r3, .L433
 2900 0576 9B6D     		ldr	r3, [r3, #88]
 2901 0578 03F0E043 		and	r3, r3, #1879048192
 2902 057c B3F1405F 		cmp	r3, #805306368
 2903 0580 32D0     		beq	.L367
 2904 0582 0BD8     		bhi	.L368
 2905 0584 B3F1805F 		cmp	r3, #268435456
 2906 0588 18D0     		beq	.L369
 2907 058a B3F1005F 		cmp	r3, #536870912
 2908 058e 20D0     		beq	.L370
 2909 0590 13B9     		cbnz	r3, .L427
 2910 0592 FFF7FEFF 		bl	HAL_RCCEx_GetD3PCLK1Freq
 2911 0596 74E5     		b	.L307
 2912              	.L427:
 2913 0598 0020     		movs	r0, #0
 2914 059a 72E5     		b	.L307
 2915              	.L368:
 2916 059c B3F1804F 		cmp	r3, #1073741824
 2917 05a0 2ED0     		beq	.L372
 2918 05a2 B3F1A04F 		cmp	r3, #1342177280
 2919 05a6 07D1     		bne	.L428
 2920 05a8 474B     		ldr	r3, .L433
 2921 05aa 1868     		ldr	r0, [r3]
 2922 05ac 10F40030 		ands	r0, r0, #131072
 2923 05b0 3FF467AD 		beq	.L307
 2924 05b4 4548     		ldr	r0, .L433+4
 2925 05b6 64E5     		b	.L307
 2926              	.L428:
ARM GAS  C:\Users\aticl\AppData\Local\Temp\cc1ZIyt6.s 			page 52


 2927 05b8 0020     		movs	r0, #0
 2928 05ba 62E5     		b	.L307
 2929              	.L369:
 2930 05bc 424B     		ldr	r3, .L433
 2931 05be 1868     		ldr	r0, [r3]
 2932 05c0 10F00060 		ands	r0, r0, #134217728
 2933 05c4 3FF45DAD 		beq	.L307
 2934 05c8 04A8     		add	r0, sp, #16
 2935 05ca FFF7FEFF 		bl	HAL_RCCEx_GetPLL2ClockFreq
 2936 05ce 0598     		ldr	r0, [sp, #20]
 2937 05d0 57E5     		b	.L307
 2938              	.L370:
 2939 05d2 3D4B     		ldr	r3, .L433
 2940 05d4 1868     		ldr	r0, [r3]
 2941 05d6 10F00050 		ands	r0, r0, #536870912
 2942 05da 3FF452AD 		beq	.L307
 2943 05de 01A8     		add	r0, sp, #4
 2944 05e0 FFF7FEFF 		bl	HAL_RCCEx_GetPLL3ClockFreq
 2945 05e4 0298     		ldr	r0, [sp, #8]
 2946 05e6 4CE5     		b	.L307
 2947              	.L367:
 2948 05e8 374B     		ldr	r3, .L433
 2949 05ea 1868     		ldr	r0, [r3]
 2950 05ec 10F00400 		ands	r0, r0, #4
 2951 05f0 3FF447AD 		beq	.L307
 2952 05f4 1B68     		ldr	r3, [r3]
 2953 05f6 C3F3C103 		ubfx	r3, r3, #3, #2
 2954 05fa 3548     		ldr	r0, .L433+8
 2955 05fc D840     		lsrs	r0, r0, r3
 2956 05fe 40E5     		b	.L307
 2957              	.L372:
 2958 0600 314B     		ldr	r3, .L433
 2959 0602 1868     		ldr	r0, [r3]
 2960 0604 10F48070 		ands	r0, r0, #256
 2961 0608 3FF43BAD 		beq	.L307
 2962 060c 3148     		ldr	r0, .L433+12
 2963 060e 38E5     		b	.L307
 2964              	.L412:
 2965 0610 2D4B     		ldr	r3, .L433
 2966 0612 1B6D     		ldr	r3, [r3, #80]
 2967 0614 03F04053 		and	r3, r3, #805306368
 2968 0618 B3F1805F 		cmp	r3, #268435456
 2969 061c 0CD0     		beq	.L374
 2970 061e B3F1005F 		cmp	r3, #536870912
 2971 0622 14D0     		beq	.L375
 2972 0624 002B     		cmp	r3, #0
 2973 0626 4DD1     		bne	.L401
 2974 0628 274B     		ldr	r3, .L433
 2975 062a 1868     		ldr	r0, [r3]
 2976 062c 10F40030 		ands	r0, r0, #131072
 2977 0630 3FF427AD 		beq	.L307
 2978 0634 2548     		ldr	r0, .L433+4
 2979 0636 24E5     		b	.L307
 2980              	.L374:
 2981 0638 234B     		ldr	r3, .L433
 2982 063a 1868     		ldr	r0, [r3]
 2983 063c 10F00070 		ands	r0, r0, #33554432
ARM GAS  C:\Users\aticl\AppData\Local\Temp\cc1ZIyt6.s 			page 53


 2984 0640 3FF41FAD 		beq	.L307
 2985 0644 07A8     		add	r0, sp, #28
 2986 0646 FFF7FEFF 		bl	HAL_RCCEx_GetPLL1ClockFreq
 2987 064a 0898     		ldr	r0, [sp, #32]
 2988 064c 19E5     		b	.L307
 2989              	.L375:
 2990 064e 1E4B     		ldr	r3, .L433
 2991 0650 1868     		ldr	r0, [r3]
 2992 0652 10F00060 		ands	r0, r0, #134217728
 2993 0656 3FF414AD 		beq	.L307
 2994 065a 04A8     		add	r0, sp, #16
 2995 065c FFF7FEFF 		bl	HAL_RCCEx_GetPLL2ClockFreq
 2996 0660 0598     		ldr	r0, [sp, #20]
 2997 0662 0EE5     		b	.L307
 2998              	.L376:
 2999 0664 0020     		movs	r0, #0
 3000 0666 0CE5     		b	.L307
 3001              	.L377:
 3002 0668 1A48     		ldr	r0, .L433+12
 3003 066a 0AE5     		b	.L307
 3004              	.L378:
 3005 066c 0020     		movs	r0, #0
 3006 066e 08E5     		b	.L307
 3007              	.L379:
 3008 0670 1648     		ldr	r0, .L433+4
 3009 0672 06E5     		b	.L307
 3010              	.L380:
 3011 0674 1848     		ldr	r0, .L433+16
 3012 0676 04E5     		b	.L307
 3013              	.L381:
 3014 0678 1648     		ldr	r0, .L433+12
 3015 067a 02E5     		b	.L307
 3016              	.L382:
 3017 067c 0020     		movs	r0, #0
 3018 067e 00E5     		b	.L307
 3019              	.L383:
 3020 0680 1248     		ldr	r0, .L433+4
 3021 0682 FEE4     		b	.L307
 3022              	.L384:
 3023 0684 1448     		ldr	r0, .L433+16
 3024 0686 FCE4     		b	.L307
 3025              	.L385:
 3026 0688 1248     		ldr	r0, .L433+12
 3027 068a FAE4     		b	.L307
 3028              	.L386:
 3029 068c 0020     		movs	r0, #0
 3030 068e F8E4     		b	.L307
 3031              	.L387:
 3032 0690 0E48     		ldr	r0, .L433+4
 3033 0692 F6E4     		b	.L307
 3034              	.L388:
 3035 0694 1048     		ldr	r0, .L433+16
 3036 0696 F4E4     		b	.L307
 3037              	.L389:
 3038 0698 0E48     		ldr	r0, .L433+12
 3039 069a F2E4     		b	.L307
 3040              	.L390:
ARM GAS  C:\Users\aticl\AppData\Local\Temp\cc1ZIyt6.s 			page 54


 3041 069c 0020     		movs	r0, #0
 3042 069e F0E4     		b	.L307
 3043              	.L391:
 3044 06a0 0A48     		ldr	r0, .L433+4
 3045 06a2 EEE4     		b	.L307
 3046              	.L392:
 3047 06a4 0C48     		ldr	r0, .L433+16
 3048 06a6 ECE4     		b	.L307
 3049              	.L393:
 3050 06a8 0A48     		ldr	r0, .L433+12
 3051 06aa EAE4     		b	.L307
 3052              	.L394:
 3053 06ac 0020     		movs	r0, #0
 3054 06ae E8E4     		b	.L307
 3055              	.L395:
 3056 06b0 0648     		ldr	r0, .L433+4
 3057 06b2 E6E4     		b	.L307
 3058              	.L396:
 3059 06b4 0020     		movs	r0, #0
 3060 06b6 E4E4     		b	.L307
 3061              	.L397:
 3062 06b8 0648     		ldr	r0, .L433+12
 3063 06ba E2E4     		b	.L307
 3064              	.L398:
 3065 06bc 0020     		movs	r0, #0
 3066 06be E0E4     		b	.L307
 3067              	.L399:
 3068 06c0 0248     		ldr	r0, .L433+4
 3069 06c2 DEE4     		b	.L307
 3070              	.L401:
 3071 06c4 0020     		movs	r0, #0
 3072 06c6 DCE4     		b	.L307
 3073              	.L434:
 3074              		.align	2
 3075              	.L433:
 3076 06c8 00440258 		.word	1476543488
 3077 06cc 40787D01 		.word	25000000
 3078 06d0 0090D003 		.word	64000000
 3079 06d4 00093D00 		.word	4000000
 3080 06d8 0080BB00 		.word	12288000
 3082              		.section	.text.HAL_RCCEx_GetD1SysClockFreq,"ax",%progbits
 3083              		.align	1
 3084              		.global	HAL_RCCEx_GetD1SysClockFreq
 3085              		.syntax unified
 3086              		.thumb
 3087              		.thumb_func
 3089              	HAL_RCCEx_GetD1SysClockFreq:
 3090              		@ args = 0, pretend = 0, frame = 0
 3091              		@ frame_needed = 0, uses_anonymous_args = 0
 3092 0000 08B5     		push	{r3, lr}
 3093 0002 FFF7FEFF 		bl	HAL_RCC_GetSysClockFreq
 3094 0006 0B49     		ldr	r1, .L437
 3095 0008 8B69     		ldr	r3, [r1, #24]
 3096 000a C3F30323 		ubfx	r3, r3, #8, #4
 3097 000e 0A4A     		ldr	r2, .L437+4
 3098 0010 D35C     		ldrb	r3, [r2, r3]	@ zero_extendqisi2
 3099 0012 03F01F03 		and	r3, r3, #31
ARM GAS  C:\Users\aticl\AppData\Local\Temp\cc1ZIyt6.s 			page 55


 3100 0016 D840     		lsrs	r0, r0, r3
 3101 0018 8B69     		ldr	r3, [r1, #24]
 3102 001a 03F00F03 		and	r3, r3, #15
 3103 001e D35C     		ldrb	r3, [r2, r3]	@ zero_extendqisi2
 3104 0020 03F01F03 		and	r3, r3, #31
 3105 0024 20FA03F3 		lsr	r3, r0, r3
 3106 0028 044A     		ldr	r2, .L437+8
 3107 002a 1360     		str	r3, [r2]
 3108 002c 044B     		ldr	r3, .L437+12
 3109 002e 1860     		str	r0, [r3]
 3110 0030 08BD     		pop	{r3, pc}
 3111              	.L438:
 3112 0032 00BF     		.align	2
 3113              	.L437:
 3114 0034 00440258 		.word	1476543488
 3115 0038 00000000 		.word	D1CorePrescTable
 3116 003c 00000000 		.word	SystemD2Clock
 3117 0040 00000000 		.word	SystemCoreClock
 3119              		.section	.text.HAL_RCCEx_EnableLSECSS,"ax",%progbits
 3120              		.align	1
 3121              		.global	HAL_RCCEx_EnableLSECSS
 3122              		.syntax unified
 3123              		.thumb
 3124              		.thumb_func
 3126              	HAL_RCCEx_EnableLSECSS:
 3127              		@ args = 0, pretend = 0, frame = 0
 3128              		@ frame_needed = 0, uses_anonymous_args = 0
 3129              		@ link register save eliminated.
 3130 0000 024A     		ldr	r2, .L440
 3131 0002 136F     		ldr	r3, [r2, #112]
 3132 0004 43F02003 		orr	r3, r3, #32
 3133 0008 1367     		str	r3, [r2, #112]
 3134 000a 7047     		bx	lr
 3135              	.L441:
 3136              		.align	2
 3137              	.L440:
 3138 000c 00440258 		.word	1476543488
 3140              		.section	.text.HAL_RCCEx_DisableLSECSS,"ax",%progbits
 3141              		.align	1
 3142              		.global	HAL_RCCEx_DisableLSECSS
 3143              		.syntax unified
 3144              		.thumb
 3145              		.thumb_func
 3147              	HAL_RCCEx_DisableLSECSS:
 3148              		@ args = 0, pretend = 0, frame = 0
 3149              		@ frame_needed = 0, uses_anonymous_args = 0
 3150              		@ link register save eliminated.
 3151 0000 044B     		ldr	r3, .L443
 3152 0002 1A6F     		ldr	r2, [r3, #112]
 3153 0004 22F02002 		bic	r2, r2, #32
 3154 0008 1A67     		str	r2, [r3, #112]
 3155 000a 1A6E     		ldr	r2, [r3, #96]
 3156 000c 22F40072 		bic	r2, r2, #512
 3157 0010 1A66     		str	r2, [r3, #96]
 3158 0012 7047     		bx	lr
 3159              	.L444:
 3160              		.align	2
ARM GAS  C:\Users\aticl\AppData\Local\Temp\cc1ZIyt6.s 			page 56


 3161              	.L443:
 3162 0014 00440258 		.word	1476543488
 3164              		.section	.text.HAL_RCCEx_EnableLSECSS_IT,"ax",%progbits
 3165              		.align	1
 3166              		.global	HAL_RCCEx_EnableLSECSS_IT
 3167              		.syntax unified
 3168              		.thumb
 3169              		.thumb_func
 3171              	HAL_RCCEx_EnableLSECSS_IT:
 3172              		@ args = 0, pretend = 0, frame = 0
 3173              		@ frame_needed = 0, uses_anonymous_args = 0
 3174              		@ link register save eliminated.
 3175 0000 0A4B     		ldr	r3, .L446
 3176 0002 1A6F     		ldr	r2, [r3, #112]
 3177 0004 42F02002 		orr	r2, r2, #32
 3178 0008 1A67     		str	r2, [r3, #112]
 3179 000a 1A6E     		ldr	r2, [r3, #96]
 3180 000c 42F40072 		orr	r2, r2, #512
 3181 0010 1A66     		str	r2, [r3, #96]
 3182 0012 4FF0B043 		mov	r3, #1476395008
 3183 0016 D3F88020 		ldr	r2, [r3, #128]
 3184 001a 42F48022 		orr	r2, r2, #262144
 3185 001e C3F88020 		str	r2, [r3, #128]
 3186 0022 1A68     		ldr	r2, [r3]
 3187 0024 42F48022 		orr	r2, r2, #262144
 3188 0028 1A60     		str	r2, [r3]
 3189 002a 7047     		bx	lr
 3190              	.L447:
 3191              		.align	2
 3192              	.L446:
 3193 002c 00440258 		.word	1476543488
 3195              		.section	.text.HAL_RCCEx_WakeUpStopCLKConfig,"ax",%progbits
 3196              		.align	1
 3197              		.global	HAL_RCCEx_WakeUpStopCLKConfig
 3198              		.syntax unified
 3199              		.thumb
 3200              		.thumb_func
 3202              	HAL_RCCEx_WakeUpStopCLKConfig:
 3203              		@ args = 0, pretend = 0, frame = 0
 3204              		@ frame_needed = 0, uses_anonymous_args = 0
 3205              		@ link register save eliminated.
 3206 0000 034A     		ldr	r2, .L449
 3207 0002 1369     		ldr	r3, [r2, #16]
 3208 0004 23F04003 		bic	r3, r3, #64
 3209 0008 0343     		orrs	r3, r3, r0
 3210 000a 1361     		str	r3, [r2, #16]
 3211 000c 7047     		bx	lr
 3212              	.L450:
 3213 000e 00BF     		.align	2
 3214              	.L449:
 3215 0010 00440258 		.word	1476543488
 3217              		.section	.text.HAL_RCCEx_KerWakeUpStopCLKConfig,"ax",%progbits
 3218              		.align	1
 3219              		.global	HAL_RCCEx_KerWakeUpStopCLKConfig
 3220              		.syntax unified
 3221              		.thumb
 3222              		.thumb_func
ARM GAS  C:\Users\aticl\AppData\Local\Temp\cc1ZIyt6.s 			page 57


 3224              	HAL_RCCEx_KerWakeUpStopCLKConfig:
 3225              		@ args = 0, pretend = 0, frame = 0
 3226              		@ frame_needed = 0, uses_anonymous_args = 0
 3227              		@ link register save eliminated.
 3228 0000 034A     		ldr	r2, .L452
 3229 0002 1369     		ldr	r3, [r2, #16]
 3230 0004 23F08003 		bic	r3, r3, #128
 3231 0008 0343     		orrs	r3, r3, r0
 3232 000a 1361     		str	r3, [r2, #16]
 3233 000c 7047     		bx	lr
 3234              	.L453:
 3235 000e 00BF     		.align	2
 3236              	.L452:
 3237 0010 00440258 		.word	1476543488
 3239              		.section	.text.HAL_RCCEx_WWDGxSysResetConfig,"ax",%progbits
 3240              		.align	1
 3241              		.global	HAL_RCCEx_WWDGxSysResetConfig
 3242              		.syntax unified
 3243              		.thumb
 3244              		.thumb_func
 3246              	HAL_RCCEx_WWDGxSysResetConfig:
 3247              		@ args = 0, pretend = 0, frame = 0
 3248              		@ frame_needed = 0, uses_anonymous_args = 0
 3249              		@ link register save eliminated.
 3250 0000 034A     		ldr	r2, .L455
 3251 0002 D2F8A030 		ldr	r3, [r2, #160]
 3252 0006 0343     		orrs	r3, r3, r0
 3253 0008 C2F8A030 		str	r3, [r2, #160]
 3254 000c 7047     		bx	lr
 3255              	.L456:
 3256 000e 00BF     		.align	2
 3257              	.L455:
 3258 0010 00440258 		.word	1476543488
 3260              		.section	.text.HAL_RCCEx_CRSConfig,"ax",%progbits
 3261              		.align	1
 3262              		.global	HAL_RCCEx_CRSConfig
 3263              		.syntax unified
 3264              		.thumb
 3265              		.thumb_func
 3267              	HAL_RCCEx_CRSConfig:
 3268              		@ args = 0, pretend = 0, frame = 0
 3269              		@ frame_needed = 0, uses_anonymous_args = 0
 3270 0000 10B5     		push	{r4, lr}
 3271 0002 0446     		mov	r4, r0
 3272 0004 194B     		ldr	r3, .L462
 3273 0006 D3F89420 		ldr	r2, [r3, #148]
 3274 000a 42F00202 		orr	r2, r2, #2
 3275 000e C3F89420 		str	r2, [r3, #148]
 3276 0012 D3F89420 		ldr	r2, [r3, #148]
 3277 0016 22F00202 		bic	r2, r2, #2
 3278 001a C3F89420 		str	r2, [r3, #148]
 3279 001e FFF7FEFF 		bl	HAL_GetREVID
 3280 0022 41F20303 		movw	r3, #4099
 3281 0026 9842     		cmp	r0, r3
 3282 0028 03D8     		bhi	.L458
 3283 002a 6368     		ldr	r3, [r4, #4]
 3284 002c B3F1405F 		cmp	r3, #805306368
ARM GAS  C:\Users\aticl\AppData\Local\Temp\cc1ZIyt6.s 			page 58


 3285 0030 17D0     		beq	.L461
 3286              	.L458:
 3287 0032 2268     		ldr	r2, [r4]
 3288 0034 6368     		ldr	r3, [r4, #4]
 3289 0036 1A43     		orrs	r2, r2, r3
 3290 0038 A368     		ldr	r3, [r4, #8]
 3291 003a 1A43     		orrs	r2, r2, r3
 3292              	.L459:
 3293 003c E368     		ldr	r3, [r4, #12]
 3294 003e 1343     		orrs	r3, r3, r2
 3295 0040 2269     		ldr	r2, [r4, #16]
 3296 0042 43EA0242 		orr	r2, r3, r2, lsl #16
 3297 0046 0A4B     		ldr	r3, .L462+4
 3298 0048 5A60     		str	r2, [r3, #4]
 3299 004a 1A68     		ldr	r2, [r3]
 3300 004c 22F47C52 		bic	r2, r2, #16128
 3301 0050 6169     		ldr	r1, [r4, #20]
 3302 0052 42EA0122 		orr	r2, r2, r1, lsl #8
 3303 0056 1A60     		str	r2, [r3]
 3304 0058 1A68     		ldr	r2, [r3]
 3305 005a 42F06002 		orr	r2, r2, #96
 3306 005e 1A60     		str	r2, [r3]
 3307 0060 10BD     		pop	{r4, pc}
 3308              	.L461:
 3309 0062 2268     		ldr	r2, [r4]
 3310 0064 A368     		ldr	r3, [r4, #8]
 3311 0066 1A43     		orrs	r2, r2, r3
 3312 0068 E8E7     		b	.L459
 3313              	.L463:
 3314 006a 00BF     		.align	2
 3315              	.L462:
 3316 006c 00440258 		.word	1476543488
 3317 0070 00840040 		.word	1073775616
 3319              		.section	.text.HAL_RCCEx_CRSSoftwareSynchronizationGenerate,"ax",%progbits
 3320              		.align	1
 3321              		.global	HAL_RCCEx_CRSSoftwareSynchronizationGenerate
 3322              		.syntax unified
 3323              		.thumb
 3324              		.thumb_func
 3326              	HAL_RCCEx_CRSSoftwareSynchronizationGenerate:
 3327              		@ args = 0, pretend = 0, frame = 0
 3328              		@ frame_needed = 0, uses_anonymous_args = 0
 3329              		@ link register save eliminated.
 3330 0000 024A     		ldr	r2, .L465
 3331 0002 1368     		ldr	r3, [r2]
 3332 0004 43F08003 		orr	r3, r3, #128
 3333 0008 1360     		str	r3, [r2]
 3334 000a 7047     		bx	lr
 3335              	.L466:
 3336              		.align	2
 3337              	.L465:
 3338 000c 00840040 		.word	1073775616
 3340              		.section	.text.HAL_RCCEx_CRSGetSynchronizationInfo,"ax",%progbits
 3341              		.align	1
 3342              		.global	HAL_RCCEx_CRSGetSynchronizationInfo
 3343              		.syntax unified
 3344              		.thumb
ARM GAS  C:\Users\aticl\AppData\Local\Temp\cc1ZIyt6.s 			page 59


 3345              		.thumb_func
 3347              	HAL_RCCEx_CRSGetSynchronizationInfo:
 3348              		@ args = 0, pretend = 0, frame = 0
 3349              		@ frame_needed = 0, uses_anonymous_args = 0
 3350              		@ link register save eliminated.
 3351 0000 074B     		ldr	r3, .L468
 3352 0002 5A68     		ldr	r2, [r3, #4]
 3353 0004 92B2     		uxth	r2, r2
 3354 0006 0260     		str	r2, [r0]
 3355 0008 1A68     		ldr	r2, [r3]
 3356 000a C2F30522 		ubfx	r2, r2, #8, #6
 3357 000e 4260     		str	r2, [r0, #4]
 3358 0010 9A68     		ldr	r2, [r3, #8]
 3359 0012 120C     		lsrs	r2, r2, #16
 3360 0014 8260     		str	r2, [r0, #8]
 3361 0016 9B68     		ldr	r3, [r3, #8]
 3362 0018 03F40043 		and	r3, r3, #32768
 3363 001c C360     		str	r3, [r0, #12]
 3364 001e 7047     		bx	lr
 3365              	.L469:
 3366              		.align	2
 3367              	.L468:
 3368 0020 00840040 		.word	1073775616
 3370              		.section	.text.HAL_RCCEx_CRSWaitSynchronization,"ax",%progbits
 3371              		.align	1
 3372              		.global	HAL_RCCEx_CRSWaitSynchronization
 3373              		.syntax unified
 3374              		.thumb
 3375              		.thumb_func
 3377              	HAL_RCCEx_CRSWaitSynchronization:
 3378              		@ args = 0, pretend = 0, frame = 0
 3379              		@ frame_needed = 0, uses_anonymous_args = 0
 3380 0000 70B5     		push	{r4, r5, r6, lr}
 3381 0002 0546     		mov	r5, r0
 3382 0004 FFF7FEFF 		bl	HAL_GetTick
 3383 0008 0646     		mov	r6, r0
 3384 000a 0024     		movs	r4, #0
 3385 000c 0BE0     		b	.L478
 3386              	.L483:
 3387 000e FFF7FEFF 		bl	HAL_GetTick
 3388 0012 801B     		subs	r0, r0, r6
 3389 0014 A842     		cmp	r0, r5
 3390 0016 02D8     		bhi	.L479
 3391 0018 45B9     		cbnz	r5, .L471
 3392 001a 0124     		movs	r4, #1
 3393 001c 06E0     		b	.L471
 3394              	.L479:
 3395 001e 0124     		movs	r4, #1
 3396 0020 04E0     		b	.L471
 3397              	.L477:
 3398 0022 002C     		cmp	r4, #0
 3399 0024 3DD1     		bne	.L482
 3400              	.L478:
 3401 0026 B5F1FF3F 		cmp	r5, #-1
 3402 002a F0D1     		bne	.L483
 3403              	.L471:
 3404 002c 1E4B     		ldr	r3, .L484
ARM GAS  C:\Users\aticl\AppData\Local\Temp\cc1ZIyt6.s 			page 60


 3405 002e 9B68     		ldr	r3, [r3, #8]
 3406 0030 13F0010F 		tst	r3, #1
 3407 0034 04D0     		beq	.L472
 3408 0036 44F00204 		orr	r4, r4, #2
 3409 003a 1B4B     		ldr	r3, .L484
 3410 003c 0122     		movs	r2, #1
 3411 003e DA60     		str	r2, [r3, #12]
 3412              	.L472:
 3413 0040 194B     		ldr	r3, .L484
 3414 0042 9B68     		ldr	r3, [r3, #8]
 3415 0044 13F0020F 		tst	r3, #2
 3416 0048 04D0     		beq	.L473
 3417 004a 44F00404 		orr	r4, r4, #4
 3418 004e 164B     		ldr	r3, .L484
 3419 0050 0222     		movs	r2, #2
 3420 0052 DA60     		str	r2, [r3, #12]
 3421              	.L473:
 3422 0054 144B     		ldr	r3, .L484
 3423 0056 9B68     		ldr	r3, [r3, #8]
 3424 0058 13F4806F 		tst	r3, #1024
 3425 005c 04D0     		beq	.L474
 3426 005e 44F02004 		orr	r4, r4, #32
 3427 0062 114B     		ldr	r3, .L484
 3428 0064 0422     		movs	r2, #4
 3429 0066 DA60     		str	r2, [r3, #12]
 3430              	.L474:
 3431 0068 0F4B     		ldr	r3, .L484
 3432 006a 9B68     		ldr	r3, [r3, #8]
 3433 006c 13F4807F 		tst	r3, #256
 3434 0070 04D0     		beq	.L475
 3435 0072 44F00804 		orr	r4, r4, #8
 3436 0076 0C4B     		ldr	r3, .L484
 3437 0078 0422     		movs	r2, #4
 3438 007a DA60     		str	r2, [r3, #12]
 3439              	.L475:
 3440 007c 0A4B     		ldr	r3, .L484
 3441 007e 9B68     		ldr	r3, [r3, #8]
 3442 0080 13F4007F 		tst	r3, #512
 3443 0084 04D0     		beq	.L476
 3444 0086 44F01004 		orr	r4, r4, #16
 3445 008a 074B     		ldr	r3, .L484
 3446 008c 0422     		movs	r2, #4
 3447 008e DA60     		str	r2, [r3, #12]
 3448              	.L476:
 3449 0090 054B     		ldr	r3, .L484
 3450 0092 9B68     		ldr	r3, [r3, #8]
 3451 0094 13F0080F 		tst	r3, #8
 3452 0098 C3D0     		beq	.L477
 3453 009a 034B     		ldr	r3, .L484
 3454 009c 0822     		movs	r2, #8
 3455 009e DA60     		str	r2, [r3, #12]
 3456 00a0 BFE7     		b	.L477
 3457              	.L482:
 3458 00a2 2046     		mov	r0, r4
 3459 00a4 70BD     		pop	{r4, r5, r6, pc}
 3460              	.L485:
 3461 00a6 00BF     		.align	2
ARM GAS  C:\Users\aticl\AppData\Local\Temp\cc1ZIyt6.s 			page 61


 3462              	.L484:
 3463 00a8 00840040 		.word	1073775616
 3465              		.section	.text.HAL_RCCEx_CRS_SyncOkCallback,"ax",%progbits
 3466              		.align	1
 3467              		.weak	HAL_RCCEx_CRS_SyncOkCallback
 3468              		.syntax unified
 3469              		.thumb
 3470              		.thumb_func
 3472              	HAL_RCCEx_CRS_SyncOkCallback:
 3473              		@ args = 0, pretend = 0, frame = 0
 3474              		@ frame_needed = 0, uses_anonymous_args = 0
 3475              		@ link register save eliminated.
 3476 0000 7047     		bx	lr
 3478              		.section	.text.HAL_RCCEx_CRS_SyncWarnCallback,"ax",%progbits
 3479              		.align	1
 3480              		.weak	HAL_RCCEx_CRS_SyncWarnCallback
 3481              		.syntax unified
 3482              		.thumb
 3483              		.thumb_func
 3485              	HAL_RCCEx_CRS_SyncWarnCallback:
 3486              		@ args = 0, pretend = 0, frame = 0
 3487              		@ frame_needed = 0, uses_anonymous_args = 0
 3488              		@ link register save eliminated.
 3489 0000 7047     		bx	lr
 3491              		.section	.text.HAL_RCCEx_CRS_ExpectedSyncCallback,"ax",%progbits
 3492              		.align	1
 3493              		.weak	HAL_RCCEx_CRS_ExpectedSyncCallback
 3494              		.syntax unified
 3495              		.thumb
 3496              		.thumb_func
 3498              	HAL_RCCEx_CRS_ExpectedSyncCallback:
 3499              		@ args = 0, pretend = 0, frame = 0
 3500              		@ frame_needed = 0, uses_anonymous_args = 0
 3501              		@ link register save eliminated.
 3502 0000 7047     		bx	lr
 3504              		.section	.text.HAL_RCCEx_CRS_ErrorCallback,"ax",%progbits
 3505              		.align	1
 3506              		.weak	HAL_RCCEx_CRS_ErrorCallback
 3507              		.syntax unified
 3508              		.thumb
 3509              		.thumb_func
 3511              	HAL_RCCEx_CRS_ErrorCallback:
 3512              		@ args = 0, pretend = 0, frame = 0
 3513              		@ frame_needed = 0, uses_anonymous_args = 0
 3514              		@ link register save eliminated.
 3515 0000 7047     		bx	lr
 3517              		.section	.text.HAL_RCCEx_CRS_IRQHandler,"ax",%progbits
 3518              		.align	1
 3519              		.global	HAL_RCCEx_CRS_IRQHandler
 3520              		.syntax unified
 3521              		.thumb
 3522              		.thumb_func
 3524              	HAL_RCCEx_CRS_IRQHandler:
 3525              		@ args = 0, pretend = 0, frame = 0
 3526              		@ frame_needed = 0, uses_anonymous_args = 0
 3527 0000 08B5     		push	{r3, lr}
 3528 0002 204A     		ldr	r2, .L503
ARM GAS  C:\Users\aticl\AppData\Local\Temp\cc1ZIyt6.s 			page 62


 3529 0004 9368     		ldr	r3, [r2, #8]
 3530 0006 1268     		ldr	r2, [r2]
 3531 0008 13F0010F 		tst	r3, #1
 3532 000c 02D0     		beq	.L491
 3533 000e 12F0010F 		tst	r2, #1
 3534 0012 25D1     		bne	.L500
 3535              	.L491:
 3536 0014 13F0020F 		tst	r3, #2
 3537 0018 02D0     		beq	.L493
 3538 001a 12F0020F 		tst	r2, #2
 3539 001e 25D1     		bne	.L501
 3540              	.L493:
 3541 0020 13F0080F 		tst	r3, #8
 3542 0024 02D0     		beq	.L494
 3543 0026 12F0080F 		tst	r2, #8
 3544 002a 25D1     		bne	.L502
 3545              	.L494:
 3546 002c 13F0040F 		tst	r3, #4
 3547 0030 1BD0     		beq	.L490
 3548 0032 12F0040F 		tst	r2, #4
 3549 0036 18D0     		beq	.L490
 3550 0038 13F48070 		ands	r0, r3, #256
 3551 003c 00D0     		beq	.L495
 3552 003e 0820     		movs	r0, #8
 3553              	.L495:
 3554 0040 13F4007F 		tst	r3, #512
 3555 0044 01D0     		beq	.L496
 3556 0046 40F01000 		orr	r0, r0, #16
 3557              	.L496:
 3558 004a 13F4806F 		tst	r3, #1024
 3559 004e 01D0     		beq	.L497
 3560 0050 40F02000 		orr	r0, r0, #32
 3561              	.L497:
 3562 0054 0B4B     		ldr	r3, .L503
 3563 0056 0422     		movs	r2, #4
 3564 0058 DA60     		str	r2, [r3, #12]
 3565 005a FFF7FEFF 		bl	HAL_RCCEx_CRS_ErrorCallback
 3566 005e 04E0     		b	.L490
 3567              	.L500:
 3568 0060 084B     		ldr	r3, .L503
 3569 0062 0122     		movs	r2, #1
 3570 0064 DA60     		str	r2, [r3, #12]
 3571 0066 FFF7FEFF 		bl	HAL_RCCEx_CRS_SyncOkCallback
 3572              	.L490:
 3573 006a 08BD     		pop	{r3, pc}
 3574              	.L501:
 3575 006c 054B     		ldr	r3, .L503
 3576 006e 0222     		movs	r2, #2
 3577 0070 DA60     		str	r2, [r3, #12]
 3578 0072 FFF7FEFF 		bl	HAL_RCCEx_CRS_SyncWarnCallback
 3579 0076 F8E7     		b	.L490
 3580              	.L502:
 3581 0078 024B     		ldr	r3, .L503
 3582 007a 0822     		movs	r2, #8
 3583 007c DA60     		str	r2, [r3, #12]
 3584 007e FFF7FEFF 		bl	HAL_RCCEx_CRS_ExpectedSyncCallback
 3585 0082 F2E7     		b	.L490
ARM GAS  C:\Users\aticl\AppData\Local\Temp\cc1ZIyt6.s 			page 63


 3586              	.L504:
 3587              		.align	2
 3588              	.L503:
 3589 0084 00840040 		.word	1073775616
 3591              		.section	.text.HAL_RCCEx_LSECSS_Callback,"ax",%progbits
 3592              		.align	1
 3593              		.weak	HAL_RCCEx_LSECSS_Callback
 3594              		.syntax unified
 3595              		.thumb
 3596              		.thumb_func
 3598              	HAL_RCCEx_LSECSS_Callback:
 3599              		@ args = 0, pretend = 0, frame = 0
 3600              		@ frame_needed = 0, uses_anonymous_args = 0
 3601              		@ link register save eliminated.
 3602 0000 7047     		bx	lr
 3604              		.section	.text.HAL_RCCEx_LSECSS_IRQHandler,"ax",%progbits
 3605              		.align	1
 3606              		.global	HAL_RCCEx_LSECSS_IRQHandler
 3607              		.syntax unified
 3608              		.thumb
 3609              		.thumb_func
 3611              	HAL_RCCEx_LSECSS_IRQHandler:
 3612              		@ args = 0, pretend = 0, frame = 0
 3613              		@ frame_needed = 0, uses_anonymous_args = 0
 3614 0000 08B5     		push	{r3, lr}
 3615 0002 064B     		ldr	r3, .L510
 3616 0004 5B6E     		ldr	r3, [r3, #100]
 3617 0006 13F4007F 		tst	r3, #512
 3618 000a 00D1     		bne	.L509
 3619              	.L506:
 3620 000c 08BD     		pop	{r3, pc}
 3621              	.L509:
 3622 000e 034B     		ldr	r3, .L510
 3623 0010 4FF40072 		mov	r2, #512
 3624 0014 9A66     		str	r2, [r3, #104]
 3625 0016 FFF7FEFF 		bl	HAL_RCCEx_LSECSS_Callback
 3626 001a F7E7     		b	.L506
 3627              	.L511:
 3628              		.align	2
 3629              	.L510:
 3630 001c 00440258 		.word	1476543488
 3632              		.ident	"GCC: (xPack GNU Arm Embedded GCC x86_64) 14.2.1 20241119"
ARM GAS  C:\Users\aticl\AppData\Local\Temp\cc1ZIyt6.s 			page 64

