ARM GAS  C:\Users\aticl\AppData\Local\Temp\ccqcvH4b.s 			page 1


   1              		.cpu cortex-m7
   2              		.arch armv7e-m
   3              		.fpu fpv5-d16
   4              		.eabi_attribute 28, 1
   5              		.eabi_attribute 20, 1
   6              		.eabi_attribute 21, 1
   7              		.eabi_attribute 23, 3
   8              		.eabi_attribute 24, 1
   9              		.eabi_attribute 25, 1
  10              		.eabi_attribute 26, 1
  11              		.eabi_attribute 30, 1
  12              		.eabi_attribute 34, 1
  13              		.eabi_attribute 18, 4
  14              		.file	"stm32h7xx_hal_tim.c"
  15              		.text
  16              		.section	.text.TIM_OC1_SetConfig,"ax",%progbits
  17              		.align	1
  18              		.syntax unified
  19              		.thumb
  20              		.thumb_func
  22              	TIM_OC1_SetConfig:
  23              		@ args = 0, pretend = 0, frame = 0
  24              		@ frame_needed = 0, uses_anonymous_args = 0
  25              		@ link register save eliminated.
  26 0000 F0B4     		push	{r4, r5, r6, r7}
  27 0002 026A     		ldr	r2, [r0, #32]
  28 0004 036A     		ldr	r3, [r0, #32]
  29 0006 23F00103 		bic	r3, r3, #1
  30 000a 0362     		str	r3, [r0, #32]
  31 000c 4668     		ldr	r6, [r0, #4]
  32 000e 8469     		ldr	r4, [r0, #24]
  33 0010 1E4B     		ldr	r3, .L7
  34 0012 2340     		ands	r3, r3, r4
  35 0014 0D68     		ldr	r5, [r1]
  36 0016 1D43     		orrs	r5, r5, r3
  37 0018 22F00202 		bic	r2, r2, #2
  38 001c 8B68     		ldr	r3, [r1, #8]
  39 001e 1343     		orrs	r3, r3, r2
  40 0020 1B4A     		ldr	r2, .L7+4
  41 0022 1C4C     		ldr	r4, .L7+8
  42 0024 A042     		cmp	r0, r4
  43 0026 18BF     		it	ne
  44 0028 9042     		cmpne	r0, r2
  45 002a 0CBF     		ite	eq
  46 002c 0122     		moveq	r2, #1
  47 002e 0022     		movne	r2, #0
  48 0030 0CD0     		beq	.L2
  49 0032 04F58044 		add	r4, r4, #16384
  50 0036 A042     		cmp	r0, r4
  51 0038 14BF     		ite	ne
  52 003a 0024     		movne	r4, #0
  53 003c 0124     		moveq	r4, #1
  54 003e 164F     		ldr	r7, .L7+12
  55 0040 B842     		cmp	r0, r7
  56 0042 03D0     		beq	.L2
  57 0044 14B9     		cbnz	r4, .L2
  58 0046 154C     		ldr	r4, .L7+16
ARM GAS  C:\Users\aticl\AppData\Local\Temp\ccqcvH4b.s 			page 2


  59 0048 A042     		cmp	r0, r4
  60 004a 05D1     		bne	.L3
  61              	.L2:
  62 004c 23F00803 		bic	r3, r3, #8
  63 0050 CC68     		ldr	r4, [r1, #12]
  64 0052 2343     		orrs	r3, r3, r4
  65 0054 23F00403 		bic	r3, r3, #4
  66              	.L3:
  67 0058 5AB9     		cbnz	r2, .L4
  68 005a 114A     		ldr	r2, .L7+20
  69 005c 9042     		cmp	r0, r2
  70 005e 14BF     		ite	ne
  71 0060 0022     		movne	r2, #0
  72 0062 0122     		moveq	r2, #1
  73 0064 0C4C     		ldr	r4, .L7+12
  74 0066 A042     		cmp	r0, r4
  75 0068 03D0     		beq	.L4
  76 006a 12B9     		cbnz	r2, .L4
  77 006c 0B4A     		ldr	r2, .L7+16
  78 006e 9042     		cmp	r0, r2
  79 0070 05D1     		bne	.L5
  80              	.L4:
  81 0072 26F44076 		bic	r6, r6, #768
  82 0076 4A69     		ldr	r2, [r1, #20]
  83 0078 3243     		orrs	r2, r2, r6
  84 007a 8E69     		ldr	r6, [r1, #24]
  85 007c 1643     		orrs	r6, r6, r2
  86              	.L5:
  87 007e 4660     		str	r6, [r0, #4]
  88 0080 8561     		str	r5, [r0, #24]
  89 0082 4A68     		ldr	r2, [r1, #4]
  90 0084 4263     		str	r2, [r0, #52]
  91 0086 0362     		str	r3, [r0, #32]
  92 0088 F0BC     		pop	{r4, r5, r6, r7}
  93 008a 7047     		bx	lr
  94              	.L8:
  95              		.align	2
  96              	.L7:
  97 008c 8CFFFEFF 		.word	-65652
  98 0090 00000140 		.word	1073807360
  99 0094 00040140 		.word	1073808384
 100 0098 00400140 		.word	1073823744
 101 009c 00480140 		.word	1073825792
 102 00a0 00440140 		.word	1073824768
 104              		.section	.text.TIM_OC3_SetConfig,"ax",%progbits
 105              		.align	1
 106              		.syntax unified
 107              		.thumb
 108              		.thumb_func
 110              	TIM_OC3_SetConfig:
 111              		@ args = 0, pretend = 0, frame = 0
 112              		@ frame_needed = 0, uses_anonymous_args = 0
 113              		@ link register save eliminated.
 114 0000 70B4     		push	{r4, r5, r6}
 115 0002 036A     		ldr	r3, [r0, #32]
 116 0004 026A     		ldr	r2, [r0, #32]
 117 0006 22F48072 		bic	r2, r2, #256
ARM GAS  C:\Users\aticl\AppData\Local\Temp\ccqcvH4b.s 			page 3


 118 000a 0262     		str	r2, [r0, #32]
 119 000c 4568     		ldr	r5, [r0, #4]
 120 000e C469     		ldr	r4, [r0, #28]
 121 0010 1A4A     		ldr	r2, .L14
 122 0012 2240     		ands	r2, r2, r4
 123 0014 0E68     		ldr	r6, [r1]
 124 0016 1643     		orrs	r6, r6, r2
 125 0018 23F40073 		bic	r3, r3, #512
 126 001c 8A68     		ldr	r2, [r1, #8]
 127 001e 43EA0223 		orr	r3, r3, r2, lsl #8
 128 0022 174A     		ldr	r2, .L14+4
 129 0024 174C     		ldr	r4, .L14+8
 130 0026 A042     		cmp	r0, r4
 131 0028 18BF     		it	ne
 132 002a 9042     		cmpne	r0, r2
 133 002c 0CBF     		ite	eq
 134 002e 0122     		moveq	r2, #1
 135 0030 0022     		movne	r2, #0
 136 0032 06D1     		bne	.L10
 137 0034 23F40063 		bic	r3, r3, #2048
 138 0038 CC68     		ldr	r4, [r1, #12]
 139 003a 43EA0423 		orr	r3, r3, r4, lsl #8
 140 003e 23F48063 		bic	r3, r3, #1024
 141              	.L10:
 142 0042 5AB9     		cbnz	r2, .L11
 143 0044 104A     		ldr	r2, .L14+12
 144 0046 9042     		cmp	r0, r2
 145 0048 14BF     		ite	ne
 146 004a 0022     		movne	r2, #0
 147 004c 0122     		moveq	r2, #1
 148 004e 0F4C     		ldr	r4, .L14+16
 149 0050 A042     		cmp	r0, r4
 150 0052 03D0     		beq	.L11
 151 0054 12B9     		cbnz	r2, .L11
 152 0056 0E4A     		ldr	r2, .L14+20
 153 0058 9042     		cmp	r0, r2
 154 005a 07D1     		bne	.L12
 155              	.L11:
 156 005c 25F44052 		bic	r2, r5, #12288
 157 0060 4C69     		ldr	r4, [r1, #20]
 158 0062 42EA0412 		orr	r2, r2, r4, lsl #4
 159 0066 8C69     		ldr	r4, [r1, #24]
 160 0068 42EA0415 		orr	r5, r2, r4, lsl #4
 161              	.L12:
 162 006c 4560     		str	r5, [r0, #4]
 163 006e C661     		str	r6, [r0, #28]
 164 0070 4A68     		ldr	r2, [r1, #4]
 165 0072 C263     		str	r2, [r0, #60]
 166 0074 0362     		str	r3, [r0, #32]
 167 0076 70BC     		pop	{r4, r5, r6}
 168 0078 7047     		bx	lr
 169              	.L15:
 170 007a 00BF     		.align	2
 171              	.L14:
 172 007c 8CFFFEFF 		.word	-65652
 173 0080 00000140 		.word	1073807360
 174 0084 00040140 		.word	1073808384
ARM GAS  C:\Users\aticl\AppData\Local\Temp\ccqcvH4b.s 			page 4


 175 0088 00440140 		.word	1073824768
 176 008c 00400140 		.word	1073823744
 177 0090 00480140 		.word	1073825792
 179              		.section	.text.TIM_OC4_SetConfig,"ax",%progbits
 180              		.align	1
 181              		.syntax unified
 182              		.thumb
 183              		.thumb_func
 185              	TIM_OC4_SetConfig:
 186              		@ args = 0, pretend = 0, frame = 0
 187              		@ frame_needed = 0, uses_anonymous_args = 0
 188              		@ link register save eliminated.
 189 0000 70B4     		push	{r4, r5, r6}
 190 0002 036A     		ldr	r3, [r0, #32]
 191 0004 026A     		ldr	r2, [r0, #32]
 192 0006 22F48052 		bic	r2, r2, #4096
 193 000a 0262     		str	r2, [r0, #32]
 194 000c 4468     		ldr	r4, [r0, #4]
 195 000e C569     		ldr	r5, [r0, #28]
 196 0010 144A     		ldr	r2, .L20
 197 0012 2A40     		ands	r2, r2, r5
 198 0014 0D68     		ldr	r5, [r1]
 199 0016 42EA0522 		orr	r2, r2, r5, lsl #8
 200 001a 23F40053 		bic	r3, r3, #8192
 201 001e 8D68     		ldr	r5, [r1, #8]
 202 0020 43EA0533 		orr	r3, r3, r5, lsl #12
 203 0024 104E     		ldr	r6, .L20+4
 204 0026 114D     		ldr	r5, .L20+8
 205 0028 A842     		cmp	r0, r5
 206 002a 18BF     		it	ne
 207 002c B042     		cmpne	r0, r6
 208 002e 0DD0     		beq	.L17
 209 0030 05F58045 		add	r5, r5, #16384
 210 0034 A842     		cmp	r0, r5
 211 0036 14BF     		ite	ne
 212 0038 0025     		movne	r5, #0
 213 003a 0125     		moveq	r5, #1
 214 003c 06F58046 		add	r6, r6, #16384
 215 0040 B042     		cmp	r0, r6
 216 0042 03D0     		beq	.L17
 217 0044 15B9     		cbnz	r5, .L17
 218 0046 0A4D     		ldr	r5, .L20+12
 219 0048 A842     		cmp	r0, r5
 220 004a 04D1     		bne	.L18
 221              	.L17:
 222 004c 24F48044 		bic	r4, r4, #16384
 223 0050 4D69     		ldr	r5, [r1, #20]
 224 0052 44EA8514 		orr	r4, r4, r5, lsl #6
 225              	.L18:
 226 0056 4460     		str	r4, [r0, #4]
 227 0058 C261     		str	r2, [r0, #28]
 228 005a 4A68     		ldr	r2, [r1, #4]
 229 005c 0264     		str	r2, [r0, #64]
 230 005e 0362     		str	r3, [r0, #32]
 231 0060 70BC     		pop	{r4, r5, r6}
 232 0062 7047     		bx	lr
 233              	.L21:
ARM GAS  C:\Users\aticl\AppData\Local\Temp\ccqcvH4b.s 			page 5


 234              		.align	2
 235              	.L20:
 236 0064 FF8CFFFE 		.word	-16806657
 237 0068 00000140 		.word	1073807360
 238 006c 00040140 		.word	1073808384
 239 0070 00480140 		.word	1073825792
 241              		.section	.text.TIM_OC5_SetConfig,"ax",%progbits
 242              		.align	1
 243              		.syntax unified
 244              		.thumb
 245              		.thumb_func
 247              	TIM_OC5_SetConfig:
 248              		@ args = 0, pretend = 0, frame = 0
 249              		@ frame_needed = 0, uses_anonymous_args = 0
 250              		@ link register save eliminated.
 251 0000 70B4     		push	{r4, r5, r6}
 252 0002 036A     		ldr	r3, [r0, #32]
 253 0004 026A     		ldr	r2, [r0, #32]
 254 0006 22F48032 		bic	r2, r2, #65536
 255 000a 0262     		str	r2, [r0, #32]
 256 000c 4268     		ldr	r2, [r0, #4]
 257 000e 456D     		ldr	r5, [r0, #84]
 258 0010 144E     		ldr	r6, .L26
 259 0012 2E40     		ands	r6, r6, r5
 260 0014 0D68     		ldr	r5, [r1]
 261 0016 2E43     		orrs	r6, r6, r5
 262 0018 23F40033 		bic	r3, r3, #131072
 263 001c 8C68     		ldr	r4, [r1, #8]
 264 001e 43EA0443 		orr	r3, r3, r4, lsl #16
 265 0022 114D     		ldr	r5, .L26+4
 266 0024 114C     		ldr	r4, .L26+8
 267 0026 A042     		cmp	r0, r4
 268 0028 18BF     		it	ne
 269 002a A842     		cmpne	r0, r5
 270 002c 0DD0     		beq	.L23
 271 002e 04F58044 		add	r4, r4, #16384
 272 0032 A042     		cmp	r0, r4
 273 0034 14BF     		ite	ne
 274 0036 0024     		movne	r4, #0
 275 0038 0124     		moveq	r4, #1
 276 003a 05F58045 		add	r5, r5, #16384
 277 003e A842     		cmp	r0, r5
 278 0040 03D0     		beq	.L23
 279 0042 14B9     		cbnz	r4, .L23
 280 0044 0A4C     		ldr	r4, .L26+12
 281 0046 A042     		cmp	r0, r4
 282 0048 04D1     		bne	.L24
 283              	.L23:
 284 004a 22F48032 		bic	r2, r2, #65536
 285 004e 4C69     		ldr	r4, [r1, #20]
 286 0050 42EA0422 		orr	r2, r2, r4, lsl #8
 287              	.L24:
 288 0054 4260     		str	r2, [r0, #4]
 289 0056 4665     		str	r6, [r0, #84]
 290 0058 4A68     		ldr	r2, [r1, #4]
 291 005a 8265     		str	r2, [r0, #88]
 292 005c 0362     		str	r3, [r0, #32]
ARM GAS  C:\Users\aticl\AppData\Local\Temp\ccqcvH4b.s 			page 6


 293 005e 70BC     		pop	{r4, r5, r6}
 294 0060 7047     		bx	lr
 295              	.L27:
 296 0062 00BF     		.align	2
 297              	.L26:
 298 0064 8FFFFEFF 		.word	-65649
 299 0068 00000140 		.word	1073807360
 300 006c 00040140 		.word	1073808384
 301 0070 00480140 		.word	1073825792
 303              		.section	.text.TIM_OC6_SetConfig,"ax",%progbits
 304              		.align	1
 305              		.syntax unified
 306              		.thumb
 307              		.thumb_func
 309              	TIM_OC6_SetConfig:
 310              		@ args = 0, pretend = 0, frame = 0
 311              		@ frame_needed = 0, uses_anonymous_args = 0
 312              		@ link register save eliminated.
 313 0000 70B4     		push	{r4, r5, r6}
 314 0002 036A     		ldr	r3, [r0, #32]
 315 0004 026A     		ldr	r2, [r0, #32]
 316 0006 22F48012 		bic	r2, r2, #1048576
 317 000a 0262     		str	r2, [r0, #32]
 318 000c 4468     		ldr	r4, [r0, #4]
 319 000e 456D     		ldr	r5, [r0, #84]
 320 0010 144A     		ldr	r2, .L32
 321 0012 2A40     		ands	r2, r2, r5
 322 0014 0D68     		ldr	r5, [r1]
 323 0016 42EA0522 		orr	r2, r2, r5, lsl #8
 324 001a 23F40013 		bic	r3, r3, #2097152
 325 001e 8D68     		ldr	r5, [r1, #8]
 326 0020 43EA0553 		orr	r3, r3, r5, lsl #20
 327 0024 104E     		ldr	r6, .L32+4
 328 0026 114D     		ldr	r5, .L32+8
 329 0028 A842     		cmp	r0, r5
 330 002a 18BF     		it	ne
 331 002c B042     		cmpne	r0, r6
 332 002e 0DD0     		beq	.L29
 333 0030 05F58045 		add	r5, r5, #16384
 334 0034 A842     		cmp	r0, r5
 335 0036 14BF     		ite	ne
 336 0038 0025     		movne	r5, #0
 337 003a 0125     		moveq	r5, #1
 338 003c 06F58046 		add	r6, r6, #16384
 339 0040 B042     		cmp	r0, r6
 340 0042 03D0     		beq	.L29
 341 0044 15B9     		cbnz	r5, .L29
 342 0046 0A4D     		ldr	r5, .L32+12
 343 0048 A842     		cmp	r0, r5
 344 004a 04D1     		bne	.L30
 345              	.L29:
 346 004c 24F48024 		bic	r4, r4, #262144
 347 0050 4D69     		ldr	r5, [r1, #20]
 348 0052 44EA8524 		orr	r4, r4, r5, lsl #10
 349              	.L30:
 350 0056 4460     		str	r4, [r0, #4]
 351 0058 4265     		str	r2, [r0, #84]
ARM GAS  C:\Users\aticl\AppData\Local\Temp\ccqcvH4b.s 			page 7


 352 005a 4A68     		ldr	r2, [r1, #4]
 353 005c C265     		str	r2, [r0, #92]
 354 005e 0362     		str	r3, [r0, #32]
 355 0060 70BC     		pop	{r4, r5, r6}
 356 0062 7047     		bx	lr
 357              	.L33:
 358              		.align	2
 359              	.L32:
 360 0064 FF8FFFFE 		.word	-16805889
 361 0068 00000140 		.word	1073807360
 362 006c 00040140 		.word	1073808384
 363 0070 00480140 		.word	1073825792
 365              		.section	.text.TIM_TI1_ConfigInputStage,"ax",%progbits
 366              		.align	1
 367              		.syntax unified
 368              		.thumb
 369              		.thumb_func
 371              	TIM_TI1_ConfigInputStage:
 372              		@ args = 0, pretend = 0, frame = 0
 373              		@ frame_needed = 0, uses_anonymous_args = 0
 374              		@ link register save eliminated.
 375 0000 10B4     		push	{r4}
 376 0002 036A     		ldr	r3, [r0, #32]
 377 0004 046A     		ldr	r4, [r0, #32]
 378 0006 24F00104 		bic	r4, r4, #1
 379 000a 0462     		str	r4, [r0, #32]
 380 000c 8469     		ldr	r4, [r0, #24]
 381 000e 24F0F00C 		bic	ip, r4, #240
 382 0012 4CEA0212 		orr	r2, ip, r2, lsl #4
 383 0016 23F00A03 		bic	r3, r3, #10
 384 001a 0B43     		orrs	r3, r3, r1
 385 001c 8261     		str	r2, [r0, #24]
 386 001e 0362     		str	r3, [r0, #32]
 387 0020 5DF8044B 		ldr	r4, [sp], #4
 388 0024 7047     		bx	lr
 390              		.section	.text.TIM_TI2_SetConfig,"ax",%progbits
 391              		.align	1
 392              		.syntax unified
 393              		.thumb
 394              		.thumb_func
 396              	TIM_TI2_SetConfig:
 397              		@ args = 0, pretend = 0, frame = 0
 398              		@ frame_needed = 0, uses_anonymous_args = 0
 399              		@ link register save eliminated.
 400 0000 30B4     		push	{r4, r5}
 401 0002 056A     		ldr	r5, [r0, #32]
 402 0004 046A     		ldr	r4, [r0, #32]
 403 0006 24F01004 		bic	r4, r4, #16
 404 000a 0462     		str	r4, [r0, #32]
 405 000c 8469     		ldr	r4, [r0, #24]
 406 000e 24F4407C 		bic	ip, r4, #768
 407 0012 4CEA022C 		orr	ip, ip, r2, lsl #8
 408 0016 2CF4704C 		bic	ip, ip, #61440
 409 001a 1B03     		lsls	r3, r3, #12
 410 001c 9BB2     		uxth	r3, r3
 411 001e 43EA0C03 		orr	r3, r3, ip
 412 0022 25F0A005 		bic	r5, r5, #160
ARM GAS  C:\Users\aticl\AppData\Local\Temp\ccqcvH4b.s 			page 8


 413 0026 0901     		lsls	r1, r1, #4
 414 0028 01F0A001 		and	r1, r1, #160
 415 002c 2943     		orrs	r1, r1, r5
 416 002e 8361     		str	r3, [r0, #24]
 417 0030 0162     		str	r1, [r0, #32]
 418 0032 30BC     		pop	{r4, r5}
 419 0034 7047     		bx	lr
 421              		.section	.text.TIM_TI2_ConfigInputStage,"ax",%progbits
 422              		.align	1
 423              		.syntax unified
 424              		.thumb
 425              		.thumb_func
 427              	TIM_TI2_ConfigInputStage:
 428              		@ args = 0, pretend = 0, frame = 0
 429              		@ frame_needed = 0, uses_anonymous_args = 0
 430              		@ link register save eliminated.
 431 0000 10B4     		push	{r4}
 432 0002 036A     		ldr	r3, [r0, #32]
 433 0004 046A     		ldr	r4, [r0, #32]
 434 0006 24F01004 		bic	r4, r4, #16
 435 000a 0462     		str	r4, [r0, #32]
 436 000c 8469     		ldr	r4, [r0, #24]
 437 000e 24F4704C 		bic	ip, r4, #61440
 438 0012 4CEA0232 		orr	r2, ip, r2, lsl #12
 439 0016 23F0A003 		bic	r3, r3, #160
 440 001a 43EA0113 		orr	r3, r3, r1, lsl #4
 441 001e 8261     		str	r2, [r0, #24]
 442 0020 0362     		str	r3, [r0, #32]
 443 0022 5DF8044B 		ldr	r4, [sp], #4
 444 0026 7047     		bx	lr
 446              		.section	.text.TIM_TI3_SetConfig,"ax",%progbits
 447              		.align	1
 448              		.syntax unified
 449              		.thumb
 450              		.thumb_func
 452              	TIM_TI3_SetConfig:
 453              		@ args = 0, pretend = 0, frame = 0
 454              		@ frame_needed = 0, uses_anonymous_args = 0
 455              		@ link register save eliminated.
 456 0000 30B4     		push	{r4, r5}
 457 0002 056A     		ldr	r5, [r0, #32]
 458 0004 046A     		ldr	r4, [r0, #32]
 459 0006 24F48074 		bic	r4, r4, #256
 460 000a 0462     		str	r4, [r0, #32]
 461 000c C469     		ldr	r4, [r0, #28]
 462 000e 24F0030C 		bic	ip, r4, #3
 463 0012 4CEA020C 		orr	ip, ip, r2
 464 0016 2CF0F00C 		bic	ip, ip, #240
 465 001a 1B01     		lsls	r3, r3, #4
 466 001c DBB2     		uxtb	r3, r3
 467 001e 43EA0C03 		orr	r3, r3, ip
 468 0022 25F42065 		bic	r5, r5, #2560
 469 0026 0902     		lsls	r1, r1, #8
 470 0028 01F42061 		and	r1, r1, #2560
 471 002c 2943     		orrs	r1, r1, r5
 472 002e C361     		str	r3, [r0, #28]
 473 0030 0162     		str	r1, [r0, #32]
ARM GAS  C:\Users\aticl\AppData\Local\Temp\ccqcvH4b.s 			page 9


 474 0032 30BC     		pop	{r4, r5}
 475 0034 7047     		bx	lr
 477              		.section	.text.TIM_TI4_SetConfig,"ax",%progbits
 478              		.align	1
 479              		.syntax unified
 480              		.thumb
 481              		.thumb_func
 483              	TIM_TI4_SetConfig:
 484              		@ args = 0, pretend = 0, frame = 0
 485              		@ frame_needed = 0, uses_anonymous_args = 0
 486              		@ link register save eliminated.
 487 0000 30B4     		push	{r4, r5}
 488 0002 056A     		ldr	r5, [r0, #32]
 489 0004 046A     		ldr	r4, [r0, #32]
 490 0006 24F48054 		bic	r4, r4, #4096
 491 000a 0462     		str	r4, [r0, #32]
 492 000c C469     		ldr	r4, [r0, #28]
 493 000e 24F4407C 		bic	ip, r4, #768
 494 0012 4CEA022C 		orr	ip, ip, r2, lsl #8
 495 0016 2CF4704C 		bic	ip, ip, #61440
 496 001a 1B03     		lsls	r3, r3, #12
 497 001c 9BB2     		uxth	r3, r3
 498 001e 43EA0C03 		orr	r3, r3, ip
 499 0022 25F42045 		bic	r5, r5, #40960
 500 0026 0903     		lsls	r1, r1, #12
 501 0028 01F42041 		and	r1, r1, #40960
 502 002c 2943     		orrs	r1, r1, r5
 503 002e C361     		str	r3, [r0, #28]
 504 0030 0162     		str	r1, [r0, #32]
 505 0032 30BC     		pop	{r4, r5}
 506 0034 7047     		bx	lr
 508              		.section	.text.TIM_ITRx_SetConfig,"ax",%progbits
 509              		.align	1
 510              		.syntax unified
 511              		.thumb
 512              		.thumb_func
 514              	TIM_ITRx_SetConfig:
 515              		@ args = 0, pretend = 0, frame = 0
 516              		@ frame_needed = 0, uses_anonymous_args = 0
 517              		@ link register save eliminated.
 518 0000 8268     		ldr	r2, [r0, #8]
 519 0002 034B     		ldr	r3, .L45
 520 0004 1340     		ands	r3, r3, r2
 521 0006 0B43     		orrs	r3, r3, r1
 522 0008 43F00703 		orr	r3, r3, #7
 523 000c 8360     		str	r3, [r0, #8]
 524 000e 7047     		bx	lr
 525              	.L46:
 526              		.align	2
 527              	.L45:
 528 0010 8FFFCFFF 		.word	-3145841
 530              		.section	.text.HAL_TIM_Base_MspInit,"ax",%progbits
 531              		.align	1
 532              		.weak	HAL_TIM_Base_MspInit
 533              		.syntax unified
 534              		.thumb
 535              		.thumb_func
ARM GAS  C:\Users\aticl\AppData\Local\Temp\ccqcvH4b.s 			page 10


 537              	HAL_TIM_Base_MspInit:
 538              		@ args = 0, pretend = 0, frame = 0
 539              		@ frame_needed = 0, uses_anonymous_args = 0
 540              		@ link register save eliminated.
 541 0000 7047     		bx	lr
 543              		.section	.text.HAL_TIM_Base_MspDeInit,"ax",%progbits
 544              		.align	1
 545              		.weak	HAL_TIM_Base_MspDeInit
 546              		.syntax unified
 547              		.thumb
 548              		.thumb_func
 550              	HAL_TIM_Base_MspDeInit:
 551              		@ args = 0, pretend = 0, frame = 0
 552              		@ frame_needed = 0, uses_anonymous_args = 0
 553              		@ link register save eliminated.
 554 0000 7047     		bx	lr
 556              		.section	.text.HAL_TIM_Base_DeInit,"ax",%progbits
 557              		.align	1
 558              		.global	HAL_TIM_Base_DeInit
 559              		.syntax unified
 560              		.thumb
 561              		.thumb_func
 563              	HAL_TIM_Base_DeInit:
 564              		@ args = 0, pretend = 0, frame = 0
 565              		@ frame_needed = 0, uses_anonymous_args = 0
 566 0000 10B5     		push	{r4, lr}
 567 0002 0446     		mov	r4, r0
 568 0004 0223     		movs	r3, #2
 569 0006 80F83D30 		strb	r3, [r0, #61]
 570 000a 0368     		ldr	r3, [r0]
 571 000c 196A     		ldr	r1, [r3, #32]
 572 000e 41F21112 		movw	r2, #4369
 573 0012 1142     		tst	r1, r2
 574 0014 08D1     		bne	.L50
 575 0016 196A     		ldr	r1, [r3, #32]
 576 0018 40F24442 		movw	r2, #1092
 577 001c 1142     		tst	r1, r2
 578 001e 03D1     		bne	.L50
 579 0020 1A68     		ldr	r2, [r3]
 580 0022 22F00102 		bic	r2, r2, #1
 581 0026 1A60     		str	r2, [r3]
 582              	.L50:
 583 0028 2046     		mov	r0, r4
 584 002a FFF7FEFF 		bl	HAL_TIM_Base_MspDeInit
 585 002e 0020     		movs	r0, #0
 586 0030 84F84800 		strb	r0, [r4, #72]
 587 0034 84F83E00 		strb	r0, [r4, #62]
 588 0038 84F83F00 		strb	r0, [r4, #63]
 589 003c 84F84000 		strb	r0, [r4, #64]
 590 0040 84F84100 		strb	r0, [r4, #65]
 591 0044 84F84200 		strb	r0, [r4, #66]
 592 0048 84F84300 		strb	r0, [r4, #67]
 593 004c 84F84400 		strb	r0, [r4, #68]
 594 0050 84F84500 		strb	r0, [r4, #69]
 595 0054 84F84600 		strb	r0, [r4, #70]
 596 0058 84F84700 		strb	r0, [r4, #71]
 597 005c 84F83D00 		strb	r0, [r4, #61]
ARM GAS  C:\Users\aticl\AppData\Local\Temp\ccqcvH4b.s 			page 11


 598 0060 84F83C00 		strb	r0, [r4, #60]
 599 0064 10BD     		pop	{r4, pc}
 601              		.section	.text.HAL_TIM_Base_Start,"ax",%progbits
 602              		.align	1
 603              		.global	HAL_TIM_Base_Start
 604              		.syntax unified
 605              		.thumb
 606              		.thumb_func
 608              	HAL_TIM_Base_Start:
 609              		@ args = 0, pretend = 0, frame = 0
 610              		@ frame_needed = 0, uses_anonymous_args = 0
 611              		@ link register save eliminated.
 612 0000 90F83D30 		ldrb	r3, [r0, #61]	@ zero_extendqisi2
 613 0004 012B     		cmp	r3, #1
 614 0006 35D1     		bne	.L56
 615 0008 0223     		movs	r3, #2
 616 000a 80F83D30 		strb	r3, [r0, #61]
 617 000e 0368     		ldr	r3, [r0]
 618 0010 1A4A     		ldr	r2, .L58
 619 0012 B3F1804F 		cmp	r3, #1073741824
 620 0016 18BF     		it	ne
 621 0018 9342     		cmpne	r3, r2
 622 001a 1DD0     		beq	.L54
 623 001c A2F57C42 		sub	r2, r2, #64512
 624 0020 9342     		cmp	r3, r2
 625 0022 19D0     		beq	.L54
 626 0024 02F58062 		add	r2, r2, #1024
 627 0028 9342     		cmp	r3, r2
 628 002a 15D0     		beq	.L54
 629 002c 02F58062 		add	r2, r2, #1024
 630 0030 9342     		cmp	r3, r2
 631 0032 11D0     		beq	.L54
 632 0034 02F57842 		add	r2, r2, #63488
 633 0038 9342     		cmp	r3, r2
 634 003a 0DD0     		beq	.L54
 635 003c A2F56C42 		sub	r2, r2, #60416
 636 0040 9342     		cmp	r3, r2
 637 0042 09D0     		beq	.L54
 638 0044 02F59432 		add	r2, r2, #75776
 639 0048 9342     		cmp	r3, r2
 640 004a 05D0     		beq	.L54
 641 004c 1A68     		ldr	r2, [r3]
 642 004e 42F00102 		orr	r2, r2, #1
 643 0052 1A60     		str	r2, [r3]
 644 0054 0020     		movs	r0, #0
 645 0056 7047     		bx	lr
 646              	.L54:
 647 0058 9968     		ldr	r1, [r3, #8]
 648 005a 094A     		ldr	r2, .L58+4
 649 005c 0A40     		ands	r2, r2, r1
 650 005e 062A     		cmp	r2, #6
 651 0060 18BF     		it	ne
 652 0062 B2F5803F 		cmpne	r2, #65536
 653 0066 07D0     		beq	.L57
 654 0068 1A68     		ldr	r2, [r3]
 655 006a 42F00102 		orr	r2, r2, #1
 656 006e 1A60     		str	r2, [r3]
ARM GAS  C:\Users\aticl\AppData\Local\Temp\ccqcvH4b.s 			page 12


 657 0070 0020     		movs	r0, #0
 658 0072 7047     		bx	lr
 659              	.L56:
 660 0074 0120     		movs	r0, #1
 661 0076 7047     		bx	lr
 662              	.L57:
 663 0078 0020     		movs	r0, #0
 664 007a 7047     		bx	lr
 665              	.L59:
 666              		.align	2
 667              	.L58:
 668 007c 00000140 		.word	1073807360
 669 0080 07000100 		.word	65543
 671              		.section	.text.HAL_TIM_Base_Stop,"ax",%progbits
 672              		.align	1
 673              		.global	HAL_TIM_Base_Stop
 674              		.syntax unified
 675              		.thumb
 676              		.thumb_func
 678              	HAL_TIM_Base_Stop:
 679              		@ args = 0, pretend = 0, frame = 0
 680              		@ frame_needed = 0, uses_anonymous_args = 0
 681              		@ link register save eliminated.
 682 0000 0368     		ldr	r3, [r0]
 683 0002 196A     		ldr	r1, [r3, #32]
 684 0004 41F21112 		movw	r2, #4369
 685 0008 1142     		tst	r1, r2
 686 000a 08D1     		bne	.L61
 687 000c 196A     		ldr	r1, [r3, #32]
 688 000e 40F24442 		movw	r2, #1092
 689 0012 1142     		tst	r1, r2
 690 0014 03D1     		bne	.L61
 691 0016 1A68     		ldr	r2, [r3]
 692 0018 22F00102 		bic	r2, r2, #1
 693 001c 1A60     		str	r2, [r3]
 694              	.L61:
 695 001e 0123     		movs	r3, #1
 696 0020 80F83D30 		strb	r3, [r0, #61]
 697 0024 0020     		movs	r0, #0
 698 0026 7047     		bx	lr
 700              		.section	.text.HAL_TIM_Base_Start_IT,"ax",%progbits
 701              		.align	1
 702              		.global	HAL_TIM_Base_Start_IT
 703              		.syntax unified
 704              		.thumb
 705              		.thumb_func
 707              	HAL_TIM_Base_Start_IT:
 708              		@ args = 0, pretend = 0, frame = 0
 709              		@ frame_needed = 0, uses_anonymous_args = 0
 710              		@ link register save eliminated.
 711 0000 90F83D30 		ldrb	r3, [r0, #61]	@ zero_extendqisi2
 712 0004 012B     		cmp	r3, #1
 713 0006 3AD1     		bne	.L66
 714 0008 0223     		movs	r3, #2
 715 000a 80F83D30 		strb	r3, [r0, #61]
 716 000e 0268     		ldr	r2, [r0]
 717 0010 D368     		ldr	r3, [r2, #12]
ARM GAS  C:\Users\aticl\AppData\Local\Temp\ccqcvH4b.s 			page 13


 718 0012 43F00103 		orr	r3, r3, #1
 719 0016 D360     		str	r3, [r2, #12]
 720 0018 0368     		ldr	r3, [r0]
 721 001a 1B4A     		ldr	r2, .L68
 722 001c B3F1804F 		cmp	r3, #1073741824
 723 0020 18BF     		it	ne
 724 0022 9342     		cmpne	r3, r2
 725 0024 1DD0     		beq	.L64
 726 0026 A2F57C42 		sub	r2, r2, #64512
 727 002a 9342     		cmp	r3, r2
 728 002c 19D0     		beq	.L64
 729 002e 02F58062 		add	r2, r2, #1024
 730 0032 9342     		cmp	r3, r2
 731 0034 15D0     		beq	.L64
 732 0036 02F58062 		add	r2, r2, #1024
 733 003a 9342     		cmp	r3, r2
 734 003c 11D0     		beq	.L64
 735 003e 02F57842 		add	r2, r2, #63488
 736 0042 9342     		cmp	r3, r2
 737 0044 0DD0     		beq	.L64
 738 0046 A2F56C42 		sub	r2, r2, #60416
 739 004a 9342     		cmp	r3, r2
 740 004c 09D0     		beq	.L64
 741 004e 02F59432 		add	r2, r2, #75776
 742 0052 9342     		cmp	r3, r2
 743 0054 05D0     		beq	.L64
 744 0056 1A68     		ldr	r2, [r3]
 745 0058 42F00102 		orr	r2, r2, #1
 746 005c 1A60     		str	r2, [r3]
 747 005e 0020     		movs	r0, #0
 748 0060 7047     		bx	lr
 749              	.L64:
 750 0062 9968     		ldr	r1, [r3, #8]
 751 0064 094A     		ldr	r2, .L68+4
 752 0066 0A40     		ands	r2, r2, r1
 753 0068 062A     		cmp	r2, #6
 754 006a 18BF     		it	ne
 755 006c B2F5803F 		cmpne	r2, #65536
 756 0070 07D0     		beq	.L67
 757 0072 1A68     		ldr	r2, [r3]
 758 0074 42F00102 		orr	r2, r2, #1
 759 0078 1A60     		str	r2, [r3]
 760 007a 0020     		movs	r0, #0
 761 007c 7047     		bx	lr
 762              	.L66:
 763 007e 0120     		movs	r0, #1
 764 0080 7047     		bx	lr
 765              	.L67:
 766 0082 0020     		movs	r0, #0
 767 0084 7047     		bx	lr
 768              	.L69:
 769 0086 00BF     		.align	2
 770              	.L68:
 771 0088 00000140 		.word	1073807360
 772 008c 07000100 		.word	65543
 774              		.section	.text.HAL_TIM_Base_Stop_IT,"ax",%progbits
 775              		.align	1
ARM GAS  C:\Users\aticl\AppData\Local\Temp\ccqcvH4b.s 			page 14


 776              		.global	HAL_TIM_Base_Stop_IT
 777              		.syntax unified
 778              		.thumb
 779              		.thumb_func
 781              	HAL_TIM_Base_Stop_IT:
 782              		@ args = 0, pretend = 0, frame = 0
 783              		@ frame_needed = 0, uses_anonymous_args = 0
 784              		@ link register save eliminated.
 785 0000 0268     		ldr	r2, [r0]
 786 0002 D368     		ldr	r3, [r2, #12]
 787 0004 23F00103 		bic	r3, r3, #1
 788 0008 D360     		str	r3, [r2, #12]
 789 000a 0368     		ldr	r3, [r0]
 790 000c 196A     		ldr	r1, [r3, #32]
 791 000e 41F21112 		movw	r2, #4369
 792 0012 1142     		tst	r1, r2
 793 0014 08D1     		bne	.L71
 794 0016 196A     		ldr	r1, [r3, #32]
 795 0018 40F24442 		movw	r2, #1092
 796 001c 1142     		tst	r1, r2
 797 001e 03D1     		bne	.L71
 798 0020 1A68     		ldr	r2, [r3]
 799 0022 22F00102 		bic	r2, r2, #1
 800 0026 1A60     		str	r2, [r3]
 801              	.L71:
 802 0028 0123     		movs	r3, #1
 803 002a 80F83D30 		strb	r3, [r0, #61]
 804 002e 0020     		movs	r0, #0
 805 0030 7047     		bx	lr
 807              		.section	.text.HAL_TIM_Base_Start_DMA,"ax",%progbits
 808              		.align	1
 809              		.global	HAL_TIM_Base_Start_DMA
 810              		.syntax unified
 811              		.thumb
 812              		.thumb_func
 814              	HAL_TIM_Base_Start_DMA:
 815              		@ args = 0, pretend = 0, frame = 0
 816              		@ frame_needed = 0, uses_anonymous_args = 0
 817 0000 38B5     		push	{r3, r4, r5, lr}
 818 0002 90F83D30 		ldrb	r3, [r0, #61]	@ zero_extendqisi2
 819 0006 DDB2     		uxtb	r5, r3
 820 0008 022B     		cmp	r3, #2
 821 000a 58D0     		beq	.L73
 822 000c 0446     		mov	r4, r0
 823 000e 90F83D30 		ldrb	r3, [r0, #61]	@ zero_extendqisi2
 824 0012 DDB2     		uxtb	r5, r3
 825 0014 012B     		cmp	r3, #1
 826 0016 51D1     		bne	.L76
 827 0018 002A     		cmp	r2, #0
 828 001a 18BF     		it	ne
 829 001c 0029     		cmpne	r1, #0
 830 001e 4ED0     		beq	.L73
 831 0020 0223     		movs	r3, #2
 832 0022 80F83D30 		strb	r3, [r0, #61]
 833 0026 036A     		ldr	r3, [r0, #32]
 834 0028 2748     		ldr	r0, .L79
 835 002a D863     		str	r0, [r3, #60]
ARM GAS  C:\Users\aticl\AppData\Local\Temp\ccqcvH4b.s 			page 15


 836 002c 236A     		ldr	r3, [r4, #32]
 837 002e 2748     		ldr	r0, .L79+4
 838 0030 1864     		str	r0, [r3, #64]
 839 0032 236A     		ldr	r3, [r4, #32]
 840 0034 2648     		ldr	r0, .L79+8
 841 0036 D864     		str	r0, [r3, #76]
 842 0038 2068     		ldr	r0, [r4]
 843 003a 1346     		mov	r3, r2
 844 003c 00F12C02 		add	r2, r0, #44
 845 0040 206A     		ldr	r0, [r4, #32]
 846 0042 FFF7FEFF 		bl	HAL_DMA_Start_IT
 847 0046 0146     		mov	r1, r0
 848 0048 0028     		cmp	r0, #0
 849 004a 38D1     		bne	.L73
 850 004c 2268     		ldr	r2, [r4]
 851 004e D368     		ldr	r3, [r2, #12]
 852 0050 43F48073 		orr	r3, r3, #256
 853 0054 D360     		str	r3, [r2, #12]
 854 0056 2368     		ldr	r3, [r4]
 855 0058 1E4A     		ldr	r2, .L79+12
 856 005a B3F1804F 		cmp	r3, #1073741824
 857 005e 18BF     		it	ne
 858 0060 9342     		cmpne	r3, r2
 859 0062 1DD0     		beq	.L74
 860 0064 A2F57C42 		sub	r2, r2, #64512
 861 0068 9342     		cmp	r3, r2
 862 006a 19D0     		beq	.L74
 863 006c 02F58062 		add	r2, r2, #1024
 864 0070 9342     		cmp	r3, r2
 865 0072 15D0     		beq	.L74
 866 0074 02F58062 		add	r2, r2, #1024
 867 0078 9342     		cmp	r3, r2
 868 007a 11D0     		beq	.L74
 869 007c 02F57842 		add	r2, r2, #63488
 870 0080 9342     		cmp	r3, r2
 871 0082 0DD0     		beq	.L74
 872 0084 A2F56C42 		sub	r2, r2, #60416
 873 0088 9342     		cmp	r3, r2
 874 008a 09D0     		beq	.L74
 875 008c 02F59432 		add	r2, r2, #75776
 876 0090 9342     		cmp	r3, r2
 877 0092 05D0     		beq	.L74
 878 0094 1A68     		ldr	r2, [r3]
 879 0096 42F00102 		orr	r2, r2, #1
 880 009a 1A60     		str	r2, [r3]
 881 009c 0546     		mov	r5, r0
 882 009e 0EE0     		b	.L73
 883              	.L74:
 884 00a0 9868     		ldr	r0, [r3, #8]
 885 00a2 0D4A     		ldr	r2, .L79+16
 886 00a4 0240     		ands	r2, r2, r0
 887 00a6 062A     		cmp	r2, #6
 888 00a8 18BF     		it	ne
 889 00aa B2F5803F 		cmpne	r2, #65536
 890 00ae 08D0     		beq	.L77
 891 00b0 1A68     		ldr	r2, [r3]
 892 00b2 42F00102 		orr	r2, r2, #1
ARM GAS  C:\Users\aticl\AppData\Local\Temp\ccqcvH4b.s 			page 16


 893 00b6 1A60     		str	r2, [r3]
 894 00b8 0D46     		mov	r5, r1
 895 00ba 00E0     		b	.L73
 896              	.L76:
 897 00bc 0125     		movs	r5, #1
 898              	.L73:
 899 00be 2846     		mov	r0, r5
 900 00c0 38BD     		pop	{r3, r4, r5, pc}
 901              	.L77:
 902 00c2 0D46     		mov	r5, r1
 903 00c4 FBE7     		b	.L73
 904              	.L80:
 905 00c6 00BF     		.align	2
 906              	.L79:
 907 00c8 00000000 		.word	TIM_DMAPeriodElapsedCplt
 908 00cc 00000000 		.word	TIM_DMAPeriodElapsedHalfCplt
 909 00d0 00000000 		.word	TIM_DMAError
 910 00d4 00000140 		.word	1073807360
 911 00d8 07000100 		.word	65543
 913              		.section	.text.HAL_TIM_Base_Stop_DMA,"ax",%progbits
 914              		.align	1
 915              		.global	HAL_TIM_Base_Stop_DMA
 916              		.syntax unified
 917              		.thumb
 918              		.thumb_func
 920              	HAL_TIM_Base_Stop_DMA:
 921              		@ args = 0, pretend = 0, frame = 0
 922              		@ frame_needed = 0, uses_anonymous_args = 0
 923 0000 10B5     		push	{r4, lr}
 924 0002 0446     		mov	r4, r0
 925 0004 0268     		ldr	r2, [r0]
 926 0006 D368     		ldr	r3, [r2, #12]
 927 0008 23F48073 		bic	r3, r3, #256
 928 000c D360     		str	r3, [r2, #12]
 929 000e 006A     		ldr	r0, [r0, #32]
 930 0010 FFF7FEFF 		bl	HAL_DMA_Abort_IT
 931 0014 2368     		ldr	r3, [r4]
 932 0016 196A     		ldr	r1, [r3, #32]
 933 0018 41F21112 		movw	r2, #4369
 934 001c 1142     		tst	r1, r2
 935 001e 08D1     		bne	.L82
 936 0020 196A     		ldr	r1, [r3, #32]
 937 0022 40F24442 		movw	r2, #1092
 938 0026 1142     		tst	r1, r2
 939 0028 03D1     		bne	.L82
 940 002a 1A68     		ldr	r2, [r3]
 941 002c 22F00102 		bic	r2, r2, #1
 942 0030 1A60     		str	r2, [r3]
 943              	.L82:
 944 0032 0123     		movs	r3, #1
 945 0034 84F83D30 		strb	r3, [r4, #61]
 946 0038 0020     		movs	r0, #0
 947 003a 10BD     		pop	{r4, pc}
 949              		.section	.text.HAL_TIM_OC_MspInit,"ax",%progbits
 950              		.align	1
 951              		.weak	HAL_TIM_OC_MspInit
 952              		.syntax unified
ARM GAS  C:\Users\aticl\AppData\Local\Temp\ccqcvH4b.s 			page 17


 953              		.thumb
 954              		.thumb_func
 956              	HAL_TIM_OC_MspInit:
 957              		@ args = 0, pretend = 0, frame = 0
 958              		@ frame_needed = 0, uses_anonymous_args = 0
 959              		@ link register save eliminated.
 960 0000 7047     		bx	lr
 962              		.section	.text.HAL_TIM_OC_MspDeInit,"ax",%progbits
 963              		.align	1
 964              		.weak	HAL_TIM_OC_MspDeInit
 965              		.syntax unified
 966              		.thumb
 967              		.thumb_func
 969              	HAL_TIM_OC_MspDeInit:
 970              		@ args = 0, pretend = 0, frame = 0
 971              		@ frame_needed = 0, uses_anonymous_args = 0
 972              		@ link register save eliminated.
 973 0000 7047     		bx	lr
 975              		.section	.text.HAL_TIM_OC_DeInit,"ax",%progbits
 976              		.align	1
 977              		.global	HAL_TIM_OC_DeInit
 978              		.syntax unified
 979              		.thumb
 980              		.thumb_func
 982              	HAL_TIM_OC_DeInit:
 983              		@ args = 0, pretend = 0, frame = 0
 984              		@ frame_needed = 0, uses_anonymous_args = 0
 985 0000 10B5     		push	{r4, lr}
 986 0002 0446     		mov	r4, r0
 987 0004 0223     		movs	r3, #2
 988 0006 80F83D30 		strb	r3, [r0, #61]
 989 000a 0368     		ldr	r3, [r0]
 990 000c 196A     		ldr	r1, [r3, #32]
 991 000e 41F21112 		movw	r2, #4369
 992 0012 1142     		tst	r1, r2
 993 0014 08D1     		bne	.L87
 994 0016 196A     		ldr	r1, [r3, #32]
 995 0018 40F24442 		movw	r2, #1092
 996 001c 1142     		tst	r1, r2
 997 001e 03D1     		bne	.L87
 998 0020 1A68     		ldr	r2, [r3]
 999 0022 22F00102 		bic	r2, r2, #1
 1000 0026 1A60     		str	r2, [r3]
 1001              	.L87:
 1002 0028 2046     		mov	r0, r4
 1003 002a FFF7FEFF 		bl	HAL_TIM_OC_MspDeInit
 1004 002e 0020     		movs	r0, #0
 1005 0030 84F84800 		strb	r0, [r4, #72]
 1006 0034 84F83E00 		strb	r0, [r4, #62]
 1007 0038 84F83F00 		strb	r0, [r4, #63]
 1008 003c 84F84000 		strb	r0, [r4, #64]
 1009 0040 84F84100 		strb	r0, [r4, #65]
 1010 0044 84F84200 		strb	r0, [r4, #66]
 1011 0048 84F84300 		strb	r0, [r4, #67]
 1012 004c 84F84400 		strb	r0, [r4, #68]
 1013 0050 84F84500 		strb	r0, [r4, #69]
 1014 0054 84F84600 		strb	r0, [r4, #70]
ARM GAS  C:\Users\aticl\AppData\Local\Temp\ccqcvH4b.s 			page 18


 1015 0058 84F84700 		strb	r0, [r4, #71]
 1016 005c 84F83D00 		strb	r0, [r4, #61]
 1017 0060 84F83C00 		strb	r0, [r4, #60]
 1018 0064 10BD     		pop	{r4, pc}
 1020              		.section	.text.HAL_TIM_PWM_MspInit,"ax",%progbits
 1021              		.align	1
 1022              		.weak	HAL_TIM_PWM_MspInit
 1023              		.syntax unified
 1024              		.thumb
 1025              		.thumb_func
 1027              	HAL_TIM_PWM_MspInit:
 1028              		@ args = 0, pretend = 0, frame = 0
 1029              		@ frame_needed = 0, uses_anonymous_args = 0
 1030              		@ link register save eliminated.
 1031 0000 7047     		bx	lr
 1033              		.section	.text.HAL_TIM_PWM_MspDeInit,"ax",%progbits
 1034              		.align	1
 1035              		.weak	HAL_TIM_PWM_MspDeInit
 1036              		.syntax unified
 1037              		.thumb
 1038              		.thumb_func
 1040              	HAL_TIM_PWM_MspDeInit:
 1041              		@ args = 0, pretend = 0, frame = 0
 1042              		@ frame_needed = 0, uses_anonymous_args = 0
 1043              		@ link register save eliminated.
 1044 0000 7047     		bx	lr
 1046              		.section	.text.HAL_TIM_PWM_DeInit,"ax",%progbits
 1047              		.align	1
 1048              		.global	HAL_TIM_PWM_DeInit
 1049              		.syntax unified
 1050              		.thumb
 1051              		.thumb_func
 1053              	HAL_TIM_PWM_DeInit:
 1054              		@ args = 0, pretend = 0, frame = 0
 1055              		@ frame_needed = 0, uses_anonymous_args = 0
 1056 0000 10B5     		push	{r4, lr}
 1057 0002 0446     		mov	r4, r0
 1058 0004 0223     		movs	r3, #2
 1059 0006 80F83D30 		strb	r3, [r0, #61]
 1060 000a 0368     		ldr	r3, [r0]
 1061 000c 196A     		ldr	r1, [r3, #32]
 1062 000e 41F21112 		movw	r2, #4369
 1063 0012 1142     		tst	r1, r2
 1064 0014 08D1     		bne	.L92
 1065 0016 196A     		ldr	r1, [r3, #32]
 1066 0018 40F24442 		movw	r2, #1092
 1067 001c 1142     		tst	r1, r2
 1068 001e 03D1     		bne	.L92
 1069 0020 1A68     		ldr	r2, [r3]
 1070 0022 22F00102 		bic	r2, r2, #1
 1071 0026 1A60     		str	r2, [r3]
 1072              	.L92:
 1073 0028 2046     		mov	r0, r4
 1074 002a FFF7FEFF 		bl	HAL_TIM_PWM_MspDeInit
 1075 002e 0020     		movs	r0, #0
 1076 0030 84F84800 		strb	r0, [r4, #72]
 1077 0034 84F83E00 		strb	r0, [r4, #62]
ARM GAS  C:\Users\aticl\AppData\Local\Temp\ccqcvH4b.s 			page 19


 1078 0038 84F83F00 		strb	r0, [r4, #63]
 1079 003c 84F84000 		strb	r0, [r4, #64]
 1080 0040 84F84100 		strb	r0, [r4, #65]
 1081 0044 84F84200 		strb	r0, [r4, #66]
 1082 0048 84F84300 		strb	r0, [r4, #67]
 1083 004c 84F84400 		strb	r0, [r4, #68]
 1084 0050 84F84500 		strb	r0, [r4, #69]
 1085 0054 84F84600 		strb	r0, [r4, #70]
 1086 0058 84F84700 		strb	r0, [r4, #71]
 1087 005c 84F83D00 		strb	r0, [r4, #61]
 1088 0060 84F83C00 		strb	r0, [r4, #60]
 1089 0064 10BD     		pop	{r4, pc}
 1091              		.section	.text.HAL_TIM_IC_MspInit,"ax",%progbits
 1092              		.align	1
 1093              		.weak	HAL_TIM_IC_MspInit
 1094              		.syntax unified
 1095              		.thumb
 1096              		.thumb_func
 1098              	HAL_TIM_IC_MspInit:
 1099              		@ args = 0, pretend = 0, frame = 0
 1100              		@ frame_needed = 0, uses_anonymous_args = 0
 1101              		@ link register save eliminated.
 1102 0000 7047     		bx	lr
 1104              		.section	.text.HAL_TIM_IC_MspDeInit,"ax",%progbits
 1105              		.align	1
 1106              		.weak	HAL_TIM_IC_MspDeInit
 1107              		.syntax unified
 1108              		.thumb
 1109              		.thumb_func
 1111              	HAL_TIM_IC_MspDeInit:
 1112              		@ args = 0, pretend = 0, frame = 0
 1113              		@ frame_needed = 0, uses_anonymous_args = 0
 1114              		@ link register save eliminated.
 1115 0000 7047     		bx	lr
 1117              		.section	.text.HAL_TIM_IC_DeInit,"ax",%progbits
 1118              		.align	1
 1119              		.global	HAL_TIM_IC_DeInit
 1120              		.syntax unified
 1121              		.thumb
 1122              		.thumb_func
 1124              	HAL_TIM_IC_DeInit:
 1125              		@ args = 0, pretend = 0, frame = 0
 1126              		@ frame_needed = 0, uses_anonymous_args = 0
 1127 0000 10B5     		push	{r4, lr}
 1128 0002 0446     		mov	r4, r0
 1129 0004 0223     		movs	r3, #2
 1130 0006 80F83D30 		strb	r3, [r0, #61]
 1131 000a 0368     		ldr	r3, [r0]
 1132 000c 196A     		ldr	r1, [r3, #32]
 1133 000e 41F21112 		movw	r2, #4369
 1134 0012 1142     		tst	r1, r2
 1135 0014 08D1     		bne	.L97
 1136 0016 196A     		ldr	r1, [r3, #32]
 1137 0018 40F24442 		movw	r2, #1092
 1138 001c 1142     		tst	r1, r2
 1139 001e 03D1     		bne	.L97
 1140 0020 1A68     		ldr	r2, [r3]
ARM GAS  C:\Users\aticl\AppData\Local\Temp\ccqcvH4b.s 			page 20


 1141 0022 22F00102 		bic	r2, r2, #1
 1142 0026 1A60     		str	r2, [r3]
 1143              	.L97:
 1144 0028 2046     		mov	r0, r4
 1145 002a FFF7FEFF 		bl	HAL_TIM_IC_MspDeInit
 1146 002e 0020     		movs	r0, #0
 1147 0030 84F84800 		strb	r0, [r4, #72]
 1148 0034 84F83E00 		strb	r0, [r4, #62]
 1149 0038 84F83F00 		strb	r0, [r4, #63]
 1150 003c 84F84000 		strb	r0, [r4, #64]
 1151 0040 84F84100 		strb	r0, [r4, #65]
 1152 0044 84F84200 		strb	r0, [r4, #66]
 1153 0048 84F84300 		strb	r0, [r4, #67]
 1154 004c 84F84400 		strb	r0, [r4, #68]
 1155 0050 84F84500 		strb	r0, [r4, #69]
 1156 0054 84F84600 		strb	r0, [r4, #70]
 1157 0058 84F84700 		strb	r0, [r4, #71]
 1158 005c 84F83D00 		strb	r0, [r4, #61]
 1159 0060 84F83C00 		strb	r0, [r4, #60]
 1160 0064 10BD     		pop	{r4, pc}
 1162              		.section	.text.HAL_TIM_OnePulse_MspInit,"ax",%progbits
 1163              		.align	1
 1164              		.weak	HAL_TIM_OnePulse_MspInit
 1165              		.syntax unified
 1166              		.thumb
 1167              		.thumb_func
 1169              	HAL_TIM_OnePulse_MspInit:
 1170              		@ args = 0, pretend = 0, frame = 0
 1171              		@ frame_needed = 0, uses_anonymous_args = 0
 1172              		@ link register save eliminated.
 1173 0000 7047     		bx	lr
 1175              		.section	.text.HAL_TIM_OnePulse_MspDeInit,"ax",%progbits
 1176              		.align	1
 1177              		.weak	HAL_TIM_OnePulse_MspDeInit
 1178              		.syntax unified
 1179              		.thumb
 1180              		.thumb_func
 1182              	HAL_TIM_OnePulse_MspDeInit:
 1183              		@ args = 0, pretend = 0, frame = 0
 1184              		@ frame_needed = 0, uses_anonymous_args = 0
 1185              		@ link register save eliminated.
 1186 0000 7047     		bx	lr
 1188              		.section	.text.HAL_TIM_OnePulse_DeInit,"ax",%progbits
 1189              		.align	1
 1190              		.global	HAL_TIM_OnePulse_DeInit
 1191              		.syntax unified
 1192              		.thumb
 1193              		.thumb_func
 1195              	HAL_TIM_OnePulse_DeInit:
 1196              		@ args = 0, pretend = 0, frame = 0
 1197              		@ frame_needed = 0, uses_anonymous_args = 0
 1198 0000 10B5     		push	{r4, lr}
 1199 0002 0446     		mov	r4, r0
 1200 0004 0223     		movs	r3, #2
 1201 0006 80F83D30 		strb	r3, [r0, #61]
 1202 000a 0368     		ldr	r3, [r0]
 1203 000c 196A     		ldr	r1, [r3, #32]
ARM GAS  C:\Users\aticl\AppData\Local\Temp\ccqcvH4b.s 			page 21


 1204 000e 41F21112 		movw	r2, #4369
 1205 0012 1142     		tst	r1, r2
 1206 0014 08D1     		bne	.L102
 1207 0016 196A     		ldr	r1, [r3, #32]
 1208 0018 40F24442 		movw	r2, #1092
 1209 001c 1142     		tst	r1, r2
 1210 001e 03D1     		bne	.L102
 1211 0020 1A68     		ldr	r2, [r3]
 1212 0022 22F00102 		bic	r2, r2, #1
 1213 0026 1A60     		str	r2, [r3]
 1214              	.L102:
 1215 0028 2046     		mov	r0, r4
 1216 002a FFF7FEFF 		bl	HAL_TIM_OnePulse_MspDeInit
 1217 002e 0020     		movs	r0, #0
 1218 0030 84F84800 		strb	r0, [r4, #72]
 1219 0034 84F83E00 		strb	r0, [r4, #62]
 1220 0038 84F83F00 		strb	r0, [r4, #63]
 1221 003c 84F84400 		strb	r0, [r4, #68]
 1222 0040 84F84500 		strb	r0, [r4, #69]
 1223 0044 84F83D00 		strb	r0, [r4, #61]
 1224 0048 84F83C00 		strb	r0, [r4, #60]
 1225 004c 10BD     		pop	{r4, pc}
 1227              		.section	.text.HAL_TIM_Encoder_MspInit,"ax",%progbits
 1228              		.align	1
 1229              		.weak	HAL_TIM_Encoder_MspInit
 1230              		.syntax unified
 1231              		.thumb
 1232              		.thumb_func
 1234              	HAL_TIM_Encoder_MspInit:
 1235              		@ args = 0, pretend = 0, frame = 0
 1236              		@ frame_needed = 0, uses_anonymous_args = 0
 1237              		@ link register save eliminated.
 1238 0000 7047     		bx	lr
 1240              		.section	.text.HAL_TIM_Encoder_MspDeInit,"ax",%progbits
 1241              		.align	1
 1242              		.weak	HAL_TIM_Encoder_MspDeInit
 1243              		.syntax unified
 1244              		.thumb
 1245              		.thumb_func
 1247              	HAL_TIM_Encoder_MspDeInit:
 1248              		@ args = 0, pretend = 0, frame = 0
 1249              		@ frame_needed = 0, uses_anonymous_args = 0
 1250              		@ link register save eliminated.
 1251 0000 7047     		bx	lr
 1253              		.section	.text.HAL_TIM_Encoder_DeInit,"ax",%progbits
 1254              		.align	1
 1255              		.global	HAL_TIM_Encoder_DeInit
 1256              		.syntax unified
 1257              		.thumb
 1258              		.thumb_func
 1260              	HAL_TIM_Encoder_DeInit:
 1261              		@ args = 0, pretend = 0, frame = 0
 1262              		@ frame_needed = 0, uses_anonymous_args = 0
 1263 0000 10B5     		push	{r4, lr}
 1264 0002 0446     		mov	r4, r0
 1265 0004 0223     		movs	r3, #2
 1266 0006 80F83D30 		strb	r3, [r0, #61]
ARM GAS  C:\Users\aticl\AppData\Local\Temp\ccqcvH4b.s 			page 22


 1267 000a 0368     		ldr	r3, [r0]
 1268 000c 196A     		ldr	r1, [r3, #32]
 1269 000e 41F21112 		movw	r2, #4369
 1270 0012 1142     		tst	r1, r2
 1271 0014 08D1     		bne	.L107
 1272 0016 196A     		ldr	r1, [r3, #32]
 1273 0018 40F24442 		movw	r2, #1092
 1274 001c 1142     		tst	r1, r2
 1275 001e 03D1     		bne	.L107
 1276 0020 1A68     		ldr	r2, [r3]
 1277 0022 22F00102 		bic	r2, r2, #1
 1278 0026 1A60     		str	r2, [r3]
 1279              	.L107:
 1280 0028 2046     		mov	r0, r4
 1281 002a FFF7FEFF 		bl	HAL_TIM_Encoder_MspDeInit
 1282 002e 0020     		movs	r0, #0
 1283 0030 84F84800 		strb	r0, [r4, #72]
 1284 0034 84F83E00 		strb	r0, [r4, #62]
 1285 0038 84F83F00 		strb	r0, [r4, #63]
 1286 003c 84F84400 		strb	r0, [r4, #68]
 1287 0040 84F84500 		strb	r0, [r4, #69]
 1288 0044 84F83D00 		strb	r0, [r4, #61]
 1289 0048 84F83C00 		strb	r0, [r4, #60]
 1290 004c 10BD     		pop	{r4, pc}
 1292              		.section	.text.HAL_TIM_DMABurst_MultiWriteStart,"ax",%progbits
 1293              		.align	1
 1294              		.global	HAL_TIM_DMABurst_MultiWriteStart
 1295              		.syntax unified
 1296              		.thumb
 1297              		.thumb_func
 1299              	HAL_TIM_DMABurst_MultiWriteStart:
 1300              		@ args = 8, pretend = 0, frame = 0
 1301              		@ frame_needed = 0, uses_anonymous_args = 0
 1302 0000 70B5     		push	{r4, r5, r6, lr}
 1303 0002 0446     		mov	r4, r0
 1304 0004 1546     		mov	r5, r2
 1305 0006 90F84820 		ldrb	r2, [r0, #72]	@ zero_extendqisi2
 1306 000a D0B2     		uxtb	r0, r2
 1307 000c 022A     		cmp	r2, #2
 1308 000e 2ED0     		beq	.L110
 1309 0010 0E46     		mov	r6, r1
 1310 0012 1946     		mov	r1, r3
 1311 0014 94F84820 		ldrb	r2, [r4, #72]	@ zero_extendqisi2
 1312 0018 D0B2     		uxtb	r0, r2
 1313 001a 012A     		cmp	r2, #1
 1314 001c 28D0     		beq	.L129
 1315              	.L111:
 1316 001e B5F5006F 		cmp	r5, #2048
 1317 0022 78D0     		beq	.L112
 1318 0024 33D8     		bhi	.L113
 1319 0026 B5F5007F 		cmp	r5, #512
 1320 002a 4ED0     		beq	.L114
 1321 002c B5F5806F 		cmp	r5, #1024
 1322 0030 5ED0     		beq	.L115
 1323 0032 B5F5807F 		cmp	r5, #256
 1324 0036 28D1     		bne	.L130
 1325 0038 236A     		ldr	r3, [r4, #32]
ARM GAS  C:\Users\aticl\AppData\Local\Temp\ccqcvH4b.s 			page 23


 1326 003a 554A     		ldr	r2, .L133
 1327 003c DA63     		str	r2, [r3, #60]
 1328 003e 236A     		ldr	r3, [r4, #32]
 1329 0040 544A     		ldr	r2, .L133+4
 1330 0042 1A64     		str	r2, [r3, #64]
 1331 0044 236A     		ldr	r3, [r4, #32]
 1332 0046 544A     		ldr	r2, .L133+8
 1333 0048 DA64     		str	r2, [r3, #76]
 1334 004a 2268     		ldr	r2, [r4]
 1335 004c 059B     		ldr	r3, [sp, #20]
 1336 004e 4C32     		adds	r2, r2, #76
 1337 0050 206A     		ldr	r0, [r4, #32]
 1338 0052 FFF7FEFF 		bl	HAL_DMA_Start_IT
 1339 0056 0028     		cmp	r0, #0
 1340 0058 40F09880 		bne	.L131
 1341              	.L120:
 1342 005c 2368     		ldr	r3, [r4]
 1343 005e 049A     		ldr	r2, [sp, #16]
 1344 0060 1643     		orrs	r6, r6, r2
 1345 0062 9E64     		str	r6, [r3, #72]
 1346 0064 2268     		ldr	r2, [r4]
 1347 0066 D368     		ldr	r3, [r2, #12]
 1348 0068 2B43     		orrs	r3, r3, r5
 1349 006a D360     		str	r3, [r2, #12]
 1350 006c 0020     		movs	r0, #0
 1351              	.L110:
 1352 006e 70BD     		pop	{r4, r5, r6, pc}
 1353              	.L129:
 1354 0070 049A     		ldr	r2, [sp, #16]
 1355 0072 B3FA83F3 		clz	r3, r3
 1356 0076 5B09     		lsrs	r3, r3, #5
 1357 0078 002A     		cmp	r2, #0
 1358 007a 08BF     		it	eq
 1359 007c 0023     		moveq	r3, #0
 1360 007e 002B     		cmp	r3, #0
 1361 0080 F5D1     		bne	.L110
 1362 0082 0223     		movs	r3, #2
 1363 0084 84F84830 		strb	r3, [r4, #72]
 1364 0088 C9E7     		b	.L111
 1365              	.L130:
 1366 008a 0120     		movs	r0, #1
 1367 008c EFE7     		b	.L110
 1368              	.L113:
 1369 008e B5F5005F 		cmp	r5, #8192
 1370 0092 53D0     		beq	.L117
 1371 0094 B5F5804F 		cmp	r5, #16384
 1372 0098 64D0     		beq	.L118
 1373 009a B5F5805F 		cmp	r5, #4096
 1374 009e 12D1     		bne	.L132
 1375 00a0 236B     		ldr	r3, [r4, #48]
 1376 00a2 3E4A     		ldr	r2, .L133+12
 1377 00a4 DA63     		str	r2, [r3, #60]
 1378 00a6 236B     		ldr	r3, [r4, #48]
 1379 00a8 3D4A     		ldr	r2, .L133+16
 1380 00aa 1A64     		str	r2, [r3, #64]
 1381 00ac 236B     		ldr	r3, [r4, #48]
 1382 00ae 3A4A     		ldr	r2, .L133+8
ARM GAS  C:\Users\aticl\AppData\Local\Temp\ccqcvH4b.s 			page 24


 1383 00b0 DA64     		str	r2, [r3, #76]
 1384 00b2 2268     		ldr	r2, [r4]
 1385 00b4 059B     		ldr	r3, [sp, #20]
 1386 00b6 4C32     		adds	r2, r2, #76
 1387 00b8 206B     		ldr	r0, [r4, #48]
 1388 00ba FFF7FEFF 		bl	HAL_DMA_Start_IT
 1389 00be 0028     		cmp	r0, #0
 1390 00c0 CCD0     		beq	.L120
 1391 00c2 0120     		movs	r0, #1
 1392 00c4 D3E7     		b	.L110
 1393              	.L132:
 1394 00c6 0120     		movs	r0, #1
 1395 00c8 D1E7     		b	.L110
 1396              	.L114:
 1397 00ca 636A     		ldr	r3, [r4, #36]
 1398 00cc 334A     		ldr	r2, .L133+12
 1399 00ce DA63     		str	r2, [r3, #60]
 1400 00d0 636A     		ldr	r3, [r4, #36]
 1401 00d2 334A     		ldr	r2, .L133+16
 1402 00d4 1A64     		str	r2, [r3, #64]
 1403 00d6 636A     		ldr	r3, [r4, #36]
 1404 00d8 2F4A     		ldr	r2, .L133+8
 1405 00da DA64     		str	r2, [r3, #76]
 1406 00dc 2268     		ldr	r2, [r4]
 1407 00de 059B     		ldr	r3, [sp, #20]
 1408 00e0 4C32     		adds	r2, r2, #76
 1409 00e2 606A     		ldr	r0, [r4, #36]
 1410 00e4 FFF7FEFF 		bl	HAL_DMA_Start_IT
 1411 00e8 0028     		cmp	r0, #0
 1412 00ea B7D0     		beq	.L120
 1413 00ec 0120     		movs	r0, #1
 1414 00ee BEE7     		b	.L110
 1415              	.L115:
 1416 00f0 A36A     		ldr	r3, [r4, #40]
 1417 00f2 2A4A     		ldr	r2, .L133+12
 1418 00f4 DA63     		str	r2, [r3, #60]
 1419 00f6 A36A     		ldr	r3, [r4, #40]
 1420 00f8 294A     		ldr	r2, .L133+16
 1421 00fa 1A64     		str	r2, [r3, #64]
 1422 00fc A36A     		ldr	r3, [r4, #40]
 1423 00fe 264A     		ldr	r2, .L133+8
 1424 0100 DA64     		str	r2, [r3, #76]
 1425 0102 2268     		ldr	r2, [r4]
 1426 0104 059B     		ldr	r3, [sp, #20]
 1427 0106 4C32     		adds	r2, r2, #76
 1428 0108 A06A     		ldr	r0, [r4, #40]
 1429 010a FFF7FEFF 		bl	HAL_DMA_Start_IT
 1430 010e 0028     		cmp	r0, #0
 1431 0110 A4D0     		beq	.L120
 1432 0112 0120     		movs	r0, #1
 1433 0114 ABE7     		b	.L110
 1434              	.L112:
 1435 0116 E36A     		ldr	r3, [r4, #44]
 1436 0118 204A     		ldr	r2, .L133+12
 1437 011a DA63     		str	r2, [r3, #60]
 1438 011c E36A     		ldr	r3, [r4, #44]
 1439 011e 204A     		ldr	r2, .L133+16
ARM GAS  C:\Users\aticl\AppData\Local\Temp\ccqcvH4b.s 			page 25


 1440 0120 1A64     		str	r2, [r3, #64]
 1441 0122 E36A     		ldr	r3, [r4, #44]
 1442 0124 1C4A     		ldr	r2, .L133+8
 1443 0126 DA64     		str	r2, [r3, #76]
 1444 0128 2268     		ldr	r2, [r4]
 1445 012a 059B     		ldr	r3, [sp, #20]
 1446 012c 4C32     		adds	r2, r2, #76
 1447 012e E06A     		ldr	r0, [r4, #44]
 1448 0130 FFF7FEFF 		bl	HAL_DMA_Start_IT
 1449 0134 0028     		cmp	r0, #0
 1450 0136 91D0     		beq	.L120
 1451 0138 0120     		movs	r0, #1
 1452 013a 98E7     		b	.L110
 1453              	.L117:
 1454 013c 636B     		ldr	r3, [r4, #52]
 1455 013e 194A     		ldr	r2, .L133+20
 1456 0140 DA63     		str	r2, [r3, #60]
 1457 0142 636B     		ldr	r3, [r4, #52]
 1458 0144 184A     		ldr	r2, .L133+24
 1459 0146 1A64     		str	r2, [r3, #64]
 1460 0148 636B     		ldr	r3, [r4, #52]
 1461 014a 134A     		ldr	r2, .L133+8
 1462 014c DA64     		str	r2, [r3, #76]
 1463 014e 2268     		ldr	r2, [r4]
 1464 0150 059B     		ldr	r3, [sp, #20]
 1465 0152 4C32     		adds	r2, r2, #76
 1466 0154 606B     		ldr	r0, [r4, #52]
 1467 0156 FFF7FEFF 		bl	HAL_DMA_Start_IT
 1468 015a 0028     		cmp	r0, #0
 1469 015c 3FF47EAF 		beq	.L120
 1470 0160 0120     		movs	r0, #1
 1471 0162 84E7     		b	.L110
 1472              	.L118:
 1473 0164 A36B     		ldr	r3, [r4, #56]
 1474 0166 114A     		ldr	r2, .L133+28
 1475 0168 DA63     		str	r2, [r3, #60]
 1476 016a A36B     		ldr	r3, [r4, #56]
 1477 016c 104A     		ldr	r2, .L133+32
 1478 016e 1A64     		str	r2, [r3, #64]
 1479 0170 A36B     		ldr	r3, [r4, #56]
 1480 0172 094A     		ldr	r2, .L133+8
 1481 0174 DA64     		str	r2, [r3, #76]
 1482 0176 2268     		ldr	r2, [r4]
 1483 0178 059B     		ldr	r3, [sp, #20]
 1484 017a 4C32     		adds	r2, r2, #76
 1485 017c A06B     		ldr	r0, [r4, #56]
 1486 017e FFF7FEFF 		bl	HAL_DMA_Start_IT
 1487 0182 0028     		cmp	r0, #0
 1488 0184 3FF46AAF 		beq	.L120
 1489 0188 0120     		movs	r0, #1
 1490 018a 70E7     		b	.L110
 1491              	.L131:
 1492 018c 0120     		movs	r0, #1
 1493 018e 6EE7     		b	.L110
 1494              	.L134:
 1495              		.align	2
 1496              	.L133:
ARM GAS  C:\Users\aticl\AppData\Local\Temp\ccqcvH4b.s 			page 26


 1497 0190 00000000 		.word	TIM_DMAPeriodElapsedCplt
 1498 0194 00000000 		.word	TIM_DMAPeriodElapsedHalfCplt
 1499 0198 00000000 		.word	TIM_DMAError
 1500 019c 00000000 		.word	TIM_DMADelayPulseCplt
 1501 01a0 00000000 		.word	TIM_DMADelayPulseHalfCplt
 1502 01a4 00000000 		.word	TIMEx_DMACommutationCplt
 1503 01a8 00000000 		.word	TIMEx_DMACommutationHalfCplt
 1504 01ac 00000000 		.word	TIM_DMATriggerCplt
 1505 01b0 00000000 		.word	TIM_DMATriggerHalfCplt
 1507              		.section	.text.HAL_TIM_DMABurst_WriteStart,"ax",%progbits
 1508              		.align	1
 1509              		.global	HAL_TIM_DMABurst_WriteStart
 1510              		.syntax unified
 1511              		.thumb
 1512              		.thumb_func
 1514              	HAL_TIM_DMABurst_WriteStart:
 1515              		@ args = 4, pretend = 0, frame = 0
 1516              		@ frame_needed = 0, uses_anonymous_args = 0
 1517 0000 30B5     		push	{r4, r5, lr}
 1518 0002 83B0     		sub	sp, sp, #12
 1519 0004 069D     		ldr	r5, [sp, #24]
 1520 0006 2C0A     		lsrs	r4, r5, #8
 1521 0008 0134     		adds	r4, r4, #1
 1522 000a 0194     		str	r4, [sp, #4]
 1523 000c 0095     		str	r5, [sp]
 1524 000e FFF7FEFF 		bl	HAL_TIM_DMABurst_MultiWriteStart
 1525 0012 03B0     		add	sp, sp, #12
 1526              		@ sp needed
 1527 0014 30BD     		pop	{r4, r5, pc}
 1529              		.section	.text.HAL_TIM_DMABurst_WriteStop,"ax",%progbits
 1530              		.align	1
 1531              		.global	HAL_TIM_DMABurst_WriteStop
 1532              		.syntax unified
 1533              		.thumb
 1534              		.thumb_func
 1536              	HAL_TIM_DMABurst_WriteStop:
 1537              		@ args = 0, pretend = 0, frame = 0
 1538              		@ frame_needed = 0, uses_anonymous_args = 0
 1539 0000 38B5     		push	{r3, r4, r5, lr}
 1540 0002 0546     		mov	r5, r0
 1541 0004 0C46     		mov	r4, r1
 1542 0006 B1F5006F 		cmp	r1, #2048
 1543 000a 2FD0     		beq	.L138
 1544 000c 17D8     		bhi	.L139
 1545 000e B1F5007F 		cmp	r1, #512
 1546 0012 23D0     		beq	.L140
 1547 0014 B1F5806F 		cmp	r1, #1024
 1548 0018 24D0     		beq	.L141
 1549 001a B1F5807F 		cmp	r1, #256
 1550 001e 0CD1     		bne	.L149
 1551 0020 006A     		ldr	r0, [r0, #32]
 1552 0022 FFF7FEFF 		bl	HAL_DMA_Abort_IT
 1553              	.L147:
 1554 0026 2A68     		ldr	r2, [r5]
 1555 0028 D368     		ldr	r3, [r2, #12]
 1556 002a 23EA0403 		bic	r3, r3, r4
 1557 002e D360     		str	r3, [r2, #12]
ARM GAS  C:\Users\aticl\AppData\Local\Temp\ccqcvH4b.s 			page 27


 1558 0030 0123     		movs	r3, #1
 1559 0032 85F84830 		strb	r3, [r5, #72]
 1560 0036 0020     		movs	r0, #0
 1561              	.L143:
 1562 0038 38BD     		pop	{r3, r4, r5, pc}
 1563              	.L149:
 1564 003a 0120     		movs	r0, #1
 1565 003c FCE7     		b	.L143
 1566              	.L139:
 1567 003e B1F5005F 		cmp	r1, #8192
 1568 0042 17D0     		beq	.L144
 1569 0044 B1F5804F 		cmp	r1, #16384
 1570 0048 18D0     		beq	.L145
 1571 004a B1F5805F 		cmp	r1, #4096
 1572 004e 03D1     		bne	.L150
 1573 0050 006B     		ldr	r0, [r0, #48]
 1574 0052 FFF7FEFF 		bl	HAL_DMA_Abort_IT
 1575 0056 E6E7     		b	.L147
 1576              	.L150:
 1577 0058 0120     		movs	r0, #1
 1578 005a EDE7     		b	.L143
 1579              	.L140:
 1580 005c 406A     		ldr	r0, [r0, #36]
 1581 005e FFF7FEFF 		bl	HAL_DMA_Abort_IT
 1582 0062 E0E7     		b	.L147
 1583              	.L141:
 1584 0064 806A     		ldr	r0, [r0, #40]
 1585 0066 FFF7FEFF 		bl	HAL_DMA_Abort_IT
 1586 006a DCE7     		b	.L147
 1587              	.L138:
 1588 006c C06A     		ldr	r0, [r0, #44]
 1589 006e FFF7FEFF 		bl	HAL_DMA_Abort_IT
 1590 0072 D8E7     		b	.L147
 1591              	.L144:
 1592 0074 406B     		ldr	r0, [r0, #52]
 1593 0076 FFF7FEFF 		bl	HAL_DMA_Abort_IT
 1594 007a D4E7     		b	.L147
 1595              	.L145:
 1596 007c 806B     		ldr	r0, [r0, #56]
 1597 007e FFF7FEFF 		bl	HAL_DMA_Abort_IT
 1598 0082 D0E7     		b	.L147
 1600              		.section	.text.HAL_TIM_DMABurst_MultiReadStart,"ax",%progbits
 1601              		.align	1
 1602              		.global	HAL_TIM_DMABurst_MultiReadStart
 1603              		.syntax unified
 1604              		.thumb
 1605              		.thumb_func
 1607              	HAL_TIM_DMABurst_MultiReadStart:
 1608              		@ args = 8, pretend = 0, frame = 0
 1609              		@ frame_needed = 0, uses_anonymous_args = 0
 1610 0000 70B5     		push	{r4, r5, r6, lr}
 1611 0002 0446     		mov	r4, r0
 1612 0004 90F848C0 		ldrb	ip, [r0, #72]	@ zero_extendqisi2
 1613 0008 5FFA8CF0 		uxtb	r0, ip
 1614 000c BCF1020F 		cmp	ip, #2
 1615 0010 31D0     		beq	.L152
 1616 0012 0E46     		mov	r6, r1
ARM GAS  C:\Users\aticl\AppData\Local\Temp\ccqcvH4b.s 			page 28


 1617 0014 1546     		mov	r5, r2
 1618 0016 1A46     		mov	r2, r3
 1619 0018 94F848C0 		ldrb	ip, [r4, #72]	@ zero_extendqisi2
 1620 001c 5FFA8CF0 		uxtb	r0, ip
 1621 0020 BCF1010F 		cmp	ip, #1
 1622 0024 28D0     		beq	.L171
 1623              	.L153:
 1624 0026 B5F5006F 		cmp	r5, #2048
 1625 002a 78D0     		beq	.L154
 1626 002c 33D8     		bhi	.L155
 1627 002e B5F5007F 		cmp	r5, #512
 1628 0032 4ED0     		beq	.L156
 1629 0034 B5F5806F 		cmp	r5, #1024
 1630 0038 5ED0     		beq	.L157
 1631 003a B5F5807F 		cmp	r5, #256
 1632 003e 28D1     		bne	.L172
 1633 0040 236A     		ldr	r3, [r4, #32]
 1634 0042 5549     		ldr	r1, .L175
 1635 0044 D963     		str	r1, [r3, #60]
 1636 0046 236A     		ldr	r3, [r4, #32]
 1637 0048 5449     		ldr	r1, .L175+4
 1638 004a 1964     		str	r1, [r3, #64]
 1639 004c 236A     		ldr	r3, [r4, #32]
 1640 004e 5449     		ldr	r1, .L175+8
 1641 0050 D964     		str	r1, [r3, #76]
 1642 0052 2168     		ldr	r1, [r4]
 1643 0054 059B     		ldr	r3, [sp, #20]
 1644 0056 4C31     		adds	r1, r1, #76
 1645 0058 206A     		ldr	r0, [r4, #32]
 1646 005a FFF7FEFF 		bl	HAL_DMA_Start_IT
 1647 005e 0028     		cmp	r0, #0
 1648 0060 40F09880 		bne	.L173
 1649              	.L162:
 1650 0064 2368     		ldr	r3, [r4]
 1651 0066 049A     		ldr	r2, [sp, #16]
 1652 0068 1643     		orrs	r6, r6, r2
 1653 006a 9E64     		str	r6, [r3, #72]
 1654 006c 2268     		ldr	r2, [r4]
 1655 006e D368     		ldr	r3, [r2, #12]
 1656 0070 2B43     		orrs	r3, r3, r5
 1657 0072 D360     		str	r3, [r2, #12]
 1658 0074 0020     		movs	r0, #0
 1659              	.L152:
 1660 0076 70BD     		pop	{r4, r5, r6, pc}
 1661              	.L171:
 1662 0078 0499     		ldr	r1, [sp, #16]
 1663 007a B3FA83F3 		clz	r3, r3
 1664 007e 5B09     		lsrs	r3, r3, #5
 1665 0080 0029     		cmp	r1, #0
 1666 0082 08BF     		it	eq
 1667 0084 0023     		moveq	r3, #0
 1668 0086 002B     		cmp	r3, #0
 1669 0088 F5D1     		bne	.L152
 1670 008a 0223     		movs	r3, #2
 1671 008c 84F84830 		strb	r3, [r4, #72]
 1672 0090 C9E7     		b	.L153
 1673              	.L172:
ARM GAS  C:\Users\aticl\AppData\Local\Temp\ccqcvH4b.s 			page 29


 1674 0092 0120     		movs	r0, #1
 1675 0094 EFE7     		b	.L152
 1676              	.L155:
 1677 0096 B5F5005F 		cmp	r5, #8192
 1678 009a 53D0     		beq	.L159
 1679 009c B5F5804F 		cmp	r5, #16384
 1680 00a0 64D0     		beq	.L160
 1681 00a2 B5F5805F 		cmp	r5, #4096
 1682 00a6 12D1     		bne	.L174
 1683 00a8 236B     		ldr	r3, [r4, #48]
 1684 00aa 3E49     		ldr	r1, .L175+12
 1685 00ac D963     		str	r1, [r3, #60]
 1686 00ae 236B     		ldr	r3, [r4, #48]
 1687 00b0 3D49     		ldr	r1, .L175+16
 1688 00b2 1964     		str	r1, [r3, #64]
 1689 00b4 236B     		ldr	r3, [r4, #48]
 1690 00b6 3A49     		ldr	r1, .L175+8
 1691 00b8 D964     		str	r1, [r3, #76]
 1692 00ba 2168     		ldr	r1, [r4]
 1693 00bc 059B     		ldr	r3, [sp, #20]
 1694 00be 4C31     		adds	r1, r1, #76
 1695 00c0 206B     		ldr	r0, [r4, #48]
 1696 00c2 FFF7FEFF 		bl	HAL_DMA_Start_IT
 1697 00c6 0028     		cmp	r0, #0
 1698 00c8 CCD0     		beq	.L162
 1699 00ca 0120     		movs	r0, #1
 1700 00cc D3E7     		b	.L152
 1701              	.L174:
 1702 00ce 0120     		movs	r0, #1
 1703 00d0 D1E7     		b	.L152
 1704              	.L156:
 1705 00d2 636A     		ldr	r3, [r4, #36]
 1706 00d4 3349     		ldr	r1, .L175+12
 1707 00d6 D963     		str	r1, [r3, #60]
 1708 00d8 636A     		ldr	r3, [r4, #36]
 1709 00da 3349     		ldr	r1, .L175+16
 1710 00dc 1964     		str	r1, [r3, #64]
 1711 00de 636A     		ldr	r3, [r4, #36]
 1712 00e0 2F49     		ldr	r1, .L175+8
 1713 00e2 D964     		str	r1, [r3, #76]
 1714 00e4 2168     		ldr	r1, [r4]
 1715 00e6 059B     		ldr	r3, [sp, #20]
 1716 00e8 4C31     		adds	r1, r1, #76
 1717 00ea 606A     		ldr	r0, [r4, #36]
 1718 00ec FFF7FEFF 		bl	HAL_DMA_Start_IT
 1719 00f0 0028     		cmp	r0, #0
 1720 00f2 B7D0     		beq	.L162
 1721 00f4 0120     		movs	r0, #1
 1722 00f6 BEE7     		b	.L152
 1723              	.L157:
 1724 00f8 A36A     		ldr	r3, [r4, #40]
 1725 00fa 2A49     		ldr	r1, .L175+12
 1726 00fc D963     		str	r1, [r3, #60]
 1727 00fe A36A     		ldr	r3, [r4, #40]
 1728 0100 2949     		ldr	r1, .L175+16
 1729 0102 1964     		str	r1, [r3, #64]
 1730 0104 A36A     		ldr	r3, [r4, #40]
ARM GAS  C:\Users\aticl\AppData\Local\Temp\ccqcvH4b.s 			page 30


 1731 0106 2649     		ldr	r1, .L175+8
 1732 0108 D964     		str	r1, [r3, #76]
 1733 010a 2168     		ldr	r1, [r4]
 1734 010c 059B     		ldr	r3, [sp, #20]
 1735 010e 4C31     		adds	r1, r1, #76
 1736 0110 A06A     		ldr	r0, [r4, #40]
 1737 0112 FFF7FEFF 		bl	HAL_DMA_Start_IT
 1738 0116 0028     		cmp	r0, #0
 1739 0118 A4D0     		beq	.L162
 1740 011a 0120     		movs	r0, #1
 1741 011c ABE7     		b	.L152
 1742              	.L154:
 1743 011e E36A     		ldr	r3, [r4, #44]
 1744 0120 2049     		ldr	r1, .L175+12
 1745 0122 D963     		str	r1, [r3, #60]
 1746 0124 E36A     		ldr	r3, [r4, #44]
 1747 0126 2049     		ldr	r1, .L175+16
 1748 0128 1964     		str	r1, [r3, #64]
 1749 012a E36A     		ldr	r3, [r4, #44]
 1750 012c 1C49     		ldr	r1, .L175+8
 1751 012e D964     		str	r1, [r3, #76]
 1752 0130 2168     		ldr	r1, [r4]
 1753 0132 059B     		ldr	r3, [sp, #20]
 1754 0134 4C31     		adds	r1, r1, #76
 1755 0136 E06A     		ldr	r0, [r4, #44]
 1756 0138 FFF7FEFF 		bl	HAL_DMA_Start_IT
 1757 013c 0028     		cmp	r0, #0
 1758 013e 91D0     		beq	.L162
 1759 0140 0120     		movs	r0, #1
 1760 0142 98E7     		b	.L152
 1761              	.L159:
 1762 0144 636B     		ldr	r3, [r4, #52]
 1763 0146 1949     		ldr	r1, .L175+20
 1764 0148 D963     		str	r1, [r3, #60]
 1765 014a 636B     		ldr	r3, [r4, #52]
 1766 014c 1849     		ldr	r1, .L175+24
 1767 014e 1964     		str	r1, [r3, #64]
 1768 0150 636B     		ldr	r3, [r4, #52]
 1769 0152 1349     		ldr	r1, .L175+8
 1770 0154 D964     		str	r1, [r3, #76]
 1771 0156 2168     		ldr	r1, [r4]
 1772 0158 059B     		ldr	r3, [sp, #20]
 1773 015a 4C31     		adds	r1, r1, #76
 1774 015c 606B     		ldr	r0, [r4, #52]
 1775 015e FFF7FEFF 		bl	HAL_DMA_Start_IT
 1776 0162 0028     		cmp	r0, #0
 1777 0164 3FF47EAF 		beq	.L162
 1778 0168 0120     		movs	r0, #1
 1779 016a 84E7     		b	.L152
 1780              	.L160:
 1781 016c A36B     		ldr	r3, [r4, #56]
 1782 016e 1149     		ldr	r1, .L175+28
 1783 0170 D963     		str	r1, [r3, #60]
 1784 0172 A36B     		ldr	r3, [r4, #56]
 1785 0174 1049     		ldr	r1, .L175+32
 1786 0176 1964     		str	r1, [r3, #64]
 1787 0178 A36B     		ldr	r3, [r4, #56]
ARM GAS  C:\Users\aticl\AppData\Local\Temp\ccqcvH4b.s 			page 31


 1788 017a 0949     		ldr	r1, .L175+8
 1789 017c D964     		str	r1, [r3, #76]
 1790 017e 2168     		ldr	r1, [r4]
 1791 0180 059B     		ldr	r3, [sp, #20]
 1792 0182 4C31     		adds	r1, r1, #76
 1793 0184 A06B     		ldr	r0, [r4, #56]
 1794 0186 FFF7FEFF 		bl	HAL_DMA_Start_IT
 1795 018a 0028     		cmp	r0, #0
 1796 018c 3FF46AAF 		beq	.L162
 1797 0190 0120     		movs	r0, #1
 1798 0192 70E7     		b	.L152
 1799              	.L173:
 1800 0194 0120     		movs	r0, #1
 1801 0196 6EE7     		b	.L152
 1802              	.L176:
 1803              		.align	2
 1804              	.L175:
 1805 0198 00000000 		.word	TIM_DMAPeriodElapsedCplt
 1806 019c 00000000 		.word	TIM_DMAPeriodElapsedHalfCplt
 1807 01a0 00000000 		.word	TIM_DMAError
 1808 01a4 00000000 		.word	TIM_DMACaptureCplt
 1809 01a8 00000000 		.word	TIM_DMACaptureHalfCplt
 1810 01ac 00000000 		.word	TIMEx_DMACommutationCplt
 1811 01b0 00000000 		.word	TIMEx_DMACommutationHalfCplt
 1812 01b4 00000000 		.word	TIM_DMATriggerCplt
 1813 01b8 00000000 		.word	TIM_DMATriggerHalfCplt
 1815              		.section	.text.HAL_TIM_DMABurst_ReadStart,"ax",%progbits
 1816              		.align	1
 1817              		.global	HAL_TIM_DMABurst_ReadStart
 1818              		.syntax unified
 1819              		.thumb
 1820              		.thumb_func
 1822              	HAL_TIM_DMABurst_ReadStart:
 1823              		@ args = 4, pretend = 0, frame = 0
 1824              		@ frame_needed = 0, uses_anonymous_args = 0
 1825 0000 30B5     		push	{r4, r5, lr}
 1826 0002 83B0     		sub	sp, sp, #12
 1827 0004 069D     		ldr	r5, [sp, #24]
 1828 0006 2C0A     		lsrs	r4, r5, #8
 1829 0008 0134     		adds	r4, r4, #1
 1830 000a 0194     		str	r4, [sp, #4]
 1831 000c 0095     		str	r5, [sp]
 1832 000e FFF7FEFF 		bl	HAL_TIM_DMABurst_MultiReadStart
 1833 0012 03B0     		add	sp, sp, #12
 1834              		@ sp needed
 1835 0014 30BD     		pop	{r4, r5, pc}
 1837              		.section	.text.HAL_TIM_DMABurst_ReadStop,"ax",%progbits
 1838              		.align	1
 1839              		.global	HAL_TIM_DMABurst_ReadStop
 1840              		.syntax unified
 1841              		.thumb
 1842              		.thumb_func
 1844              	HAL_TIM_DMABurst_ReadStop:
 1845              		@ args = 0, pretend = 0, frame = 0
 1846              		@ frame_needed = 0, uses_anonymous_args = 0
 1847 0000 38B5     		push	{r3, r4, r5, lr}
 1848 0002 0546     		mov	r5, r0
ARM GAS  C:\Users\aticl\AppData\Local\Temp\ccqcvH4b.s 			page 32


 1849 0004 0C46     		mov	r4, r1
 1850 0006 B1F5006F 		cmp	r1, #2048
 1851 000a 2FD0     		beq	.L180
 1852 000c 17D8     		bhi	.L181
 1853 000e B1F5007F 		cmp	r1, #512
 1854 0012 23D0     		beq	.L182
 1855 0014 B1F5806F 		cmp	r1, #1024
 1856 0018 24D0     		beq	.L183
 1857 001a B1F5807F 		cmp	r1, #256
 1858 001e 0CD1     		bne	.L191
 1859 0020 006A     		ldr	r0, [r0, #32]
 1860 0022 FFF7FEFF 		bl	HAL_DMA_Abort_IT
 1861              	.L189:
 1862 0026 2A68     		ldr	r2, [r5]
 1863 0028 D368     		ldr	r3, [r2, #12]
 1864 002a 23EA0403 		bic	r3, r3, r4
 1865 002e D360     		str	r3, [r2, #12]
 1866 0030 0123     		movs	r3, #1
 1867 0032 85F84830 		strb	r3, [r5, #72]
 1868 0036 0020     		movs	r0, #0
 1869              	.L185:
 1870 0038 38BD     		pop	{r3, r4, r5, pc}
 1871              	.L191:
 1872 003a 0120     		movs	r0, #1
 1873 003c FCE7     		b	.L185
 1874              	.L181:
 1875 003e B1F5005F 		cmp	r1, #8192
 1876 0042 17D0     		beq	.L186
 1877 0044 B1F5804F 		cmp	r1, #16384
 1878 0048 18D0     		beq	.L187
 1879 004a B1F5805F 		cmp	r1, #4096
 1880 004e 03D1     		bne	.L192
 1881 0050 006B     		ldr	r0, [r0, #48]
 1882 0052 FFF7FEFF 		bl	HAL_DMA_Abort_IT
 1883 0056 E6E7     		b	.L189
 1884              	.L192:
 1885 0058 0120     		movs	r0, #1
 1886 005a EDE7     		b	.L185
 1887              	.L182:
 1888 005c 406A     		ldr	r0, [r0, #36]
 1889 005e FFF7FEFF 		bl	HAL_DMA_Abort_IT
 1890 0062 E0E7     		b	.L189
 1891              	.L183:
 1892 0064 806A     		ldr	r0, [r0, #40]
 1893 0066 FFF7FEFF 		bl	HAL_DMA_Abort_IT
 1894 006a DCE7     		b	.L189
 1895              	.L180:
 1896 006c C06A     		ldr	r0, [r0, #44]
 1897 006e FFF7FEFF 		bl	HAL_DMA_Abort_IT
 1898 0072 D8E7     		b	.L189
 1899              	.L186:
 1900 0074 406B     		ldr	r0, [r0, #52]
 1901 0076 FFF7FEFF 		bl	HAL_DMA_Abort_IT
 1902 007a D4E7     		b	.L189
 1903              	.L187:
 1904 007c 806B     		ldr	r0, [r0, #56]
 1905 007e FFF7FEFF 		bl	HAL_DMA_Abort_IT
ARM GAS  C:\Users\aticl\AppData\Local\Temp\ccqcvH4b.s 			page 33


 1906 0082 D0E7     		b	.L189
 1908              		.section	.text.HAL_TIM_GenerateEvent,"ax",%progbits
 1909              		.align	1
 1910              		.global	HAL_TIM_GenerateEvent
 1911              		.syntax unified
 1912              		.thumb
 1913              		.thumb_func
 1915              	HAL_TIM_GenerateEvent:
 1916              		@ args = 0, pretend = 0, frame = 0
 1917              		@ frame_needed = 0, uses_anonymous_args = 0
 1918              		@ link register save eliminated.
 1919 0000 90F83C30 		ldrb	r3, [r0, #60]	@ zero_extendqisi2
 1920 0004 012B     		cmp	r3, #1
 1921 0006 0ED0     		beq	.L195
 1922 0008 0123     		movs	r3, #1
 1923 000a 80F83C30 		strb	r3, [r0, #60]
 1924 000e 0222     		movs	r2, #2
 1925 0010 80F83D20 		strb	r2, [r0, #61]
 1926 0014 0268     		ldr	r2, [r0]
 1927 0016 5161     		str	r1, [r2, #20]
 1928 0018 80F83D30 		strb	r3, [r0, #61]
 1929 001c 0023     		movs	r3, #0
 1930 001e 80F83C30 		strb	r3, [r0, #60]
 1931 0022 1846     		mov	r0, r3
 1932 0024 7047     		bx	lr
 1933              	.L195:
 1934 0026 0220     		movs	r0, #2
 1935 0028 7047     		bx	lr
 1937              		.section	.text.HAL_TIM_ConfigTI1Input,"ax",%progbits
 1938              		.align	1
 1939              		.global	HAL_TIM_ConfigTI1Input
 1940              		.syntax unified
 1941              		.thumb
 1942              		.thumb_func
 1944              	HAL_TIM_ConfigTI1Input:
 1945              		@ args = 0, pretend = 0, frame = 0
 1946              		@ frame_needed = 0, uses_anonymous_args = 0
 1947              		@ link register save eliminated.
 1948 0000 0268     		ldr	r2, [r0]
 1949 0002 5368     		ldr	r3, [r2, #4]
 1950 0004 23F08003 		bic	r3, r3, #128
 1951 0008 0B43     		orrs	r3, r3, r1
 1952 000a 5360     		str	r3, [r2, #4]
 1953 000c 0020     		movs	r0, #0
 1954 000e 7047     		bx	lr
 1956              		.section	.text.HAL_TIM_ReadCapturedValue,"ax",%progbits
 1957              		.align	1
 1958              		.global	HAL_TIM_ReadCapturedValue
 1959              		.syntax unified
 1960              		.thumb
 1961              		.thumb_func
 1963              	HAL_TIM_ReadCapturedValue:
 1964              		@ args = 0, pretend = 0, frame = 0
 1965              		@ frame_needed = 0, uses_anonymous_args = 0
 1966              		@ link register save eliminated.
 1967 0000 0C29     		cmp	r1, #12
 1968 0002 14D8     		bhi	.L204
ARM GAS  C:\Users\aticl\AppData\Local\Temp\ccqcvH4b.s 			page 34


 1969 0004 DFE801F0 		tbb	[pc, r1]
 1970              	.L200:
 1971 0008 07       		.byte	(.L203-.L200)/2
 1972 0009 13       		.byte	(.L204-.L200)/2
 1973 000a 13       		.byte	(.L204-.L200)/2
 1974 000b 13       		.byte	(.L204-.L200)/2
 1975 000c 0A       		.byte	(.L202-.L200)/2
 1976 000d 13       		.byte	(.L204-.L200)/2
 1977 000e 13       		.byte	(.L204-.L200)/2
 1978 000f 13       		.byte	(.L204-.L200)/2
 1979 0010 0D       		.byte	(.L201-.L200)/2
 1980 0011 13       		.byte	(.L204-.L200)/2
 1981 0012 13       		.byte	(.L204-.L200)/2
 1982 0013 13       		.byte	(.L204-.L200)/2
 1983 0014 10       		.byte	(.L199-.L200)/2
 1984 0015 00       		.p2align 1
 1985              	.L203:
 1986 0016 0368     		ldr	r3, [r0]
 1987 0018 586B     		ldr	r0, [r3, #52]
 1988 001a 7047     		bx	lr
 1989              	.L202:
 1990 001c 0368     		ldr	r3, [r0]
 1991 001e 986B     		ldr	r0, [r3, #56]
 1992 0020 7047     		bx	lr
 1993              	.L201:
 1994 0022 0368     		ldr	r3, [r0]
 1995 0024 D86B     		ldr	r0, [r3, #60]
 1996 0026 7047     		bx	lr
 1997              	.L199:
 1998 0028 0368     		ldr	r3, [r0]
 1999 002a 186C     		ldr	r0, [r3, #64]
 2000 002c 7047     		bx	lr
 2001              	.L204:
 2002 002e 0020     		movs	r0, #0
 2003 0030 7047     		bx	lr
 2005              		.section	.text.HAL_TIM_PeriodElapsedCallback,"ax",%progbits
 2006              		.align	1
 2007              		.weak	HAL_TIM_PeriodElapsedCallback
 2008              		.syntax unified
 2009              		.thumb
 2010              		.thumb_func
 2012              	HAL_TIM_PeriodElapsedCallback:
 2013              		@ args = 0, pretend = 0, frame = 0
 2014              		@ frame_needed = 0, uses_anonymous_args = 0
 2015              		@ link register save eliminated.
 2016 0000 7047     		bx	lr
 2018              		.section	.text.TIM_DMAPeriodElapsedCplt,"ax",%progbits
 2019              		.align	1
 2020              		.syntax unified
 2021              		.thumb
 2022              		.thumb_func
 2024              	TIM_DMAPeriodElapsedCplt:
 2025              		@ args = 0, pretend = 0, frame = 0
 2026              		@ frame_needed = 0, uses_anonymous_args = 0
 2027 0000 08B5     		push	{r3, lr}
 2028 0002 806B     		ldr	r0, [r0, #56]
 2029 0004 036A     		ldr	r3, [r0, #32]
ARM GAS  C:\Users\aticl\AppData\Local\Temp\ccqcvH4b.s 			page 35


 2030 0006 DB69     		ldr	r3, [r3, #28]
 2031 0008 13B9     		cbnz	r3, .L207
 2032 000a 0123     		movs	r3, #1
 2033 000c 80F83D30 		strb	r3, [r0, #61]
 2034              	.L207:
 2035 0010 FFF7FEFF 		bl	HAL_TIM_PeriodElapsedCallback
 2036 0014 08BD     		pop	{r3, pc}
 2038              		.section	.text.HAL_TIM_PeriodElapsedHalfCpltCallback,"ax",%progbits
 2039              		.align	1
 2040              		.weak	HAL_TIM_PeriodElapsedHalfCpltCallback
 2041              		.syntax unified
 2042              		.thumb
 2043              		.thumb_func
 2045              	HAL_TIM_PeriodElapsedHalfCpltCallback:
 2046              		@ args = 0, pretend = 0, frame = 0
 2047              		@ frame_needed = 0, uses_anonymous_args = 0
 2048              		@ link register save eliminated.
 2049 0000 7047     		bx	lr
 2051              		.section	.text.TIM_DMAPeriodElapsedHalfCplt,"ax",%progbits
 2052              		.align	1
 2053              		.syntax unified
 2054              		.thumb
 2055              		.thumb_func
 2057              	TIM_DMAPeriodElapsedHalfCplt:
 2058              		@ args = 0, pretend = 0, frame = 0
 2059              		@ frame_needed = 0, uses_anonymous_args = 0
 2060 0000 08B5     		push	{r3, lr}
 2061 0002 806B     		ldr	r0, [r0, #56]
 2062 0004 FFF7FEFF 		bl	HAL_TIM_PeriodElapsedHalfCpltCallback
 2063 0008 08BD     		pop	{r3, pc}
 2065              		.section	.text.HAL_TIM_OC_DelayElapsedCallback,"ax",%progbits
 2066              		.align	1
 2067              		.weak	HAL_TIM_OC_DelayElapsedCallback
 2068              		.syntax unified
 2069              		.thumb
 2070              		.thumb_func
 2072              	HAL_TIM_OC_DelayElapsedCallback:
 2073              		@ args = 0, pretend = 0, frame = 0
 2074              		@ frame_needed = 0, uses_anonymous_args = 0
 2075              		@ link register save eliminated.
 2076 0000 7047     		bx	lr
 2078              		.section	.text.HAL_TIM_IC_CaptureCallback,"ax",%progbits
 2079              		.align	1
 2080              		.weak	HAL_TIM_IC_CaptureCallback
 2081              		.syntax unified
 2082              		.thumb
 2083              		.thumb_func
 2085              	HAL_TIM_IC_CaptureCallback:
 2086              		@ args = 0, pretend = 0, frame = 0
 2087              		@ frame_needed = 0, uses_anonymous_args = 0
 2088              		@ link register save eliminated.
 2089 0000 7047     		bx	lr
 2091              		.section	.text.TIM_DMACaptureCplt,"ax",%progbits
 2092              		.align	1
 2093              		.global	TIM_DMACaptureCplt
 2094              		.syntax unified
 2095              		.thumb
ARM GAS  C:\Users\aticl\AppData\Local\Temp\ccqcvH4b.s 			page 36


 2096              		.thumb_func
 2098              	TIM_DMACaptureCplt:
 2099              		@ args = 0, pretend = 0, frame = 0
 2100              		@ frame_needed = 0, uses_anonymous_args = 0
 2101 0000 10B5     		push	{r4, lr}
 2102 0002 846B     		ldr	r4, [r0, #56]
 2103 0004 636A     		ldr	r3, [r4, #36]
 2104 0006 8342     		cmp	r3, r0
 2105 0008 0ED0     		beq	.L220
 2106 000a A36A     		ldr	r3, [r4, #40]
 2107 000c 8342     		cmp	r3, r0
 2108 000e 16D0     		beq	.L221
 2109 0010 E36A     		ldr	r3, [r4, #44]
 2110 0012 8342     		cmp	r3, r0
 2111 0014 1ED0     		beq	.L222
 2112 0016 236B     		ldr	r3, [r4, #48]
 2113 0018 8342     		cmp	r3, r0
 2114 001a 26D0     		beq	.L223
 2115              	.L216:
 2116 001c 2046     		mov	r0, r4
 2117 001e FFF7FEFF 		bl	HAL_TIM_IC_CaptureCallback
 2118 0022 0023     		movs	r3, #0
 2119 0024 2377     		strb	r3, [r4, #28]
 2120 0026 10BD     		pop	{r4, pc}
 2121              	.L220:
 2122 0028 0123     		movs	r3, #1
 2123 002a 2377     		strb	r3, [r4, #28]
 2124 002c C369     		ldr	r3, [r0, #28]
 2125 002e 002B     		cmp	r3, #0
 2126 0030 F4D1     		bne	.L216
 2127 0032 0123     		movs	r3, #1
 2128 0034 84F83E30 		strb	r3, [r4, #62]
 2129 0038 84F84430 		strb	r3, [r4, #68]
 2130 003c EEE7     		b	.L216
 2131              	.L221:
 2132 003e 0223     		movs	r3, #2
 2133 0040 2377     		strb	r3, [r4, #28]
 2134 0042 C369     		ldr	r3, [r0, #28]
 2135 0044 002B     		cmp	r3, #0
 2136 0046 E9D1     		bne	.L216
 2137 0048 0123     		movs	r3, #1
 2138 004a 84F83F30 		strb	r3, [r4, #63]
 2139 004e 84F84530 		strb	r3, [r4, #69]
 2140 0052 E3E7     		b	.L216
 2141              	.L222:
 2142 0054 0423     		movs	r3, #4
 2143 0056 2377     		strb	r3, [r4, #28]
 2144 0058 C369     		ldr	r3, [r0, #28]
 2145 005a 002B     		cmp	r3, #0
 2146 005c DED1     		bne	.L216
 2147 005e 0123     		movs	r3, #1
 2148 0060 84F84030 		strb	r3, [r4, #64]
 2149 0064 84F84630 		strb	r3, [r4, #70]
 2150 0068 D8E7     		b	.L216
 2151              	.L223:
 2152 006a 0823     		movs	r3, #8
 2153 006c 2377     		strb	r3, [r4, #28]
ARM GAS  C:\Users\aticl\AppData\Local\Temp\ccqcvH4b.s 			page 37


 2154 006e C369     		ldr	r3, [r0, #28]
 2155 0070 002B     		cmp	r3, #0
 2156 0072 D3D1     		bne	.L216
 2157 0074 0123     		movs	r3, #1
 2158 0076 84F84130 		strb	r3, [r4, #65]
 2159 007a 84F84730 		strb	r3, [r4, #71]
 2160 007e CDE7     		b	.L216
 2162              		.section	.text.HAL_TIM_IC_CaptureHalfCpltCallback,"ax",%progbits
 2163              		.align	1
 2164              		.weak	HAL_TIM_IC_CaptureHalfCpltCallback
 2165              		.syntax unified
 2166              		.thumb
 2167              		.thumb_func
 2169              	HAL_TIM_IC_CaptureHalfCpltCallback:
 2170              		@ args = 0, pretend = 0, frame = 0
 2171              		@ frame_needed = 0, uses_anonymous_args = 0
 2172              		@ link register save eliminated.
 2173 0000 7047     		bx	lr
 2175              		.section	.text.TIM_DMACaptureHalfCplt,"ax",%progbits
 2176              		.align	1
 2177              		.global	TIM_DMACaptureHalfCplt
 2178              		.syntax unified
 2179              		.thumb
 2180              		.thumb_func
 2182              	TIM_DMACaptureHalfCplt:
 2183              		@ args = 0, pretend = 0, frame = 0
 2184              		@ frame_needed = 0, uses_anonymous_args = 0
 2185 0000 10B5     		push	{r4, lr}
 2186 0002 846B     		ldr	r4, [r0, #56]
 2187 0004 636A     		ldr	r3, [r4, #36]
 2188 0006 8342     		cmp	r3, r0
 2189 0008 0BD0     		beq	.L231
 2190 000a A36A     		ldr	r3, [r4, #40]
 2191 000c 8342     		cmp	r3, r0
 2192 000e 10D0     		beq	.L232
 2193 0010 E36A     		ldr	r3, [r4, #44]
 2194 0012 8342     		cmp	r3, r0
 2195 0014 10D0     		beq	.L233
 2196 0016 236B     		ldr	r3, [r4, #48]
 2197 0018 8342     		cmp	r3, r0
 2198 001a 04D1     		bne	.L227
 2199 001c 0823     		movs	r3, #8
 2200 001e 2377     		strb	r3, [r4, #28]
 2201 0020 01E0     		b	.L227
 2202              	.L231:
 2203 0022 0123     		movs	r3, #1
 2204 0024 2377     		strb	r3, [r4, #28]
 2205              	.L227:
 2206 0026 2046     		mov	r0, r4
 2207 0028 FFF7FEFF 		bl	HAL_TIM_IC_CaptureHalfCpltCallback
 2208 002c 0023     		movs	r3, #0
 2209 002e 2377     		strb	r3, [r4, #28]
 2210 0030 10BD     		pop	{r4, pc}
 2211              	.L232:
 2212 0032 0223     		movs	r3, #2
 2213 0034 2377     		strb	r3, [r4, #28]
 2214 0036 F6E7     		b	.L227
ARM GAS  C:\Users\aticl\AppData\Local\Temp\ccqcvH4b.s 			page 38


 2215              	.L233:
 2216 0038 0423     		movs	r3, #4
 2217 003a 2377     		strb	r3, [r4, #28]
 2218 003c F3E7     		b	.L227
 2220              		.section	.text.HAL_TIM_PWM_PulseFinishedCallback,"ax",%progbits
 2221              		.align	1
 2222              		.weak	HAL_TIM_PWM_PulseFinishedCallback
 2223              		.syntax unified
 2224              		.thumb
 2225              		.thumb_func
 2227              	HAL_TIM_PWM_PulseFinishedCallback:
 2228              		@ args = 0, pretend = 0, frame = 0
 2229              		@ frame_needed = 0, uses_anonymous_args = 0
 2230              		@ link register save eliminated.
 2231 0000 7047     		bx	lr
 2233              		.section	.text.TIM_DMADelayPulseCplt,"ax",%progbits
 2234              		.align	1
 2235              		.syntax unified
 2236              		.thumb
 2237              		.thumb_func
 2239              	TIM_DMADelayPulseCplt:
 2240              		@ args = 0, pretend = 0, frame = 0
 2241              		@ frame_needed = 0, uses_anonymous_args = 0
 2242 0000 10B5     		push	{r4, lr}
 2243 0002 846B     		ldr	r4, [r0, #56]
 2244 0004 636A     		ldr	r3, [r4, #36]
 2245 0006 8342     		cmp	r3, r0
 2246 0008 0ED0     		beq	.L241
 2247 000a A36A     		ldr	r3, [r4, #40]
 2248 000c 8342     		cmp	r3, r0
 2249 000e 14D0     		beq	.L242
 2250 0010 E36A     		ldr	r3, [r4, #44]
 2251 0012 8342     		cmp	r3, r0
 2252 0014 1AD0     		beq	.L243
 2253 0016 236B     		ldr	r3, [r4, #48]
 2254 0018 8342     		cmp	r3, r0
 2255 001a 20D0     		beq	.L244
 2256              	.L237:
 2257 001c 2046     		mov	r0, r4
 2258 001e FFF7FEFF 		bl	HAL_TIM_PWM_PulseFinishedCallback
 2259 0022 0023     		movs	r3, #0
 2260 0024 2377     		strb	r3, [r4, #28]
 2261 0026 10BD     		pop	{r4, pc}
 2262              	.L241:
 2263 0028 0123     		movs	r3, #1
 2264 002a 2377     		strb	r3, [r4, #28]
 2265 002c C369     		ldr	r3, [r0, #28]
 2266 002e 002B     		cmp	r3, #0
 2267 0030 F4D1     		bne	.L237
 2268 0032 0123     		movs	r3, #1
 2269 0034 84F83E30 		strb	r3, [r4, #62]
 2270 0038 F0E7     		b	.L237
 2271              	.L242:
 2272 003a 0223     		movs	r3, #2
 2273 003c 2377     		strb	r3, [r4, #28]
 2274 003e C369     		ldr	r3, [r0, #28]
 2275 0040 002B     		cmp	r3, #0
ARM GAS  C:\Users\aticl\AppData\Local\Temp\ccqcvH4b.s 			page 39


 2276 0042 EBD1     		bne	.L237
 2277 0044 0123     		movs	r3, #1
 2278 0046 84F83F30 		strb	r3, [r4, #63]
 2279 004a E7E7     		b	.L237
 2280              	.L243:
 2281 004c 0423     		movs	r3, #4
 2282 004e 2377     		strb	r3, [r4, #28]
 2283 0050 C369     		ldr	r3, [r0, #28]
 2284 0052 002B     		cmp	r3, #0
 2285 0054 E2D1     		bne	.L237
 2286 0056 0123     		movs	r3, #1
 2287 0058 84F84030 		strb	r3, [r4, #64]
 2288 005c DEE7     		b	.L237
 2289              	.L244:
 2290 005e 0823     		movs	r3, #8
 2291 0060 2377     		strb	r3, [r4, #28]
 2292 0062 C369     		ldr	r3, [r0, #28]
 2293 0064 002B     		cmp	r3, #0
 2294 0066 D9D1     		bne	.L237
 2295 0068 0123     		movs	r3, #1
 2296 006a 84F84130 		strb	r3, [r4, #65]
 2297 006e D5E7     		b	.L237
 2299              		.section	.text.HAL_TIM_PWM_PulseFinishedHalfCpltCallback,"ax",%progbits
 2300              		.align	1
 2301              		.weak	HAL_TIM_PWM_PulseFinishedHalfCpltCallback
 2302              		.syntax unified
 2303              		.thumb
 2304              		.thumb_func
 2306              	HAL_TIM_PWM_PulseFinishedHalfCpltCallback:
 2307              		@ args = 0, pretend = 0, frame = 0
 2308              		@ frame_needed = 0, uses_anonymous_args = 0
 2309              		@ link register save eliminated.
 2310 0000 7047     		bx	lr
 2312              		.section	.text.TIM_DMADelayPulseHalfCplt,"ax",%progbits
 2313              		.align	1
 2314              		.global	TIM_DMADelayPulseHalfCplt
 2315              		.syntax unified
 2316              		.thumb
 2317              		.thumb_func
 2319              	TIM_DMADelayPulseHalfCplt:
 2320              		@ args = 0, pretend = 0, frame = 0
 2321              		@ frame_needed = 0, uses_anonymous_args = 0
 2322 0000 10B5     		push	{r4, lr}
 2323 0002 846B     		ldr	r4, [r0, #56]
 2324 0004 636A     		ldr	r3, [r4, #36]
 2325 0006 8342     		cmp	r3, r0
 2326 0008 0BD0     		beq	.L252
 2327 000a A36A     		ldr	r3, [r4, #40]
 2328 000c 8342     		cmp	r3, r0
 2329 000e 10D0     		beq	.L253
 2330 0010 E36A     		ldr	r3, [r4, #44]
 2331 0012 8342     		cmp	r3, r0
 2332 0014 10D0     		beq	.L254
 2333 0016 236B     		ldr	r3, [r4, #48]
 2334 0018 8342     		cmp	r3, r0
 2335 001a 04D1     		bne	.L248
 2336 001c 0823     		movs	r3, #8
ARM GAS  C:\Users\aticl\AppData\Local\Temp\ccqcvH4b.s 			page 40


 2337 001e 2377     		strb	r3, [r4, #28]
 2338 0020 01E0     		b	.L248
 2339              	.L252:
 2340 0022 0123     		movs	r3, #1
 2341 0024 2377     		strb	r3, [r4, #28]
 2342              	.L248:
 2343 0026 2046     		mov	r0, r4
 2344 0028 FFF7FEFF 		bl	HAL_TIM_PWM_PulseFinishedHalfCpltCallback
 2345 002c 0023     		movs	r3, #0
 2346 002e 2377     		strb	r3, [r4, #28]
 2347 0030 10BD     		pop	{r4, pc}
 2348              	.L253:
 2349 0032 0223     		movs	r3, #2
 2350 0034 2377     		strb	r3, [r4, #28]
 2351 0036 F6E7     		b	.L248
 2352              	.L254:
 2353 0038 0423     		movs	r3, #4
 2354 003a 2377     		strb	r3, [r4, #28]
 2355 003c F3E7     		b	.L248
 2357              		.section	.text.HAL_TIM_TriggerCallback,"ax",%progbits
 2358              		.align	1
 2359              		.weak	HAL_TIM_TriggerCallback
 2360              		.syntax unified
 2361              		.thumb
 2362              		.thumb_func
 2364              	HAL_TIM_TriggerCallback:
 2365              		@ args = 0, pretend = 0, frame = 0
 2366              		@ frame_needed = 0, uses_anonymous_args = 0
 2367              		@ link register save eliminated.
 2368 0000 7047     		bx	lr
 2370              		.section	.text.HAL_TIM_IRQHandler,"ax",%progbits
 2371              		.align	1
 2372              		.global	HAL_TIM_IRQHandler
 2373              		.syntax unified
 2374              		.thumb
 2375              		.thumb_func
 2377              	HAL_TIM_IRQHandler:
 2378              		@ args = 0, pretend = 0, frame = 0
 2379              		@ frame_needed = 0, uses_anonymous_args = 0
 2380 0000 70B5     		push	{r4, r5, r6, lr}
 2381 0002 0446     		mov	r4, r0
 2382 0004 0368     		ldr	r3, [r0]
 2383 0006 DE68     		ldr	r6, [r3, #12]
 2384 0008 1D69     		ldr	r5, [r3, #16]
 2385 000a 15F0020F 		tst	r5, #2
 2386 000e 10D0     		beq	.L257
 2387 0010 16F0020F 		tst	r6, #2
 2388 0014 0DD0     		beq	.L257
 2389 0016 6FF00202 		mvn	r2, #2
 2390 001a 1A61     		str	r2, [r3, #16]
 2391 001c 0123     		movs	r3, #1
 2392 001e 0377     		strb	r3, [r0, #28]
 2393 0020 0368     		ldr	r3, [r0]
 2394 0022 9B69     		ldr	r3, [r3, #24]
 2395 0024 13F0030F 		tst	r3, #3
 2396 0028 64D0     		beq	.L258
 2397 002a FFF7FEFF 		bl	HAL_TIM_IC_CaptureCallback
ARM GAS  C:\Users\aticl\AppData\Local\Temp\ccqcvH4b.s 			page 41


 2398              	.L259:
 2399 002e 0023     		movs	r3, #0
 2400 0030 2377     		strb	r3, [r4, #28]
 2401              	.L257:
 2402 0032 15F0040F 		tst	r5, #4
 2403 0036 12D0     		beq	.L260
 2404 0038 16F0040F 		tst	r6, #4
 2405 003c 0FD0     		beq	.L260
 2406 003e 2368     		ldr	r3, [r4]
 2407 0040 6FF00402 		mvn	r2, #4
 2408 0044 1A61     		str	r2, [r3, #16]
 2409 0046 0223     		movs	r3, #2
 2410 0048 2377     		strb	r3, [r4, #28]
 2411 004a 2368     		ldr	r3, [r4]
 2412 004c 9B69     		ldr	r3, [r3, #24]
 2413 004e 13F4407F 		tst	r3, #768
 2414 0052 55D0     		beq	.L261
 2415 0054 2046     		mov	r0, r4
 2416 0056 FFF7FEFF 		bl	HAL_TIM_IC_CaptureCallback
 2417              	.L262:
 2418 005a 0023     		movs	r3, #0
 2419 005c 2377     		strb	r3, [r4, #28]
 2420              	.L260:
 2421 005e 15F0080F 		tst	r5, #8
 2422 0062 12D0     		beq	.L263
 2423 0064 16F0080F 		tst	r6, #8
 2424 0068 0FD0     		beq	.L263
 2425 006a 2368     		ldr	r3, [r4]
 2426 006c 6FF00802 		mvn	r2, #8
 2427 0070 1A61     		str	r2, [r3, #16]
 2428 0072 0423     		movs	r3, #4
 2429 0074 2377     		strb	r3, [r4, #28]
 2430 0076 2368     		ldr	r3, [r4]
 2431 0078 DB69     		ldr	r3, [r3, #28]
 2432 007a 13F0030F 		tst	r3, #3
 2433 007e 46D0     		beq	.L264
 2434 0080 2046     		mov	r0, r4
 2435 0082 FFF7FEFF 		bl	HAL_TIM_IC_CaptureCallback
 2436              	.L265:
 2437 0086 0023     		movs	r3, #0
 2438 0088 2377     		strb	r3, [r4, #28]
 2439              	.L263:
 2440 008a 15F0100F 		tst	r5, #16
 2441 008e 12D0     		beq	.L266
 2442 0090 16F0100F 		tst	r6, #16
 2443 0094 0FD0     		beq	.L266
 2444 0096 2368     		ldr	r3, [r4]
 2445 0098 6FF01002 		mvn	r2, #16
 2446 009c 1A61     		str	r2, [r3, #16]
 2447 009e 0823     		movs	r3, #8
 2448 00a0 2377     		strb	r3, [r4, #28]
 2449 00a2 2368     		ldr	r3, [r4]
 2450 00a4 DB69     		ldr	r3, [r3, #28]
 2451 00a6 13F4407F 		tst	r3, #768
 2452 00aa 37D0     		beq	.L267
 2453 00ac 2046     		mov	r0, r4
 2454 00ae FFF7FEFF 		bl	HAL_TIM_IC_CaptureCallback
ARM GAS  C:\Users\aticl\AppData\Local\Temp\ccqcvH4b.s 			page 42


 2455              	.L268:
 2456 00b2 0023     		movs	r3, #0
 2457 00b4 2377     		strb	r3, [r4, #28]
 2458              	.L266:
 2459 00b6 15F0010F 		tst	r5, #1
 2460 00ba 02D0     		beq	.L269
 2461 00bc 16F0010F 		tst	r6, #1
 2462 00c0 33D1     		bne	.L275
 2463              	.L269:
 2464 00c2 15F4025F 		tst	r5, #8320
 2465 00c6 02D0     		beq	.L270
 2466 00c8 16F0800F 		tst	r6, #128
 2467 00cc 35D1     		bne	.L276
 2468              	.L270:
 2469 00ce 15F4807F 		tst	r5, #256
 2470 00d2 02D0     		beq	.L271
 2471 00d4 16F0800F 		tst	r6, #128
 2472 00d8 37D1     		bne	.L277
 2473              	.L271:
 2474 00da 15F0400F 		tst	r5, #64
 2475 00de 02D0     		beq	.L272
 2476 00e0 16F0400F 		tst	r6, #64
 2477 00e4 39D1     		bne	.L278
 2478              	.L272:
 2479 00e6 15F0200F 		tst	r5, #32
 2480 00ea 02D0     		beq	.L256
 2481 00ec 16F0200F 		tst	r6, #32
 2482 00f0 3BD1     		bne	.L279
 2483              	.L256:
 2484 00f2 70BD     		pop	{r4, r5, r6, pc}
 2485              	.L258:
 2486 00f4 FFF7FEFF 		bl	HAL_TIM_OC_DelayElapsedCallback
 2487 00f8 2046     		mov	r0, r4
 2488 00fa FFF7FEFF 		bl	HAL_TIM_PWM_PulseFinishedCallback
 2489 00fe 96E7     		b	.L259
 2490              	.L261:
 2491 0100 2046     		mov	r0, r4
 2492 0102 FFF7FEFF 		bl	HAL_TIM_OC_DelayElapsedCallback
 2493 0106 2046     		mov	r0, r4
 2494 0108 FFF7FEFF 		bl	HAL_TIM_PWM_PulseFinishedCallback
 2495 010c A5E7     		b	.L262
 2496              	.L264:
 2497 010e 2046     		mov	r0, r4
 2498 0110 FFF7FEFF 		bl	HAL_TIM_OC_DelayElapsedCallback
 2499 0114 2046     		mov	r0, r4
 2500 0116 FFF7FEFF 		bl	HAL_TIM_PWM_PulseFinishedCallback
 2501 011a B4E7     		b	.L265
 2502              	.L267:
 2503 011c 2046     		mov	r0, r4
 2504 011e FFF7FEFF 		bl	HAL_TIM_OC_DelayElapsedCallback
 2505 0122 2046     		mov	r0, r4
 2506 0124 FFF7FEFF 		bl	HAL_TIM_PWM_PulseFinishedCallback
 2507 0128 C3E7     		b	.L268
 2508              	.L275:
 2509 012a 2368     		ldr	r3, [r4]
 2510 012c 6FF00102 		mvn	r2, #1
 2511 0130 1A61     		str	r2, [r3, #16]
ARM GAS  C:\Users\aticl\AppData\Local\Temp\ccqcvH4b.s 			page 43


 2512 0132 2046     		mov	r0, r4
 2513 0134 FFF7FEFF 		bl	HAL_TIM_PeriodElapsedCallback
 2514 0138 C3E7     		b	.L269
 2515              	.L276:
 2516 013a 2368     		ldr	r3, [r4]
 2517 013c 6FF40252 		mvn	r2, #8320
 2518 0140 1A61     		str	r2, [r3, #16]
 2519 0142 2046     		mov	r0, r4
 2520 0144 FFF7FEFF 		bl	HAL_TIMEx_BreakCallback
 2521 0148 C1E7     		b	.L270
 2522              	.L277:
 2523 014a 2368     		ldr	r3, [r4]
 2524 014c 6FF48072 		mvn	r2, #256
 2525 0150 1A61     		str	r2, [r3, #16]
 2526 0152 2046     		mov	r0, r4
 2527 0154 FFF7FEFF 		bl	HAL_TIMEx_Break2Callback
 2528 0158 BFE7     		b	.L271
 2529              	.L278:
 2530 015a 2368     		ldr	r3, [r4]
 2531 015c 6FF04002 		mvn	r2, #64
 2532 0160 1A61     		str	r2, [r3, #16]
 2533 0162 2046     		mov	r0, r4
 2534 0164 FFF7FEFF 		bl	HAL_TIM_TriggerCallback
 2535 0168 BDE7     		b	.L272
 2536              	.L279:
 2537 016a 2368     		ldr	r3, [r4]
 2538 016c 6FF02002 		mvn	r2, #32
 2539 0170 1A61     		str	r2, [r3, #16]
 2540 0172 2046     		mov	r0, r4
 2541 0174 FFF7FEFF 		bl	HAL_TIMEx_CommutCallback
 2542 0178 BBE7     		b	.L256
 2544              		.section	.text.TIM_DMATriggerCplt,"ax",%progbits
 2545              		.align	1
 2546              		.syntax unified
 2547              		.thumb
 2548              		.thumb_func
 2550              	TIM_DMATriggerCplt:
 2551              		@ args = 0, pretend = 0, frame = 0
 2552              		@ frame_needed = 0, uses_anonymous_args = 0
 2553 0000 08B5     		push	{r3, lr}
 2554 0002 806B     		ldr	r0, [r0, #56]
 2555 0004 836B     		ldr	r3, [r0, #56]
 2556 0006 DB69     		ldr	r3, [r3, #28]
 2557 0008 13B9     		cbnz	r3, .L281
 2558 000a 0123     		movs	r3, #1
 2559 000c 80F83D30 		strb	r3, [r0, #61]
 2560              	.L281:
 2561 0010 FFF7FEFF 		bl	HAL_TIM_TriggerCallback
 2562 0014 08BD     		pop	{r3, pc}
 2564              		.section	.text.HAL_TIM_TriggerHalfCpltCallback,"ax",%progbits
 2565              		.align	1
 2566              		.weak	HAL_TIM_TriggerHalfCpltCallback
 2567              		.syntax unified
 2568              		.thumb
 2569              		.thumb_func
 2571              	HAL_TIM_TriggerHalfCpltCallback:
 2572              		@ args = 0, pretend = 0, frame = 0
ARM GAS  C:\Users\aticl\AppData\Local\Temp\ccqcvH4b.s 			page 44


 2573              		@ frame_needed = 0, uses_anonymous_args = 0
 2574              		@ link register save eliminated.
 2575 0000 7047     		bx	lr
 2577              		.section	.text.TIM_DMATriggerHalfCplt,"ax",%progbits
 2578              		.align	1
 2579              		.syntax unified
 2580              		.thumb
 2581              		.thumb_func
 2583              	TIM_DMATriggerHalfCplt:
 2584              		@ args = 0, pretend = 0, frame = 0
 2585              		@ frame_needed = 0, uses_anonymous_args = 0
 2586 0000 08B5     		push	{r3, lr}
 2587 0002 806B     		ldr	r0, [r0, #56]
 2588 0004 FFF7FEFF 		bl	HAL_TIM_TriggerHalfCpltCallback
 2589 0008 08BD     		pop	{r3, pc}
 2591              		.section	.text.HAL_TIM_ErrorCallback,"ax",%progbits
 2592              		.align	1
 2593              		.weak	HAL_TIM_ErrorCallback
 2594              		.syntax unified
 2595              		.thumb
 2596              		.thumb_func
 2598              	HAL_TIM_ErrorCallback:
 2599              		@ args = 0, pretend = 0, frame = 0
 2600              		@ frame_needed = 0, uses_anonymous_args = 0
 2601              		@ link register save eliminated.
 2602 0000 7047     		bx	lr
 2604              		.section	.text.TIM_DMAError,"ax",%progbits
 2605              		.align	1
 2606              		.global	TIM_DMAError
 2607              		.syntax unified
 2608              		.thumb
 2609              		.thumb_func
 2611              	TIM_DMAError:
 2612              		@ args = 0, pretend = 0, frame = 0
 2613              		@ frame_needed = 0, uses_anonymous_args = 0
 2614 0000 10B5     		push	{r4, lr}
 2615 0002 846B     		ldr	r4, [r0, #56]
 2616 0004 636A     		ldr	r3, [r4, #36]
 2617 0006 8342     		cmp	r3, r0
 2618 0008 0CD0     		beq	.L294
 2619 000a A36A     		ldr	r3, [r4, #40]
 2620 000c 8342     		cmp	r3, r0
 2621 000e 13D0     		beq	.L295
 2622 0010 E36A     		ldr	r3, [r4, #44]
 2623 0012 8342     		cmp	r3, r0
 2624 0014 16D0     		beq	.L296
 2625 0016 236B     		ldr	r3, [r4, #48]
 2626 0018 8342     		cmp	r3, r0
 2627 001a 19D0     		beq	.L297
 2628 001c 0123     		movs	r3, #1
 2629 001e 84F83D30 		strb	r3, [r4, #61]
 2630 0022 03E0     		b	.L289
 2631              	.L294:
 2632 0024 0123     		movs	r3, #1
 2633 0026 2377     		strb	r3, [r4, #28]
 2634 0028 84F83E30 		strb	r3, [r4, #62]
 2635              	.L289:
ARM GAS  C:\Users\aticl\AppData\Local\Temp\ccqcvH4b.s 			page 45


 2636 002c 2046     		mov	r0, r4
 2637 002e FFF7FEFF 		bl	HAL_TIM_ErrorCallback
 2638 0032 0023     		movs	r3, #0
 2639 0034 2377     		strb	r3, [r4, #28]
 2640 0036 10BD     		pop	{r4, pc}
 2641              	.L295:
 2642 0038 0223     		movs	r3, #2
 2643 003a 2377     		strb	r3, [r4, #28]
 2644 003c 0123     		movs	r3, #1
 2645 003e 84F83F30 		strb	r3, [r4, #63]
 2646 0042 F3E7     		b	.L289
 2647              	.L296:
 2648 0044 0423     		movs	r3, #4
 2649 0046 2377     		strb	r3, [r4, #28]
 2650 0048 0123     		movs	r3, #1
 2651 004a 84F84030 		strb	r3, [r4, #64]
 2652 004e EDE7     		b	.L289
 2653              	.L297:
 2654 0050 0823     		movs	r3, #8
 2655 0052 2377     		strb	r3, [r4, #28]
 2656 0054 0123     		movs	r3, #1
 2657 0056 84F84130 		strb	r3, [r4, #65]
 2658 005a E7E7     		b	.L289
 2660              		.section	.text.HAL_TIM_Base_GetState,"ax",%progbits
 2661              		.align	1
 2662              		.global	HAL_TIM_Base_GetState
 2663              		.syntax unified
 2664              		.thumb
 2665              		.thumb_func
 2667              	HAL_TIM_Base_GetState:
 2668              		@ args = 0, pretend = 0, frame = 0
 2669              		@ frame_needed = 0, uses_anonymous_args = 0
 2670              		@ link register save eliminated.
 2671 0000 90F83D00 		ldrb	r0, [r0, #61]	@ zero_extendqisi2
 2672 0004 7047     		bx	lr
 2674              		.section	.text.HAL_TIM_OC_GetState,"ax",%progbits
 2675              		.align	1
 2676              		.global	HAL_TIM_OC_GetState
 2677              		.syntax unified
 2678              		.thumb
 2679              		.thumb_func
 2681              	HAL_TIM_OC_GetState:
 2682              		@ args = 0, pretend = 0, frame = 0
 2683              		@ frame_needed = 0, uses_anonymous_args = 0
 2684              		@ link register save eliminated.
 2685 0000 90F83D00 		ldrb	r0, [r0, #61]	@ zero_extendqisi2
 2686 0004 7047     		bx	lr
 2688              		.section	.text.HAL_TIM_PWM_GetState,"ax",%progbits
 2689              		.align	1
 2690              		.global	HAL_TIM_PWM_GetState
 2691              		.syntax unified
 2692              		.thumb
 2693              		.thumb_func
 2695              	HAL_TIM_PWM_GetState:
 2696              		@ args = 0, pretend = 0, frame = 0
 2697              		@ frame_needed = 0, uses_anonymous_args = 0
 2698              		@ link register save eliminated.
ARM GAS  C:\Users\aticl\AppData\Local\Temp\ccqcvH4b.s 			page 46


 2699 0000 90F83D00 		ldrb	r0, [r0, #61]	@ zero_extendqisi2
 2700 0004 7047     		bx	lr
 2702              		.section	.text.HAL_TIM_IC_GetState,"ax",%progbits
 2703              		.align	1
 2704              		.global	HAL_TIM_IC_GetState
 2705              		.syntax unified
 2706              		.thumb
 2707              		.thumb_func
 2709              	HAL_TIM_IC_GetState:
 2710              		@ args = 0, pretend = 0, frame = 0
 2711              		@ frame_needed = 0, uses_anonymous_args = 0
 2712              		@ link register save eliminated.
 2713 0000 90F83D00 		ldrb	r0, [r0, #61]	@ zero_extendqisi2
 2714 0004 7047     		bx	lr
 2716              		.section	.text.HAL_TIM_OnePulse_GetState,"ax",%progbits
 2717              		.align	1
 2718              		.global	HAL_TIM_OnePulse_GetState
 2719              		.syntax unified
 2720              		.thumb
 2721              		.thumb_func
 2723              	HAL_TIM_OnePulse_GetState:
 2724              		@ args = 0, pretend = 0, frame = 0
 2725              		@ frame_needed = 0, uses_anonymous_args = 0
 2726              		@ link register save eliminated.
 2727 0000 90F83D00 		ldrb	r0, [r0, #61]	@ zero_extendqisi2
 2728 0004 7047     		bx	lr
 2730              		.section	.text.HAL_TIM_Encoder_GetState,"ax",%progbits
 2731              		.align	1
 2732              		.global	HAL_TIM_Encoder_GetState
 2733              		.syntax unified
 2734              		.thumb
 2735              		.thumb_func
 2737              	HAL_TIM_Encoder_GetState:
 2738              		@ args = 0, pretend = 0, frame = 0
 2739              		@ frame_needed = 0, uses_anonymous_args = 0
 2740              		@ link register save eliminated.
 2741 0000 90F83D00 		ldrb	r0, [r0, #61]	@ zero_extendqisi2
 2742 0004 7047     		bx	lr
 2744              		.section	.text.HAL_TIM_GetActiveChannel,"ax",%progbits
 2745              		.align	1
 2746              		.global	HAL_TIM_GetActiveChannel
 2747              		.syntax unified
 2748              		.thumb
 2749              		.thumb_func
 2751              	HAL_TIM_GetActiveChannel:
 2752              		@ args = 0, pretend = 0, frame = 0
 2753              		@ frame_needed = 0, uses_anonymous_args = 0
 2754              		@ link register save eliminated.
 2755 0000 007F     		ldrb	r0, [r0, #28]	@ zero_extendqisi2
 2756 0002 7047     		bx	lr
 2758              		.section	.text.HAL_TIM_GetChannelState,"ax",%progbits
 2759              		.align	1
 2760              		.global	HAL_TIM_GetChannelState
 2761              		.syntax unified
 2762              		.thumb
 2763              		.thumb_func
 2765              	HAL_TIM_GetChannelState:
ARM GAS  C:\Users\aticl\AppData\Local\Temp\ccqcvH4b.s 			page 47


 2766              		@ args = 0, pretend = 0, frame = 0
 2767              		@ frame_needed = 0, uses_anonymous_args = 0
 2768              		@ link register save eliminated.
 2769 0000 1029     		cmp	r1, #16
 2770 0002 1ED8     		bhi	.L306
 2771 0004 DFE801F0 		tbb	[pc, r1]
 2772              	.L308:
 2773 0008 09       		.byte	(.L312-.L308)/2
 2774 0009 1D       		.byte	(.L306-.L308)/2
 2775 000a 1D       		.byte	(.L306-.L308)/2
 2776 000b 1D       		.byte	(.L306-.L308)/2
 2777 000c 0D       		.byte	(.L311-.L308)/2
 2778 000d 1D       		.byte	(.L306-.L308)/2
 2779 000e 1D       		.byte	(.L306-.L308)/2
 2780 000f 1D       		.byte	(.L306-.L308)/2
 2781 0010 11       		.byte	(.L310-.L308)/2
 2782 0011 1D       		.byte	(.L306-.L308)/2
 2783 0012 1D       		.byte	(.L306-.L308)/2
 2784 0013 1D       		.byte	(.L306-.L308)/2
 2785 0014 15       		.byte	(.L309-.L308)/2
 2786 0015 1D       		.byte	(.L306-.L308)/2
 2787 0016 1D       		.byte	(.L306-.L308)/2
 2788 0017 1D       		.byte	(.L306-.L308)/2
 2789 0018 19       		.byte	(.L307-.L308)/2
 2790 0019 00       		.p2align 1
 2791              	.L312:
 2792 001a 90F83E00 		ldrb	r0, [r0, #62]	@ zero_extendqisi2
 2793 001e C0B2     		uxtb	r0, r0
 2794 0020 7047     		bx	lr
 2795              	.L311:
 2796 0022 90F83F00 		ldrb	r0, [r0, #63]	@ zero_extendqisi2
 2797 0026 C0B2     		uxtb	r0, r0
 2798 0028 7047     		bx	lr
 2799              	.L310:
 2800 002a 90F84000 		ldrb	r0, [r0, #64]	@ zero_extendqisi2
 2801 002e C0B2     		uxtb	r0, r0
 2802 0030 7047     		bx	lr
 2803              	.L309:
 2804 0032 90F84100 		ldrb	r0, [r0, #65]	@ zero_extendqisi2
 2805 0036 C0B2     		uxtb	r0, r0
 2806 0038 7047     		bx	lr
 2807              	.L307:
 2808 003a 90F84200 		ldrb	r0, [r0, #66]	@ zero_extendqisi2
 2809 003e C0B2     		uxtb	r0, r0
 2810 0040 7047     		bx	lr
 2811              	.L306:
 2812 0042 90F84300 		ldrb	r0, [r0, #67]	@ zero_extendqisi2
 2813 0046 C0B2     		uxtb	r0, r0
 2814 0048 7047     		bx	lr
 2816              		.section	.text.HAL_TIM_DMABurstState,"ax",%progbits
 2817              		.align	1
 2818              		.global	HAL_TIM_DMABurstState
 2819              		.syntax unified
 2820              		.thumb
 2821              		.thumb_func
 2823              	HAL_TIM_DMABurstState:
 2824              		@ args = 0, pretend = 0, frame = 0
ARM GAS  C:\Users\aticl\AppData\Local\Temp\ccqcvH4b.s 			page 48


 2825              		@ frame_needed = 0, uses_anonymous_args = 0
 2826              		@ link register save eliminated.
 2827 0000 90F84800 		ldrb	r0, [r0, #72]	@ zero_extendqisi2
 2828 0004 7047     		bx	lr
 2830              		.section	.text.TIM_Base_SetConfig,"ax",%progbits
 2831              		.align	1
 2832              		.global	TIM_Base_SetConfig
 2833              		.syntax unified
 2834              		.thumb
 2835              		.thumb_func
 2837              	TIM_Base_SetConfig:
 2838              		@ args = 0, pretend = 0, frame = 0
 2839              		@ frame_needed = 0, uses_anonymous_args = 0
 2840              		@ link register save eliminated.
 2841 0000 70B4     		push	{r4, r5, r6}
 2842 0002 0368     		ldr	r3, [r0]
 2843 0004 394A     		ldr	r2, .L324
 2844 0006 9042     		cmp	r0, r2
 2845 0008 14BF     		ite	ne
 2846 000a 0022     		movne	r2, #0
 2847 000c 0122     		moveq	r2, #1
 2848 000e B0F1804F 		cmp	r0, #1073741824
 2849 0012 14BF     		ite	ne
 2850 0014 1446     		movne	r4, r2
 2851 0016 42F00104 		orreq	r4, r2, #1
 2852 001a ACB9     		cbnz	r4, .L316
 2853 001c 344D     		ldr	r5, .L324+4
 2854 001e A842     		cmp	r0, r5
 2855 0020 14BF     		ite	ne
 2856 0022 0025     		movne	r5, #0
 2857 0024 0125     		moveq	r5, #1
 2858 0026 334E     		ldr	r6, .L324+8
 2859 0028 B042     		cmp	r0, r6
 2860 002a 0DD0     		beq	.L316
 2861 002c 65B9     		cbnz	r5, .L316
 2862 002e 05F18045 		add	r5, r5, #1073741824
 2863 0032 05F58235 		add	r5, r5, #66560
 2864 0036 A842     		cmp	r0, r5
 2865 0038 14BF     		ite	ne
 2866 003a 0025     		movne	r5, #0
 2867 003c 0125     		moveq	r5, #1
 2868 003e 06F50066 		add	r6, r6, #2048
 2869 0042 B042     		cmp	r0, r6
 2870 0044 00D0     		beq	.L316
 2871 0046 1DB1     		cbz	r5, .L317
 2872              	.L316:
 2873 0048 23F07003 		bic	r3, r3, #112
 2874 004c 4D68     		ldr	r5, [r1, #4]
 2875 004e 2B43     		orrs	r3, r3, r5
 2876              	.L317:
 2877 0050 14BB     		cbnz	r4, .L319
 2878 0052 274C     		ldr	r4, .L324+4
 2879 0054 A042     		cmp	r0, r4
 2880 0056 14BF     		ite	ne
 2881 0058 0024     		movne	r4, #0
 2882 005a 0124     		moveq	r4, #1
 2883 005c 254D     		ldr	r5, .L324+8
ARM GAS  C:\Users\aticl\AppData\Local\Temp\ccqcvH4b.s 			page 49


 2884 005e A842     		cmp	r0, r5
 2885 0060 1AD0     		beq	.L319
 2886 0062 CCB9     		cbnz	r4, .L319
 2887 0064 04F18044 		add	r4, r4, #1073741824
 2888 0068 04F58234 		add	r4, r4, #66560
 2889 006c A042     		cmp	r0, r4
 2890 006e 14BF     		ite	ne
 2891 0070 0024     		movne	r4, #0
 2892 0072 0124     		moveq	r4, #1
 2893 0074 05F50065 		add	r5, r5, #2048
 2894 0078 A842     		cmp	r0, r5
 2895 007a 0DD0     		beq	.L319
 2896 007c 64B9     		cbnz	r4, .L319
 2897 007e 1E4C     		ldr	r4, .L324+12
 2898 0080 A042     		cmp	r0, r4
 2899 0082 14BF     		ite	ne
 2900 0084 0024     		movne	r4, #0
 2901 0086 0124     		moveq	r4, #1
 2902 0088 05F59A35 		add	r5, r5, #78848
 2903 008c A842     		cmp	r0, r5
 2904 008e 03D0     		beq	.L319
 2905 0090 14B9     		cbnz	r4, .L319
 2906 0092 1A4C     		ldr	r4, .L324+16
 2907 0094 A042     		cmp	r0, r4
 2908 0096 03D1     		bne	.L320
 2909              	.L319:
 2910 0098 23F44073 		bic	r3, r3, #768
 2911 009c CC68     		ldr	r4, [r1, #12]
 2912 009e 2343     		orrs	r3, r3, r4
 2913              	.L320:
 2914 00a0 23F08003 		bic	r3, r3, #128
 2915 00a4 4C69     		ldr	r4, [r1, #20]
 2916 00a6 2343     		orrs	r3, r3, r4
 2917 00a8 8C68     		ldr	r4, [r1, #8]
 2918 00aa C462     		str	r4, [r0, #44]
 2919 00ac 0C68     		ldr	r4, [r1]
 2920 00ae 8462     		str	r4, [r0, #40]
 2921 00b0 134C     		ldr	r4, .L324+20
 2922 00b2 A042     		cmp	r0, r4
 2923 00b4 08BF     		it	eq
 2924 00b6 42F00102 		orreq	r2, r2, #1
 2925 00ba 62B9     		cbnz	r2, .L321
 2926 00bc 0E4A     		ldr	r2, .L324+12
 2927 00be 9042     		cmp	r0, r2
 2928 00c0 14BF     		ite	ne
 2929 00c2 0022     		movne	r2, #0
 2930 00c4 0122     		moveq	r2, #1
 2931 00c6 04F57054 		add	r4, r4, #15360
 2932 00ca A042     		cmp	r0, r4
 2933 00cc 03D0     		beq	.L321
 2934 00ce 12B9     		cbnz	r2, .L321
 2935 00d0 0A4A     		ldr	r2, .L324+16
 2936 00d2 9042     		cmp	r0, r2
 2937 00d4 01D1     		bne	.L322
 2938              	.L321:
 2939 00d6 0A69     		ldr	r2, [r1, #16]
 2940 00d8 0263     		str	r2, [r0, #48]
ARM GAS  C:\Users\aticl\AppData\Local\Temp\ccqcvH4b.s 			page 50


 2941              	.L322:
 2942 00da 0268     		ldr	r2, [r0]
 2943 00dc 42F00402 		orr	r2, r2, #4
 2944 00e0 0260     		str	r2, [r0]
 2945 00e2 0122     		movs	r2, #1
 2946 00e4 4261     		str	r2, [r0, #20]
 2947 00e6 0360     		str	r3, [r0]
 2948 00e8 70BC     		pop	{r4, r5, r6}
 2949 00ea 7047     		bx	lr
 2950              	.L325:
 2951              		.align	2
 2952              	.L324:
 2953 00ec 00000140 		.word	1073807360
 2954 00f0 00080040 		.word	1073743872
 2955 00f4 00040040 		.word	1073742848
 2956 00f8 00440140 		.word	1073824768
 2957 00fc 00480140 		.word	1073825792
 2958 0100 00040140 		.word	1073808384
 2960              		.section	.text.HAL_TIM_Base_Init,"ax",%progbits
 2961              		.align	1
 2962              		.global	HAL_TIM_Base_Init
 2963              		.syntax unified
 2964              		.thumb
 2965              		.thumb_func
 2967              	HAL_TIM_Base_Init:
 2968              		@ args = 0, pretend = 0, frame = 0
 2969              		@ frame_needed = 0, uses_anonymous_args = 0
 2970 0000 60B3     		cbz	r0, .L329
 2971 0002 10B5     		push	{r4, lr}
 2972 0004 0446     		mov	r4, r0
 2973 0006 90F83D30 		ldrb	r3, [r0, #61]	@ zero_extendqisi2
 2974 000a 13B3     		cbz	r3, .L334
 2975              	.L328:
 2976 000c 0223     		movs	r3, #2
 2977 000e 84F83D30 		strb	r3, [r4, #61]
 2978 0012 2146     		mov	r1, r4
 2979 0014 51F8040B 		ldr	r0, [r1], #4
 2980 0018 FFF7FEFF 		bl	TIM_Base_SetConfig
 2981 001c 0123     		movs	r3, #1
 2982 001e 84F84830 		strb	r3, [r4, #72]
 2983 0022 84F83E30 		strb	r3, [r4, #62]
 2984 0026 84F83F30 		strb	r3, [r4, #63]
 2985 002a 84F84030 		strb	r3, [r4, #64]
 2986 002e 84F84130 		strb	r3, [r4, #65]
 2987 0032 84F84230 		strb	r3, [r4, #66]
 2988 0036 84F84330 		strb	r3, [r4, #67]
 2989 003a 84F84430 		strb	r3, [r4, #68]
 2990 003e 84F84530 		strb	r3, [r4, #69]
 2991 0042 84F84630 		strb	r3, [r4, #70]
 2992 0046 84F84730 		strb	r3, [r4, #71]
 2993 004a 84F83D30 		strb	r3, [r4, #61]
 2994 004e 0020     		movs	r0, #0
 2995 0050 10BD     		pop	{r4, pc}
 2996              	.L334:
 2997 0052 80F83C30 		strb	r3, [r0, #60]
 2998 0056 FFF7FEFF 		bl	HAL_TIM_Base_MspInit
 2999 005a D7E7     		b	.L328
ARM GAS  C:\Users\aticl\AppData\Local\Temp\ccqcvH4b.s 			page 51


 3000              	.L329:
 3001 005c 0120     		movs	r0, #1
 3002 005e 7047     		bx	lr
 3004              		.section	.text.HAL_TIM_OC_Init,"ax",%progbits
 3005              		.align	1
 3006              		.global	HAL_TIM_OC_Init
 3007              		.syntax unified
 3008              		.thumb
 3009              		.thumb_func
 3011              	HAL_TIM_OC_Init:
 3012              		@ args = 0, pretend = 0, frame = 0
 3013              		@ frame_needed = 0, uses_anonymous_args = 0
 3014 0000 60B3     		cbz	r0, .L338
 3015 0002 10B5     		push	{r4, lr}
 3016 0004 0446     		mov	r4, r0
 3017 0006 90F83D30 		ldrb	r3, [r0, #61]	@ zero_extendqisi2
 3018 000a 13B3     		cbz	r3, .L343
 3019              	.L337:
 3020 000c 0223     		movs	r3, #2
 3021 000e 84F83D30 		strb	r3, [r4, #61]
 3022 0012 2146     		mov	r1, r4
 3023 0014 51F8040B 		ldr	r0, [r1], #4
 3024 0018 FFF7FEFF 		bl	TIM_Base_SetConfig
 3025 001c 0123     		movs	r3, #1
 3026 001e 84F84830 		strb	r3, [r4, #72]
 3027 0022 84F83E30 		strb	r3, [r4, #62]
 3028 0026 84F83F30 		strb	r3, [r4, #63]
 3029 002a 84F84030 		strb	r3, [r4, #64]
 3030 002e 84F84130 		strb	r3, [r4, #65]
 3031 0032 84F84230 		strb	r3, [r4, #66]
 3032 0036 84F84330 		strb	r3, [r4, #67]
 3033 003a 84F84430 		strb	r3, [r4, #68]
 3034 003e 84F84530 		strb	r3, [r4, #69]
 3035 0042 84F84630 		strb	r3, [r4, #70]
 3036 0046 84F84730 		strb	r3, [r4, #71]
 3037 004a 84F83D30 		strb	r3, [r4, #61]
 3038 004e 0020     		movs	r0, #0
 3039 0050 10BD     		pop	{r4, pc}
 3040              	.L343:
 3041 0052 80F83C30 		strb	r3, [r0, #60]
 3042 0056 FFF7FEFF 		bl	HAL_TIM_OC_MspInit
 3043 005a D7E7     		b	.L337
 3044              	.L338:
 3045 005c 0120     		movs	r0, #1
 3046 005e 7047     		bx	lr
 3048              		.section	.text.HAL_TIM_PWM_Init,"ax",%progbits
 3049              		.align	1
 3050              		.global	HAL_TIM_PWM_Init
 3051              		.syntax unified
 3052              		.thumb
 3053              		.thumb_func
 3055              	HAL_TIM_PWM_Init:
 3056              		@ args = 0, pretend = 0, frame = 0
 3057              		@ frame_needed = 0, uses_anonymous_args = 0
 3058 0000 60B3     		cbz	r0, .L347
 3059 0002 10B5     		push	{r4, lr}
 3060 0004 0446     		mov	r4, r0
ARM GAS  C:\Users\aticl\AppData\Local\Temp\ccqcvH4b.s 			page 52


 3061 0006 90F83D30 		ldrb	r3, [r0, #61]	@ zero_extendqisi2
 3062 000a 13B3     		cbz	r3, .L352
 3063              	.L346:
 3064 000c 0223     		movs	r3, #2
 3065 000e 84F83D30 		strb	r3, [r4, #61]
 3066 0012 2146     		mov	r1, r4
 3067 0014 51F8040B 		ldr	r0, [r1], #4
 3068 0018 FFF7FEFF 		bl	TIM_Base_SetConfig
 3069 001c 0123     		movs	r3, #1
 3070 001e 84F84830 		strb	r3, [r4, #72]
 3071 0022 84F83E30 		strb	r3, [r4, #62]
 3072 0026 84F83F30 		strb	r3, [r4, #63]
 3073 002a 84F84030 		strb	r3, [r4, #64]
 3074 002e 84F84130 		strb	r3, [r4, #65]
 3075 0032 84F84230 		strb	r3, [r4, #66]
 3076 0036 84F84330 		strb	r3, [r4, #67]
 3077 003a 84F84430 		strb	r3, [r4, #68]
 3078 003e 84F84530 		strb	r3, [r4, #69]
 3079 0042 84F84630 		strb	r3, [r4, #70]
 3080 0046 84F84730 		strb	r3, [r4, #71]
 3081 004a 84F83D30 		strb	r3, [r4, #61]
 3082 004e 0020     		movs	r0, #0
 3083 0050 10BD     		pop	{r4, pc}
 3084              	.L352:
 3085 0052 80F83C30 		strb	r3, [r0, #60]
 3086 0056 FFF7FEFF 		bl	HAL_TIM_PWM_MspInit
 3087 005a D7E7     		b	.L346
 3088              	.L347:
 3089 005c 0120     		movs	r0, #1
 3090 005e 7047     		bx	lr
 3092              		.section	.text.HAL_TIM_IC_Init,"ax",%progbits
 3093              		.align	1
 3094              		.global	HAL_TIM_IC_Init
 3095              		.syntax unified
 3096              		.thumb
 3097              		.thumb_func
 3099              	HAL_TIM_IC_Init:
 3100              		@ args = 0, pretend = 0, frame = 0
 3101              		@ frame_needed = 0, uses_anonymous_args = 0
 3102 0000 60B3     		cbz	r0, .L356
 3103 0002 10B5     		push	{r4, lr}
 3104 0004 0446     		mov	r4, r0
 3105 0006 90F83D30 		ldrb	r3, [r0, #61]	@ zero_extendqisi2
 3106 000a 13B3     		cbz	r3, .L361
 3107              	.L355:
 3108 000c 0223     		movs	r3, #2
 3109 000e 84F83D30 		strb	r3, [r4, #61]
 3110 0012 2146     		mov	r1, r4
 3111 0014 51F8040B 		ldr	r0, [r1], #4
 3112 0018 FFF7FEFF 		bl	TIM_Base_SetConfig
 3113 001c 0123     		movs	r3, #1
 3114 001e 84F84830 		strb	r3, [r4, #72]
 3115 0022 84F83E30 		strb	r3, [r4, #62]
 3116 0026 84F83F30 		strb	r3, [r4, #63]
 3117 002a 84F84030 		strb	r3, [r4, #64]
 3118 002e 84F84130 		strb	r3, [r4, #65]
 3119 0032 84F84230 		strb	r3, [r4, #66]
ARM GAS  C:\Users\aticl\AppData\Local\Temp\ccqcvH4b.s 			page 53


 3120 0036 84F84330 		strb	r3, [r4, #67]
 3121 003a 84F84430 		strb	r3, [r4, #68]
 3122 003e 84F84530 		strb	r3, [r4, #69]
 3123 0042 84F84630 		strb	r3, [r4, #70]
 3124 0046 84F84730 		strb	r3, [r4, #71]
 3125 004a 84F83D30 		strb	r3, [r4, #61]
 3126 004e 0020     		movs	r0, #0
 3127 0050 10BD     		pop	{r4, pc}
 3128              	.L361:
 3129 0052 80F83C30 		strb	r3, [r0, #60]
 3130 0056 FFF7FEFF 		bl	HAL_TIM_IC_MspInit
 3131 005a D7E7     		b	.L355
 3132              	.L356:
 3133 005c 0120     		movs	r0, #1
 3134 005e 7047     		bx	lr
 3136              		.section	.text.HAL_TIM_OnePulse_Init,"ax",%progbits
 3137              		.align	1
 3138              		.global	HAL_TIM_OnePulse_Init
 3139              		.syntax unified
 3140              		.thumb
 3141              		.thumb_func
 3143              	HAL_TIM_OnePulse_Init:
 3144              		@ args = 0, pretend = 0, frame = 0
 3145              		@ frame_needed = 0, uses_anonymous_args = 0
 3146 0000 50B3     		cbz	r0, .L365
 3147 0002 38B5     		push	{r3, r4, r5, lr}
 3148 0004 0D46     		mov	r5, r1
 3149 0006 0446     		mov	r4, r0
 3150 0008 90F83D30 		ldrb	r3, [r0, #61]	@ zero_extendqisi2
 3151 000c FBB1     		cbz	r3, .L370
 3152              	.L364:
 3153 000e 0223     		movs	r3, #2
 3154 0010 84F83D30 		strb	r3, [r4, #61]
 3155 0014 2146     		mov	r1, r4
 3156 0016 51F8040B 		ldr	r0, [r1], #4
 3157 001a FFF7FEFF 		bl	TIM_Base_SetConfig
 3158 001e 2268     		ldr	r2, [r4]
 3159 0020 1368     		ldr	r3, [r2]
 3160 0022 23F00803 		bic	r3, r3, #8
 3161 0026 1360     		str	r3, [r2]
 3162 0028 2268     		ldr	r2, [r4]
 3163 002a 1368     		ldr	r3, [r2]
 3164 002c 2B43     		orrs	r3, r3, r5
 3165 002e 1360     		str	r3, [r2]
 3166 0030 0123     		movs	r3, #1
 3167 0032 84F84830 		strb	r3, [r4, #72]
 3168 0036 84F83E30 		strb	r3, [r4, #62]
 3169 003a 84F83F30 		strb	r3, [r4, #63]
 3170 003e 84F84430 		strb	r3, [r4, #68]
 3171 0042 84F84530 		strb	r3, [r4, #69]
 3172 0046 84F83D30 		strb	r3, [r4, #61]
 3173 004a 0020     		movs	r0, #0
 3174 004c 38BD     		pop	{r3, r4, r5, pc}
 3175              	.L370:
 3176 004e 80F83C30 		strb	r3, [r0, #60]
 3177 0052 FFF7FEFF 		bl	HAL_TIM_OnePulse_MspInit
 3178 0056 DAE7     		b	.L364
ARM GAS  C:\Users\aticl\AppData\Local\Temp\ccqcvH4b.s 			page 54


 3179              	.L365:
 3180 0058 0120     		movs	r0, #1
 3181 005a 7047     		bx	lr
 3183              		.section	.text.HAL_TIM_Encoder_Init,"ax",%progbits
 3184              		.align	1
 3185              		.global	HAL_TIM_Encoder_Init
 3186              		.syntax unified
 3187              		.thumb
 3188              		.thumb_func
 3190              	HAL_TIM_Encoder_Init:
 3191              		@ args = 0, pretend = 0, frame = 0
 3192              		@ frame_needed = 0, uses_anonymous_args = 0
 3193 0000 0028     		cmp	r0, #0
 3194 0002 4DD0     		beq	.L374
 3195 0004 F8B5     		push	{r3, r4, r5, r6, r7, lr}
 3196 0006 0D46     		mov	r5, r1
 3197 0008 0446     		mov	r4, r0
 3198 000a 90F83D30 		ldrb	r3, [r0, #61]	@ zero_extendqisi2
 3199 000e 002B     		cmp	r3, #0
 3200 0010 41D0     		beq	.L379
 3201              	.L373:
 3202 0012 0223     		movs	r3, #2
 3203 0014 84F83D30 		strb	r3, [r4, #61]
 3204 0018 2268     		ldr	r2, [r4]
 3205 001a 9168     		ldr	r1, [r2, #8]
 3206 001c 214B     		ldr	r3, .L380
 3207 001e 0B40     		ands	r3, r3, r1
 3208 0020 9360     		str	r3, [r2, #8]
 3209 0022 2146     		mov	r1, r4
 3210 0024 51F8040B 		ldr	r0, [r1], #4
 3211 0028 FFF7FEFF 		bl	TIM_Base_SetConfig
 3212 002c 2168     		ldr	r1, [r4]
 3213 002e 8A68     		ldr	r2, [r1, #8]
 3214 0030 8B69     		ldr	r3, [r1, #24]
 3215 0032 0E6A     		ldr	r6, [r1, #32]
 3216 0034 2868     		ldr	r0, [r5]
 3217 0036 1043     		orrs	r0, r0, r2
 3218 0038 1B4A     		ldr	r2, .L380+4
 3219 003a 1A40     		ands	r2, r2, r3
 3220 003c AB68     		ldr	r3, [r5, #8]
 3221 003e AF69     		ldr	r7, [r5, #24]
 3222 0040 43EA0723 		orr	r3, r3, r7, lsl #8
 3223 0044 1343     		orrs	r3, r3, r2
 3224 0046 194A     		ldr	r2, .L380+8
 3225 0048 1A40     		ands	r2, r2, r3
 3226 004a EB68     		ldr	r3, [r5, #12]
 3227 004c EF69     		ldr	r7, [r5, #28]
 3228 004e 43EA0723 		orr	r3, r3, r7, lsl #8
 3229 0052 1A43     		orrs	r2, r2, r3
 3230 0054 2B6A     		ldr	r3, [r5, #32]
 3231 0056 1B03     		lsls	r3, r3, #12
 3232 0058 2F69     		ldr	r7, [r5, #16]
 3233 005a 43EA0713 		orr	r3, r3, r7, lsl #4
 3234 005e 1343     		orrs	r3, r3, r2
 3235 0060 26F0AA06 		bic	r6, r6, #170
 3236 0064 6A68     		ldr	r2, [r5, #4]
 3237 0066 6D69     		ldr	r5, [r5, #20]
ARM GAS  C:\Users\aticl\AppData\Local\Temp\ccqcvH4b.s 			page 55


 3238 0068 42EA0512 		orr	r2, r2, r5, lsl #4
 3239 006c 3243     		orrs	r2, r2, r6
 3240 006e 8860     		str	r0, [r1, #8]
 3241 0070 2168     		ldr	r1, [r4]
 3242 0072 8B61     		str	r3, [r1, #24]
 3243 0074 2368     		ldr	r3, [r4]
 3244 0076 1A62     		str	r2, [r3, #32]
 3245 0078 0123     		movs	r3, #1
 3246 007a 84F84830 		strb	r3, [r4, #72]
 3247 007e 84F83E30 		strb	r3, [r4, #62]
 3248 0082 84F83F30 		strb	r3, [r4, #63]
 3249 0086 84F84430 		strb	r3, [r4, #68]
 3250 008a 84F84530 		strb	r3, [r4, #69]
 3251 008e 84F83D30 		strb	r3, [r4, #61]
 3252 0092 0020     		movs	r0, #0
 3253 0094 F8BD     		pop	{r3, r4, r5, r6, r7, pc}
 3254              	.L379:
 3255 0096 80F83C30 		strb	r3, [r0, #60]
 3256 009a FFF7FEFF 		bl	HAL_TIM_Encoder_MspInit
 3257 009e B8E7     		b	.L373
 3258              	.L374:
 3259 00a0 0120     		movs	r0, #1
 3260 00a2 7047     		bx	lr
 3261              	.L381:
 3262              		.align	2
 3263              	.L380:
 3264 00a4 F8BFFEFF 		.word	-81928
 3265 00a8 FCFCFFFF 		.word	-772
 3266 00ac 0303FFFF 		.word	-64765
 3268              		.section	.text.TIM_OC2_SetConfig,"ax",%progbits
 3269              		.align	1
 3270              		.global	TIM_OC2_SetConfig
 3271              		.syntax unified
 3272              		.thumb
 3273              		.thumb_func
 3275              	TIM_OC2_SetConfig:
 3276              		@ args = 0, pretend = 0, frame = 0
 3277              		@ frame_needed = 0, uses_anonymous_args = 0
 3278              		@ link register save eliminated.
 3279 0000 70B4     		push	{r4, r5, r6}
 3280 0002 036A     		ldr	r3, [r0, #32]
 3281 0004 026A     		ldr	r2, [r0, #32]
 3282 0006 22F01002 		bic	r2, r2, #16
 3283 000a 0262     		str	r2, [r0, #32]
 3284 000c 4568     		ldr	r5, [r0, #4]
 3285 000e 8469     		ldr	r4, [r0, #24]
 3286 0010 1A4E     		ldr	r6, .L387
 3287 0012 2640     		ands	r6, r6, r4
 3288 0014 0C68     		ldr	r4, [r1]
 3289 0016 46EA0426 		orr	r6, r6, r4, lsl #8
 3290 001a 23F02003 		bic	r3, r3, #32
 3291 001e 8A68     		ldr	r2, [r1, #8]
 3292 0020 43EA0213 		orr	r3, r3, r2, lsl #4
 3293 0024 164A     		ldr	r2, .L387+4
 3294 0026 174C     		ldr	r4, .L387+8
 3295 0028 A042     		cmp	r0, r4
 3296 002a 18BF     		it	ne
ARM GAS  C:\Users\aticl\AppData\Local\Temp\ccqcvH4b.s 			page 56


 3297 002c 9042     		cmpne	r0, r2
 3298 002e 0CBF     		ite	eq
 3299 0030 0122     		moveq	r2, #1
 3300 0032 0022     		movne	r2, #0
 3301 0034 06D1     		bne	.L383
 3302 0036 23F08003 		bic	r3, r3, #128
 3303 003a CC68     		ldr	r4, [r1, #12]
 3304 003c 43EA0413 		orr	r3, r3, r4, lsl #4
 3305 0040 23F04003 		bic	r3, r3, #64
 3306              	.L383:
 3307 0044 5AB9     		cbnz	r2, .L384
 3308 0046 104A     		ldr	r2, .L387+12
 3309 0048 9042     		cmp	r0, r2
 3310 004a 14BF     		ite	ne
 3311 004c 0022     		movne	r2, #0
 3312 004e 0122     		moveq	r2, #1
 3313 0050 0E4C     		ldr	r4, .L387+16
 3314 0052 A042     		cmp	r0, r4
 3315 0054 03D0     		beq	.L384
 3316 0056 12B9     		cbnz	r2, .L384
 3317 0058 0D4A     		ldr	r2, .L387+20
 3318 005a 9042     		cmp	r0, r2
 3319 005c 07D1     		bne	.L385
 3320              	.L384:
 3321 005e 25F4406C 		bic	ip, r5, #3072
 3322 0062 4A69     		ldr	r2, [r1, #20]
 3323 0064 4CEA820C 		orr	ip, ip, r2, lsl #2
 3324 0068 8A69     		ldr	r2, [r1, #24]
 3325 006a 4CEA8205 		orr	r5, ip, r2, lsl #2
 3326              	.L385:
 3327 006e 4560     		str	r5, [r0, #4]
 3328 0070 8661     		str	r6, [r0, #24]
 3329 0072 4A68     		ldr	r2, [r1, #4]
 3330 0074 8263     		str	r2, [r0, #56]
 3331 0076 0362     		str	r3, [r0, #32]
 3332 0078 70BC     		pop	{r4, r5, r6}
 3333 007a 7047     		bx	lr
 3334              	.L388:
 3335              		.align	2
 3336              	.L387:
 3337 007c FF8CFFFE 		.word	-16806657
 3338 0080 00000140 		.word	1073807360
 3339 0084 00040140 		.word	1073808384
 3340 0088 00440140 		.word	1073824768
 3341 008c 00400140 		.word	1073823744
 3342 0090 00480140 		.word	1073825792
 3344              		.section	.text.HAL_TIM_OC_ConfigChannel,"ax",%progbits
 3345              		.align	1
 3346              		.global	HAL_TIM_OC_ConfigChannel
 3347              		.syntax unified
 3348              		.thumb
 3349              		.thumb_func
 3351              	HAL_TIM_OC_ConfigChannel:
 3352              		@ args = 0, pretend = 0, frame = 0
 3353              		@ frame_needed = 0, uses_anonymous_args = 0
 3354 0000 90F83C30 		ldrb	r3, [r0, #60]	@ zero_extendqisi2
 3355 0004 012B     		cmp	r3, #1
ARM GAS  C:\Users\aticl\AppData\Local\Temp\ccqcvH4b.s 			page 57


 3356 0006 36D0     		beq	.L399
 3357 0008 10B5     		push	{r4, lr}
 3358 000a 0446     		mov	r4, r0
 3359 000c 0123     		movs	r3, #1
 3360 000e 80F83C30 		strb	r3, [r0, #60]
 3361 0012 142A     		cmp	r2, #20
 3362 0014 2AD8     		bhi	.L400
 3363 0016 DFE802F0 		tbb	[pc, r2]
 3364              	.L393:
 3365 001a 0B       		.byte	(.L398-.L393)/2
 3366 001b 29       		.byte	(.L400-.L393)/2
 3367 001c 29       		.byte	(.L400-.L393)/2
 3368 001d 29       		.byte	(.L400-.L393)/2
 3369 001e 10       		.byte	(.L397-.L393)/2
 3370 001f 29       		.byte	(.L400-.L393)/2
 3371 0020 29       		.byte	(.L400-.L393)/2
 3372 0021 29       		.byte	(.L400-.L393)/2
 3373 0022 15       		.byte	(.L396-.L393)/2
 3374 0023 29       		.byte	(.L400-.L393)/2
 3375 0024 29       		.byte	(.L400-.L393)/2
 3376 0025 29       		.byte	(.L400-.L393)/2
 3377 0026 1A       		.byte	(.L395-.L393)/2
 3378 0027 29       		.byte	(.L400-.L393)/2
 3379 0028 29       		.byte	(.L400-.L393)/2
 3380 0029 29       		.byte	(.L400-.L393)/2
 3381 002a 1F       		.byte	(.L394-.L393)/2
 3382 002b 29       		.byte	(.L400-.L393)/2
 3383 002c 29       		.byte	(.L400-.L393)/2
 3384 002d 29       		.byte	(.L400-.L393)/2
 3385 002e 24       		.byte	(.L392-.L393)/2
 3386 002f 00       		.p2align 1
 3387              	.L398:
 3388 0030 0068     		ldr	r0, [r0]
 3389 0032 FFF7FEFF 		bl	TIM_OC1_SetConfig
 3390 0036 0020     		movs	r0, #0
 3391 0038 19E0     		b	.L391
 3392              	.L397:
 3393 003a 0068     		ldr	r0, [r0]
 3394 003c FFF7FEFF 		bl	TIM_OC2_SetConfig
 3395 0040 0020     		movs	r0, #0
 3396 0042 14E0     		b	.L391
 3397              	.L396:
 3398 0044 0068     		ldr	r0, [r0]
 3399 0046 FFF7FEFF 		bl	TIM_OC3_SetConfig
 3400 004a 0020     		movs	r0, #0
 3401 004c 0FE0     		b	.L391
 3402              	.L395:
 3403 004e 0068     		ldr	r0, [r0]
 3404 0050 FFF7FEFF 		bl	TIM_OC4_SetConfig
 3405 0054 0020     		movs	r0, #0
 3406 0056 0AE0     		b	.L391
 3407              	.L394:
 3408 0058 0068     		ldr	r0, [r0]
 3409 005a FFF7FEFF 		bl	TIM_OC5_SetConfig
 3410 005e 0020     		movs	r0, #0
 3411 0060 05E0     		b	.L391
 3412              	.L392:
ARM GAS  C:\Users\aticl\AppData\Local\Temp\ccqcvH4b.s 			page 58


 3413 0062 0068     		ldr	r0, [r0]
 3414 0064 FFF7FEFF 		bl	TIM_OC6_SetConfig
 3415 0068 0020     		movs	r0, #0
 3416 006a 00E0     		b	.L391
 3417              	.L400:
 3418 006c 0120     		movs	r0, #1
 3419              	.L391:
 3420 006e 0023     		movs	r3, #0
 3421 0070 84F83C30 		strb	r3, [r4, #60]
 3422 0074 10BD     		pop	{r4, pc}
 3423              	.L399:
 3424 0076 0220     		movs	r0, #2
 3425 0078 7047     		bx	lr
 3427              		.section	.text.HAL_TIM_PWM_ConfigChannel,"ax",%progbits
 3428              		.align	1
 3429              		.global	HAL_TIM_PWM_ConfigChannel
 3430              		.syntax unified
 3431              		.thumb
 3432              		.thumb_func
 3434              	HAL_TIM_PWM_ConfigChannel:
 3435              		@ args = 0, pretend = 0, frame = 0
 3436              		@ frame_needed = 0, uses_anonymous_args = 0
 3437 0000 38B5     		push	{r3, r4, r5, lr}
 3438 0002 90F83C30 		ldrb	r3, [r0, #60]	@ zero_extendqisi2
 3439 0006 012B     		cmp	r3, #1
 3440 0008 00F09580 		beq	.L415
 3441 000c 0446     		mov	r4, r0
 3442 000e 0D46     		mov	r5, r1
 3443 0010 0123     		movs	r3, #1
 3444 0012 80F83C30 		strb	r3, [r0, #60]
 3445 0016 142A     		cmp	r2, #20
 3446 0018 00F28880 		bhi	.L416
 3447 001c DFE802F0 		tbb	[pc, r2]
 3448              	.L409:
 3449 0020 0B       		.byte	(.L414-.L409)/2
 3450 0021 86       		.byte	(.L416-.L409)/2
 3451 0022 86       		.byte	(.L416-.L409)/2
 3452 0023 86       		.byte	(.L416-.L409)/2
 3453 0024 1F       		.byte	(.L413-.L409)/2
 3454 0025 86       		.byte	(.L416-.L409)/2
 3455 0026 86       		.byte	(.L416-.L409)/2
 3456 0027 86       		.byte	(.L416-.L409)/2
 3457 0028 34       		.byte	(.L412-.L409)/2
 3458 0029 86       		.byte	(.L416-.L409)/2
 3459 002a 86       		.byte	(.L416-.L409)/2
 3460 002b 86       		.byte	(.L416-.L409)/2
 3461 002c 48       		.byte	(.L411-.L409)/2
 3462 002d 86       		.byte	(.L416-.L409)/2
 3463 002e 86       		.byte	(.L416-.L409)/2
 3464 002f 86       		.byte	(.L416-.L409)/2
 3465 0030 5D       		.byte	(.L410-.L409)/2
 3466 0031 86       		.byte	(.L416-.L409)/2
 3467 0032 86       		.byte	(.L416-.L409)/2
 3468 0033 86       		.byte	(.L416-.L409)/2
 3469 0034 71       		.byte	(.L408-.L409)/2
 3470 0035 00       		.p2align 1
 3471              	.L414:
ARM GAS  C:\Users\aticl\AppData\Local\Temp\ccqcvH4b.s 			page 59


 3472 0036 0068     		ldr	r0, [r0]
 3473 0038 FFF7FEFF 		bl	TIM_OC1_SetConfig
 3474 003c 2268     		ldr	r2, [r4]
 3475 003e 9369     		ldr	r3, [r2, #24]
 3476 0040 43F00803 		orr	r3, r3, #8
 3477 0044 9361     		str	r3, [r2, #24]
 3478 0046 2268     		ldr	r2, [r4]
 3479 0048 9369     		ldr	r3, [r2, #24]
 3480 004a 23F00403 		bic	r3, r3, #4
 3481 004e 9361     		str	r3, [r2, #24]
 3482 0050 2268     		ldr	r2, [r4]
 3483 0052 9369     		ldr	r3, [r2, #24]
 3484 0054 2969     		ldr	r1, [r5, #16]
 3485 0056 0B43     		orrs	r3, r3, r1
 3486 0058 9361     		str	r3, [r2, #24]
 3487 005a 0020     		movs	r0, #0
 3488 005c 67E0     		b	.L407
 3489              	.L413:
 3490 005e 0068     		ldr	r0, [r0]
 3491 0060 FFF7FEFF 		bl	TIM_OC2_SetConfig
 3492 0064 2268     		ldr	r2, [r4]
 3493 0066 9369     		ldr	r3, [r2, #24]
 3494 0068 43F40063 		orr	r3, r3, #2048
 3495 006c 9361     		str	r3, [r2, #24]
 3496 006e 2268     		ldr	r2, [r4]
 3497 0070 9369     		ldr	r3, [r2, #24]
 3498 0072 23F48063 		bic	r3, r3, #1024
 3499 0076 9361     		str	r3, [r2, #24]
 3500 0078 2268     		ldr	r2, [r4]
 3501 007a 9369     		ldr	r3, [r2, #24]
 3502 007c 2969     		ldr	r1, [r5, #16]
 3503 007e 43EA0123 		orr	r3, r3, r1, lsl #8
 3504 0082 9361     		str	r3, [r2, #24]
 3505 0084 0020     		movs	r0, #0
 3506 0086 52E0     		b	.L407
 3507              	.L412:
 3508 0088 0068     		ldr	r0, [r0]
 3509 008a FFF7FEFF 		bl	TIM_OC3_SetConfig
 3510 008e 2268     		ldr	r2, [r4]
 3511 0090 D369     		ldr	r3, [r2, #28]
 3512 0092 43F00803 		orr	r3, r3, #8
 3513 0096 D361     		str	r3, [r2, #28]
 3514 0098 2268     		ldr	r2, [r4]
 3515 009a D369     		ldr	r3, [r2, #28]
 3516 009c 23F00403 		bic	r3, r3, #4
 3517 00a0 D361     		str	r3, [r2, #28]
 3518 00a2 2268     		ldr	r2, [r4]
 3519 00a4 D369     		ldr	r3, [r2, #28]
 3520 00a6 2969     		ldr	r1, [r5, #16]
 3521 00a8 0B43     		orrs	r3, r3, r1
 3522 00aa D361     		str	r3, [r2, #28]
 3523 00ac 0020     		movs	r0, #0
 3524 00ae 3EE0     		b	.L407
 3525              	.L411:
 3526 00b0 0068     		ldr	r0, [r0]
 3527 00b2 FFF7FEFF 		bl	TIM_OC4_SetConfig
 3528 00b6 2268     		ldr	r2, [r4]
ARM GAS  C:\Users\aticl\AppData\Local\Temp\ccqcvH4b.s 			page 60


 3529 00b8 D369     		ldr	r3, [r2, #28]
 3530 00ba 43F40063 		orr	r3, r3, #2048
 3531 00be D361     		str	r3, [r2, #28]
 3532 00c0 2268     		ldr	r2, [r4]
 3533 00c2 D369     		ldr	r3, [r2, #28]
 3534 00c4 23F48063 		bic	r3, r3, #1024
 3535 00c8 D361     		str	r3, [r2, #28]
 3536 00ca 2268     		ldr	r2, [r4]
 3537 00cc D369     		ldr	r3, [r2, #28]
 3538 00ce 2969     		ldr	r1, [r5, #16]
 3539 00d0 43EA0123 		orr	r3, r3, r1, lsl #8
 3540 00d4 D361     		str	r3, [r2, #28]
 3541 00d6 0020     		movs	r0, #0
 3542 00d8 29E0     		b	.L407
 3543              	.L410:
 3544 00da 0068     		ldr	r0, [r0]
 3545 00dc FFF7FEFF 		bl	TIM_OC5_SetConfig
 3546 00e0 2268     		ldr	r2, [r4]
 3547 00e2 536D     		ldr	r3, [r2, #84]
 3548 00e4 43F00803 		orr	r3, r3, #8
 3549 00e8 5365     		str	r3, [r2, #84]
 3550 00ea 2268     		ldr	r2, [r4]
 3551 00ec 536D     		ldr	r3, [r2, #84]
 3552 00ee 23F00403 		bic	r3, r3, #4
 3553 00f2 5365     		str	r3, [r2, #84]
 3554 00f4 2268     		ldr	r2, [r4]
 3555 00f6 536D     		ldr	r3, [r2, #84]
 3556 00f8 2969     		ldr	r1, [r5, #16]
 3557 00fa 0B43     		orrs	r3, r3, r1
 3558 00fc 5365     		str	r3, [r2, #84]
 3559 00fe 0020     		movs	r0, #0
 3560 0100 15E0     		b	.L407
 3561              	.L408:
 3562 0102 0068     		ldr	r0, [r0]
 3563 0104 FFF7FEFF 		bl	TIM_OC6_SetConfig
 3564 0108 2268     		ldr	r2, [r4]
 3565 010a 536D     		ldr	r3, [r2, #84]
 3566 010c 43F40063 		orr	r3, r3, #2048
 3567 0110 5365     		str	r3, [r2, #84]
 3568 0112 2268     		ldr	r2, [r4]
 3569 0114 536D     		ldr	r3, [r2, #84]
 3570 0116 23F48063 		bic	r3, r3, #1024
 3571 011a 5365     		str	r3, [r2, #84]
 3572 011c 2268     		ldr	r2, [r4]
 3573 011e 536D     		ldr	r3, [r2, #84]
 3574 0120 2969     		ldr	r1, [r5, #16]
 3575 0122 43EA0123 		orr	r3, r3, r1, lsl #8
 3576 0126 5365     		str	r3, [r2, #84]
 3577 0128 0020     		movs	r0, #0
 3578 012a 00E0     		b	.L407
 3579              	.L416:
 3580 012c 0120     		movs	r0, #1
 3581              	.L407:
 3582 012e 0023     		movs	r3, #0
 3583 0130 84F83C30 		strb	r3, [r4, #60]
 3584              	.L406:
 3585 0134 38BD     		pop	{r3, r4, r5, pc}
ARM GAS  C:\Users\aticl\AppData\Local\Temp\ccqcvH4b.s 			page 61


 3586              	.L415:
 3587 0136 0220     		movs	r0, #2
 3588 0138 FCE7     		b	.L406
 3590              		.section	.text.TIM_TI1_SetConfig,"ax",%progbits
 3591              		.align	1
 3592              		.global	TIM_TI1_SetConfig
 3593              		.syntax unified
 3594              		.thumb
 3595              		.thumb_func
 3597              	TIM_TI1_SetConfig:
 3598              		@ args = 0, pretend = 0, frame = 0
 3599              		@ frame_needed = 0, uses_anonymous_args = 0
 3600              		@ link register save eliminated.
 3601 0000 70B4     		push	{r4, r5, r6}
 3602 0002 9446     		mov	ip, r2
 3603 0004 066A     		ldr	r6, [r0, #32]
 3604 0006 046A     		ldr	r4, [r0, #32]
 3605 0008 24F00104 		bic	r4, r4, #1
 3606 000c 0462     		str	r4, [r0, #32]
 3607 000e 8469     		ldr	r4, [r0, #24]
 3608 0010 1D4D     		ldr	r5, .L422
 3609 0012 B0F1804F 		cmp	r0, #1073741824
 3610 0016 18BF     		it	ne
 3611 0018 A842     		cmpne	r0, r5
 3612 001a 23D0     		beq	.L419
 3613 001c 1B4A     		ldr	r2, .L422+4
 3614 001e 9042     		cmp	r0, r2
 3615 0020 14BF     		ite	ne
 3616 0022 0022     		movne	r2, #0
 3617 0024 0122     		moveq	r2, #1
 3618 0026 A5F57C45 		sub	r5, r5, #64512
 3619 002a A842     		cmp	r0, r5
 3620 002c 1AD0     		beq	.L419
 3621 002e CAB9     		cbnz	r2, .L419
 3622 0030 02F18042 		add	r2, r2, #1073741824
 3623 0034 02F58232 		add	r2, r2, #66560
 3624 0038 9042     		cmp	r0, r2
 3625 003a 14BF     		ite	ne
 3626 003c 0022     		movne	r2, #0
 3627 003e 0122     		moveq	r2, #1
 3628 0040 05F50065 		add	r5, r5, #2048
 3629 0044 A842     		cmp	r0, r5
 3630 0046 0DD0     		beq	.L419
 3631 0048 62B9     		cbnz	r2, .L419
 3632 004a 114A     		ldr	r2, .L422+8
 3633 004c 9042     		cmp	r0, r2
 3634 004e 14BF     		ite	ne
 3635 0050 0022     		movne	r2, #0
 3636 0052 0122     		moveq	r2, #1
 3637 0054 05F54065 		add	r5, r5, #3072
 3638 0058 A842     		cmp	r0, r5
 3639 005a 03D0     		beq	.L419
 3640 005c 12B9     		cbnz	r2, .L419
 3641 005e 44F00102 		orr	r2, r4, #1
 3642 0062 03E0     		b	.L420
 3643              	.L419:
 3644 0064 24F00302 		bic	r2, r4, #3
ARM GAS  C:\Users\aticl\AppData\Local\Temp\ccqcvH4b.s 			page 62


 3645 0068 42EA0C02 		orr	r2, r2, ip
 3646              	.L420:
 3647 006c 22F0F002 		bic	r2, r2, #240
 3648 0070 1B01     		lsls	r3, r3, #4
 3649 0072 DBB2     		uxtb	r3, r3
 3650 0074 1343     		orrs	r3, r3, r2
 3651 0076 26F00A02 		bic	r2, r6, #10
 3652 007a 01F00A01 		and	r1, r1, #10
 3653 007e 1143     		orrs	r1, r1, r2
 3654 0080 8361     		str	r3, [r0, #24]
 3655 0082 0162     		str	r1, [r0, #32]
 3656 0084 70BC     		pop	{r4, r5, r6}
 3657 0086 7047     		bx	lr
 3658              	.L423:
 3659              		.align	2
 3660              	.L422:
 3661 0088 00000140 		.word	1073807360
 3662 008c 00080040 		.word	1073743872
 3663 0090 00400140 		.word	1073823744
 3665              		.section	.text.HAL_TIM_IC_ConfigChannel,"ax",%progbits
 3666              		.align	1
 3667              		.global	HAL_TIM_IC_ConfigChannel
 3668              		.syntax unified
 3669              		.thumb
 3670              		.thumb_func
 3672              	HAL_TIM_IC_ConfigChannel:
 3673              		@ args = 0, pretend = 0, frame = 0
 3674              		@ frame_needed = 0, uses_anonymous_args = 0
 3675 0000 38B5     		push	{r3, r4, r5, lr}
 3676 0002 90F83C30 		ldrb	r3, [r0, #60]	@ zero_extendqisi2
 3677 0006 012B     		cmp	r3, #1
 3678 0008 5ED0     		beq	.L432
 3679 000a 0446     		mov	r4, r0
 3680 000c 0D46     		mov	r5, r1
 3681 000e 0123     		movs	r3, #1
 3682 0010 80F83C30 		strb	r3, [r0, #60]
 3683 0014 0C2A     		cmp	r2, #12
 3684 0016 52D8     		bhi	.L433
 3685 0018 DFE802F0 		tbb	[pc, r2]
 3686              	.L428:
 3687 001c 07       		.byte	(.L431-.L428)/2
 3688 001d 51       		.byte	(.L433-.L428)/2
 3689 001e 51       		.byte	(.L433-.L428)/2
 3690 001f 51       		.byte	(.L433-.L428)/2
 3691 0020 19       		.byte	(.L430-.L428)/2
 3692 0021 51       		.byte	(.L433-.L428)/2
 3693 0022 51       		.byte	(.L433-.L428)/2
 3694 0023 51       		.byte	(.L433-.L428)/2
 3695 0024 2C       		.byte	(.L429-.L428)/2
 3696 0025 51       		.byte	(.L433-.L428)/2
 3697 0026 51       		.byte	(.L433-.L428)/2
 3698 0027 51       		.byte	(.L433-.L428)/2
 3699 0028 3E       		.byte	(.L427-.L428)/2
 3700 0029 00       		.p2align 1
 3701              	.L431:
 3702 002a CB68     		ldr	r3, [r1, #12]
 3703 002c 4A68     		ldr	r2, [r1, #4]
ARM GAS  C:\Users\aticl\AppData\Local\Temp\ccqcvH4b.s 			page 63


 3704 002e 0968     		ldr	r1, [r1]
 3705 0030 0068     		ldr	r0, [r0]
 3706 0032 FFF7FEFF 		bl	TIM_TI1_SetConfig
 3707 0036 2268     		ldr	r2, [r4]
 3708 0038 9369     		ldr	r3, [r2, #24]
 3709 003a 23F00C03 		bic	r3, r3, #12
 3710 003e 9361     		str	r3, [r2, #24]
 3711 0040 2268     		ldr	r2, [r4]
 3712 0042 9369     		ldr	r3, [r2, #24]
 3713 0044 A968     		ldr	r1, [r5, #8]
 3714 0046 0B43     		orrs	r3, r3, r1
 3715 0048 9361     		str	r3, [r2, #24]
 3716 004a 0020     		movs	r0, #0
 3717 004c 38E0     		b	.L426
 3718              	.L430:
 3719 004e CB68     		ldr	r3, [r1, #12]
 3720 0050 4A68     		ldr	r2, [r1, #4]
 3721 0052 0968     		ldr	r1, [r1]
 3722 0054 0068     		ldr	r0, [r0]
 3723 0056 FFF7FEFF 		bl	TIM_TI2_SetConfig
 3724 005a 2268     		ldr	r2, [r4]
 3725 005c 9369     		ldr	r3, [r2, #24]
 3726 005e 23F44063 		bic	r3, r3, #3072
 3727 0062 9361     		str	r3, [r2, #24]
 3728 0064 2268     		ldr	r2, [r4]
 3729 0066 9369     		ldr	r3, [r2, #24]
 3730 0068 A968     		ldr	r1, [r5, #8]
 3731 006a 43EA0123 		orr	r3, r3, r1, lsl #8
 3732 006e 9361     		str	r3, [r2, #24]
 3733 0070 0020     		movs	r0, #0
 3734 0072 25E0     		b	.L426
 3735              	.L429:
 3736 0074 CB68     		ldr	r3, [r1, #12]
 3737 0076 4A68     		ldr	r2, [r1, #4]
 3738 0078 0968     		ldr	r1, [r1]
 3739 007a 0068     		ldr	r0, [r0]
 3740 007c FFF7FEFF 		bl	TIM_TI3_SetConfig
 3741 0080 2268     		ldr	r2, [r4]
 3742 0082 D369     		ldr	r3, [r2, #28]
 3743 0084 23F00C03 		bic	r3, r3, #12
 3744 0088 D361     		str	r3, [r2, #28]
 3745 008a 2268     		ldr	r2, [r4]
 3746 008c D369     		ldr	r3, [r2, #28]
 3747 008e A968     		ldr	r1, [r5, #8]
 3748 0090 0B43     		orrs	r3, r3, r1
 3749 0092 D361     		str	r3, [r2, #28]
 3750 0094 0020     		movs	r0, #0
 3751 0096 13E0     		b	.L426
 3752              	.L427:
 3753 0098 CB68     		ldr	r3, [r1, #12]
 3754 009a 4A68     		ldr	r2, [r1, #4]
 3755 009c 0968     		ldr	r1, [r1]
 3756 009e 0068     		ldr	r0, [r0]
 3757 00a0 FFF7FEFF 		bl	TIM_TI4_SetConfig
 3758 00a4 2268     		ldr	r2, [r4]
 3759 00a6 D369     		ldr	r3, [r2, #28]
 3760 00a8 23F44063 		bic	r3, r3, #3072
ARM GAS  C:\Users\aticl\AppData\Local\Temp\ccqcvH4b.s 			page 64


 3761 00ac D361     		str	r3, [r2, #28]
 3762 00ae 2268     		ldr	r2, [r4]
 3763 00b0 D369     		ldr	r3, [r2, #28]
 3764 00b2 A968     		ldr	r1, [r5, #8]
 3765 00b4 43EA0123 		orr	r3, r3, r1, lsl #8
 3766 00b8 D361     		str	r3, [r2, #28]
 3767 00ba 0020     		movs	r0, #0
 3768 00bc 00E0     		b	.L426
 3769              	.L433:
 3770 00be 0120     		movs	r0, #1
 3771              	.L426:
 3772 00c0 0023     		movs	r3, #0
 3773 00c2 84F83C30 		strb	r3, [r4, #60]
 3774              	.L425:
 3775 00c6 38BD     		pop	{r3, r4, r5, pc}
 3776              	.L432:
 3777 00c8 0220     		movs	r0, #2
 3778 00ca FCE7     		b	.L425
 3780              		.section	.text.HAL_TIM_OnePulse_ConfigChannel,"ax",%progbits
 3781              		.align	1
 3782              		.global	HAL_TIM_OnePulse_ConfigChannel
 3783              		.syntax unified
 3784              		.thumb
 3785              		.thumb_func
 3787              	HAL_TIM_OnePulse_ConfigChannel:
 3788              		@ args = 0, pretend = 0, frame = 32
 3789              		@ frame_needed = 0, uses_anonymous_args = 0
 3790 0000 9A42     		cmp	r2, r3
 3791 0002 76D0     		beq	.L443
 3792 0004 70B5     		push	{r4, r5, r6, lr}
 3793 0006 88B0     		sub	sp, sp, #32
 3794 0008 0446     		mov	r4, r0
 3795 000a 0D46     		mov	r5, r1
 3796 000c 1E46     		mov	r6, r3
 3797 000e 90F83C30 		ldrb	r3, [r0, #60]	@ zero_extendqisi2
 3798 0012 012B     		cmp	r3, #1
 3799 0014 6FD0     		beq	.L444
 3800 0016 0123     		movs	r3, #1
 3801 0018 80F83C30 		strb	r3, [r0, #60]
 3802 001c 0223     		movs	r3, #2
 3803 001e 80F83D30 		strb	r3, [r0, #61]
 3804 0022 0B68     		ldr	r3, [r1]
 3805 0024 0193     		str	r3, [sp, #4]
 3806 0026 4B68     		ldr	r3, [r1, #4]
 3807 0028 0293     		str	r3, [sp, #8]
 3808 002a 8B68     		ldr	r3, [r1, #8]
 3809 002c 0393     		str	r3, [sp, #12]
 3810 002e CB68     		ldr	r3, [r1, #12]
 3811 0030 0493     		str	r3, [sp, #16]
 3812 0032 0B69     		ldr	r3, [r1, #16]
 3813 0034 0693     		str	r3, [sp, #24]
 3814 0036 4B69     		ldr	r3, [r1, #20]
 3815 0038 0793     		str	r3, [sp, #28]
 3816 003a 52B1     		cbz	r2, .L437
 3817 003c 042A     		cmp	r2, #4
 3818 003e 11D0     		beq	.L438
 3819 0040 0120     		movs	r0, #1
ARM GAS  C:\Users\aticl\AppData\Local\Temp\ccqcvH4b.s 			page 65


 3820              	.L439:
 3821 0042 0123     		movs	r3, #1
 3822 0044 84F83D30 		strb	r3, [r4, #61]
 3823 0048 0023     		movs	r3, #0
 3824 004a 84F83C30 		strb	r3, [r4, #60]
 3825              	.L436:
 3826 004e 08B0     		add	sp, sp, #32
 3827              		@ sp needed
 3828 0050 70BD     		pop	{r4, r5, r6, pc}
 3829              	.L437:
 3830 0052 01A9     		add	r1, sp, #4
 3831 0054 0068     		ldr	r0, [r0]
 3832 0056 FFF7FEFF 		bl	TIM_OC1_SetConfig
 3833              	.L440:
 3834 005a 46B1     		cbz	r6, .L441
 3835 005c 042E     		cmp	r6, #4
 3836 005e 27D0     		beq	.L442
 3837 0060 0120     		movs	r0, #1
 3838 0062 EEE7     		b	.L439
 3839              	.L438:
 3840 0064 01A9     		add	r1, sp, #4
 3841 0066 0068     		ldr	r0, [r0]
 3842 0068 FFF7FEFF 		bl	TIM_OC2_SetConfig
 3843 006c F5E7     		b	.L440
 3844              	.L441:
 3845 006e 2B6A     		ldr	r3, [r5, #32]
 3846 0070 EA69     		ldr	r2, [r5, #28]
 3847 0072 A969     		ldr	r1, [r5, #24]
 3848 0074 2068     		ldr	r0, [r4]
 3849 0076 FFF7FEFF 		bl	TIM_TI1_SetConfig
 3850 007a 2268     		ldr	r2, [r4]
 3851 007c 9369     		ldr	r3, [r2, #24]
 3852 007e 23F00C03 		bic	r3, r3, #12
 3853 0082 9361     		str	r3, [r2, #24]
 3854 0084 2268     		ldr	r2, [r4]
 3855 0086 9168     		ldr	r1, [r2, #8]
 3856 0088 1C4B     		ldr	r3, .L449
 3857 008a 0B40     		ands	r3, r3, r1
 3858 008c 9360     		str	r3, [r2, #8]
 3859 008e 2268     		ldr	r2, [r4]
 3860 0090 9368     		ldr	r3, [r2, #8]
 3861 0092 43F05003 		orr	r3, r3, #80
 3862 0096 9360     		str	r3, [r2, #8]
 3863 0098 2268     		ldr	r2, [r4]
 3864 009a 9168     		ldr	r1, [r2, #8]
 3865 009c 184B     		ldr	r3, .L449+4
 3866 009e 0B40     		ands	r3, r3, r1
 3867 00a0 9360     		str	r3, [r2, #8]
 3868 00a2 2268     		ldr	r2, [r4]
 3869 00a4 9368     		ldr	r3, [r2, #8]
 3870 00a6 43F00603 		orr	r3, r3, #6
 3871 00aa 9360     		str	r3, [r2, #8]
 3872 00ac 0020     		movs	r0, #0
 3873 00ae C8E7     		b	.L439
 3874              	.L442:
 3875 00b0 2B6A     		ldr	r3, [r5, #32]
 3876 00b2 EA69     		ldr	r2, [r5, #28]
ARM GAS  C:\Users\aticl\AppData\Local\Temp\ccqcvH4b.s 			page 66


 3877 00b4 A969     		ldr	r1, [r5, #24]
 3878 00b6 2068     		ldr	r0, [r4]
 3879 00b8 FFF7FEFF 		bl	TIM_TI2_SetConfig
 3880 00bc 2268     		ldr	r2, [r4]
 3881 00be 9369     		ldr	r3, [r2, #24]
 3882 00c0 23F44063 		bic	r3, r3, #3072
 3883 00c4 9361     		str	r3, [r2, #24]
 3884 00c6 2268     		ldr	r2, [r4]
 3885 00c8 9168     		ldr	r1, [r2, #8]
 3886 00ca 0C4B     		ldr	r3, .L449
 3887 00cc 0B40     		ands	r3, r3, r1
 3888 00ce 9360     		str	r3, [r2, #8]
 3889 00d0 2268     		ldr	r2, [r4]
 3890 00d2 9368     		ldr	r3, [r2, #8]
 3891 00d4 43F06003 		orr	r3, r3, #96
 3892 00d8 9360     		str	r3, [r2, #8]
 3893 00da 2268     		ldr	r2, [r4]
 3894 00dc 9168     		ldr	r1, [r2, #8]
 3895 00de 084B     		ldr	r3, .L449+4
 3896 00e0 0B40     		ands	r3, r3, r1
 3897 00e2 9360     		str	r3, [r2, #8]
 3898 00e4 2268     		ldr	r2, [r4]
 3899 00e6 9368     		ldr	r3, [r2, #8]
 3900 00e8 43F00603 		orr	r3, r3, #6
 3901 00ec 9360     		str	r3, [r2, #8]
 3902 00ee 0020     		movs	r0, #0
 3903 00f0 A7E7     		b	.L439
 3904              	.L443:
 3905 00f2 0120     		movs	r0, #1
 3906 00f4 7047     		bx	lr
 3907              	.L444:
 3908 00f6 0220     		movs	r0, #2
 3909 00f8 A9E7     		b	.L436
 3910              	.L450:
 3911 00fa 00BF     		.align	2
 3912              	.L449:
 3913 00fc 8FFFCFFF 		.word	-3145841
 3914 0100 F8FFFEFF 		.word	-65544
 3916              		.section	.text.TIM_ETR_SetConfig,"ax",%progbits
 3917              		.align	1
 3918              		.global	TIM_ETR_SetConfig
 3919              		.syntax unified
 3920              		.thumb
 3921              		.thumb_func
 3923              	TIM_ETR_SetConfig:
 3924              		@ args = 0, pretend = 0, frame = 0
 3925              		@ frame_needed = 0, uses_anonymous_args = 0
 3926              		@ link register save eliminated.
 3927 0000 10B4     		push	{r4}
 3928 0002 8468     		ldr	r4, [r0, #8]
 3929 0004 24F47F4C 		bic	ip, r4, #65280
 3930 0008 42EA0322 		orr	r2, r2, r3, lsl #8
 3931 000c 0A43     		orrs	r2, r2, r1
 3932 000e 42EA0C02 		orr	r2, r2, ip
 3933 0012 8260     		str	r2, [r0, #8]
 3934 0014 5DF8044B 		ldr	r4, [sp], #4
 3935 0018 7047     		bx	lr
ARM GAS  C:\Users\aticl\AppData\Local\Temp\ccqcvH4b.s 			page 67


 3937              		.section	.text.HAL_TIM_ConfigOCrefClear,"ax",%progbits
 3938              		.align	1
 3939              		.global	HAL_TIM_ConfigOCrefClear
 3940              		.syntax unified
 3941              		.thumb
 3942              		.thumb_func
 3944              	HAL_TIM_ConfigOCrefClear:
 3945              		@ args = 0, pretend = 0, frame = 0
 3946              		@ frame_needed = 0, uses_anonymous_args = 0
 3947 0000 90F83C30 		ldrb	r3, [r0, #60]	@ zero_extendqisi2
 3948 0004 012B     		cmp	r3, #1
 3949 0006 00F09B80 		beq	.L473
 3950 000a 70B5     		push	{r4, r5, r6, lr}
 3951 000c 0446     		mov	r4, r0
 3952 000e 0D46     		mov	r5, r1
 3953 0010 1646     		mov	r6, r2
 3954 0012 0123     		movs	r3, #1
 3955 0014 80F83C30 		strb	r3, [r0, #60]
 3956 0018 0223     		movs	r3, #2
 3957 001a 80F83D30 		strb	r3, [r0, #61]
 3958 001e 4B68     		ldr	r3, [r1, #4]
 3959 0020 4BB1     		cbz	r3, .L455
 3960 0022 012B     		cmp	r3, #1
 3961 0024 1BD0     		beq	.L456
 3962 0026 0120     		movs	r0, #1
 3963              	.L457:
 3964 0028 0123     		movs	r3, #1
 3965 002a 84F83D30 		strb	r3, [r4, #61]
 3966 002e 0023     		movs	r3, #0
 3967 0030 84F83C30 		strb	r3, [r4, #60]
 3968              	.L454:
 3969 0034 70BD     		pop	{r4, r5, r6, pc}
 3970              	.L455:
 3971 0036 0268     		ldr	r2, [r0]
 3972 0038 9368     		ldr	r3, [r2, #8]
 3973 003a 23F47F43 		bic	r3, r3, #65280
 3974 003e 9360     		str	r3, [r2, #8]
 3975              	.L458:
 3976 0040 142E     		cmp	r6, #20
 3977 0042 7BD8     		bhi	.L474
 3978 0044 DFE806F0 		tbb	[pc, r6]
 3979              	.L461:
 3980 0048 1A       		.byte	(.L466-.L461)/2
 3981 0049 7A       		.byte	(.L474-.L461)/2
 3982 004a 7A       		.byte	(.L474-.L461)/2
 3983 004b 7A       		.byte	(.L474-.L461)/2
 3984 004c 2A       		.byte	(.L465-.L461)/2
 3985 004d 7A       		.byte	(.L474-.L461)/2
 3986 004e 7A       		.byte	(.L474-.L461)/2
 3987 004f 7A       		.byte	(.L474-.L461)/2
 3988 0050 3A       		.byte	(.L464-.L461)/2
 3989 0051 7A       		.byte	(.L474-.L461)/2
 3990 0052 7A       		.byte	(.L474-.L461)/2
 3991 0053 7A       		.byte	(.L474-.L461)/2
 3992 0054 4A       		.byte	(.L463-.L461)/2
 3993 0055 7A       		.byte	(.L474-.L461)/2
 3994 0056 7A       		.byte	(.L474-.L461)/2
ARM GAS  C:\Users\aticl\AppData\Local\Temp\ccqcvH4b.s 			page 68


 3995 0057 7A       		.byte	(.L474-.L461)/2
 3996 0058 5A       		.byte	(.L462-.L461)/2
 3997 0059 7A       		.byte	(.L474-.L461)/2
 3998 005a 7A       		.byte	(.L474-.L461)/2
 3999 005b 7A       		.byte	(.L474-.L461)/2
 4000 005c 6A       		.byte	(.L460-.L461)/2
 4001 005d 00       		.p2align 1
 4002              	.L456:
 4003 005e C968     		ldr	r1, [r1, #12]
 4004 0060 31B1     		cbz	r1, .L459
 4005 0062 0120     		movs	r0, #1
 4006 0064 84F83D00 		strb	r0, [r4, #61]
 4007 0068 0023     		movs	r3, #0
 4008 006a 84F83C30 		strb	r3, [r4, #60]
 4009 006e E1E7     		b	.L454
 4010              	.L459:
 4011 0070 2B69     		ldr	r3, [r5, #16]
 4012 0072 AA68     		ldr	r2, [r5, #8]
 4013 0074 0068     		ldr	r0, [r0]
 4014 0076 FFF7FEFF 		bl	TIM_ETR_SetConfig
 4015 007a E1E7     		b	.L458
 4016              	.L466:
 4017 007c 2B68     		ldr	r3, [r5]
 4018 007e 33B1     		cbz	r3, .L467
 4019 0080 2268     		ldr	r2, [r4]
 4020 0082 9369     		ldr	r3, [r2, #24]
 4021 0084 43F08003 		orr	r3, r3, #128
 4022 0088 9361     		str	r3, [r2, #24]
 4023 008a 0020     		movs	r0, #0
 4024 008c CCE7     		b	.L457
 4025              	.L467:
 4026 008e 2268     		ldr	r2, [r4]
 4027 0090 9369     		ldr	r3, [r2, #24]
 4028 0092 23F08003 		bic	r3, r3, #128
 4029 0096 9361     		str	r3, [r2, #24]
 4030 0098 0020     		movs	r0, #0
 4031 009a C5E7     		b	.L457
 4032              	.L465:
 4033 009c 2B68     		ldr	r3, [r5]
 4034 009e 33B1     		cbz	r3, .L468
 4035 00a0 2268     		ldr	r2, [r4]
 4036 00a2 9369     		ldr	r3, [r2, #24]
 4037 00a4 43F40043 		orr	r3, r3, #32768
 4038 00a8 9361     		str	r3, [r2, #24]
 4039 00aa 0020     		movs	r0, #0
 4040 00ac BCE7     		b	.L457
 4041              	.L468:
 4042 00ae 2268     		ldr	r2, [r4]
 4043 00b0 9369     		ldr	r3, [r2, #24]
 4044 00b2 23F40043 		bic	r3, r3, #32768
 4045 00b6 9361     		str	r3, [r2, #24]
 4046 00b8 0020     		movs	r0, #0
 4047 00ba B5E7     		b	.L457
 4048              	.L464:
 4049 00bc 2B68     		ldr	r3, [r5]
 4050 00be 33B1     		cbz	r3, .L469
 4051 00c0 2268     		ldr	r2, [r4]
ARM GAS  C:\Users\aticl\AppData\Local\Temp\ccqcvH4b.s 			page 69


 4052 00c2 D369     		ldr	r3, [r2, #28]
 4053 00c4 43F08003 		orr	r3, r3, #128
 4054 00c8 D361     		str	r3, [r2, #28]
 4055 00ca 0020     		movs	r0, #0
 4056 00cc ACE7     		b	.L457
 4057              	.L469:
 4058 00ce 2268     		ldr	r2, [r4]
 4059 00d0 D369     		ldr	r3, [r2, #28]
 4060 00d2 23F08003 		bic	r3, r3, #128
 4061 00d6 D361     		str	r3, [r2, #28]
 4062 00d8 0020     		movs	r0, #0
 4063 00da A5E7     		b	.L457
 4064              	.L463:
 4065 00dc 2B68     		ldr	r3, [r5]
 4066 00de 33B1     		cbz	r3, .L470
 4067 00e0 2268     		ldr	r2, [r4]
 4068 00e2 D369     		ldr	r3, [r2, #28]
 4069 00e4 43F40043 		orr	r3, r3, #32768
 4070 00e8 D361     		str	r3, [r2, #28]
 4071 00ea 0020     		movs	r0, #0
 4072 00ec 9CE7     		b	.L457
 4073              	.L470:
 4074 00ee 2268     		ldr	r2, [r4]
 4075 00f0 D369     		ldr	r3, [r2, #28]
 4076 00f2 23F40043 		bic	r3, r3, #32768
 4077 00f6 D361     		str	r3, [r2, #28]
 4078 00f8 0020     		movs	r0, #0
 4079 00fa 95E7     		b	.L457
 4080              	.L462:
 4081 00fc 2B68     		ldr	r3, [r5]
 4082 00fe 33B1     		cbz	r3, .L471
 4083 0100 2268     		ldr	r2, [r4]
 4084 0102 536D     		ldr	r3, [r2, #84]
 4085 0104 43F08003 		orr	r3, r3, #128
 4086 0108 5365     		str	r3, [r2, #84]
 4087 010a 0020     		movs	r0, #0
 4088 010c 8CE7     		b	.L457
 4089              	.L471:
 4090 010e 2268     		ldr	r2, [r4]
 4091 0110 536D     		ldr	r3, [r2, #84]
 4092 0112 23F08003 		bic	r3, r3, #128
 4093 0116 5365     		str	r3, [r2, #84]
 4094 0118 0020     		movs	r0, #0
 4095 011a 85E7     		b	.L457
 4096              	.L460:
 4097 011c 2B68     		ldr	r3, [r5]
 4098 011e 33B1     		cbz	r3, .L472
 4099 0120 2268     		ldr	r2, [r4]
 4100 0122 536D     		ldr	r3, [r2, #84]
 4101 0124 43F40043 		orr	r3, r3, #32768
 4102 0128 5365     		str	r3, [r2, #84]
 4103 012a 0020     		movs	r0, #0
 4104 012c 7CE7     		b	.L457
 4105              	.L472:
 4106 012e 2268     		ldr	r2, [r4]
 4107 0130 536D     		ldr	r3, [r2, #84]
 4108 0132 23F40043 		bic	r3, r3, #32768
ARM GAS  C:\Users\aticl\AppData\Local\Temp\ccqcvH4b.s 			page 70


 4109 0136 5365     		str	r3, [r2, #84]
 4110 0138 0020     		movs	r0, #0
 4111 013a 75E7     		b	.L457
 4112              	.L474:
 4113 013c 0020     		movs	r0, #0
 4114 013e 73E7     		b	.L457
 4115              	.L473:
 4116 0140 0220     		movs	r0, #2
 4117 0142 7047     		bx	lr
 4119              		.section	.text.HAL_TIM_ConfigClockSource,"ax",%progbits
 4120              		.align	1
 4121              		.global	HAL_TIM_ConfigClockSource
 4122              		.syntax unified
 4123              		.thumb
 4124              		.thumb_func
 4126              	HAL_TIM_ConfigClockSource:
 4127              		@ args = 0, pretend = 0, frame = 0
 4128              		@ frame_needed = 0, uses_anonymous_args = 0
 4129 0000 90F83C30 		ldrb	r3, [r0, #60]	@ zero_extendqisi2
 4130 0004 012B     		cmp	r3, #1
 4131 0006 00F08F80 		beq	.L493
 4132 000a 10B5     		push	{r4, lr}
 4133 000c 0446     		mov	r4, r0
 4134 000e 0123     		movs	r3, #1
 4135 0010 80F83C30 		strb	r3, [r0, #60]
 4136 0014 0223     		movs	r3, #2
 4137 0016 80F83D30 		strb	r3, [r0, #61]
 4138 001a 0268     		ldr	r2, [r0]
 4139 001c 9068     		ldr	r0, [r2, #8]
 4140 001e 434B     		ldr	r3, .L503
 4141 0020 0340     		ands	r3, r3, r0
 4142 0022 9360     		str	r3, [r2, #8]
 4143 0024 0B68     		ldr	r3, [r1]
 4144 0026 702B     		cmp	r3, #112
 4145 0028 55D0     		beq	.L481
 4146 002a 31D8     		bhi	.L482
 4147 002c 502B     		cmp	r3, #80
 4148 002e 6CD0     		beq	.L483
 4149 0030 1FD8     		bhi	.L484
 4150 0032 402B     		cmp	r3, #64
 4151 0034 0AD1     		bne	.L500
 4152 0036 CA68     		ldr	r2, [r1, #12]
 4153 0038 4968     		ldr	r1, [r1, #4]
 4154 003a 2068     		ldr	r0, [r4]
 4155 003c FFF7FEFF 		bl	TIM_TI1_ConfigInputStage
 4156 0040 4021     		movs	r1, #64
 4157 0042 2068     		ldr	r0, [r4]
 4158 0044 FFF7FEFF 		bl	TIM_ITRx_SetConfig
 4159 0048 0020     		movs	r0, #0
 4160 004a 29E0     		b	.L486
 4161              	.L500:
 4162 004c 68D8     		bhi	.L494
 4163 004e 202B     		cmp	r3, #32
 4164 0050 03D0     		beq	.L487
 4165 0052 0AD8     		bhi	.L488
 4166 0054 0BB1     		cbz	r3, .L487
 4167 0056 102B     		cmp	r3, #16
ARM GAS  C:\Users\aticl\AppData\Local\Temp\ccqcvH4b.s 			page 71


 4168 0058 05D1     		bne	.L501
 4169              	.L487:
 4170 005a 1946     		mov	r1, r3
 4171 005c 2068     		ldr	r0, [r4]
 4172 005e FFF7FEFF 		bl	TIM_ITRx_SetConfig
 4173 0062 0020     		movs	r0, #0
 4174 0064 1CE0     		b	.L486
 4175              	.L501:
 4176 0066 0120     		movs	r0, #1
 4177 0068 1AE0     		b	.L486
 4178              	.L488:
 4179 006a 302B     		cmp	r3, #48
 4180 006c F5D0     		beq	.L487
 4181 006e 0120     		movs	r0, #1
 4182 0070 16E0     		b	.L486
 4183              	.L484:
 4184 0072 602B     		cmp	r3, #96
 4185 0074 0AD1     		bne	.L502
 4186 0076 CA68     		ldr	r2, [r1, #12]
 4187 0078 4968     		ldr	r1, [r1, #4]
 4188 007a 2068     		ldr	r0, [r4]
 4189 007c FFF7FEFF 		bl	TIM_TI2_ConfigInputStage
 4190 0080 6021     		movs	r1, #96
 4191 0082 2068     		ldr	r0, [r4]
 4192 0084 FFF7FEFF 		bl	TIM_ITRx_SetConfig
 4193 0088 0020     		movs	r0, #0
 4194 008a 09E0     		b	.L486
 4195              	.L502:
 4196 008c 0120     		movs	r0, #1
 4197 008e 07E0     		b	.L486
 4198              	.L482:
 4199 0090 B3F5005F 		cmp	r3, #8192
 4200 0094 2CD0     		beq	.L490
 4201 0096 0AD8     		bhi	.L491
 4202 0098 B3F5805F 		cmp	r3, #4096
 4203 009c 42D1     		bne	.L495
 4204 009e 0020     		movs	r0, #0
 4205              	.L486:
 4206 00a0 0123     		movs	r3, #1
 4207 00a2 84F83D30 		strb	r3, [r4, #61]
 4208 00a6 0023     		movs	r3, #0
 4209 00a8 84F83C30 		strb	r3, [r4, #60]
 4210 00ac 10BD     		pop	{r4, pc}
 4211              	.L491:
 4212 00ae 204A     		ldr	r2, .L503+4
 4213 00b0 9342     		cmp	r3, r2
 4214 00b2 D2D0     		beq	.L487
 4215 00b4 07D8     		bhi	.L492
 4216 00b6 B3F5801F 		cmp	r3, #1048576
 4217 00ba CED0     		beq	.L487
 4218 00bc B3F1101F 		cmp	r3, #1048592
 4219 00c0 CBD0     		beq	.L487
 4220 00c2 0120     		movs	r0, #1
 4221 00c4 ECE7     		b	.L486
 4222              	.L492:
 4223 00c6 1B4A     		ldr	r2, .L503+8
 4224 00c8 9342     		cmp	r3, r2
ARM GAS  C:\Users\aticl\AppData\Local\Temp\ccqcvH4b.s 			page 72


 4225 00ca C6D0     		beq	.L487
 4226 00cc 1032     		adds	r2, r2, #16
 4227 00ce 9342     		cmp	r3, r2
 4228 00d0 C3D0     		beq	.L487
 4229 00d2 0120     		movs	r0, #1
 4230 00d4 E4E7     		b	.L486
 4231              	.L481:
 4232 00d6 CB68     		ldr	r3, [r1, #12]
 4233 00d8 4A68     		ldr	r2, [r1, #4]
 4234 00da 8968     		ldr	r1, [r1, #8]
 4235 00dc 2068     		ldr	r0, [r4]
 4236 00de FFF7FEFF 		bl	TIM_ETR_SetConfig
 4237 00e2 2268     		ldr	r2, [r4]
 4238 00e4 9368     		ldr	r3, [r2, #8]
 4239 00e6 43F07703 		orr	r3, r3, #119
 4240 00ea 9360     		str	r3, [r2, #8]
 4241 00ec 0020     		movs	r0, #0
 4242 00ee D7E7     		b	.L486
 4243              	.L490:
 4244 00f0 CB68     		ldr	r3, [r1, #12]
 4245 00f2 4A68     		ldr	r2, [r1, #4]
 4246 00f4 8968     		ldr	r1, [r1, #8]
 4247 00f6 2068     		ldr	r0, [r4]
 4248 00f8 FFF7FEFF 		bl	TIM_ETR_SetConfig
 4249 00fc 2268     		ldr	r2, [r4]
 4250 00fe 9368     		ldr	r3, [r2, #8]
 4251 0100 43F48043 		orr	r3, r3, #16384
 4252 0104 9360     		str	r3, [r2, #8]
 4253 0106 0020     		movs	r0, #0
 4254 0108 CAE7     		b	.L486
 4255              	.L483:
 4256 010a CA68     		ldr	r2, [r1, #12]
 4257 010c 4968     		ldr	r1, [r1, #4]
 4258 010e 2068     		ldr	r0, [r4]
 4259 0110 FFF7FEFF 		bl	TIM_TI1_ConfigInputStage
 4260 0114 5021     		movs	r1, #80
 4261 0116 2068     		ldr	r0, [r4]
 4262 0118 FFF7FEFF 		bl	TIM_ITRx_SetConfig
 4263 011c 0020     		movs	r0, #0
 4264 011e BFE7     		b	.L486
 4265              	.L494:
 4266 0120 0120     		movs	r0, #1
 4267 0122 BDE7     		b	.L486
 4268              	.L495:
 4269 0124 0120     		movs	r0, #1
 4270 0126 BBE7     		b	.L486
 4271              	.L493:
 4272 0128 0220     		movs	r0, #2
 4273 012a 7047     		bx	lr
 4274              	.L504:
 4275              		.align	2
 4276              	.L503:
 4277 012c 8800CEFF 		.word	-3276664
 4278 0130 20001000 		.word	1048608
 4279 0134 30001000 		.word	1048624
 4281              		.section	.text.TIM_SlaveTimer_SetConfig,"ax",%progbits
 4282              		.align	1
ARM GAS  C:\Users\aticl\AppData\Local\Temp\ccqcvH4b.s 			page 73


 4283              		.syntax unified
 4284              		.thumb
 4285              		.thumb_func
 4287              	TIM_SlaveTimer_SetConfig:
 4288              		@ args = 0, pretend = 0, frame = 0
 4289              		@ frame_needed = 0, uses_anonymous_args = 0
 4290 0000 10B5     		push	{r4, lr}
 4291 0002 0468     		ldr	r4, [r0]
 4292 0004 A368     		ldr	r3, [r4, #8]
 4293 0006 4C4A     		ldr	r2, .L539
 4294 0008 1A40     		ands	r2, r2, r3
 4295 000a 4B68     		ldr	r3, [r1, #4]
 4296 000c 1343     		orrs	r3, r3, r2
 4297 000e 4B4A     		ldr	r2, .L539+4
 4298 0010 1A40     		ands	r2, r2, r3
 4299 0012 0B68     		ldr	r3, [r1]
 4300 0014 1343     		orrs	r3, r3, r2
 4301 0016 A360     		str	r3, [r4, #8]
 4302 0018 4B68     		ldr	r3, [r1, #4]
 4303 001a 602B     		cmp	r3, #96
 4304 001c 68D0     		beq	.L506
 4305 001e 1ED8     		bhi	.L507
 4306 0020 402B     		cmp	r3, #64
 4307 0022 50D0     		beq	.L508
 4308 0024 08D9     		bls	.L534
 4309 0026 502B     		cmp	r3, #80
 4310 0028 17D1     		bne	.L535
 4311 002a 0A69     		ldr	r2, [r1, #16]
 4312 002c 8968     		ldr	r1, [r1, #8]
 4313 002e 0068     		ldr	r0, [r0]
 4314 0030 FFF7FEFF 		bl	TIM_TI1_ConfigInputStage
 4315 0034 0020     		movs	r0, #0
 4316 0036 45E0     		b	.L510
 4317              	.L534:
 4318 0038 202B     		cmp	r3, #32
 4319 003a 60D0     		beq	.L517
 4320 003c 07D8     		bhi	.L511
 4321 003e 002B     		cmp	r3, #0
 4322 0040 5FD0     		beq	.L518
 4323 0042 102B     		cmp	r3, #16
 4324 0044 01D0     		beq	.L536
 4325 0046 0120     		movs	r0, #1
 4326 0048 3CE0     		b	.L510
 4327              	.L536:
 4328 004a 0020     		movs	r0, #0
 4329 004c 3AE0     		b	.L510
 4330              	.L511:
 4331 004e 302B     		cmp	r3, #48
 4332 0050 01D0     		beq	.L537
 4333 0052 0120     		movs	r0, #1
 4334 0054 36E0     		b	.L510
 4335              	.L537:
 4336 0056 0020     		movs	r0, #0
 4337 0058 34E0     		b	.L510
 4338              	.L535:
 4339 005a 0120     		movs	r0, #1
 4340 005c 32E0     		b	.L510
ARM GAS  C:\Users\aticl\AppData\Local\Temp\ccqcvH4b.s 			page 74


 4341              	.L507:
 4342 005e 702B     		cmp	r3, #112
 4343 0060 29D0     		beq	.L513
 4344 0062 50D3     		bcc	.L521
 4345 0064 364A     		ldr	r2, .L539+8
 4346 0066 9342     		cmp	r3, r2
 4347 0068 4FD0     		beq	.L522
 4348 006a 13D8     		bhi	.L514
 4349 006c 303A     		subs	r2, r2, #48
 4350 006e 9342     		cmp	r3, r2
 4351 0070 4DD0     		beq	.L523
 4352 0072 07D9     		bls	.L538
 4353 0074 334A     		ldr	r2, .L539+12
 4354 0076 9342     		cmp	r3, r2
 4355 0078 4FD0     		beq	.L526
 4356 007a 1032     		adds	r2, r2, #16
 4357 007c 9342     		cmp	r3, r2
 4358 007e 4ED1     		bne	.L527
 4359 0080 0020     		movs	r0, #0
 4360 0082 1FE0     		b	.L510
 4361              	.L538:
 4362 0084 B3F5801F 		cmp	r3, #1048576
 4363 0088 43D0     		beq	.L524
 4364 008a B3F1101F 		cmp	r3, #1048592
 4365 008e 42D1     		bne	.L525
 4366 0090 0020     		movs	r0, #0
 4367 0092 17E0     		b	.L510
 4368              	.L514:
 4369 0094 B3F5001F 		cmp	r3, #2097152
 4370 0098 43D0     		beq	.L528
 4371 009a 07D8     		bhi	.L516
 4372 009c 2A4A     		ldr	r2, .L539+16
 4373 009e 9342     		cmp	r3, r2
 4374 00a0 41D0     		beq	.L529
 4375 00a2 1032     		adds	r2, r2, #16
 4376 00a4 9342     		cmp	r3, r2
 4377 00a6 40D1     		bne	.L530
 4378 00a8 0020     		movs	r0, #0
 4379 00aa 0BE0     		b	.L510
 4380              	.L516:
 4381 00ac 274A     		ldr	r2, .L539+20
 4382 00ae 9342     		cmp	r3, r2
 4383 00b0 3DD1     		bne	.L531
 4384 00b2 0020     		movs	r0, #0
 4385 00b4 06E0     		b	.L510
 4386              	.L513:
 4387 00b6 0B69     		ldr	r3, [r1, #16]
 4388 00b8 8A68     		ldr	r2, [r1, #8]
 4389 00ba C968     		ldr	r1, [r1, #12]
 4390 00bc 0068     		ldr	r0, [r0]
 4391 00be FFF7FEFF 		bl	TIM_ETR_SetConfig
 4392 00c2 0020     		movs	r0, #0
 4393              	.L510:
 4394 00c4 10BD     		pop	{r4, pc}
 4395              	.L508:
 4396 00c6 0B68     		ldr	r3, [r1]
 4397 00c8 052B     		cmp	r3, #5
ARM GAS  C:\Users\aticl\AppData\Local\Temp\ccqcvH4b.s 			page 75


 4398 00ca 32D0     		beq	.L532
 4399 00cc 0368     		ldr	r3, [r0]
 4400 00ce 1C6A     		ldr	r4, [r3, #32]
 4401 00d0 1A6A     		ldr	r2, [r3, #32]
 4402 00d2 22F00102 		bic	r2, r2, #1
 4403 00d6 1A62     		str	r2, [r3, #32]
 4404 00d8 0268     		ldr	r2, [r0]
 4405 00da 9369     		ldr	r3, [r2, #24]
 4406 00dc 23F0F003 		bic	r3, r3, #240
 4407 00e0 0969     		ldr	r1, [r1, #16]
 4408 00e2 43EA0113 		orr	r3, r3, r1, lsl #4
 4409 00e6 9361     		str	r3, [r2, #24]
 4410 00e8 0368     		ldr	r3, [r0]
 4411 00ea 1C62     		str	r4, [r3, #32]
 4412 00ec 0020     		movs	r0, #0
 4413 00ee E9E7     		b	.L510
 4414              	.L506:
 4415 00f0 0A69     		ldr	r2, [r1, #16]
 4416 00f2 8968     		ldr	r1, [r1, #8]
 4417 00f4 0068     		ldr	r0, [r0]
 4418 00f6 FFF7FEFF 		bl	TIM_TI2_ConfigInputStage
 4419 00fa 0020     		movs	r0, #0
 4420 00fc E2E7     		b	.L510
 4421              	.L517:
 4422 00fe 0020     		movs	r0, #0
 4423 0100 E0E7     		b	.L510
 4424              	.L518:
 4425 0102 0020     		movs	r0, #0
 4426 0104 DEE7     		b	.L510
 4427              	.L521:
 4428 0106 0120     		movs	r0, #1
 4429 0108 DCE7     		b	.L510
 4430              	.L522:
 4431 010a 0020     		movs	r0, #0
 4432 010c DAE7     		b	.L510
 4433              	.L523:
 4434 010e 0020     		movs	r0, #0
 4435 0110 D8E7     		b	.L510
 4436              	.L524:
 4437 0112 0020     		movs	r0, #0
 4438 0114 D6E7     		b	.L510
 4439              	.L525:
 4440 0116 0120     		movs	r0, #1
 4441 0118 D4E7     		b	.L510
 4442              	.L526:
 4443 011a 0020     		movs	r0, #0
 4444 011c D2E7     		b	.L510
 4445              	.L527:
 4446 011e 0120     		movs	r0, #1
 4447 0120 D0E7     		b	.L510
 4448              	.L528:
 4449 0122 0020     		movs	r0, #0
 4450 0124 CEE7     		b	.L510
 4451              	.L529:
 4452 0126 0020     		movs	r0, #0
 4453 0128 CCE7     		b	.L510
 4454              	.L530:
ARM GAS  C:\Users\aticl\AppData\Local\Temp\ccqcvH4b.s 			page 76


 4455 012a 0120     		movs	r0, #1
 4456 012c CAE7     		b	.L510
 4457              	.L531:
 4458 012e 0120     		movs	r0, #1
 4459 0130 C8E7     		b	.L510
 4460              	.L532:
 4461 0132 0120     		movs	r0, #1
 4462 0134 C6E7     		b	.L510
 4463              	.L540:
 4464 0136 00BF     		.align	2
 4465              	.L539:
 4466 0138 8FFFCFFF 		.word	-3145841
 4467 013c F8FFFEFF 		.word	-65544
 4468 0140 50001000 		.word	1048656
 4469 0144 30001000 		.word	1048624
 4470 0148 60001000 		.word	1048672
 4471 014c 10002000 		.word	2097168
 4473              		.section	.text.HAL_TIM_SlaveConfigSynchro,"ax",%progbits
 4474              		.align	1
 4475              		.global	HAL_TIM_SlaveConfigSynchro
 4476              		.syntax unified
 4477              		.thumb
 4478              		.thumb_func
 4480              	HAL_TIM_SlaveConfigSynchro:
 4481              		@ args = 0, pretend = 0, frame = 0
 4482              		@ frame_needed = 0, uses_anonymous_args = 0
 4483 0000 90F83C30 		ldrb	r3, [r0, #60]	@ zero_extendqisi2
 4484 0004 012B     		cmp	r3, #1
 4485 0006 22D0     		beq	.L544
 4486 0008 10B5     		push	{r4, lr}
 4487 000a 0446     		mov	r4, r0
 4488 000c 0123     		movs	r3, #1
 4489 000e 80F83C30 		strb	r3, [r0, #60]
 4490 0012 0223     		movs	r3, #2
 4491 0014 80F83D30 		strb	r3, [r0, #61]
 4492 0018 FFF7FEFF 		bl	TIM_SlaveTimer_SetConfig
 4493 001c 80B9     		cbnz	r0, .L549
 4494 001e 2268     		ldr	r2, [r4]
 4495 0020 D368     		ldr	r3, [r2, #12]
 4496 0022 23F04003 		bic	r3, r3, #64
 4497 0026 D360     		str	r3, [r2, #12]
 4498 0028 2268     		ldr	r2, [r4]
 4499 002a D368     		ldr	r3, [r2, #12]
 4500 002c 23F48043 		bic	r3, r3, #16384
 4501 0030 D360     		str	r3, [r2, #12]
 4502 0032 0123     		movs	r3, #1
 4503 0034 84F83D30 		strb	r3, [r4, #61]
 4504 0038 0023     		movs	r3, #0
 4505 003a 84F83C30 		strb	r3, [r4, #60]
 4506              	.L542:
 4507 003e 10BD     		pop	{r4, pc}
 4508              	.L549:
 4509 0040 0120     		movs	r0, #1
 4510 0042 84F83D00 		strb	r0, [r4, #61]
 4511 0046 0023     		movs	r3, #0
 4512 0048 84F83C30 		strb	r3, [r4, #60]
 4513 004c F7E7     		b	.L542
ARM GAS  C:\Users\aticl\AppData\Local\Temp\ccqcvH4b.s 			page 77


 4514              	.L544:
 4515 004e 0220     		movs	r0, #2
 4516 0050 7047     		bx	lr
 4518              		.section	.text.HAL_TIM_SlaveConfigSynchro_IT,"ax",%progbits
 4519              		.align	1
 4520              		.global	HAL_TIM_SlaveConfigSynchro_IT
 4521              		.syntax unified
 4522              		.thumb
 4523              		.thumb_func
 4525              	HAL_TIM_SlaveConfigSynchro_IT:
 4526              		@ args = 0, pretend = 0, frame = 0
 4527              		@ frame_needed = 0, uses_anonymous_args = 0
 4528 0000 90F83C30 		ldrb	r3, [r0, #60]	@ zero_extendqisi2
 4529 0004 012B     		cmp	r3, #1
 4530 0006 22D0     		beq	.L553
 4531 0008 10B5     		push	{r4, lr}
 4532 000a 0446     		mov	r4, r0
 4533 000c 0123     		movs	r3, #1
 4534 000e 80F83C30 		strb	r3, [r0, #60]
 4535 0012 0223     		movs	r3, #2
 4536 0014 80F83D30 		strb	r3, [r0, #61]
 4537 0018 FFF7FEFF 		bl	TIM_SlaveTimer_SetConfig
 4538 001c 80B9     		cbnz	r0, .L558
 4539 001e 2268     		ldr	r2, [r4]
 4540 0020 D368     		ldr	r3, [r2, #12]
 4541 0022 43F04003 		orr	r3, r3, #64
 4542 0026 D360     		str	r3, [r2, #12]
 4543 0028 2268     		ldr	r2, [r4]
 4544 002a D368     		ldr	r3, [r2, #12]
 4545 002c 23F48043 		bic	r3, r3, #16384
 4546 0030 D360     		str	r3, [r2, #12]
 4547 0032 0123     		movs	r3, #1
 4548 0034 84F83D30 		strb	r3, [r4, #61]
 4549 0038 0023     		movs	r3, #0
 4550 003a 84F83C30 		strb	r3, [r4, #60]
 4551              	.L551:
 4552 003e 10BD     		pop	{r4, pc}
 4553              	.L558:
 4554 0040 0120     		movs	r0, #1
 4555 0042 84F83D00 		strb	r0, [r4, #61]
 4556 0046 0023     		movs	r3, #0
 4557 0048 84F83C30 		strb	r3, [r4, #60]
 4558 004c F7E7     		b	.L551
 4559              	.L553:
 4560 004e 0220     		movs	r0, #2
 4561 0050 7047     		bx	lr
 4563              		.section	.text.TIM_CCxChannelCmd,"ax",%progbits
 4564              		.align	1
 4565              		.global	TIM_CCxChannelCmd
 4566              		.syntax unified
 4567              		.thumb
 4568              		.thumb_func
 4570              	TIM_CCxChannelCmd:
 4571              		@ args = 0, pretend = 0, frame = 0
 4572              		@ frame_needed = 0, uses_anonymous_args = 0
 4573              		@ link register save eliminated.
 4574 0000 01F01F01 		and	r1, r1, #31
ARM GAS  C:\Users\aticl\AppData\Local\Temp\ccqcvH4b.s 			page 78


 4575 0004 4FF0010C 		mov	ip, #1
 4576 0008 0CFA01FC 		lsl	ip, ip, r1
 4577 000c 036A     		ldr	r3, [r0, #32]
 4578 000e 23EA0C03 		bic	r3, r3, ip
 4579 0012 0362     		str	r3, [r0, #32]
 4580 0014 036A     		ldr	r3, [r0, #32]
 4581 0016 8A40     		lsls	r2, r2, r1
 4582 0018 1343     		orrs	r3, r3, r2
 4583 001a 0362     		str	r3, [r0, #32]
 4584 001c 7047     		bx	lr
 4586              		.section	.text.HAL_TIM_OC_Start,"ax",%progbits
 4587              		.align	1
 4588              		.global	HAL_TIM_OC_Start
 4589              		.syntax unified
 4590              		.thumb
 4591              		.thumb_func
 4593              	HAL_TIM_OC_Start:
 4594              		@ args = 0, pretend = 0, frame = 0
 4595              		@ frame_needed = 0, uses_anonymous_args = 0
 4596 0000 10B5     		push	{r4, lr}
 4597 0002 0446     		mov	r4, r0
 4598 0004 1029     		cmp	r1, #16
 4599 0006 28D8     		bhi	.L561
 4600 0008 DFE801F0 		tbb	[pc, r1]
 4601              	.L563:
 4602 000c 09       		.byte	(.L567-.L563)/2
 4603 000d 27       		.byte	(.L561-.L563)/2
 4604 000e 27       		.byte	(.L561-.L563)/2
 4605 000f 27       		.byte	(.L561-.L563)/2
 4606 0010 0F       		.byte	(.L566-.L563)/2
 4607 0011 27       		.byte	(.L561-.L563)/2
 4608 0012 27       		.byte	(.L561-.L563)/2
 4609 0013 27       		.byte	(.L561-.L563)/2
 4610 0014 15       		.byte	(.L565-.L563)/2
 4611 0015 27       		.byte	(.L561-.L563)/2
 4612 0016 27       		.byte	(.L561-.L563)/2
 4613 0017 27       		.byte	(.L561-.L563)/2
 4614 0018 1B       		.byte	(.L564-.L563)/2
 4615 0019 27       		.byte	(.L561-.L563)/2
 4616 001a 27       		.byte	(.L561-.L563)/2
 4617 001b 27       		.byte	(.L561-.L563)/2
 4618 001c 21       		.byte	(.L562-.L563)/2
 4619 001d 00       		.p2align 1
 4620              	.L567:
 4621 001e 90F83E30 		ldrb	r3, [r0, #62]	@ zero_extendqisi2
 4622 0022 013B     		subs	r3, r3, #1
 4623 0024 18BF     		it	ne
 4624 0026 0123     		movne	r3, #1
 4625 0028 1CE0     		b	.L568
 4626              	.L566:
 4627 002a 90F83F30 		ldrb	r3, [r0, #63]	@ zero_extendqisi2
 4628 002e 013B     		subs	r3, r3, #1
 4629 0030 18BF     		it	ne
 4630 0032 0123     		movne	r3, #1
 4631 0034 16E0     		b	.L568
 4632              	.L565:
 4633 0036 90F84030 		ldrb	r3, [r0, #64]	@ zero_extendqisi2
ARM GAS  C:\Users\aticl\AppData\Local\Temp\ccqcvH4b.s 			page 79


 4634 003a 013B     		subs	r3, r3, #1
 4635 003c 18BF     		it	ne
 4636 003e 0123     		movne	r3, #1
 4637 0040 10E0     		b	.L568
 4638              	.L564:
 4639 0042 90F84130 		ldrb	r3, [r0, #65]	@ zero_extendqisi2
 4640 0046 013B     		subs	r3, r3, #1
 4641 0048 18BF     		it	ne
 4642 004a 0123     		movne	r3, #1
 4643 004c 0AE0     		b	.L568
 4644              	.L562:
 4645 004e 90F84230 		ldrb	r3, [r0, #66]	@ zero_extendqisi2
 4646 0052 013B     		subs	r3, r3, #1
 4647 0054 18BF     		it	ne
 4648 0056 0123     		movne	r3, #1
 4649 0058 04E0     		b	.L568
 4650              	.L561:
 4651 005a 90F84330 		ldrb	r3, [r0, #67]	@ zero_extendqisi2
 4652 005e 013B     		subs	r3, r3, #1
 4653 0060 18BF     		it	ne
 4654 0062 0123     		movne	r3, #1
 4655              	.L568:
 4656 0064 002B     		cmp	r3, #0
 4657 0066 71D1     		bne	.L582
 4658 0068 1029     		cmp	r1, #16
 4659 006a 1ED8     		bhi	.L570
 4660 006c DFE801F0 		tbb	[pc, r1]
 4661              	.L572:
 4662 0070 09       		.byte	(.L576-.L572)/2
 4663 0071 1D       		.byte	(.L570-.L572)/2
 4664 0072 1D       		.byte	(.L570-.L572)/2
 4665 0073 1D       		.byte	(.L570-.L572)/2
 4666 0074 0D       		.byte	(.L575-.L572)/2
 4667 0075 1D       		.byte	(.L570-.L572)/2
 4668 0076 1D       		.byte	(.L570-.L572)/2
 4669 0077 1D       		.byte	(.L570-.L572)/2
 4670 0078 11       		.byte	(.L574-.L572)/2
 4671 0079 1D       		.byte	(.L570-.L572)/2
 4672 007a 1D       		.byte	(.L570-.L572)/2
 4673 007b 1D       		.byte	(.L570-.L572)/2
 4674 007c 15       		.byte	(.L573-.L572)/2
 4675 007d 1D       		.byte	(.L570-.L572)/2
 4676 007e 1D       		.byte	(.L570-.L572)/2
 4677 007f 1D       		.byte	(.L570-.L572)/2
 4678 0080 19       		.byte	(.L571-.L572)/2
 4679 0081 00       		.p2align 1
 4680              	.L576:
 4681 0082 0223     		movs	r3, #2
 4682 0084 84F83E30 		strb	r3, [r4, #62]
 4683 0088 12E0     		b	.L577
 4684              	.L575:
 4685 008a 0223     		movs	r3, #2
 4686 008c 84F83F30 		strb	r3, [r4, #63]
 4687 0090 0EE0     		b	.L577
 4688              	.L574:
 4689 0092 0223     		movs	r3, #2
 4690 0094 84F84030 		strb	r3, [r4, #64]
ARM GAS  C:\Users\aticl\AppData\Local\Temp\ccqcvH4b.s 			page 80


 4691 0098 0AE0     		b	.L577
 4692              	.L573:
 4693 009a 0223     		movs	r3, #2
 4694 009c 84F84130 		strb	r3, [r4, #65]
 4695 00a0 06E0     		b	.L577
 4696              	.L571:
 4697 00a2 0223     		movs	r3, #2
 4698 00a4 84F84230 		strb	r3, [r4, #66]
 4699 00a8 02E0     		b	.L577
 4700              	.L570:
 4701 00aa 0223     		movs	r3, #2
 4702 00ac 84F84330 		strb	r3, [r4, #67]
 4703              	.L577:
 4704 00b0 0122     		movs	r2, #1
 4705 00b2 2068     		ldr	r0, [r4]
 4706 00b4 FFF7FEFF 		bl	TIM_CCxChannelCmd
 4707 00b8 2368     		ldr	r3, [r4]
 4708 00ba 2649     		ldr	r1, .L585
 4709 00bc 264A     		ldr	r2, .L585+4
 4710 00be 9342     		cmp	r3, r2
 4711 00c0 18BF     		it	ne
 4712 00c2 8B42     		cmpne	r3, r1
 4713 00c4 0BD0     		beq	.L578
 4714 00c6 02F57052 		add	r2, r2, #15360
 4715 00ca 9342     		cmp	r3, r2
 4716 00cc 07D0     		beq	.L578
 4717 00ce 02F58062 		add	r2, r2, #1024
 4718 00d2 9342     		cmp	r3, r2
 4719 00d4 03D0     		beq	.L578
 4720 00d6 02F58062 		add	r2, r2, #1024
 4721 00da 9342     		cmp	r3, r2
 4722 00dc 03D1     		bne	.L579
 4723              	.L578:
 4724 00de 5A6C     		ldr	r2, [r3, #68]
 4725 00e0 42F40042 		orr	r2, r2, #32768
 4726 00e4 5A64     		str	r2, [r3, #68]
 4727              	.L579:
 4728 00e6 2368     		ldr	r3, [r4]
 4729 00e8 1A4A     		ldr	r2, .L585
 4730 00ea B3F1804F 		cmp	r3, #1073741824
 4731 00ee 18BF     		it	ne
 4732 00f0 9342     		cmpne	r3, r2
 4733 00f2 1DD0     		beq	.L580
 4734 00f4 A2F57C42 		sub	r2, r2, #64512
 4735 00f8 9342     		cmp	r3, r2
 4736 00fa 19D0     		beq	.L580
 4737 00fc 02F58062 		add	r2, r2, #1024
 4738 0100 9342     		cmp	r3, r2
 4739 0102 15D0     		beq	.L580
 4740 0104 02F58062 		add	r2, r2, #1024
 4741 0108 9342     		cmp	r3, r2
 4742 010a 11D0     		beq	.L580
 4743 010c 02F57842 		add	r2, r2, #63488
 4744 0110 9342     		cmp	r3, r2
 4745 0112 0DD0     		beq	.L580
 4746 0114 A2F56C42 		sub	r2, r2, #60416
 4747 0118 9342     		cmp	r3, r2
ARM GAS  C:\Users\aticl\AppData\Local\Temp\ccqcvH4b.s 			page 81


 4748 011a 09D0     		beq	.L580
 4749 011c 02F59432 		add	r2, r2, #75776
 4750 0120 9342     		cmp	r3, r2
 4751 0122 05D0     		beq	.L580
 4752 0124 1A68     		ldr	r2, [r3]
 4753 0126 42F00102 		orr	r2, r2, #1
 4754 012a 1A60     		str	r2, [r3]
 4755 012c 0020     		movs	r0, #0
 4756 012e 0EE0     		b	.L569
 4757              	.L580:
 4758 0130 9968     		ldr	r1, [r3, #8]
 4759 0132 0A4A     		ldr	r2, .L585+8
 4760 0134 0A40     		ands	r2, r2, r1
 4761 0136 062A     		cmp	r2, #6
 4762 0138 18BF     		it	ne
 4763 013a B2F5803F 		cmpne	r2, #65536
 4764 013e 07D0     		beq	.L583
 4765 0140 1A68     		ldr	r2, [r3]
 4766 0142 42F00102 		orr	r2, r2, #1
 4767 0146 1A60     		str	r2, [r3]
 4768 0148 0020     		movs	r0, #0
 4769 014a 00E0     		b	.L569
 4770              	.L582:
 4771 014c 0120     		movs	r0, #1
 4772              	.L569:
 4773 014e 10BD     		pop	{r4, pc}
 4774              	.L583:
 4775 0150 0020     		movs	r0, #0
 4776 0152 FCE7     		b	.L569
 4777              	.L586:
 4778              		.align	2
 4779              	.L585:
 4780 0154 00000140 		.word	1073807360
 4781 0158 00040140 		.word	1073808384
 4782 015c 07000100 		.word	65543
 4784              		.section	.text.HAL_TIM_OC_Stop,"ax",%progbits
 4785              		.align	1
 4786              		.global	HAL_TIM_OC_Stop
 4787              		.syntax unified
 4788              		.thumb
 4789              		.thumb_func
 4791              	HAL_TIM_OC_Stop:
 4792              		@ args = 0, pretend = 0, frame = 0
 4793              		@ frame_needed = 0, uses_anonymous_args = 0
 4794 0000 38B5     		push	{r3, r4, r5, lr}
 4795 0002 0446     		mov	r4, r0
 4796 0004 0D46     		mov	r5, r1
 4797 0006 0022     		movs	r2, #0
 4798 0008 0068     		ldr	r0, [r0]
 4799 000a FFF7FEFF 		bl	TIM_CCxChannelCmd
 4800 000e 2368     		ldr	r3, [r4]
 4801 0010 2A49     		ldr	r1, .L600
 4802 0012 2B4A     		ldr	r2, .L600+4
 4803 0014 9342     		cmp	r3, r2
 4804 0016 18BF     		it	ne
 4805 0018 8B42     		cmpne	r3, r1
 4806 001a 0BD0     		beq	.L588
ARM GAS  C:\Users\aticl\AppData\Local\Temp\ccqcvH4b.s 			page 82


 4807 001c 02F57052 		add	r2, r2, #15360
 4808 0020 9342     		cmp	r3, r2
 4809 0022 07D0     		beq	.L588
 4810 0024 02F58062 		add	r2, r2, #1024
 4811 0028 9342     		cmp	r3, r2
 4812 002a 03D0     		beq	.L588
 4813 002c 02F58062 		add	r2, r2, #1024
 4814 0030 9342     		cmp	r3, r2
 4815 0032 0DD1     		bne	.L589
 4816              	.L588:
 4817 0034 196A     		ldr	r1, [r3, #32]
 4818 0036 41F21112 		movw	r2, #4369
 4819 003a 1142     		tst	r1, r2
 4820 003c 08D1     		bne	.L589
 4821 003e 196A     		ldr	r1, [r3, #32]
 4822 0040 40F24442 		movw	r2, #1092
 4823 0044 1142     		tst	r1, r2
 4824 0046 03D1     		bne	.L589
 4825 0048 5A6C     		ldr	r2, [r3, #68]
 4826 004a 22F40042 		bic	r2, r2, #32768
 4827 004e 5A64     		str	r2, [r3, #68]
 4828              	.L589:
 4829 0050 2368     		ldr	r3, [r4]
 4830 0052 196A     		ldr	r1, [r3, #32]
 4831 0054 41F21112 		movw	r2, #4369
 4832 0058 1142     		tst	r1, r2
 4833 005a 08D1     		bne	.L590
 4834 005c 196A     		ldr	r1, [r3, #32]
 4835 005e 40F24442 		movw	r2, #1092
 4836 0062 1142     		tst	r1, r2
 4837 0064 03D1     		bne	.L590
 4838 0066 1A68     		ldr	r2, [r3]
 4839 0068 22F00102 		bic	r2, r2, #1
 4840 006c 1A60     		str	r2, [r3]
 4841              	.L590:
 4842 006e 102D     		cmp	r5, #16
 4843 0070 1ED8     		bhi	.L591
 4844 0072 DFE805F0 		tbb	[pc, r5]
 4845              	.L593:
 4846 0076 09       		.byte	(.L597-.L593)/2
 4847 0077 1D       		.byte	(.L591-.L593)/2
 4848 0078 1D       		.byte	(.L591-.L593)/2
 4849 0079 1D       		.byte	(.L591-.L593)/2
 4850 007a 0D       		.byte	(.L596-.L593)/2
 4851 007b 1D       		.byte	(.L591-.L593)/2
 4852 007c 1D       		.byte	(.L591-.L593)/2
 4853 007d 1D       		.byte	(.L591-.L593)/2
 4854 007e 11       		.byte	(.L595-.L593)/2
 4855 007f 1D       		.byte	(.L591-.L593)/2
 4856 0080 1D       		.byte	(.L591-.L593)/2
 4857 0081 1D       		.byte	(.L591-.L593)/2
 4858 0082 15       		.byte	(.L594-.L593)/2
 4859 0083 1D       		.byte	(.L591-.L593)/2
 4860 0084 1D       		.byte	(.L591-.L593)/2
 4861 0085 1D       		.byte	(.L591-.L593)/2
 4862 0086 19       		.byte	(.L592-.L593)/2
 4863 0087 00       		.p2align 1
ARM GAS  C:\Users\aticl\AppData\Local\Temp\ccqcvH4b.s 			page 83


 4864              	.L597:
 4865 0088 0123     		movs	r3, #1
 4866 008a 84F83E30 		strb	r3, [r4, #62]
 4867 008e 12E0     		b	.L598
 4868              	.L596:
 4869 0090 0123     		movs	r3, #1
 4870 0092 84F83F30 		strb	r3, [r4, #63]
 4871 0096 0EE0     		b	.L598
 4872              	.L595:
 4873 0098 0123     		movs	r3, #1
 4874 009a 84F84030 		strb	r3, [r4, #64]
 4875 009e 0AE0     		b	.L598
 4876              	.L594:
 4877 00a0 0123     		movs	r3, #1
 4878 00a2 84F84130 		strb	r3, [r4, #65]
 4879 00a6 06E0     		b	.L598
 4880              	.L592:
 4881 00a8 0123     		movs	r3, #1
 4882 00aa 84F84230 		strb	r3, [r4, #66]
 4883 00ae 02E0     		b	.L598
 4884              	.L591:
 4885 00b0 0123     		movs	r3, #1
 4886 00b2 84F84330 		strb	r3, [r4, #67]
 4887              	.L598:
 4888 00b6 0020     		movs	r0, #0
 4889 00b8 38BD     		pop	{r3, r4, r5, pc}
 4890              	.L601:
 4891 00ba 00BF     		.align	2
 4892              	.L600:
 4893 00bc 00000140 		.word	1073807360
 4894 00c0 00040140 		.word	1073808384
 4896              		.section	.text.HAL_TIM_OC_Start_IT,"ax",%progbits
 4897              		.align	1
 4898              		.global	HAL_TIM_OC_Start_IT
 4899              		.syntax unified
 4900              		.thumb
 4901              		.thumb_func
 4903              	HAL_TIM_OC_Start_IT:
 4904              		@ args = 0, pretend = 0, frame = 0
 4905              		@ frame_needed = 0, uses_anonymous_args = 0
 4906 0000 10B5     		push	{r4, lr}
 4907 0002 0446     		mov	r4, r0
 4908 0004 1029     		cmp	r1, #16
 4909 0006 28D8     		bhi	.L603
 4910 0008 DFE801F0 		tbb	[pc, r1]
 4911              	.L605:
 4912 000c 09       		.byte	(.L609-.L605)/2
 4913 000d 27       		.byte	(.L603-.L605)/2
 4914 000e 27       		.byte	(.L603-.L605)/2
 4915 000f 27       		.byte	(.L603-.L605)/2
 4916 0010 0F       		.byte	(.L608-.L605)/2
 4917 0011 27       		.byte	(.L603-.L605)/2
 4918 0012 27       		.byte	(.L603-.L605)/2
 4919 0013 27       		.byte	(.L603-.L605)/2
 4920 0014 15       		.byte	(.L607-.L605)/2
 4921 0015 27       		.byte	(.L603-.L605)/2
 4922 0016 27       		.byte	(.L603-.L605)/2
ARM GAS  C:\Users\aticl\AppData\Local\Temp\ccqcvH4b.s 			page 84


 4923 0017 27       		.byte	(.L603-.L605)/2
 4924 0018 1B       		.byte	(.L606-.L605)/2
 4925 0019 27       		.byte	(.L603-.L605)/2
 4926 001a 27       		.byte	(.L603-.L605)/2
 4927 001b 27       		.byte	(.L603-.L605)/2
 4928 001c 21       		.byte	(.L604-.L605)/2
 4929 001d 00       		.p2align 1
 4930              	.L609:
 4931 001e 90F83E30 		ldrb	r3, [r0, #62]	@ zero_extendqisi2
 4932 0022 013B     		subs	r3, r3, #1
 4933 0024 18BF     		it	ne
 4934 0026 0123     		movne	r3, #1
 4935 0028 1CE0     		b	.L610
 4936              	.L608:
 4937 002a 90F83F30 		ldrb	r3, [r0, #63]	@ zero_extendqisi2
 4938 002e 013B     		subs	r3, r3, #1
 4939 0030 18BF     		it	ne
 4940 0032 0123     		movne	r3, #1
 4941 0034 16E0     		b	.L610
 4942              	.L607:
 4943 0036 90F84030 		ldrb	r3, [r0, #64]	@ zero_extendqisi2
 4944 003a 013B     		subs	r3, r3, #1
 4945 003c 18BF     		it	ne
 4946 003e 0123     		movne	r3, #1
 4947 0040 10E0     		b	.L610
 4948              	.L606:
 4949 0042 90F84130 		ldrb	r3, [r0, #65]	@ zero_extendqisi2
 4950 0046 013B     		subs	r3, r3, #1
 4951 0048 18BF     		it	ne
 4952 004a 0123     		movne	r3, #1
 4953 004c 0AE0     		b	.L610
 4954              	.L604:
 4955 004e 90F84230 		ldrb	r3, [r0, #66]	@ zero_extendqisi2
 4956 0052 013B     		subs	r3, r3, #1
 4957 0054 18BF     		it	ne
 4958 0056 0123     		movne	r3, #1
 4959 0058 04E0     		b	.L610
 4960              	.L603:
 4961 005a 90F84330 		ldrb	r3, [r0, #67]	@ zero_extendqisi2
 4962 005e 013B     		subs	r3, r3, #1
 4963 0060 18BF     		it	ne
 4964 0062 0123     		movne	r3, #1
 4965              	.L610:
 4966 0064 002B     		cmp	r3, #0
 4967 0066 40F0A580 		bne	.L629
 4968 006a 1029     		cmp	r1, #16
 4969 006c 72D8     		bhi	.L612
 4970 006e DFE801F0 		tbb	[pc, r1]
 4971              	.L614:
 4972 0072 09       		.byte	(.L618-.L614)/2
 4973 0073 71       		.byte	(.L612-.L614)/2
 4974 0074 71       		.byte	(.L612-.L614)/2
 4975 0075 71       		.byte	(.L612-.L614)/2
 4976 0076 51       		.byte	(.L617-.L614)/2
 4977 0077 71       		.byte	(.L612-.L614)/2
 4978 0078 71       		.byte	(.L612-.L614)/2
 4979 0079 71       		.byte	(.L612-.L614)/2
ARM GAS  C:\Users\aticl\AppData\Local\Temp\ccqcvH4b.s 			page 85


 4980 007a 5A       		.byte	(.L616-.L614)/2
 4981 007b 71       		.byte	(.L612-.L614)/2
 4982 007c 71       		.byte	(.L612-.L614)/2
 4983 007d 71       		.byte	(.L612-.L614)/2
 4984 007e 63       		.byte	(.L615-.L614)/2
 4985 007f 71       		.byte	(.L612-.L614)/2
 4986 0080 71       		.byte	(.L612-.L614)/2
 4987 0081 71       		.byte	(.L612-.L614)/2
 4988 0082 6C       		.byte	(.L613-.L614)/2
 4989 0083 00       		.p2align 1
 4990              	.L618:
 4991 0084 0223     		movs	r3, #2
 4992 0086 84F83E30 		strb	r3, [r4, #62]
 4993              	.L619:
 4994 008a 2268     		ldr	r2, [r4]
 4995 008c D368     		ldr	r3, [r2, #12]
 4996 008e 43F00203 		orr	r3, r3, #2
 4997 0092 D360     		str	r3, [r2, #12]
 4998              	.L624:
 4999 0094 0122     		movs	r2, #1
 5000 0096 2068     		ldr	r0, [r4]
 5001 0098 FFF7FEFF 		bl	TIM_CCxChannelCmd
 5002 009c 2368     		ldr	r3, [r4]
 5003 009e 4849     		ldr	r1, .L637
 5004 00a0 484A     		ldr	r2, .L637+4
 5005 00a2 9342     		cmp	r3, r2
 5006 00a4 18BF     		it	ne
 5007 00a6 8B42     		cmpne	r3, r1
 5008 00a8 0BD0     		beq	.L625
 5009 00aa 02F57052 		add	r2, r2, #15360
 5010 00ae 9342     		cmp	r3, r2
 5011 00b0 07D0     		beq	.L625
 5012 00b2 02F58062 		add	r2, r2, #1024
 5013 00b6 9342     		cmp	r3, r2
 5014 00b8 03D0     		beq	.L625
 5015 00ba 02F58062 		add	r2, r2, #1024
 5016 00be 9342     		cmp	r3, r2
 5017 00c0 03D1     		bne	.L626
 5018              	.L625:
 5019 00c2 5A6C     		ldr	r2, [r3, #68]
 5020 00c4 42F40042 		orr	r2, r2, #32768
 5021 00c8 5A64     		str	r2, [r3, #68]
 5022              	.L626:
 5023 00ca 2368     		ldr	r3, [r4]
 5024 00cc 3C4A     		ldr	r2, .L637
 5025 00ce B3F1804F 		cmp	r3, #1073741824
 5026 00d2 18BF     		it	ne
 5027 00d4 9342     		cmpne	r3, r2
 5028 00d6 5FD0     		beq	.L627
 5029 00d8 A2F57C42 		sub	r2, r2, #64512
 5030 00dc 9342     		cmp	r3, r2
 5031 00de 5BD0     		beq	.L627
 5032 00e0 02F58062 		add	r2, r2, #1024
 5033 00e4 9342     		cmp	r3, r2
 5034 00e6 57D0     		beq	.L627
 5035 00e8 02F58062 		add	r2, r2, #1024
 5036 00ec 9342     		cmp	r3, r2
ARM GAS  C:\Users\aticl\AppData\Local\Temp\ccqcvH4b.s 			page 86


 5037 00ee 53D0     		beq	.L627
 5038 00f0 02F57842 		add	r2, r2, #63488
 5039 00f4 9342     		cmp	r3, r2
 5040 00f6 4FD0     		beq	.L627
 5041 00f8 A2F56C42 		sub	r2, r2, #60416
 5042 00fc 9342     		cmp	r3, r2
 5043 00fe 4BD0     		beq	.L627
 5044 0100 02F59432 		add	r2, r2, #75776
 5045 0104 9342     		cmp	r3, r2
 5046 0106 47D0     		beq	.L627
 5047 0108 1A68     		ldr	r2, [r3]
 5048 010a 42F00102 		orr	r2, r2, #1
 5049 010e 1A60     		str	r2, [r3]
 5050 0110 0020     		movs	r0, #0
 5051 0112 50E0     		b	.L611
 5052              	.L617:
 5053 0114 0223     		movs	r3, #2
 5054 0116 84F83F30 		strb	r3, [r4, #63]
 5055              	.L620:
 5056 011a 2268     		ldr	r2, [r4]
 5057 011c D368     		ldr	r3, [r2, #12]
 5058 011e 43F00403 		orr	r3, r3, #4
 5059 0122 D360     		str	r3, [r2, #12]
 5060 0124 B6E7     		b	.L624
 5061              	.L616:
 5062 0126 0223     		movs	r3, #2
 5063 0128 84F84030 		strb	r3, [r4, #64]
 5064              	.L621:
 5065 012c 2268     		ldr	r2, [r4]
 5066 012e D368     		ldr	r3, [r2, #12]
 5067 0130 43F00803 		orr	r3, r3, #8
 5068 0134 D360     		str	r3, [r2, #12]
 5069 0136 ADE7     		b	.L624
 5070              	.L615:
 5071 0138 0223     		movs	r3, #2
 5072 013a 84F84130 		strb	r3, [r4, #65]
 5073              	.L622:
 5074 013e 2268     		ldr	r2, [r4]
 5075 0140 D368     		ldr	r3, [r2, #12]
 5076 0142 43F01003 		orr	r3, r3, #16
 5077 0146 D360     		str	r3, [r2, #12]
 5078 0148 A4E7     		b	.L624
 5079              	.L613:
 5080 014a 0223     		movs	r3, #2
 5081 014c 84F84230 		strb	r3, [r4, #66]
 5082 0150 0120     		movs	r0, #1
 5083 0152 30E0     		b	.L611
 5084              	.L612:
 5085 0154 0223     		movs	r3, #2
 5086 0156 84F84330 		strb	r3, [r4, #67]
 5087 015a 0C29     		cmp	r1, #12
 5088 015c 2CD8     		bhi	.L630
 5089 015e 01A3     		adr	r3, .L623
 5090 0160 53F821F0 		ldr	pc, [r3, r1, lsl #2]
 5091              		.p2align 2
 5092              	.L623:
 5093 0164 8B000000 		.word	.L619+1
ARM GAS  C:\Users\aticl\AppData\Local\Temp\ccqcvH4b.s 			page 87


 5094 0168 B9010000 		.word	.L630+1
 5095 016c B9010000 		.word	.L630+1
 5096 0170 B9010000 		.word	.L630+1
 5097 0174 1B010000 		.word	.L620+1
 5098 0178 B9010000 		.word	.L630+1
 5099 017c B9010000 		.word	.L630+1
 5100 0180 B9010000 		.word	.L630+1
 5101 0184 2D010000 		.word	.L621+1
 5102 0188 B9010000 		.word	.L630+1
 5103 018c B9010000 		.word	.L630+1
 5104 0190 B9010000 		.word	.L630+1
 5105 0194 3F010000 		.word	.L622+1
 5106              		.p2align 1
 5107              	.L627:
 5108 0198 9968     		ldr	r1, [r3, #8]
 5109 019a 0B4A     		ldr	r2, .L637+8
 5110 019c 0A40     		ands	r2, r2, r1
 5111 019e 062A     		cmp	r2, #6
 5112 01a0 18BF     		it	ne
 5113 01a2 B2F5803F 		cmpne	r2, #65536
 5114 01a6 09D0     		beq	.L631
 5115 01a8 1A68     		ldr	r2, [r3]
 5116 01aa 42F00102 		orr	r2, r2, #1
 5117 01ae 1A60     		str	r2, [r3]
 5118 01b0 0020     		movs	r0, #0
 5119 01b2 00E0     		b	.L611
 5120              	.L629:
 5121 01b4 0120     		movs	r0, #1
 5122              	.L611:
 5123 01b6 10BD     		pop	{r4, pc}
 5124              	.L630:
 5125 01b8 0120     		movs	r0, #1
 5126 01ba FCE7     		b	.L611
 5127              	.L631:
 5128 01bc 0020     		movs	r0, #0
 5129 01be FAE7     		b	.L611
 5130              	.L638:
 5131              		.align	2
 5132              	.L637:
 5133 01c0 00000140 		.word	1073807360
 5134 01c4 00040140 		.word	1073808384
 5135 01c8 07000100 		.word	65543
 5137              		.section	.text.HAL_TIM_OC_Stop_IT,"ax",%progbits
 5138              		.align	1
 5139              		.global	HAL_TIM_OC_Stop_IT
 5140              		.syntax unified
 5141              		.thumb
 5142              		.thumb_func
 5144              	HAL_TIM_OC_Stop_IT:
 5145              		@ args = 0, pretend = 0, frame = 0
 5146              		@ frame_needed = 0, uses_anonymous_args = 0
 5147 0000 38B5     		push	{r3, r4, r5, lr}
 5148 0002 0546     		mov	r5, r0
 5149 0004 0C46     		mov	r4, r1
 5150 0006 0C29     		cmp	r1, #12
 5151 0008 7FD8     		bhi	.L657
 5152 000a DFE801F0 		tbb	[pc, r1]
ARM GAS  C:\Users\aticl\AppData\Local\Temp\ccqcvH4b.s 			page 88


 5153              	.L642:
 5154 000e 07       		.byte	(.L645-.L642)/2
 5155 000f 7E       		.byte	(.L657-.L642)/2
 5156 0010 7E       		.byte	(.L657-.L642)/2
 5157 0011 7E       		.byte	(.L657-.L642)/2
 5158 0012 4E       		.byte	(.L644-.L642)/2
 5159 0013 7E       		.byte	(.L657-.L642)/2
 5160 0014 7E       		.byte	(.L657-.L642)/2
 5161 0015 7E       		.byte	(.L657-.L642)/2
 5162 0016 54       		.byte	(.L643-.L642)/2
 5163 0017 7E       		.byte	(.L657-.L642)/2
 5164 0018 7E       		.byte	(.L657-.L642)/2
 5165 0019 7E       		.byte	(.L657-.L642)/2
 5166 001a 5A       		.byte	(.L641-.L642)/2
 5167 001b 00       		.p2align 1
 5168              	.L645:
 5169 001c 0268     		ldr	r2, [r0]
 5170 001e D368     		ldr	r3, [r2, #12]
 5171 0020 23F00203 		bic	r3, r3, #2
 5172 0024 D360     		str	r3, [r2, #12]
 5173              	.L646:
 5174 0026 0022     		movs	r2, #0
 5175 0028 2146     		mov	r1, r4
 5176 002a 2868     		ldr	r0, [r5]
 5177 002c FFF7FEFF 		bl	TIM_CCxChannelCmd
 5178 0030 2B68     		ldr	r3, [r5]
 5179 0032 3749     		ldr	r1, .L659
 5180 0034 374A     		ldr	r2, .L659+4
 5181 0036 9342     		cmp	r3, r2
 5182 0038 18BF     		it	ne
 5183 003a 8B42     		cmpne	r3, r1
 5184 003c 0BD0     		beq	.L647
 5185 003e 02F57052 		add	r2, r2, #15360
 5186 0042 9342     		cmp	r3, r2
 5187 0044 07D0     		beq	.L647
 5188 0046 02F58062 		add	r2, r2, #1024
 5189 004a 9342     		cmp	r3, r2
 5190 004c 03D0     		beq	.L647
 5191 004e 02F58062 		add	r2, r2, #1024
 5192 0052 9342     		cmp	r3, r2
 5193 0054 0DD1     		bne	.L648
 5194              	.L647:
 5195 0056 196A     		ldr	r1, [r3, #32]
 5196 0058 41F21112 		movw	r2, #4369
 5197 005c 1142     		tst	r1, r2
 5198 005e 08D1     		bne	.L648
 5199 0060 196A     		ldr	r1, [r3, #32]
 5200 0062 40F24442 		movw	r2, #1092
 5201 0066 1142     		tst	r1, r2
 5202 0068 03D1     		bne	.L648
 5203 006a 5A6C     		ldr	r2, [r3, #68]
 5204 006c 22F40042 		bic	r2, r2, #32768
 5205 0070 5A64     		str	r2, [r3, #68]
 5206              	.L648:
 5207 0072 2B68     		ldr	r3, [r5]
 5208 0074 196A     		ldr	r1, [r3, #32]
 5209 0076 41F21112 		movw	r2, #4369
ARM GAS  C:\Users\aticl\AppData\Local\Temp\ccqcvH4b.s 			page 89


 5210 007a 1142     		tst	r1, r2
 5211 007c 08D1     		bne	.L649
 5212 007e 196A     		ldr	r1, [r3, #32]
 5213 0080 40F24442 		movw	r2, #1092
 5214 0084 1142     		tst	r1, r2
 5215 0086 03D1     		bne	.L649
 5216 0088 1A68     		ldr	r2, [r3]
 5217 008a 22F00102 		bic	r2, r2, #1
 5218 008e 1A60     		str	r2, [r3]
 5219              	.L649:
 5220 0090 102C     		cmp	r4, #16
 5221 0092 35D8     		bhi	.L650
 5222 0094 DFE804F0 		tbb	[pc, r4]
 5223              	.L652:
 5224 0098 1B       		.byte	(.L656-.L652)/2
 5225 0099 34       		.byte	(.L650-.L652)/2
 5226 009a 34       		.byte	(.L650-.L652)/2
 5227 009b 34       		.byte	(.L650-.L652)/2
 5228 009c 20       		.byte	(.L655-.L652)/2
 5229 009d 34       		.byte	(.L650-.L652)/2
 5230 009e 34       		.byte	(.L650-.L652)/2
 5231 009f 34       		.byte	(.L650-.L652)/2
 5232 00a0 25       		.byte	(.L654-.L652)/2
 5233 00a1 34       		.byte	(.L650-.L652)/2
 5234 00a2 34       		.byte	(.L650-.L652)/2
 5235 00a3 34       		.byte	(.L650-.L652)/2
 5236 00a4 2A       		.byte	(.L653-.L652)/2
 5237 00a5 34       		.byte	(.L650-.L652)/2
 5238 00a6 34       		.byte	(.L650-.L652)/2
 5239 00a7 34       		.byte	(.L650-.L652)/2
 5240 00a8 2F       		.byte	(.L651-.L652)/2
 5241 00a9 00       		.p2align 1
 5242              	.L644:
 5243 00aa 0268     		ldr	r2, [r0]
 5244 00ac D368     		ldr	r3, [r2, #12]
 5245 00ae 23F00403 		bic	r3, r3, #4
 5246 00b2 D360     		str	r3, [r2, #12]
 5247 00b4 B7E7     		b	.L646
 5248              	.L643:
 5249 00b6 0268     		ldr	r2, [r0]
 5250 00b8 D368     		ldr	r3, [r2, #12]
 5251 00ba 23F00803 		bic	r3, r3, #8
 5252 00be D360     		str	r3, [r2, #12]
 5253 00c0 B1E7     		b	.L646
 5254              	.L641:
 5255 00c2 0268     		ldr	r2, [r0]
 5256 00c4 D368     		ldr	r3, [r2, #12]
 5257 00c6 23F01003 		bic	r3, r3, #16
 5258 00ca D360     		str	r3, [r2, #12]
 5259 00cc ABE7     		b	.L646
 5260              	.L656:
 5261 00ce 0123     		movs	r3, #1
 5262 00d0 85F83E30 		strb	r3, [r5, #62]
 5263 00d4 0020     		movs	r0, #0
 5264 00d6 19E0     		b	.L640
 5265              	.L655:
 5266 00d8 0123     		movs	r3, #1
ARM GAS  C:\Users\aticl\AppData\Local\Temp\ccqcvH4b.s 			page 90


 5267 00da 85F83F30 		strb	r3, [r5, #63]
 5268 00de 0020     		movs	r0, #0
 5269 00e0 14E0     		b	.L640
 5270              	.L654:
 5271 00e2 0123     		movs	r3, #1
 5272 00e4 85F84030 		strb	r3, [r5, #64]
 5273 00e8 0020     		movs	r0, #0
 5274 00ea 0FE0     		b	.L640
 5275              	.L653:
 5276 00ec 0123     		movs	r3, #1
 5277 00ee 85F84130 		strb	r3, [r5, #65]
 5278 00f2 0020     		movs	r0, #0
 5279 00f4 0AE0     		b	.L640
 5280              	.L651:
 5281 00f6 0123     		movs	r3, #1
 5282 00f8 85F84230 		strb	r3, [r5, #66]
 5283 00fc 0020     		movs	r0, #0
 5284 00fe 05E0     		b	.L640
 5285              	.L650:
 5286 0100 0123     		movs	r3, #1
 5287 0102 85F84330 		strb	r3, [r5, #67]
 5288 0106 0020     		movs	r0, #0
 5289 0108 00E0     		b	.L640
 5290              	.L657:
 5291 010a 0120     		movs	r0, #1
 5292              	.L640:
 5293 010c 38BD     		pop	{r3, r4, r5, pc}
 5294              	.L660:
 5295 010e 00BF     		.align	2
 5296              	.L659:
 5297 0110 00000140 		.word	1073807360
 5298 0114 00040140 		.word	1073808384
 5300              		.section	.text.HAL_TIM_OC_Start_DMA,"ax",%progbits
 5301              		.align	1
 5302              		.global	HAL_TIM_OC_Start_DMA
 5303              		.syntax unified
 5304              		.thumb
 5305              		.thumb_func
 5307              	HAL_TIM_OC_Start_DMA:
 5308              		@ args = 0, pretend = 0, frame = 0
 5309              		@ frame_needed = 0, uses_anonymous_args = 0
 5310 0000 38B5     		push	{r3, r4, r5, lr}
 5311 0002 0546     		mov	r5, r0
 5312 0004 0C46     		mov	r4, r1
 5313 0006 1146     		mov	r1, r2
 5314 0008 102C     		cmp	r4, #16
 5315 000a 2DD8     		bhi	.L662
 5316 000c DFE804F0 		tbb	[pc, r4]
 5317              	.L664:
 5318 0010 09       		.byte	(.L668-.L664)/2
 5319 0011 2C       		.byte	(.L662-.L664)/2
 5320 0012 2C       		.byte	(.L662-.L664)/2
 5321 0013 2C       		.byte	(.L662-.L664)/2
 5322 0014 10       		.byte	(.L667-.L664)/2
 5323 0015 2C       		.byte	(.L662-.L664)/2
 5324 0016 2C       		.byte	(.L662-.L664)/2
 5325 0017 2C       		.byte	(.L662-.L664)/2
ARM GAS  C:\Users\aticl\AppData\Local\Temp\ccqcvH4b.s 			page 91


 5326 0018 17       		.byte	(.L666-.L664)/2
 5327 0019 2C       		.byte	(.L662-.L664)/2
 5328 001a 2C       		.byte	(.L662-.L664)/2
 5329 001b 2C       		.byte	(.L662-.L664)/2
 5330 001c 1E       		.byte	(.L665-.L664)/2
 5331 001d 2C       		.byte	(.L662-.L664)/2
 5332 001e 2C       		.byte	(.L662-.L664)/2
 5333 001f 2C       		.byte	(.L662-.L664)/2
 5334 0020 25       		.byte	(.L663-.L664)/2
 5335 0021 00       		.p2align 1
 5336              	.L668:
 5337 0022 90F83E00 		ldrb	r0, [r0, #62]	@ zero_extendqisi2
 5338 0026 0228     		cmp	r0, #2
 5339 0028 14BF     		ite	ne
 5340 002a 0020     		movne	r0, #0
 5341 002c 0120     		moveq	r0, #1
 5342 002e 21E0     		b	.L669
 5343              	.L667:
 5344 0030 90F83F00 		ldrb	r0, [r0, #63]	@ zero_extendqisi2
 5345 0034 0228     		cmp	r0, #2
 5346 0036 14BF     		ite	ne
 5347 0038 0020     		movne	r0, #0
 5348 003a 0120     		moveq	r0, #1
 5349 003c 1AE0     		b	.L669
 5350              	.L666:
 5351 003e 90F84000 		ldrb	r0, [r0, #64]	@ zero_extendqisi2
 5352 0042 0228     		cmp	r0, #2
 5353 0044 14BF     		ite	ne
 5354 0046 0020     		movne	r0, #0
 5355 0048 0120     		moveq	r0, #1
 5356 004a 13E0     		b	.L669
 5357              	.L665:
 5358 004c 90F84100 		ldrb	r0, [r0, #65]	@ zero_extendqisi2
 5359 0050 0228     		cmp	r0, #2
 5360 0052 14BF     		ite	ne
 5361 0054 0020     		movne	r0, #0
 5362 0056 0120     		moveq	r0, #1
 5363 0058 0CE0     		b	.L669
 5364              	.L663:
 5365 005a 90F84200 		ldrb	r0, [r0, #66]	@ zero_extendqisi2
 5366 005e 0228     		cmp	r0, #2
 5367 0060 14BF     		ite	ne
 5368 0062 0020     		movne	r0, #0
 5369 0064 0120     		moveq	r0, #1
 5370 0066 05E0     		b	.L669
 5371              	.L662:
 5372 0068 90F84300 		ldrb	r0, [r0, #67]	@ zero_extendqisi2
 5373 006c 0228     		cmp	r0, #2
 5374 006e 14BF     		ite	ne
 5375 0070 0020     		movne	r0, #0
 5376 0072 0120     		moveq	r0, #1
 5377              	.L669:
 5378 0074 0028     		cmp	r0, #0
 5379 0076 40F03381 		bne	.L696
 5380 007a 102C     		cmp	r4, #16
 5381 007c 2DD8     		bhi	.L671
 5382 007e DFE804F0 		tbb	[pc, r4]
ARM GAS  C:\Users\aticl\AppData\Local\Temp\ccqcvH4b.s 			page 92


 5383              	.L673:
 5384 0082 09       		.byte	(.L677-.L673)/2
 5385 0083 2C       		.byte	(.L671-.L673)/2
 5386 0084 2C       		.byte	(.L671-.L673)/2
 5387 0085 2C       		.byte	(.L671-.L673)/2
 5388 0086 10       		.byte	(.L676-.L673)/2
 5389 0087 2C       		.byte	(.L671-.L673)/2
 5390 0088 2C       		.byte	(.L671-.L673)/2
 5391 0089 2C       		.byte	(.L671-.L673)/2
 5392 008a 17       		.byte	(.L675-.L673)/2
 5393 008b 2C       		.byte	(.L671-.L673)/2
 5394 008c 2C       		.byte	(.L671-.L673)/2
 5395 008d 2C       		.byte	(.L671-.L673)/2
 5396 008e 1E       		.byte	(.L674-.L673)/2
 5397 008f 2C       		.byte	(.L671-.L673)/2
 5398 0090 2C       		.byte	(.L671-.L673)/2
 5399 0091 2C       		.byte	(.L671-.L673)/2
 5400 0092 25       		.byte	(.L672-.L673)/2
 5401 0093 00       		.p2align 1
 5402              	.L677:
 5403 0094 95F83E20 		ldrb	r2, [r5, #62]	@ zero_extendqisi2
 5404 0098 012A     		cmp	r2, #1
 5405 009a 14BF     		ite	ne
 5406 009c 0022     		movne	r2, #0
 5407 009e 0122     		moveq	r2, #1
 5408 00a0 21E0     		b	.L678
 5409              	.L676:
 5410 00a2 95F83F20 		ldrb	r2, [r5, #63]	@ zero_extendqisi2
 5411 00a6 012A     		cmp	r2, #1
 5412 00a8 14BF     		ite	ne
 5413 00aa 0022     		movne	r2, #0
 5414 00ac 0122     		moveq	r2, #1
 5415 00ae 1AE0     		b	.L678
 5416              	.L675:
 5417 00b0 95F84020 		ldrb	r2, [r5, #64]	@ zero_extendqisi2
 5418 00b4 012A     		cmp	r2, #1
 5419 00b6 14BF     		ite	ne
 5420 00b8 0022     		movne	r2, #0
 5421 00ba 0122     		moveq	r2, #1
 5422 00bc 13E0     		b	.L678
 5423              	.L674:
 5424 00be 95F84120 		ldrb	r2, [r5, #65]	@ zero_extendqisi2
 5425 00c2 012A     		cmp	r2, #1
 5426 00c4 14BF     		ite	ne
 5427 00c6 0022     		movne	r2, #0
 5428 00c8 0122     		moveq	r2, #1
 5429 00ca 0CE0     		b	.L678
 5430              	.L672:
 5431 00cc 95F84220 		ldrb	r2, [r5, #66]	@ zero_extendqisi2
 5432 00d0 012A     		cmp	r2, #1
 5433 00d2 14BF     		ite	ne
 5434 00d4 0022     		movne	r2, #0
 5435 00d6 0122     		moveq	r2, #1
 5436 00d8 05E0     		b	.L678
 5437              	.L671:
 5438 00da 95F84320 		ldrb	r2, [r5, #67]	@ zero_extendqisi2
 5439 00de 012A     		cmp	r2, #1
ARM GAS  C:\Users\aticl\AppData\Local\Temp\ccqcvH4b.s 			page 93


 5440 00e0 14BF     		ite	ne
 5441 00e2 0022     		movne	r2, #0
 5442 00e4 0122     		moveq	r2, #1
 5443              	.L678:
 5444 00e6 002A     		cmp	r2, #0
 5445 00e8 00F0FC80 		beq	.L697
 5446 00ec 002B     		cmp	r3, #0
 5447 00ee 18BF     		it	ne
 5448 00f0 0029     		cmpne	r1, #0
 5449 00f2 00F0F980 		beq	.L698
 5450 00f6 102C     		cmp	r4, #16
 5451 00f8 00F2C280 		bhi	.L679
 5452 00fc DFE814F0 		tbh	[pc, r4, lsl #1]
 5453              	.L681:
 5454 0100 1100     		.2byte	(.L685-.L681)/2
 5455 0102 C000     		.2byte	(.L679-.L681)/2
 5456 0104 C000     		.2byte	(.L679-.L681)/2
 5457 0106 C000     		.2byte	(.L679-.L681)/2
 5458 0108 7000     		.2byte	(.L684-.L681)/2
 5459 010a C000     		.2byte	(.L679-.L681)/2
 5460 010c C000     		.2byte	(.L679-.L681)/2
 5461 010e C000     		.2byte	(.L679-.L681)/2
 5462 0110 8900     		.2byte	(.L683-.L681)/2
 5463 0112 C000     		.2byte	(.L679-.L681)/2
 5464 0114 C000     		.2byte	(.L679-.L681)/2
 5465 0116 C000     		.2byte	(.L679-.L681)/2
 5466 0118 A200     		.2byte	(.L682-.L681)/2
 5467 011a C000     		.2byte	(.L679-.L681)/2
 5468 011c C000     		.2byte	(.L679-.L681)/2
 5469 011e C000     		.2byte	(.L679-.L681)/2
 5470 0120 BB00     		.2byte	(.L680-.L681)/2
 5471              		.p2align 1
 5472              	.L685:
 5473 0122 0222     		movs	r2, #2
 5474 0124 85F83E20 		strb	r2, [r5, #62]
 5475              	.L686:
 5476 0128 6A6A     		ldr	r2, [r5, #36]
 5477 012a 7648     		ldr	r0, .L710
 5478 012c D063     		str	r0, [r2, #60]
 5479 012e 6A6A     		ldr	r2, [r5, #36]
 5480 0130 7548     		ldr	r0, .L710+4
 5481 0132 1064     		str	r0, [r2, #64]
 5482 0134 6A6A     		ldr	r2, [r5, #36]
 5483 0136 7548     		ldr	r0, .L710+8
 5484 0138 D064     		str	r0, [r2, #76]
 5485 013a 2A68     		ldr	r2, [r5]
 5486 013c 3432     		adds	r2, r2, #52
 5487 013e 686A     		ldr	r0, [r5, #36]
 5488 0140 FFF7FEFF 		bl	HAL_DMA_Start_IT
 5489 0144 0028     		cmp	r0, #0
 5490 0146 40F0D380 		bne	.L700
 5491 014a 2A68     		ldr	r2, [r5]
 5492 014c D368     		ldr	r3, [r2, #12]
 5493 014e 43F40073 		orr	r3, r3, #512
 5494 0152 D360     		str	r3, [r2, #12]
 5495              	.L691:
 5496 0154 0122     		movs	r2, #1
ARM GAS  C:\Users\aticl\AppData\Local\Temp\ccqcvH4b.s 			page 94


 5497 0156 2146     		mov	r1, r4
 5498 0158 2868     		ldr	r0, [r5]
 5499 015a FFF7FEFF 		bl	TIM_CCxChannelCmd
 5500 015e 2B68     		ldr	r3, [r5]
 5501 0160 6B49     		ldr	r1, .L710+12
 5502 0162 6C4A     		ldr	r2, .L710+16
 5503 0164 9342     		cmp	r3, r2
 5504 0166 18BF     		it	ne
 5505 0168 8B42     		cmpne	r3, r1
 5506 016a 0BD0     		beq	.L692
 5507 016c 02F57052 		add	r2, r2, #15360
 5508 0170 9342     		cmp	r3, r2
 5509 0172 07D0     		beq	.L692
 5510 0174 02F58062 		add	r2, r2, #1024
 5511 0178 9342     		cmp	r3, r2
 5512 017a 03D0     		beq	.L692
 5513 017c 02F58062 		add	r2, r2, #1024
 5514 0180 9342     		cmp	r3, r2
 5515 0182 03D1     		bne	.L693
 5516              	.L692:
 5517 0184 5A6C     		ldr	r2, [r3, #68]
 5518 0186 42F40042 		orr	r2, r2, #32768
 5519 018a 5A64     		str	r2, [r3, #68]
 5520              	.L693:
 5521 018c 2B68     		ldr	r3, [r5]
 5522 018e 604A     		ldr	r2, .L710+12
 5523 0190 B3F1804F 		cmp	r3, #1073741824
 5524 0194 18BF     		it	ne
 5525 0196 9342     		cmpne	r3, r2
 5526 0198 00F09480 		beq	.L694
 5527 019c A2F57C42 		sub	r2, r2, #64512
 5528 01a0 9342     		cmp	r3, r2
 5529 01a2 00F08F80 		beq	.L694
 5530 01a6 02F58062 		add	r2, r2, #1024
 5531 01aa 9342     		cmp	r3, r2
 5532 01ac 00F08A80 		beq	.L694
 5533 01b0 02F58062 		add	r2, r2, #1024
 5534 01b4 9342     		cmp	r3, r2
 5535 01b6 00F08580 		beq	.L694
 5536 01ba 02F57842 		add	r2, r2, #63488
 5537 01be 9342     		cmp	r3, r2
 5538 01c0 00F08080 		beq	.L694
 5539 01c4 A2F56C42 		sub	r2, r2, #60416
 5540 01c8 9342     		cmp	r3, r2
 5541 01ca 7BD0     		beq	.L694
 5542 01cc 02F59432 		add	r2, r2, #75776
 5543 01d0 9342     		cmp	r3, r2
 5544 01d2 77D0     		beq	.L694
 5545 01d4 1A68     		ldr	r2, [r3]
 5546 01d6 42F00102 		orr	r2, r2, #1
 5547 01da 1A60     		str	r2, [r3]
 5548 01dc 0020     		movs	r0, #0
 5549 01de 82E0     		b	.L670
 5550              	.L684:
 5551 01e0 0222     		movs	r2, #2
 5552 01e2 85F83F20 		strb	r2, [r5, #63]
 5553              	.L687:
ARM GAS  C:\Users\aticl\AppData\Local\Temp\ccqcvH4b.s 			page 95


 5554 01e6 AA6A     		ldr	r2, [r5, #40]
 5555 01e8 4648     		ldr	r0, .L710
 5556 01ea D063     		str	r0, [r2, #60]
 5557 01ec AA6A     		ldr	r2, [r5, #40]
 5558 01ee 4648     		ldr	r0, .L710+4
 5559 01f0 1064     		str	r0, [r2, #64]
 5560 01f2 AA6A     		ldr	r2, [r5, #40]
 5561 01f4 4548     		ldr	r0, .L710+8
 5562 01f6 D064     		str	r0, [r2, #76]
 5563 01f8 2A68     		ldr	r2, [r5]
 5564 01fa 3832     		adds	r2, r2, #56
 5565 01fc A86A     		ldr	r0, [r5, #40]
 5566 01fe FFF7FEFF 		bl	HAL_DMA_Start_IT
 5567 0202 0028     		cmp	r0, #0
 5568 0204 76D1     		bne	.L701
 5569 0206 2A68     		ldr	r2, [r5]
 5570 0208 D368     		ldr	r3, [r2, #12]
 5571 020a 43F48063 		orr	r3, r3, #1024
 5572 020e D360     		str	r3, [r2, #12]
 5573 0210 A0E7     		b	.L691
 5574              	.L683:
 5575 0212 0222     		movs	r2, #2
 5576 0214 85F84020 		strb	r2, [r5, #64]
 5577              	.L688:
 5578 0218 EA6A     		ldr	r2, [r5, #44]
 5579 021a 3A48     		ldr	r0, .L710
 5580 021c D063     		str	r0, [r2, #60]
 5581 021e EA6A     		ldr	r2, [r5, #44]
 5582 0220 3948     		ldr	r0, .L710+4
 5583 0222 1064     		str	r0, [r2, #64]
 5584 0224 EA6A     		ldr	r2, [r5, #44]
 5585 0226 3948     		ldr	r0, .L710+8
 5586 0228 D064     		str	r0, [r2, #76]
 5587 022a 2A68     		ldr	r2, [r5]
 5588 022c 3C32     		adds	r2, r2, #60
 5589 022e E86A     		ldr	r0, [r5, #44]
 5590 0230 FFF7FEFF 		bl	HAL_DMA_Start_IT
 5591 0234 0028     		cmp	r0, #0
 5592 0236 5FD1     		bne	.L702
 5593 0238 2A68     		ldr	r2, [r5]
 5594 023a D368     		ldr	r3, [r2, #12]
 5595 023c 43F40063 		orr	r3, r3, #2048
 5596 0240 D360     		str	r3, [r2, #12]
 5597 0242 87E7     		b	.L691
 5598              	.L682:
 5599 0244 0222     		movs	r2, #2
 5600 0246 85F84120 		strb	r2, [r5, #65]
 5601              	.L689:
 5602 024a 2A6B     		ldr	r2, [r5, #48]
 5603 024c 2D48     		ldr	r0, .L710
 5604 024e D063     		str	r0, [r2, #60]
 5605 0250 2A6B     		ldr	r2, [r5, #48]
 5606 0252 2D48     		ldr	r0, .L710+4
 5607 0254 1064     		str	r0, [r2, #64]
 5608 0256 2A6B     		ldr	r2, [r5, #48]
 5609 0258 2C48     		ldr	r0, .L710+8
 5610 025a D064     		str	r0, [r2, #76]
ARM GAS  C:\Users\aticl\AppData\Local\Temp\ccqcvH4b.s 			page 96


 5611 025c 2A68     		ldr	r2, [r5]
 5612 025e 4032     		adds	r2, r2, #64
 5613 0260 286B     		ldr	r0, [r5, #48]
 5614 0262 FFF7FEFF 		bl	HAL_DMA_Start_IT
 5615 0266 0028     		cmp	r0, #0
 5616 0268 48D1     		bne	.L703
 5617 026a 2A68     		ldr	r2, [r5]
 5618 026c D368     		ldr	r3, [r2, #12]
 5619 026e 43F48053 		orr	r3, r3, #4096
 5620 0272 D360     		str	r3, [r2, #12]
 5621 0274 6EE7     		b	.L691
 5622              	.L680:
 5623 0276 0223     		movs	r3, #2
 5624 0278 85F84230 		strb	r3, [r5, #66]
 5625 027c 0120     		movs	r0, #1
 5626 027e 32E0     		b	.L670
 5627              	.L679:
 5628 0280 0222     		movs	r2, #2
 5629 0282 85F84320 		strb	r2, [r5, #67]
 5630 0286 0C2C     		cmp	r4, #12
 5631 0288 30D8     		bhi	.L699
 5632 028a 01A2     		adr	r2, .L690
 5633 028c 52F824F0 		ldr	pc, [r2, r4, lsl #2]
 5634              		.p2align 2
 5635              	.L690:
 5636 0290 29010000 		.word	.L686+1
 5637 0294 ED020000 		.word	.L699+1
 5638 0298 ED020000 		.word	.L699+1
 5639 029c ED020000 		.word	.L699+1
 5640 02a0 E7010000 		.word	.L687+1
 5641 02a4 ED020000 		.word	.L699+1
 5642 02a8 ED020000 		.word	.L699+1
 5643 02ac ED020000 		.word	.L699+1
 5644 02b0 19020000 		.word	.L688+1
 5645 02b4 ED020000 		.word	.L699+1
 5646 02b8 ED020000 		.word	.L699+1
 5647 02bc ED020000 		.word	.L699+1
 5648 02c0 4B020000 		.word	.L689+1
 5649              		.p2align 1
 5650              	.L694:
 5651 02c4 9968     		ldr	r1, [r3, #8]
 5652 02c6 144A     		ldr	r2, .L710+20
 5653 02c8 0A40     		ands	r2, r2, r1
 5654 02ca 062A     		cmp	r2, #6
 5655 02cc 18BF     		it	ne
 5656 02ce B2F5803F 		cmpne	r2, #65536
 5657 02d2 15D0     		beq	.L704
 5658 02d4 1A68     		ldr	r2, [r3]
 5659 02d6 42F00102 		orr	r2, r2, #1
 5660 02da 1A60     		str	r2, [r3]
 5661 02dc 0020     		movs	r0, #0
 5662 02de 02E0     		b	.L670
 5663              	.L696:
 5664 02e0 0220     		movs	r0, #2
 5665 02e2 00E0     		b	.L670
 5666              	.L697:
 5667 02e4 0120     		movs	r0, #1
ARM GAS  C:\Users\aticl\AppData\Local\Temp\ccqcvH4b.s 			page 97


 5668              	.L670:
 5669 02e6 38BD     		pop	{r3, r4, r5, pc}
 5670              	.L698:
 5671 02e8 0120     		movs	r0, #1
 5672 02ea FCE7     		b	.L670
 5673              	.L699:
 5674 02ec 0120     		movs	r0, #1
 5675 02ee FAE7     		b	.L670
 5676              	.L700:
 5677 02f0 0120     		movs	r0, #1
 5678 02f2 F8E7     		b	.L670
 5679              	.L701:
 5680 02f4 0120     		movs	r0, #1
 5681 02f6 F6E7     		b	.L670
 5682              	.L702:
 5683 02f8 0120     		movs	r0, #1
 5684 02fa F4E7     		b	.L670
 5685              	.L703:
 5686 02fc 0120     		movs	r0, #1
 5687 02fe F2E7     		b	.L670
 5688              	.L704:
 5689 0300 0020     		movs	r0, #0
 5690 0302 F0E7     		b	.L670
 5691              	.L711:
 5692              		.align	2
 5693              	.L710:
 5694 0304 00000000 		.word	TIM_DMADelayPulseCplt
 5695 0308 00000000 		.word	TIM_DMADelayPulseHalfCplt
 5696 030c 00000000 		.word	TIM_DMAError
 5697 0310 00000140 		.word	1073807360
 5698 0314 00040140 		.word	1073808384
 5699 0318 07000100 		.word	65543
 5701              		.section	.text.HAL_TIM_OC_Stop_DMA,"ax",%progbits
 5702              		.align	1
 5703              		.global	HAL_TIM_OC_Stop_DMA
 5704              		.syntax unified
 5705              		.thumb
 5706              		.thumb_func
 5708              	HAL_TIM_OC_Stop_DMA:
 5709              		@ args = 0, pretend = 0, frame = 0
 5710              		@ frame_needed = 0, uses_anonymous_args = 0
 5711 0000 38B5     		push	{r3, r4, r5, lr}
 5712 0002 0546     		mov	r5, r0
 5713 0004 0C46     		mov	r4, r1
 5714 0006 0C29     		cmp	r1, #12
 5715 0008 00F28C80 		bhi	.L730
 5716 000c DFE801F0 		tbb	[pc, r1]
 5717              	.L715:
 5718 0010 07       		.byte	(.L718-.L715)/2
 5719 0011 8A       		.byte	(.L730-.L715)/2
 5720 0012 8A       		.byte	(.L730-.L715)/2
 5721 0013 8A       		.byte	(.L730-.L715)/2
 5722 0014 51       		.byte	(.L717-.L715)/2
 5723 0015 8A       		.byte	(.L730-.L715)/2
 5724 0016 8A       		.byte	(.L730-.L715)/2
 5725 0017 8A       		.byte	(.L730-.L715)/2
 5726 0018 5A       		.byte	(.L716-.L715)/2
ARM GAS  C:\Users\aticl\AppData\Local\Temp\ccqcvH4b.s 			page 98


 5727 0019 8A       		.byte	(.L730-.L715)/2
 5728 001a 8A       		.byte	(.L730-.L715)/2
 5729 001b 8A       		.byte	(.L730-.L715)/2
 5730 001c 63       		.byte	(.L714-.L715)/2
 5731 001d 00       		.p2align 1
 5732              	.L718:
 5733 001e 0268     		ldr	r2, [r0]
 5734 0020 D368     		ldr	r3, [r2, #12]
 5735 0022 23F40073 		bic	r3, r3, #512
 5736 0026 D360     		str	r3, [r2, #12]
 5737 0028 406A     		ldr	r0, [r0, #36]
 5738 002a FFF7FEFF 		bl	HAL_DMA_Abort_IT
 5739              	.L719:
 5740 002e 0022     		movs	r2, #0
 5741 0030 2146     		mov	r1, r4
 5742 0032 2868     		ldr	r0, [r5]
 5743 0034 FFF7FEFF 		bl	TIM_CCxChannelCmd
 5744 0038 2B68     		ldr	r3, [r5]
 5745 003a 3B49     		ldr	r1, .L732
 5746 003c 3B4A     		ldr	r2, .L732+4
 5747 003e 9342     		cmp	r3, r2
 5748 0040 18BF     		it	ne
 5749 0042 8B42     		cmpne	r3, r1
 5750 0044 0BD0     		beq	.L720
 5751 0046 02F57052 		add	r2, r2, #15360
 5752 004a 9342     		cmp	r3, r2
 5753 004c 07D0     		beq	.L720
 5754 004e 02F58062 		add	r2, r2, #1024
 5755 0052 9342     		cmp	r3, r2
 5756 0054 03D0     		beq	.L720
 5757 0056 02F58062 		add	r2, r2, #1024
 5758 005a 9342     		cmp	r3, r2
 5759 005c 0DD1     		bne	.L721
 5760              	.L720:
 5761 005e 196A     		ldr	r1, [r3, #32]
 5762 0060 41F21112 		movw	r2, #4369
 5763 0064 1142     		tst	r1, r2
 5764 0066 08D1     		bne	.L721
 5765 0068 196A     		ldr	r1, [r3, #32]
 5766 006a 40F24442 		movw	r2, #1092
 5767 006e 1142     		tst	r1, r2
 5768 0070 03D1     		bne	.L721
 5769 0072 5A6C     		ldr	r2, [r3, #68]
 5770 0074 22F40042 		bic	r2, r2, #32768
 5771 0078 5A64     		str	r2, [r3, #68]
 5772              	.L721:
 5773 007a 2B68     		ldr	r3, [r5]
 5774 007c 196A     		ldr	r1, [r3, #32]
 5775 007e 41F21112 		movw	r2, #4369
 5776 0082 1142     		tst	r1, r2
 5777 0084 08D1     		bne	.L722
 5778 0086 196A     		ldr	r1, [r3, #32]
 5779 0088 40F24442 		movw	r2, #1092
 5780 008c 1142     		tst	r1, r2
 5781 008e 03D1     		bne	.L722
 5782 0090 1A68     		ldr	r2, [r3]
 5783 0092 22F00102 		bic	r2, r2, #1
ARM GAS  C:\Users\aticl\AppData\Local\Temp\ccqcvH4b.s 			page 99


 5784 0096 1A60     		str	r2, [r3]
 5785              	.L722:
 5786 0098 102C     		cmp	r4, #16
 5787 009a 3ED8     		bhi	.L723
 5788 009c DFE804F0 		tbb	[pc, r4]
 5789              	.L725:
 5790 00a0 24       		.byte	(.L729-.L725)/2
 5791 00a1 3D       		.byte	(.L723-.L725)/2
 5792 00a2 3D       		.byte	(.L723-.L725)/2
 5793 00a3 3D       		.byte	(.L723-.L725)/2
 5794 00a4 29       		.byte	(.L728-.L725)/2
 5795 00a5 3D       		.byte	(.L723-.L725)/2
 5796 00a6 3D       		.byte	(.L723-.L725)/2
 5797 00a7 3D       		.byte	(.L723-.L725)/2
 5798 00a8 2E       		.byte	(.L727-.L725)/2
 5799 00a9 3D       		.byte	(.L723-.L725)/2
 5800 00aa 3D       		.byte	(.L723-.L725)/2
 5801 00ab 3D       		.byte	(.L723-.L725)/2
 5802 00ac 33       		.byte	(.L726-.L725)/2
 5803 00ad 3D       		.byte	(.L723-.L725)/2
 5804 00ae 3D       		.byte	(.L723-.L725)/2
 5805 00af 3D       		.byte	(.L723-.L725)/2
 5806 00b0 38       		.byte	(.L724-.L725)/2
 5807 00b1 00       		.p2align 1
 5808              	.L717:
 5809 00b2 0268     		ldr	r2, [r0]
 5810 00b4 D368     		ldr	r3, [r2, #12]
 5811 00b6 23F48063 		bic	r3, r3, #1024
 5812 00ba D360     		str	r3, [r2, #12]
 5813 00bc 806A     		ldr	r0, [r0, #40]
 5814 00be FFF7FEFF 		bl	HAL_DMA_Abort_IT
 5815 00c2 B4E7     		b	.L719
 5816              	.L716:
 5817 00c4 0268     		ldr	r2, [r0]
 5818 00c6 D368     		ldr	r3, [r2, #12]
 5819 00c8 23F40063 		bic	r3, r3, #2048
 5820 00cc D360     		str	r3, [r2, #12]
 5821 00ce C06A     		ldr	r0, [r0, #44]
 5822 00d0 FFF7FEFF 		bl	HAL_DMA_Abort_IT
 5823 00d4 ABE7     		b	.L719
 5824              	.L714:
 5825 00d6 0268     		ldr	r2, [r0]
 5826 00d8 D368     		ldr	r3, [r2, #12]
 5827 00da 23F48053 		bic	r3, r3, #4096
 5828 00de D360     		str	r3, [r2, #12]
 5829 00e0 006B     		ldr	r0, [r0, #48]
 5830 00e2 FFF7FEFF 		bl	HAL_DMA_Abort_IT
 5831 00e6 A2E7     		b	.L719
 5832              	.L729:
 5833 00e8 0123     		movs	r3, #1
 5834 00ea 85F83E30 		strb	r3, [r5, #62]
 5835 00ee 0020     		movs	r0, #0
 5836 00f0 19E0     		b	.L713
 5837              	.L728:
 5838 00f2 0123     		movs	r3, #1
 5839 00f4 85F83F30 		strb	r3, [r5, #63]
 5840 00f8 0020     		movs	r0, #0
ARM GAS  C:\Users\aticl\AppData\Local\Temp\ccqcvH4b.s 			page 100


 5841 00fa 14E0     		b	.L713
 5842              	.L727:
 5843 00fc 0123     		movs	r3, #1
 5844 00fe 85F84030 		strb	r3, [r5, #64]
 5845 0102 0020     		movs	r0, #0
 5846 0104 0FE0     		b	.L713
 5847              	.L726:
 5848 0106 0123     		movs	r3, #1
 5849 0108 85F84130 		strb	r3, [r5, #65]
 5850 010c 0020     		movs	r0, #0
 5851 010e 0AE0     		b	.L713
 5852              	.L724:
 5853 0110 0123     		movs	r3, #1
 5854 0112 85F84230 		strb	r3, [r5, #66]
 5855 0116 0020     		movs	r0, #0
 5856 0118 05E0     		b	.L713
 5857              	.L723:
 5858 011a 0123     		movs	r3, #1
 5859 011c 85F84330 		strb	r3, [r5, #67]
 5860 0120 0020     		movs	r0, #0
 5861 0122 00E0     		b	.L713
 5862              	.L730:
 5863 0124 0120     		movs	r0, #1
 5864              	.L713:
 5865 0126 38BD     		pop	{r3, r4, r5, pc}
 5866              	.L733:
 5867              		.align	2
 5868              	.L732:
 5869 0128 00000140 		.word	1073807360
 5870 012c 00040140 		.word	1073808384
 5872              		.section	.text.HAL_TIM_PWM_Start,"ax",%progbits
 5873              		.align	1
 5874              		.global	HAL_TIM_PWM_Start
 5875              		.syntax unified
 5876              		.thumb
 5877              		.thumb_func
 5879              	HAL_TIM_PWM_Start:
 5880              		@ args = 0, pretend = 0, frame = 0
 5881              		@ frame_needed = 0, uses_anonymous_args = 0
 5882 0000 10B5     		push	{r4, lr}
 5883 0002 0446     		mov	r4, r0
 5884 0004 1029     		cmp	r1, #16
 5885 0006 28D8     		bhi	.L735
 5886 0008 DFE801F0 		tbb	[pc, r1]
 5887              	.L737:
 5888 000c 09       		.byte	(.L741-.L737)/2
 5889 000d 27       		.byte	(.L735-.L737)/2
 5890 000e 27       		.byte	(.L735-.L737)/2
 5891 000f 27       		.byte	(.L735-.L737)/2
 5892 0010 0F       		.byte	(.L740-.L737)/2
 5893 0011 27       		.byte	(.L735-.L737)/2
 5894 0012 27       		.byte	(.L735-.L737)/2
 5895 0013 27       		.byte	(.L735-.L737)/2
 5896 0014 15       		.byte	(.L739-.L737)/2
 5897 0015 27       		.byte	(.L735-.L737)/2
 5898 0016 27       		.byte	(.L735-.L737)/2
 5899 0017 27       		.byte	(.L735-.L737)/2
ARM GAS  C:\Users\aticl\AppData\Local\Temp\ccqcvH4b.s 			page 101


 5900 0018 1B       		.byte	(.L738-.L737)/2
 5901 0019 27       		.byte	(.L735-.L737)/2
 5902 001a 27       		.byte	(.L735-.L737)/2
 5903 001b 27       		.byte	(.L735-.L737)/2
 5904 001c 21       		.byte	(.L736-.L737)/2
 5905 001d 00       		.p2align 1
 5906              	.L741:
 5907 001e 90F83E30 		ldrb	r3, [r0, #62]	@ zero_extendqisi2
 5908 0022 013B     		subs	r3, r3, #1
 5909 0024 18BF     		it	ne
 5910 0026 0123     		movne	r3, #1
 5911 0028 1CE0     		b	.L742
 5912              	.L740:
 5913 002a 90F83F30 		ldrb	r3, [r0, #63]	@ zero_extendqisi2
 5914 002e 013B     		subs	r3, r3, #1
 5915 0030 18BF     		it	ne
 5916 0032 0123     		movne	r3, #1
 5917 0034 16E0     		b	.L742
 5918              	.L739:
 5919 0036 90F84030 		ldrb	r3, [r0, #64]	@ zero_extendqisi2
 5920 003a 013B     		subs	r3, r3, #1
 5921 003c 18BF     		it	ne
 5922 003e 0123     		movne	r3, #1
 5923 0040 10E0     		b	.L742
 5924              	.L738:
 5925 0042 90F84130 		ldrb	r3, [r0, #65]	@ zero_extendqisi2
 5926 0046 013B     		subs	r3, r3, #1
 5927 0048 18BF     		it	ne
 5928 004a 0123     		movne	r3, #1
 5929 004c 0AE0     		b	.L742
 5930              	.L736:
 5931 004e 90F84230 		ldrb	r3, [r0, #66]	@ zero_extendqisi2
 5932 0052 013B     		subs	r3, r3, #1
 5933 0054 18BF     		it	ne
 5934 0056 0123     		movne	r3, #1
 5935 0058 04E0     		b	.L742
 5936              	.L735:
 5937 005a 90F84330 		ldrb	r3, [r0, #67]	@ zero_extendqisi2
 5938 005e 013B     		subs	r3, r3, #1
 5939 0060 18BF     		it	ne
 5940 0062 0123     		movne	r3, #1
 5941              	.L742:
 5942 0064 002B     		cmp	r3, #0
 5943 0066 71D1     		bne	.L756
 5944 0068 1029     		cmp	r1, #16
 5945 006a 1ED8     		bhi	.L744
 5946 006c DFE801F0 		tbb	[pc, r1]
 5947              	.L746:
 5948 0070 09       		.byte	(.L750-.L746)/2
 5949 0071 1D       		.byte	(.L744-.L746)/2
 5950 0072 1D       		.byte	(.L744-.L746)/2
 5951 0073 1D       		.byte	(.L744-.L746)/2
 5952 0074 0D       		.byte	(.L749-.L746)/2
 5953 0075 1D       		.byte	(.L744-.L746)/2
 5954 0076 1D       		.byte	(.L744-.L746)/2
 5955 0077 1D       		.byte	(.L744-.L746)/2
 5956 0078 11       		.byte	(.L748-.L746)/2
ARM GAS  C:\Users\aticl\AppData\Local\Temp\ccqcvH4b.s 			page 102


 5957 0079 1D       		.byte	(.L744-.L746)/2
 5958 007a 1D       		.byte	(.L744-.L746)/2
 5959 007b 1D       		.byte	(.L744-.L746)/2
 5960 007c 15       		.byte	(.L747-.L746)/2
 5961 007d 1D       		.byte	(.L744-.L746)/2
 5962 007e 1D       		.byte	(.L744-.L746)/2
 5963 007f 1D       		.byte	(.L744-.L746)/2
 5964 0080 19       		.byte	(.L745-.L746)/2
 5965 0081 00       		.p2align 1
 5966              	.L750:
 5967 0082 0223     		movs	r3, #2
 5968 0084 84F83E30 		strb	r3, [r4, #62]
 5969 0088 12E0     		b	.L751
 5970              	.L749:
 5971 008a 0223     		movs	r3, #2
 5972 008c 84F83F30 		strb	r3, [r4, #63]
 5973 0090 0EE0     		b	.L751
 5974              	.L748:
 5975 0092 0223     		movs	r3, #2
 5976 0094 84F84030 		strb	r3, [r4, #64]
 5977 0098 0AE0     		b	.L751
 5978              	.L747:
 5979 009a 0223     		movs	r3, #2
 5980 009c 84F84130 		strb	r3, [r4, #65]
 5981 00a0 06E0     		b	.L751
 5982              	.L745:
 5983 00a2 0223     		movs	r3, #2
 5984 00a4 84F84230 		strb	r3, [r4, #66]
 5985 00a8 02E0     		b	.L751
 5986              	.L744:
 5987 00aa 0223     		movs	r3, #2
 5988 00ac 84F84330 		strb	r3, [r4, #67]
 5989              	.L751:
 5990 00b0 0122     		movs	r2, #1
 5991 00b2 2068     		ldr	r0, [r4]
 5992 00b4 FFF7FEFF 		bl	TIM_CCxChannelCmd
 5993 00b8 2368     		ldr	r3, [r4]
 5994 00ba 2649     		ldr	r1, .L759
 5995 00bc 264A     		ldr	r2, .L759+4
 5996 00be 9342     		cmp	r3, r2
 5997 00c0 18BF     		it	ne
 5998 00c2 8B42     		cmpne	r3, r1
 5999 00c4 0BD0     		beq	.L752
 6000 00c6 02F57052 		add	r2, r2, #15360
 6001 00ca 9342     		cmp	r3, r2
 6002 00cc 07D0     		beq	.L752
 6003 00ce 02F58062 		add	r2, r2, #1024
 6004 00d2 9342     		cmp	r3, r2
 6005 00d4 03D0     		beq	.L752
 6006 00d6 02F58062 		add	r2, r2, #1024
 6007 00da 9342     		cmp	r3, r2
 6008 00dc 03D1     		bne	.L753
 6009              	.L752:
 6010 00de 5A6C     		ldr	r2, [r3, #68]
 6011 00e0 42F40042 		orr	r2, r2, #32768
 6012 00e4 5A64     		str	r2, [r3, #68]
 6013              	.L753:
ARM GAS  C:\Users\aticl\AppData\Local\Temp\ccqcvH4b.s 			page 103


 6014 00e6 2368     		ldr	r3, [r4]
 6015 00e8 1A4A     		ldr	r2, .L759
 6016 00ea B3F1804F 		cmp	r3, #1073741824
 6017 00ee 18BF     		it	ne
 6018 00f0 9342     		cmpne	r3, r2
 6019 00f2 1DD0     		beq	.L754
 6020 00f4 A2F57C42 		sub	r2, r2, #64512
 6021 00f8 9342     		cmp	r3, r2
 6022 00fa 19D0     		beq	.L754
 6023 00fc 02F58062 		add	r2, r2, #1024
 6024 0100 9342     		cmp	r3, r2
 6025 0102 15D0     		beq	.L754
 6026 0104 02F58062 		add	r2, r2, #1024
 6027 0108 9342     		cmp	r3, r2
 6028 010a 11D0     		beq	.L754
 6029 010c 02F57842 		add	r2, r2, #63488
 6030 0110 9342     		cmp	r3, r2
 6031 0112 0DD0     		beq	.L754
 6032 0114 A2F56C42 		sub	r2, r2, #60416
 6033 0118 9342     		cmp	r3, r2
 6034 011a 09D0     		beq	.L754
 6035 011c 02F59432 		add	r2, r2, #75776
 6036 0120 9342     		cmp	r3, r2
 6037 0122 05D0     		beq	.L754
 6038 0124 1A68     		ldr	r2, [r3]
 6039 0126 42F00102 		orr	r2, r2, #1
 6040 012a 1A60     		str	r2, [r3]
 6041 012c 0020     		movs	r0, #0
 6042 012e 0EE0     		b	.L743
 6043              	.L754:
 6044 0130 9968     		ldr	r1, [r3, #8]
 6045 0132 0A4A     		ldr	r2, .L759+8
 6046 0134 0A40     		ands	r2, r2, r1
 6047 0136 062A     		cmp	r2, #6
 6048 0138 18BF     		it	ne
 6049 013a B2F5803F 		cmpne	r2, #65536
 6050 013e 07D0     		beq	.L757
 6051 0140 1A68     		ldr	r2, [r3]
 6052 0142 42F00102 		orr	r2, r2, #1
 6053 0146 1A60     		str	r2, [r3]
 6054 0148 0020     		movs	r0, #0
 6055 014a 00E0     		b	.L743
 6056              	.L756:
 6057 014c 0120     		movs	r0, #1
 6058              	.L743:
 6059 014e 10BD     		pop	{r4, pc}
 6060              	.L757:
 6061 0150 0020     		movs	r0, #0
 6062 0152 FCE7     		b	.L743
 6063              	.L760:
 6064              		.align	2
 6065              	.L759:
 6066 0154 00000140 		.word	1073807360
 6067 0158 00040140 		.word	1073808384
 6068 015c 07000100 		.word	65543
 6070              		.section	.text.HAL_TIM_PWM_Stop,"ax",%progbits
 6071              		.align	1
ARM GAS  C:\Users\aticl\AppData\Local\Temp\ccqcvH4b.s 			page 104


 6072              		.global	HAL_TIM_PWM_Stop
 6073              		.syntax unified
 6074              		.thumb
 6075              		.thumb_func
 6077              	HAL_TIM_PWM_Stop:
 6078              		@ args = 0, pretend = 0, frame = 0
 6079              		@ frame_needed = 0, uses_anonymous_args = 0
 6080 0000 38B5     		push	{r3, r4, r5, lr}
 6081 0002 0446     		mov	r4, r0
 6082 0004 0D46     		mov	r5, r1
 6083 0006 0022     		movs	r2, #0
 6084 0008 0068     		ldr	r0, [r0]
 6085 000a FFF7FEFF 		bl	TIM_CCxChannelCmd
 6086 000e 2368     		ldr	r3, [r4]
 6087 0010 2A49     		ldr	r1, .L774
 6088 0012 2B4A     		ldr	r2, .L774+4
 6089 0014 9342     		cmp	r3, r2
 6090 0016 18BF     		it	ne
 6091 0018 8B42     		cmpne	r3, r1
 6092 001a 0BD0     		beq	.L762
 6093 001c 02F57052 		add	r2, r2, #15360
 6094 0020 9342     		cmp	r3, r2
 6095 0022 07D0     		beq	.L762
 6096 0024 02F58062 		add	r2, r2, #1024
 6097 0028 9342     		cmp	r3, r2
 6098 002a 03D0     		beq	.L762
 6099 002c 02F58062 		add	r2, r2, #1024
 6100 0030 9342     		cmp	r3, r2
 6101 0032 0DD1     		bne	.L763
 6102              	.L762:
 6103 0034 196A     		ldr	r1, [r3, #32]
 6104 0036 41F21112 		movw	r2, #4369
 6105 003a 1142     		tst	r1, r2
 6106 003c 08D1     		bne	.L763
 6107 003e 196A     		ldr	r1, [r3, #32]
 6108 0040 40F24442 		movw	r2, #1092
 6109 0044 1142     		tst	r1, r2
 6110 0046 03D1     		bne	.L763
 6111 0048 5A6C     		ldr	r2, [r3, #68]
 6112 004a 22F40042 		bic	r2, r2, #32768
 6113 004e 5A64     		str	r2, [r3, #68]
 6114              	.L763:
 6115 0050 2368     		ldr	r3, [r4]
 6116 0052 196A     		ldr	r1, [r3, #32]
 6117 0054 41F21112 		movw	r2, #4369
 6118 0058 1142     		tst	r1, r2
 6119 005a 08D1     		bne	.L764
 6120 005c 196A     		ldr	r1, [r3, #32]
 6121 005e 40F24442 		movw	r2, #1092
 6122 0062 1142     		tst	r1, r2
 6123 0064 03D1     		bne	.L764
 6124 0066 1A68     		ldr	r2, [r3]
 6125 0068 22F00102 		bic	r2, r2, #1
 6126 006c 1A60     		str	r2, [r3]
 6127              	.L764:
 6128 006e 102D     		cmp	r5, #16
 6129 0070 1ED8     		bhi	.L765
ARM GAS  C:\Users\aticl\AppData\Local\Temp\ccqcvH4b.s 			page 105


 6130 0072 DFE805F0 		tbb	[pc, r5]
 6131              	.L767:
 6132 0076 09       		.byte	(.L771-.L767)/2
 6133 0077 1D       		.byte	(.L765-.L767)/2
 6134 0078 1D       		.byte	(.L765-.L767)/2
 6135 0079 1D       		.byte	(.L765-.L767)/2
 6136 007a 0D       		.byte	(.L770-.L767)/2
 6137 007b 1D       		.byte	(.L765-.L767)/2
 6138 007c 1D       		.byte	(.L765-.L767)/2
 6139 007d 1D       		.byte	(.L765-.L767)/2
 6140 007e 11       		.byte	(.L769-.L767)/2
 6141 007f 1D       		.byte	(.L765-.L767)/2
 6142 0080 1D       		.byte	(.L765-.L767)/2
 6143 0081 1D       		.byte	(.L765-.L767)/2
 6144 0082 15       		.byte	(.L768-.L767)/2
 6145 0083 1D       		.byte	(.L765-.L767)/2
 6146 0084 1D       		.byte	(.L765-.L767)/2
 6147 0085 1D       		.byte	(.L765-.L767)/2
 6148 0086 19       		.byte	(.L766-.L767)/2
 6149 0087 00       		.p2align 1
 6150              	.L771:
 6151 0088 0123     		movs	r3, #1
 6152 008a 84F83E30 		strb	r3, [r4, #62]
 6153 008e 12E0     		b	.L772
 6154              	.L770:
 6155 0090 0123     		movs	r3, #1
 6156 0092 84F83F30 		strb	r3, [r4, #63]
 6157 0096 0EE0     		b	.L772
 6158              	.L769:
 6159 0098 0123     		movs	r3, #1
 6160 009a 84F84030 		strb	r3, [r4, #64]
 6161 009e 0AE0     		b	.L772
 6162              	.L768:
 6163 00a0 0123     		movs	r3, #1
 6164 00a2 84F84130 		strb	r3, [r4, #65]
 6165 00a6 06E0     		b	.L772
 6166              	.L766:
 6167 00a8 0123     		movs	r3, #1
 6168 00aa 84F84230 		strb	r3, [r4, #66]
 6169 00ae 02E0     		b	.L772
 6170              	.L765:
 6171 00b0 0123     		movs	r3, #1
 6172 00b2 84F84330 		strb	r3, [r4, #67]
 6173              	.L772:
 6174 00b6 0020     		movs	r0, #0
 6175 00b8 38BD     		pop	{r3, r4, r5, pc}
 6176              	.L775:
 6177 00ba 00BF     		.align	2
 6178              	.L774:
 6179 00bc 00000140 		.word	1073807360
 6180 00c0 00040140 		.word	1073808384
 6182              		.section	.text.HAL_TIM_PWM_Start_IT,"ax",%progbits
 6183              		.align	1
 6184              		.global	HAL_TIM_PWM_Start_IT
 6185              		.syntax unified
 6186              		.thumb
 6187              		.thumb_func
ARM GAS  C:\Users\aticl\AppData\Local\Temp\ccqcvH4b.s 			page 106


 6189              	HAL_TIM_PWM_Start_IT:
 6190              		@ args = 0, pretend = 0, frame = 0
 6191              		@ frame_needed = 0, uses_anonymous_args = 0
 6192 0000 10B5     		push	{r4, lr}
 6193 0002 0446     		mov	r4, r0
 6194 0004 1029     		cmp	r1, #16
 6195 0006 28D8     		bhi	.L777
 6196 0008 DFE801F0 		tbb	[pc, r1]
 6197              	.L779:
 6198 000c 09       		.byte	(.L783-.L779)/2
 6199 000d 27       		.byte	(.L777-.L779)/2
 6200 000e 27       		.byte	(.L777-.L779)/2
 6201 000f 27       		.byte	(.L777-.L779)/2
 6202 0010 0F       		.byte	(.L782-.L779)/2
 6203 0011 27       		.byte	(.L777-.L779)/2
 6204 0012 27       		.byte	(.L777-.L779)/2
 6205 0013 27       		.byte	(.L777-.L779)/2
 6206 0014 15       		.byte	(.L781-.L779)/2
 6207 0015 27       		.byte	(.L777-.L779)/2
 6208 0016 27       		.byte	(.L777-.L779)/2
 6209 0017 27       		.byte	(.L777-.L779)/2
 6210 0018 1B       		.byte	(.L780-.L779)/2
 6211 0019 27       		.byte	(.L777-.L779)/2
 6212 001a 27       		.byte	(.L777-.L779)/2
 6213 001b 27       		.byte	(.L777-.L779)/2
 6214 001c 21       		.byte	(.L778-.L779)/2
 6215 001d 00       		.p2align 1
 6216              	.L783:
 6217 001e 90F83E30 		ldrb	r3, [r0, #62]	@ zero_extendqisi2
 6218 0022 013B     		subs	r3, r3, #1
 6219 0024 18BF     		it	ne
 6220 0026 0123     		movne	r3, #1
 6221 0028 1CE0     		b	.L784
 6222              	.L782:
 6223 002a 90F83F30 		ldrb	r3, [r0, #63]	@ zero_extendqisi2
 6224 002e 013B     		subs	r3, r3, #1
 6225 0030 18BF     		it	ne
 6226 0032 0123     		movne	r3, #1
 6227 0034 16E0     		b	.L784
 6228              	.L781:
 6229 0036 90F84030 		ldrb	r3, [r0, #64]	@ zero_extendqisi2
 6230 003a 013B     		subs	r3, r3, #1
 6231 003c 18BF     		it	ne
 6232 003e 0123     		movne	r3, #1
 6233 0040 10E0     		b	.L784
 6234              	.L780:
 6235 0042 90F84130 		ldrb	r3, [r0, #65]	@ zero_extendqisi2
 6236 0046 013B     		subs	r3, r3, #1
 6237 0048 18BF     		it	ne
 6238 004a 0123     		movne	r3, #1
 6239 004c 0AE0     		b	.L784
 6240              	.L778:
 6241 004e 90F84230 		ldrb	r3, [r0, #66]	@ zero_extendqisi2
 6242 0052 013B     		subs	r3, r3, #1
 6243 0054 18BF     		it	ne
 6244 0056 0123     		movne	r3, #1
 6245 0058 04E0     		b	.L784
ARM GAS  C:\Users\aticl\AppData\Local\Temp\ccqcvH4b.s 			page 107


 6246              	.L777:
 6247 005a 90F84330 		ldrb	r3, [r0, #67]	@ zero_extendqisi2
 6248 005e 013B     		subs	r3, r3, #1
 6249 0060 18BF     		it	ne
 6250 0062 0123     		movne	r3, #1
 6251              	.L784:
 6252 0064 002B     		cmp	r3, #0
 6253 0066 40F0A580 		bne	.L803
 6254 006a 1029     		cmp	r1, #16
 6255 006c 72D8     		bhi	.L786
 6256 006e DFE801F0 		tbb	[pc, r1]
 6257              	.L788:
 6258 0072 09       		.byte	(.L792-.L788)/2
 6259 0073 71       		.byte	(.L786-.L788)/2
 6260 0074 71       		.byte	(.L786-.L788)/2
 6261 0075 71       		.byte	(.L786-.L788)/2
 6262 0076 51       		.byte	(.L791-.L788)/2
 6263 0077 71       		.byte	(.L786-.L788)/2
 6264 0078 71       		.byte	(.L786-.L788)/2
 6265 0079 71       		.byte	(.L786-.L788)/2
 6266 007a 5A       		.byte	(.L790-.L788)/2
 6267 007b 71       		.byte	(.L786-.L788)/2
 6268 007c 71       		.byte	(.L786-.L788)/2
 6269 007d 71       		.byte	(.L786-.L788)/2
 6270 007e 63       		.byte	(.L789-.L788)/2
 6271 007f 71       		.byte	(.L786-.L788)/2
 6272 0080 71       		.byte	(.L786-.L788)/2
 6273 0081 71       		.byte	(.L786-.L788)/2
 6274 0082 6C       		.byte	(.L787-.L788)/2
 6275 0083 00       		.p2align 1
 6276              	.L792:
 6277 0084 0223     		movs	r3, #2
 6278 0086 84F83E30 		strb	r3, [r4, #62]
 6279              	.L793:
 6280 008a 2268     		ldr	r2, [r4]
 6281 008c D368     		ldr	r3, [r2, #12]
 6282 008e 43F00203 		orr	r3, r3, #2
 6283 0092 D360     		str	r3, [r2, #12]
 6284              	.L798:
 6285 0094 0122     		movs	r2, #1
 6286 0096 2068     		ldr	r0, [r4]
 6287 0098 FFF7FEFF 		bl	TIM_CCxChannelCmd
 6288 009c 2368     		ldr	r3, [r4]
 6289 009e 4849     		ldr	r1, .L811
 6290 00a0 484A     		ldr	r2, .L811+4
 6291 00a2 9342     		cmp	r3, r2
 6292 00a4 18BF     		it	ne
 6293 00a6 8B42     		cmpne	r3, r1
 6294 00a8 0BD0     		beq	.L799
 6295 00aa 02F57052 		add	r2, r2, #15360
 6296 00ae 9342     		cmp	r3, r2
 6297 00b0 07D0     		beq	.L799
 6298 00b2 02F58062 		add	r2, r2, #1024
 6299 00b6 9342     		cmp	r3, r2
 6300 00b8 03D0     		beq	.L799
 6301 00ba 02F58062 		add	r2, r2, #1024
 6302 00be 9342     		cmp	r3, r2
ARM GAS  C:\Users\aticl\AppData\Local\Temp\ccqcvH4b.s 			page 108


 6303 00c0 03D1     		bne	.L800
 6304              	.L799:
 6305 00c2 5A6C     		ldr	r2, [r3, #68]
 6306 00c4 42F40042 		orr	r2, r2, #32768
 6307 00c8 5A64     		str	r2, [r3, #68]
 6308              	.L800:
 6309 00ca 2368     		ldr	r3, [r4]
 6310 00cc 3C4A     		ldr	r2, .L811
 6311 00ce B3F1804F 		cmp	r3, #1073741824
 6312 00d2 18BF     		it	ne
 6313 00d4 9342     		cmpne	r3, r2
 6314 00d6 5FD0     		beq	.L801
 6315 00d8 A2F57C42 		sub	r2, r2, #64512
 6316 00dc 9342     		cmp	r3, r2
 6317 00de 5BD0     		beq	.L801
 6318 00e0 02F58062 		add	r2, r2, #1024
 6319 00e4 9342     		cmp	r3, r2
 6320 00e6 57D0     		beq	.L801
 6321 00e8 02F58062 		add	r2, r2, #1024
 6322 00ec 9342     		cmp	r3, r2
 6323 00ee 53D0     		beq	.L801
 6324 00f0 02F57842 		add	r2, r2, #63488
 6325 00f4 9342     		cmp	r3, r2
 6326 00f6 4FD0     		beq	.L801
 6327 00f8 A2F56C42 		sub	r2, r2, #60416
 6328 00fc 9342     		cmp	r3, r2
 6329 00fe 4BD0     		beq	.L801
 6330 0100 02F59432 		add	r2, r2, #75776
 6331 0104 9342     		cmp	r3, r2
 6332 0106 47D0     		beq	.L801
 6333 0108 1A68     		ldr	r2, [r3]
 6334 010a 42F00102 		orr	r2, r2, #1
 6335 010e 1A60     		str	r2, [r3]
 6336 0110 0020     		movs	r0, #0
 6337 0112 50E0     		b	.L785
 6338              	.L791:
 6339 0114 0223     		movs	r3, #2
 6340 0116 84F83F30 		strb	r3, [r4, #63]
 6341              	.L794:
 6342 011a 2268     		ldr	r2, [r4]
 6343 011c D368     		ldr	r3, [r2, #12]
 6344 011e 43F00403 		orr	r3, r3, #4
 6345 0122 D360     		str	r3, [r2, #12]
 6346 0124 B6E7     		b	.L798
 6347              	.L790:
 6348 0126 0223     		movs	r3, #2
 6349 0128 84F84030 		strb	r3, [r4, #64]
 6350              	.L795:
 6351 012c 2268     		ldr	r2, [r4]
 6352 012e D368     		ldr	r3, [r2, #12]
 6353 0130 43F00803 		orr	r3, r3, #8
 6354 0134 D360     		str	r3, [r2, #12]
 6355 0136 ADE7     		b	.L798
 6356              	.L789:
 6357 0138 0223     		movs	r3, #2
 6358 013a 84F84130 		strb	r3, [r4, #65]
 6359              	.L796:
ARM GAS  C:\Users\aticl\AppData\Local\Temp\ccqcvH4b.s 			page 109


 6360 013e 2268     		ldr	r2, [r4]
 6361 0140 D368     		ldr	r3, [r2, #12]
 6362 0142 43F01003 		orr	r3, r3, #16
 6363 0146 D360     		str	r3, [r2, #12]
 6364 0148 A4E7     		b	.L798
 6365              	.L787:
 6366 014a 0223     		movs	r3, #2
 6367 014c 84F84230 		strb	r3, [r4, #66]
 6368 0150 0120     		movs	r0, #1
 6369 0152 30E0     		b	.L785
 6370              	.L786:
 6371 0154 0223     		movs	r3, #2
 6372 0156 84F84330 		strb	r3, [r4, #67]
 6373 015a 0C29     		cmp	r1, #12
 6374 015c 2CD8     		bhi	.L804
 6375 015e 01A3     		adr	r3, .L797
 6376 0160 53F821F0 		ldr	pc, [r3, r1, lsl #2]
 6377              		.p2align 2
 6378              	.L797:
 6379 0164 8B000000 		.word	.L793+1
 6380 0168 B9010000 		.word	.L804+1
 6381 016c B9010000 		.word	.L804+1
 6382 0170 B9010000 		.word	.L804+1
 6383 0174 1B010000 		.word	.L794+1
 6384 0178 B9010000 		.word	.L804+1
 6385 017c B9010000 		.word	.L804+1
 6386 0180 B9010000 		.word	.L804+1
 6387 0184 2D010000 		.word	.L795+1
 6388 0188 B9010000 		.word	.L804+1
 6389 018c B9010000 		.word	.L804+1
 6390 0190 B9010000 		.word	.L804+1
 6391 0194 3F010000 		.word	.L796+1
 6392              		.p2align 1
 6393              	.L801:
 6394 0198 9968     		ldr	r1, [r3, #8]
 6395 019a 0B4A     		ldr	r2, .L811+8
 6396 019c 0A40     		ands	r2, r2, r1
 6397 019e 062A     		cmp	r2, #6
 6398 01a0 18BF     		it	ne
 6399 01a2 B2F5803F 		cmpne	r2, #65536
 6400 01a6 09D0     		beq	.L805
 6401 01a8 1A68     		ldr	r2, [r3]
 6402 01aa 42F00102 		orr	r2, r2, #1
 6403 01ae 1A60     		str	r2, [r3]
 6404 01b0 0020     		movs	r0, #0
 6405 01b2 00E0     		b	.L785
 6406              	.L803:
 6407 01b4 0120     		movs	r0, #1
 6408              	.L785:
 6409 01b6 10BD     		pop	{r4, pc}
 6410              	.L804:
 6411 01b8 0120     		movs	r0, #1
 6412 01ba FCE7     		b	.L785
 6413              	.L805:
 6414 01bc 0020     		movs	r0, #0
 6415 01be FAE7     		b	.L785
 6416              	.L812:
ARM GAS  C:\Users\aticl\AppData\Local\Temp\ccqcvH4b.s 			page 110


 6417              		.align	2
 6418              	.L811:
 6419 01c0 00000140 		.word	1073807360
 6420 01c4 00040140 		.word	1073808384
 6421 01c8 07000100 		.word	65543
 6423              		.section	.text.HAL_TIM_PWM_Stop_IT,"ax",%progbits
 6424              		.align	1
 6425              		.global	HAL_TIM_PWM_Stop_IT
 6426              		.syntax unified
 6427              		.thumb
 6428              		.thumb_func
 6430              	HAL_TIM_PWM_Stop_IT:
 6431              		@ args = 0, pretend = 0, frame = 0
 6432              		@ frame_needed = 0, uses_anonymous_args = 0
 6433 0000 38B5     		push	{r3, r4, r5, lr}
 6434 0002 0546     		mov	r5, r0
 6435 0004 0C46     		mov	r4, r1
 6436 0006 0C29     		cmp	r1, #12
 6437 0008 7FD8     		bhi	.L831
 6438 000a DFE801F0 		tbb	[pc, r1]
 6439              	.L816:
 6440 000e 07       		.byte	(.L819-.L816)/2
 6441 000f 7E       		.byte	(.L831-.L816)/2
 6442 0010 7E       		.byte	(.L831-.L816)/2
 6443 0011 7E       		.byte	(.L831-.L816)/2
 6444 0012 4E       		.byte	(.L818-.L816)/2
 6445 0013 7E       		.byte	(.L831-.L816)/2
 6446 0014 7E       		.byte	(.L831-.L816)/2
 6447 0015 7E       		.byte	(.L831-.L816)/2
 6448 0016 54       		.byte	(.L817-.L816)/2
 6449 0017 7E       		.byte	(.L831-.L816)/2
 6450 0018 7E       		.byte	(.L831-.L816)/2
 6451 0019 7E       		.byte	(.L831-.L816)/2
 6452 001a 5A       		.byte	(.L815-.L816)/2
 6453 001b 00       		.p2align 1
 6454              	.L819:
 6455 001c 0268     		ldr	r2, [r0]
 6456 001e D368     		ldr	r3, [r2, #12]
 6457 0020 23F00203 		bic	r3, r3, #2
 6458 0024 D360     		str	r3, [r2, #12]
 6459              	.L820:
 6460 0026 0022     		movs	r2, #0
 6461 0028 2146     		mov	r1, r4
 6462 002a 2868     		ldr	r0, [r5]
 6463 002c FFF7FEFF 		bl	TIM_CCxChannelCmd
 6464 0030 2B68     		ldr	r3, [r5]
 6465 0032 3749     		ldr	r1, .L833
 6466 0034 374A     		ldr	r2, .L833+4
 6467 0036 9342     		cmp	r3, r2
 6468 0038 18BF     		it	ne
 6469 003a 8B42     		cmpne	r3, r1
 6470 003c 0BD0     		beq	.L821
 6471 003e 02F57052 		add	r2, r2, #15360
 6472 0042 9342     		cmp	r3, r2
 6473 0044 07D0     		beq	.L821
 6474 0046 02F58062 		add	r2, r2, #1024
 6475 004a 9342     		cmp	r3, r2
ARM GAS  C:\Users\aticl\AppData\Local\Temp\ccqcvH4b.s 			page 111


 6476 004c 03D0     		beq	.L821
 6477 004e 02F58062 		add	r2, r2, #1024
 6478 0052 9342     		cmp	r3, r2
 6479 0054 0DD1     		bne	.L822
 6480              	.L821:
 6481 0056 196A     		ldr	r1, [r3, #32]
 6482 0058 41F21112 		movw	r2, #4369
 6483 005c 1142     		tst	r1, r2
 6484 005e 08D1     		bne	.L822
 6485 0060 196A     		ldr	r1, [r3, #32]
 6486 0062 40F24442 		movw	r2, #1092
 6487 0066 1142     		tst	r1, r2
 6488 0068 03D1     		bne	.L822
 6489 006a 5A6C     		ldr	r2, [r3, #68]
 6490 006c 22F40042 		bic	r2, r2, #32768
 6491 0070 5A64     		str	r2, [r3, #68]
 6492              	.L822:
 6493 0072 2B68     		ldr	r3, [r5]
 6494 0074 196A     		ldr	r1, [r3, #32]
 6495 0076 41F21112 		movw	r2, #4369
 6496 007a 1142     		tst	r1, r2
 6497 007c 08D1     		bne	.L823
 6498 007e 196A     		ldr	r1, [r3, #32]
 6499 0080 40F24442 		movw	r2, #1092
 6500 0084 1142     		tst	r1, r2
 6501 0086 03D1     		bne	.L823
 6502 0088 1A68     		ldr	r2, [r3]
 6503 008a 22F00102 		bic	r2, r2, #1
 6504 008e 1A60     		str	r2, [r3]
 6505              	.L823:
 6506 0090 102C     		cmp	r4, #16
 6507 0092 35D8     		bhi	.L824
 6508 0094 DFE804F0 		tbb	[pc, r4]
 6509              	.L826:
 6510 0098 1B       		.byte	(.L830-.L826)/2
 6511 0099 34       		.byte	(.L824-.L826)/2
 6512 009a 34       		.byte	(.L824-.L826)/2
 6513 009b 34       		.byte	(.L824-.L826)/2
 6514 009c 20       		.byte	(.L829-.L826)/2
 6515 009d 34       		.byte	(.L824-.L826)/2
 6516 009e 34       		.byte	(.L824-.L826)/2
 6517 009f 34       		.byte	(.L824-.L826)/2
 6518 00a0 25       		.byte	(.L828-.L826)/2
 6519 00a1 34       		.byte	(.L824-.L826)/2
 6520 00a2 34       		.byte	(.L824-.L826)/2
 6521 00a3 34       		.byte	(.L824-.L826)/2
 6522 00a4 2A       		.byte	(.L827-.L826)/2
 6523 00a5 34       		.byte	(.L824-.L826)/2
 6524 00a6 34       		.byte	(.L824-.L826)/2
 6525 00a7 34       		.byte	(.L824-.L826)/2
 6526 00a8 2F       		.byte	(.L825-.L826)/2
 6527 00a9 00       		.p2align 1
 6528              	.L818:
 6529 00aa 0268     		ldr	r2, [r0]
 6530 00ac D368     		ldr	r3, [r2, #12]
 6531 00ae 23F00403 		bic	r3, r3, #4
 6532 00b2 D360     		str	r3, [r2, #12]
ARM GAS  C:\Users\aticl\AppData\Local\Temp\ccqcvH4b.s 			page 112


 6533 00b4 B7E7     		b	.L820
 6534              	.L817:
 6535 00b6 0268     		ldr	r2, [r0]
 6536 00b8 D368     		ldr	r3, [r2, #12]
 6537 00ba 23F00803 		bic	r3, r3, #8
 6538 00be D360     		str	r3, [r2, #12]
 6539 00c0 B1E7     		b	.L820
 6540              	.L815:
 6541 00c2 0268     		ldr	r2, [r0]
 6542 00c4 D368     		ldr	r3, [r2, #12]
 6543 00c6 23F01003 		bic	r3, r3, #16
 6544 00ca D360     		str	r3, [r2, #12]
 6545 00cc ABE7     		b	.L820
 6546              	.L830:
 6547 00ce 0123     		movs	r3, #1
 6548 00d0 85F83E30 		strb	r3, [r5, #62]
 6549 00d4 0020     		movs	r0, #0
 6550 00d6 19E0     		b	.L814
 6551              	.L829:
 6552 00d8 0123     		movs	r3, #1
 6553 00da 85F83F30 		strb	r3, [r5, #63]
 6554 00de 0020     		movs	r0, #0
 6555 00e0 14E0     		b	.L814
 6556              	.L828:
 6557 00e2 0123     		movs	r3, #1
 6558 00e4 85F84030 		strb	r3, [r5, #64]
 6559 00e8 0020     		movs	r0, #0
 6560 00ea 0FE0     		b	.L814
 6561              	.L827:
 6562 00ec 0123     		movs	r3, #1
 6563 00ee 85F84130 		strb	r3, [r5, #65]
 6564 00f2 0020     		movs	r0, #0
 6565 00f4 0AE0     		b	.L814
 6566              	.L825:
 6567 00f6 0123     		movs	r3, #1
 6568 00f8 85F84230 		strb	r3, [r5, #66]
 6569 00fc 0020     		movs	r0, #0
 6570 00fe 05E0     		b	.L814
 6571              	.L824:
 6572 0100 0123     		movs	r3, #1
 6573 0102 85F84330 		strb	r3, [r5, #67]
 6574 0106 0020     		movs	r0, #0
 6575 0108 00E0     		b	.L814
 6576              	.L831:
 6577 010a 0120     		movs	r0, #1
 6578              	.L814:
 6579 010c 38BD     		pop	{r3, r4, r5, pc}
 6580              	.L834:
 6581 010e 00BF     		.align	2
 6582              	.L833:
 6583 0110 00000140 		.word	1073807360
 6584 0114 00040140 		.word	1073808384
 6586              		.section	.text.HAL_TIM_PWM_Start_DMA,"ax",%progbits
 6587              		.align	1
 6588              		.global	HAL_TIM_PWM_Start_DMA
 6589              		.syntax unified
 6590              		.thumb
ARM GAS  C:\Users\aticl\AppData\Local\Temp\ccqcvH4b.s 			page 113


 6591              		.thumb_func
 6593              	HAL_TIM_PWM_Start_DMA:
 6594              		@ args = 0, pretend = 0, frame = 0
 6595              		@ frame_needed = 0, uses_anonymous_args = 0
 6596 0000 38B5     		push	{r3, r4, r5, lr}
 6597 0002 0546     		mov	r5, r0
 6598 0004 0C46     		mov	r4, r1
 6599 0006 1146     		mov	r1, r2
 6600 0008 102C     		cmp	r4, #16
 6601 000a 2DD8     		bhi	.L836
 6602 000c DFE804F0 		tbb	[pc, r4]
 6603              	.L838:
 6604 0010 09       		.byte	(.L842-.L838)/2
 6605 0011 2C       		.byte	(.L836-.L838)/2
 6606 0012 2C       		.byte	(.L836-.L838)/2
 6607 0013 2C       		.byte	(.L836-.L838)/2
 6608 0014 10       		.byte	(.L841-.L838)/2
 6609 0015 2C       		.byte	(.L836-.L838)/2
 6610 0016 2C       		.byte	(.L836-.L838)/2
 6611 0017 2C       		.byte	(.L836-.L838)/2
 6612 0018 17       		.byte	(.L840-.L838)/2
 6613 0019 2C       		.byte	(.L836-.L838)/2
 6614 001a 2C       		.byte	(.L836-.L838)/2
 6615 001b 2C       		.byte	(.L836-.L838)/2
 6616 001c 1E       		.byte	(.L839-.L838)/2
 6617 001d 2C       		.byte	(.L836-.L838)/2
 6618 001e 2C       		.byte	(.L836-.L838)/2
 6619 001f 2C       		.byte	(.L836-.L838)/2
 6620 0020 25       		.byte	(.L837-.L838)/2
 6621 0021 00       		.p2align 1
 6622              	.L842:
 6623 0022 90F83E00 		ldrb	r0, [r0, #62]	@ zero_extendqisi2
 6624 0026 0228     		cmp	r0, #2
 6625 0028 14BF     		ite	ne
 6626 002a 0020     		movne	r0, #0
 6627 002c 0120     		moveq	r0, #1
 6628 002e 21E0     		b	.L843
 6629              	.L841:
 6630 0030 90F83F00 		ldrb	r0, [r0, #63]	@ zero_extendqisi2
 6631 0034 0228     		cmp	r0, #2
 6632 0036 14BF     		ite	ne
 6633 0038 0020     		movne	r0, #0
 6634 003a 0120     		moveq	r0, #1
 6635 003c 1AE0     		b	.L843
 6636              	.L840:
 6637 003e 90F84000 		ldrb	r0, [r0, #64]	@ zero_extendqisi2
 6638 0042 0228     		cmp	r0, #2
 6639 0044 14BF     		ite	ne
 6640 0046 0020     		movne	r0, #0
 6641 0048 0120     		moveq	r0, #1
 6642 004a 13E0     		b	.L843
 6643              	.L839:
 6644 004c 90F84100 		ldrb	r0, [r0, #65]	@ zero_extendqisi2
 6645 0050 0228     		cmp	r0, #2
 6646 0052 14BF     		ite	ne
 6647 0054 0020     		movne	r0, #0
 6648 0056 0120     		moveq	r0, #1
ARM GAS  C:\Users\aticl\AppData\Local\Temp\ccqcvH4b.s 			page 114


 6649 0058 0CE0     		b	.L843
 6650              	.L837:
 6651 005a 90F84200 		ldrb	r0, [r0, #66]	@ zero_extendqisi2
 6652 005e 0228     		cmp	r0, #2
 6653 0060 14BF     		ite	ne
 6654 0062 0020     		movne	r0, #0
 6655 0064 0120     		moveq	r0, #1
 6656 0066 05E0     		b	.L843
 6657              	.L836:
 6658 0068 90F84300 		ldrb	r0, [r0, #67]	@ zero_extendqisi2
 6659 006c 0228     		cmp	r0, #2
 6660 006e 14BF     		ite	ne
 6661 0070 0020     		movne	r0, #0
 6662 0072 0120     		moveq	r0, #1
 6663              	.L843:
 6664 0074 0028     		cmp	r0, #0
 6665 0076 40F03381 		bne	.L870
 6666 007a 102C     		cmp	r4, #16
 6667 007c 2DD8     		bhi	.L845
 6668 007e DFE804F0 		tbb	[pc, r4]
 6669              	.L847:
 6670 0082 09       		.byte	(.L851-.L847)/2
 6671 0083 2C       		.byte	(.L845-.L847)/2
 6672 0084 2C       		.byte	(.L845-.L847)/2
 6673 0085 2C       		.byte	(.L845-.L847)/2
 6674 0086 10       		.byte	(.L850-.L847)/2
 6675 0087 2C       		.byte	(.L845-.L847)/2
 6676 0088 2C       		.byte	(.L845-.L847)/2
 6677 0089 2C       		.byte	(.L845-.L847)/2
 6678 008a 17       		.byte	(.L849-.L847)/2
 6679 008b 2C       		.byte	(.L845-.L847)/2
 6680 008c 2C       		.byte	(.L845-.L847)/2
 6681 008d 2C       		.byte	(.L845-.L847)/2
 6682 008e 1E       		.byte	(.L848-.L847)/2
 6683 008f 2C       		.byte	(.L845-.L847)/2
 6684 0090 2C       		.byte	(.L845-.L847)/2
 6685 0091 2C       		.byte	(.L845-.L847)/2
 6686 0092 25       		.byte	(.L846-.L847)/2
 6687 0093 00       		.p2align 1
 6688              	.L851:
 6689 0094 95F83E20 		ldrb	r2, [r5, #62]	@ zero_extendqisi2
 6690 0098 012A     		cmp	r2, #1
 6691 009a 14BF     		ite	ne
 6692 009c 0022     		movne	r2, #0
 6693 009e 0122     		moveq	r2, #1
 6694 00a0 21E0     		b	.L852
 6695              	.L850:
 6696 00a2 95F83F20 		ldrb	r2, [r5, #63]	@ zero_extendqisi2
 6697 00a6 012A     		cmp	r2, #1
 6698 00a8 14BF     		ite	ne
 6699 00aa 0022     		movne	r2, #0
 6700 00ac 0122     		moveq	r2, #1
 6701 00ae 1AE0     		b	.L852
 6702              	.L849:
 6703 00b0 95F84020 		ldrb	r2, [r5, #64]	@ zero_extendqisi2
 6704 00b4 012A     		cmp	r2, #1
 6705 00b6 14BF     		ite	ne
ARM GAS  C:\Users\aticl\AppData\Local\Temp\ccqcvH4b.s 			page 115


 6706 00b8 0022     		movne	r2, #0
 6707 00ba 0122     		moveq	r2, #1
 6708 00bc 13E0     		b	.L852
 6709              	.L848:
 6710 00be 95F84120 		ldrb	r2, [r5, #65]	@ zero_extendqisi2
 6711 00c2 012A     		cmp	r2, #1
 6712 00c4 14BF     		ite	ne
 6713 00c6 0022     		movne	r2, #0
 6714 00c8 0122     		moveq	r2, #1
 6715 00ca 0CE0     		b	.L852
 6716              	.L846:
 6717 00cc 95F84220 		ldrb	r2, [r5, #66]	@ zero_extendqisi2
 6718 00d0 012A     		cmp	r2, #1
 6719 00d2 14BF     		ite	ne
 6720 00d4 0022     		movne	r2, #0
 6721 00d6 0122     		moveq	r2, #1
 6722 00d8 05E0     		b	.L852
 6723              	.L845:
 6724 00da 95F84320 		ldrb	r2, [r5, #67]	@ zero_extendqisi2
 6725 00de 012A     		cmp	r2, #1
 6726 00e0 14BF     		ite	ne
 6727 00e2 0022     		movne	r2, #0
 6728 00e4 0122     		moveq	r2, #1
 6729              	.L852:
 6730 00e6 002A     		cmp	r2, #0
 6731 00e8 00F0FC80 		beq	.L871
 6732 00ec 002B     		cmp	r3, #0
 6733 00ee 18BF     		it	ne
 6734 00f0 0029     		cmpne	r1, #0
 6735 00f2 00F0F980 		beq	.L872
 6736 00f6 102C     		cmp	r4, #16
 6737 00f8 00F2C280 		bhi	.L853
 6738 00fc DFE814F0 		tbh	[pc, r4, lsl #1]
 6739              	.L855:
 6740 0100 1100     		.2byte	(.L859-.L855)/2
 6741 0102 C000     		.2byte	(.L853-.L855)/2
 6742 0104 C000     		.2byte	(.L853-.L855)/2
 6743 0106 C000     		.2byte	(.L853-.L855)/2
 6744 0108 7000     		.2byte	(.L858-.L855)/2
 6745 010a C000     		.2byte	(.L853-.L855)/2
 6746 010c C000     		.2byte	(.L853-.L855)/2
 6747 010e C000     		.2byte	(.L853-.L855)/2
 6748 0110 8900     		.2byte	(.L857-.L855)/2
 6749 0112 C000     		.2byte	(.L853-.L855)/2
 6750 0114 C000     		.2byte	(.L853-.L855)/2
 6751 0116 C000     		.2byte	(.L853-.L855)/2
 6752 0118 A200     		.2byte	(.L856-.L855)/2
 6753 011a C000     		.2byte	(.L853-.L855)/2
 6754 011c C000     		.2byte	(.L853-.L855)/2
 6755 011e C000     		.2byte	(.L853-.L855)/2
 6756 0120 BB00     		.2byte	(.L854-.L855)/2
 6757              		.p2align 1
 6758              	.L859:
 6759 0122 0222     		movs	r2, #2
 6760 0124 85F83E20 		strb	r2, [r5, #62]
 6761              	.L860:
 6762 0128 6A6A     		ldr	r2, [r5, #36]
ARM GAS  C:\Users\aticl\AppData\Local\Temp\ccqcvH4b.s 			page 116


 6763 012a 7648     		ldr	r0, .L884
 6764 012c D063     		str	r0, [r2, #60]
 6765 012e 6A6A     		ldr	r2, [r5, #36]
 6766 0130 7548     		ldr	r0, .L884+4
 6767 0132 1064     		str	r0, [r2, #64]
 6768 0134 6A6A     		ldr	r2, [r5, #36]
 6769 0136 7548     		ldr	r0, .L884+8
 6770 0138 D064     		str	r0, [r2, #76]
 6771 013a 2A68     		ldr	r2, [r5]
 6772 013c 3432     		adds	r2, r2, #52
 6773 013e 686A     		ldr	r0, [r5, #36]
 6774 0140 FFF7FEFF 		bl	HAL_DMA_Start_IT
 6775 0144 0028     		cmp	r0, #0
 6776 0146 40F0D380 		bne	.L874
 6777 014a 2A68     		ldr	r2, [r5]
 6778 014c D368     		ldr	r3, [r2, #12]
 6779 014e 43F40073 		orr	r3, r3, #512
 6780 0152 D360     		str	r3, [r2, #12]
 6781              	.L865:
 6782 0154 0122     		movs	r2, #1
 6783 0156 2146     		mov	r1, r4
 6784 0158 2868     		ldr	r0, [r5]
 6785 015a FFF7FEFF 		bl	TIM_CCxChannelCmd
 6786 015e 2B68     		ldr	r3, [r5]
 6787 0160 6B49     		ldr	r1, .L884+12
 6788 0162 6C4A     		ldr	r2, .L884+16
 6789 0164 9342     		cmp	r3, r2
 6790 0166 18BF     		it	ne
 6791 0168 8B42     		cmpne	r3, r1
 6792 016a 0BD0     		beq	.L866
 6793 016c 02F57052 		add	r2, r2, #15360
 6794 0170 9342     		cmp	r3, r2
 6795 0172 07D0     		beq	.L866
 6796 0174 02F58062 		add	r2, r2, #1024
 6797 0178 9342     		cmp	r3, r2
 6798 017a 03D0     		beq	.L866
 6799 017c 02F58062 		add	r2, r2, #1024
 6800 0180 9342     		cmp	r3, r2
 6801 0182 03D1     		bne	.L867
 6802              	.L866:
 6803 0184 5A6C     		ldr	r2, [r3, #68]
 6804 0186 42F40042 		orr	r2, r2, #32768
 6805 018a 5A64     		str	r2, [r3, #68]
 6806              	.L867:
 6807 018c 2B68     		ldr	r3, [r5]
 6808 018e 604A     		ldr	r2, .L884+12
 6809 0190 B3F1804F 		cmp	r3, #1073741824
 6810 0194 18BF     		it	ne
 6811 0196 9342     		cmpne	r3, r2
 6812 0198 00F09480 		beq	.L868
 6813 019c A2F57C42 		sub	r2, r2, #64512
 6814 01a0 9342     		cmp	r3, r2
 6815 01a2 00F08F80 		beq	.L868
 6816 01a6 02F58062 		add	r2, r2, #1024
 6817 01aa 9342     		cmp	r3, r2
 6818 01ac 00F08A80 		beq	.L868
 6819 01b0 02F58062 		add	r2, r2, #1024
ARM GAS  C:\Users\aticl\AppData\Local\Temp\ccqcvH4b.s 			page 117


 6820 01b4 9342     		cmp	r3, r2
 6821 01b6 00F08580 		beq	.L868
 6822 01ba 02F57842 		add	r2, r2, #63488
 6823 01be 9342     		cmp	r3, r2
 6824 01c0 00F08080 		beq	.L868
 6825 01c4 A2F56C42 		sub	r2, r2, #60416
 6826 01c8 9342     		cmp	r3, r2
 6827 01ca 7BD0     		beq	.L868
 6828 01cc 02F59432 		add	r2, r2, #75776
 6829 01d0 9342     		cmp	r3, r2
 6830 01d2 77D0     		beq	.L868
 6831 01d4 1A68     		ldr	r2, [r3]
 6832 01d6 42F00102 		orr	r2, r2, #1
 6833 01da 1A60     		str	r2, [r3]
 6834 01dc 0020     		movs	r0, #0
 6835 01de 82E0     		b	.L844
 6836              	.L858:
 6837 01e0 0222     		movs	r2, #2
 6838 01e2 85F83F20 		strb	r2, [r5, #63]
 6839              	.L861:
 6840 01e6 AA6A     		ldr	r2, [r5, #40]
 6841 01e8 4648     		ldr	r0, .L884
 6842 01ea D063     		str	r0, [r2, #60]
 6843 01ec AA6A     		ldr	r2, [r5, #40]
 6844 01ee 4648     		ldr	r0, .L884+4
 6845 01f0 1064     		str	r0, [r2, #64]
 6846 01f2 AA6A     		ldr	r2, [r5, #40]
 6847 01f4 4548     		ldr	r0, .L884+8
 6848 01f6 D064     		str	r0, [r2, #76]
 6849 01f8 2A68     		ldr	r2, [r5]
 6850 01fa 3832     		adds	r2, r2, #56
 6851 01fc A86A     		ldr	r0, [r5, #40]
 6852 01fe FFF7FEFF 		bl	HAL_DMA_Start_IT
 6853 0202 0028     		cmp	r0, #0
 6854 0204 76D1     		bne	.L875
 6855 0206 2A68     		ldr	r2, [r5]
 6856 0208 D368     		ldr	r3, [r2, #12]
 6857 020a 43F48063 		orr	r3, r3, #1024
 6858 020e D360     		str	r3, [r2, #12]
 6859 0210 A0E7     		b	.L865
 6860              	.L857:
 6861 0212 0222     		movs	r2, #2
 6862 0214 85F84020 		strb	r2, [r5, #64]
 6863              	.L862:
 6864 0218 EA6A     		ldr	r2, [r5, #44]
 6865 021a 3A48     		ldr	r0, .L884
 6866 021c D063     		str	r0, [r2, #60]
 6867 021e EA6A     		ldr	r2, [r5, #44]
 6868 0220 3948     		ldr	r0, .L884+4
 6869 0222 1064     		str	r0, [r2, #64]
 6870 0224 EA6A     		ldr	r2, [r5, #44]
 6871 0226 3948     		ldr	r0, .L884+8
 6872 0228 D064     		str	r0, [r2, #76]
 6873 022a 2A68     		ldr	r2, [r5]
 6874 022c 3C32     		adds	r2, r2, #60
 6875 022e E86A     		ldr	r0, [r5, #44]
 6876 0230 FFF7FEFF 		bl	HAL_DMA_Start_IT
ARM GAS  C:\Users\aticl\AppData\Local\Temp\ccqcvH4b.s 			page 118


 6877 0234 0028     		cmp	r0, #0
 6878 0236 5FD1     		bne	.L876
 6879 0238 2A68     		ldr	r2, [r5]
 6880 023a D368     		ldr	r3, [r2, #12]
 6881 023c 43F40063 		orr	r3, r3, #2048
 6882 0240 D360     		str	r3, [r2, #12]
 6883 0242 87E7     		b	.L865
 6884              	.L856:
 6885 0244 0222     		movs	r2, #2
 6886 0246 85F84120 		strb	r2, [r5, #65]
 6887              	.L863:
 6888 024a 2A6B     		ldr	r2, [r5, #48]
 6889 024c 2D48     		ldr	r0, .L884
 6890 024e D063     		str	r0, [r2, #60]
 6891 0250 2A6B     		ldr	r2, [r5, #48]
 6892 0252 2D48     		ldr	r0, .L884+4
 6893 0254 1064     		str	r0, [r2, #64]
 6894 0256 2A6B     		ldr	r2, [r5, #48]
 6895 0258 2C48     		ldr	r0, .L884+8
 6896 025a D064     		str	r0, [r2, #76]
 6897 025c 2A68     		ldr	r2, [r5]
 6898 025e 4032     		adds	r2, r2, #64
 6899 0260 286B     		ldr	r0, [r5, #48]
 6900 0262 FFF7FEFF 		bl	HAL_DMA_Start_IT
 6901 0266 0028     		cmp	r0, #0
 6902 0268 48D1     		bne	.L877
 6903 026a 2A68     		ldr	r2, [r5]
 6904 026c D368     		ldr	r3, [r2, #12]
 6905 026e 43F48053 		orr	r3, r3, #4096
 6906 0272 D360     		str	r3, [r2, #12]
 6907 0274 6EE7     		b	.L865
 6908              	.L854:
 6909 0276 0223     		movs	r3, #2
 6910 0278 85F84230 		strb	r3, [r5, #66]
 6911 027c 0120     		movs	r0, #1
 6912 027e 32E0     		b	.L844
 6913              	.L853:
 6914 0280 0222     		movs	r2, #2
 6915 0282 85F84320 		strb	r2, [r5, #67]
 6916 0286 0C2C     		cmp	r4, #12
 6917 0288 30D8     		bhi	.L873
 6918 028a 01A2     		adr	r2, .L864
 6919 028c 52F824F0 		ldr	pc, [r2, r4, lsl #2]
 6920              		.p2align 2
 6921              	.L864:
 6922 0290 29010000 		.word	.L860+1
 6923 0294 ED020000 		.word	.L873+1
 6924 0298 ED020000 		.word	.L873+1
 6925 029c ED020000 		.word	.L873+1
 6926 02a0 E7010000 		.word	.L861+1
 6927 02a4 ED020000 		.word	.L873+1
 6928 02a8 ED020000 		.word	.L873+1
 6929 02ac ED020000 		.word	.L873+1
 6930 02b0 19020000 		.word	.L862+1
 6931 02b4 ED020000 		.word	.L873+1
 6932 02b8 ED020000 		.word	.L873+1
 6933 02bc ED020000 		.word	.L873+1
ARM GAS  C:\Users\aticl\AppData\Local\Temp\ccqcvH4b.s 			page 119


 6934 02c0 4B020000 		.word	.L863+1
 6935              		.p2align 1
 6936              	.L868:
 6937 02c4 9968     		ldr	r1, [r3, #8]
 6938 02c6 144A     		ldr	r2, .L884+20
 6939 02c8 0A40     		ands	r2, r2, r1
 6940 02ca 062A     		cmp	r2, #6
 6941 02cc 18BF     		it	ne
 6942 02ce B2F5803F 		cmpne	r2, #65536
 6943 02d2 15D0     		beq	.L878
 6944 02d4 1A68     		ldr	r2, [r3]
 6945 02d6 42F00102 		orr	r2, r2, #1
 6946 02da 1A60     		str	r2, [r3]
 6947 02dc 0020     		movs	r0, #0
 6948 02de 02E0     		b	.L844
 6949              	.L870:
 6950 02e0 0220     		movs	r0, #2
 6951 02e2 00E0     		b	.L844
 6952              	.L871:
 6953 02e4 0120     		movs	r0, #1
 6954              	.L844:
 6955 02e6 38BD     		pop	{r3, r4, r5, pc}
 6956              	.L872:
 6957 02e8 0120     		movs	r0, #1
 6958 02ea FCE7     		b	.L844
 6959              	.L873:
 6960 02ec 0120     		movs	r0, #1
 6961 02ee FAE7     		b	.L844
 6962              	.L874:
 6963 02f0 0120     		movs	r0, #1
 6964 02f2 F8E7     		b	.L844
 6965              	.L875:
 6966 02f4 0120     		movs	r0, #1
 6967 02f6 F6E7     		b	.L844
 6968              	.L876:
 6969 02f8 0120     		movs	r0, #1
 6970 02fa F4E7     		b	.L844
 6971              	.L877:
 6972 02fc 0120     		movs	r0, #1
 6973 02fe F2E7     		b	.L844
 6974              	.L878:
 6975 0300 0020     		movs	r0, #0
 6976 0302 F0E7     		b	.L844
 6977              	.L885:
 6978              		.align	2
 6979              	.L884:
 6980 0304 00000000 		.word	TIM_DMADelayPulseCplt
 6981 0308 00000000 		.word	TIM_DMADelayPulseHalfCplt
 6982 030c 00000000 		.word	TIM_DMAError
 6983 0310 00000140 		.word	1073807360
 6984 0314 00040140 		.word	1073808384
 6985 0318 07000100 		.word	65543
 6987              		.section	.text.HAL_TIM_PWM_Stop_DMA,"ax",%progbits
 6988              		.align	1
 6989              		.global	HAL_TIM_PWM_Stop_DMA
 6990              		.syntax unified
 6991              		.thumb
ARM GAS  C:\Users\aticl\AppData\Local\Temp\ccqcvH4b.s 			page 120


 6992              		.thumb_func
 6994              	HAL_TIM_PWM_Stop_DMA:
 6995              		@ args = 0, pretend = 0, frame = 0
 6996              		@ frame_needed = 0, uses_anonymous_args = 0
 6997 0000 38B5     		push	{r3, r4, r5, lr}
 6998 0002 0546     		mov	r5, r0
 6999 0004 0C46     		mov	r4, r1
 7000 0006 0C29     		cmp	r1, #12
 7001 0008 00F28C80 		bhi	.L904
 7002 000c DFE801F0 		tbb	[pc, r1]
 7003              	.L889:
 7004 0010 07       		.byte	(.L892-.L889)/2
 7005 0011 8A       		.byte	(.L904-.L889)/2
 7006 0012 8A       		.byte	(.L904-.L889)/2
 7007 0013 8A       		.byte	(.L904-.L889)/2
 7008 0014 51       		.byte	(.L891-.L889)/2
 7009 0015 8A       		.byte	(.L904-.L889)/2
 7010 0016 8A       		.byte	(.L904-.L889)/2
 7011 0017 8A       		.byte	(.L904-.L889)/2
 7012 0018 5A       		.byte	(.L890-.L889)/2
 7013 0019 8A       		.byte	(.L904-.L889)/2
 7014 001a 8A       		.byte	(.L904-.L889)/2
 7015 001b 8A       		.byte	(.L904-.L889)/2
 7016 001c 63       		.byte	(.L888-.L889)/2
 7017 001d 00       		.p2align 1
 7018              	.L892:
 7019 001e 0268     		ldr	r2, [r0]
 7020 0020 D368     		ldr	r3, [r2, #12]
 7021 0022 23F40073 		bic	r3, r3, #512
 7022 0026 D360     		str	r3, [r2, #12]
 7023 0028 406A     		ldr	r0, [r0, #36]
 7024 002a FFF7FEFF 		bl	HAL_DMA_Abort_IT
 7025              	.L893:
 7026 002e 0022     		movs	r2, #0
 7027 0030 2146     		mov	r1, r4
 7028 0032 2868     		ldr	r0, [r5]
 7029 0034 FFF7FEFF 		bl	TIM_CCxChannelCmd
 7030 0038 2B68     		ldr	r3, [r5]
 7031 003a 3B49     		ldr	r1, .L906
 7032 003c 3B4A     		ldr	r2, .L906+4
 7033 003e 9342     		cmp	r3, r2
 7034 0040 18BF     		it	ne
 7035 0042 8B42     		cmpne	r3, r1
 7036 0044 0BD0     		beq	.L894
 7037 0046 02F57052 		add	r2, r2, #15360
 7038 004a 9342     		cmp	r3, r2
 7039 004c 07D0     		beq	.L894
 7040 004e 02F58062 		add	r2, r2, #1024
 7041 0052 9342     		cmp	r3, r2
 7042 0054 03D0     		beq	.L894
 7043 0056 02F58062 		add	r2, r2, #1024
 7044 005a 9342     		cmp	r3, r2
 7045 005c 0DD1     		bne	.L895
 7046              	.L894:
 7047 005e 196A     		ldr	r1, [r3, #32]
 7048 0060 41F21112 		movw	r2, #4369
 7049 0064 1142     		tst	r1, r2
ARM GAS  C:\Users\aticl\AppData\Local\Temp\ccqcvH4b.s 			page 121


 7050 0066 08D1     		bne	.L895
 7051 0068 196A     		ldr	r1, [r3, #32]
 7052 006a 40F24442 		movw	r2, #1092
 7053 006e 1142     		tst	r1, r2
 7054 0070 03D1     		bne	.L895
 7055 0072 5A6C     		ldr	r2, [r3, #68]
 7056 0074 22F40042 		bic	r2, r2, #32768
 7057 0078 5A64     		str	r2, [r3, #68]
 7058              	.L895:
 7059 007a 2B68     		ldr	r3, [r5]
 7060 007c 196A     		ldr	r1, [r3, #32]
 7061 007e 41F21112 		movw	r2, #4369
 7062 0082 1142     		tst	r1, r2
 7063 0084 08D1     		bne	.L896
 7064 0086 196A     		ldr	r1, [r3, #32]
 7065 0088 40F24442 		movw	r2, #1092
 7066 008c 1142     		tst	r1, r2
 7067 008e 03D1     		bne	.L896
 7068 0090 1A68     		ldr	r2, [r3]
 7069 0092 22F00102 		bic	r2, r2, #1
 7070 0096 1A60     		str	r2, [r3]
 7071              	.L896:
 7072 0098 102C     		cmp	r4, #16
 7073 009a 3ED8     		bhi	.L897
 7074 009c DFE804F0 		tbb	[pc, r4]
 7075              	.L899:
 7076 00a0 24       		.byte	(.L903-.L899)/2
 7077 00a1 3D       		.byte	(.L897-.L899)/2
 7078 00a2 3D       		.byte	(.L897-.L899)/2
 7079 00a3 3D       		.byte	(.L897-.L899)/2
 7080 00a4 29       		.byte	(.L902-.L899)/2
 7081 00a5 3D       		.byte	(.L897-.L899)/2
 7082 00a6 3D       		.byte	(.L897-.L899)/2
 7083 00a7 3D       		.byte	(.L897-.L899)/2
 7084 00a8 2E       		.byte	(.L901-.L899)/2
 7085 00a9 3D       		.byte	(.L897-.L899)/2
 7086 00aa 3D       		.byte	(.L897-.L899)/2
 7087 00ab 3D       		.byte	(.L897-.L899)/2
 7088 00ac 33       		.byte	(.L900-.L899)/2
 7089 00ad 3D       		.byte	(.L897-.L899)/2
 7090 00ae 3D       		.byte	(.L897-.L899)/2
 7091 00af 3D       		.byte	(.L897-.L899)/2
 7092 00b0 38       		.byte	(.L898-.L899)/2
 7093 00b1 00       		.p2align 1
 7094              	.L891:
 7095 00b2 0268     		ldr	r2, [r0]
 7096 00b4 D368     		ldr	r3, [r2, #12]
 7097 00b6 23F48063 		bic	r3, r3, #1024
 7098 00ba D360     		str	r3, [r2, #12]
 7099 00bc 806A     		ldr	r0, [r0, #40]
 7100 00be FFF7FEFF 		bl	HAL_DMA_Abort_IT
 7101 00c2 B4E7     		b	.L893
 7102              	.L890:
 7103 00c4 0268     		ldr	r2, [r0]
 7104 00c6 D368     		ldr	r3, [r2, #12]
 7105 00c8 23F40063 		bic	r3, r3, #2048
 7106 00cc D360     		str	r3, [r2, #12]
ARM GAS  C:\Users\aticl\AppData\Local\Temp\ccqcvH4b.s 			page 122


 7107 00ce C06A     		ldr	r0, [r0, #44]
 7108 00d0 FFF7FEFF 		bl	HAL_DMA_Abort_IT
 7109 00d4 ABE7     		b	.L893
 7110              	.L888:
 7111 00d6 0268     		ldr	r2, [r0]
 7112 00d8 D368     		ldr	r3, [r2, #12]
 7113 00da 23F48053 		bic	r3, r3, #4096
 7114 00de D360     		str	r3, [r2, #12]
 7115 00e0 006B     		ldr	r0, [r0, #48]
 7116 00e2 FFF7FEFF 		bl	HAL_DMA_Abort_IT
 7117 00e6 A2E7     		b	.L893
 7118              	.L903:
 7119 00e8 0123     		movs	r3, #1
 7120 00ea 85F83E30 		strb	r3, [r5, #62]
 7121 00ee 0020     		movs	r0, #0
 7122 00f0 19E0     		b	.L887
 7123              	.L902:
 7124 00f2 0123     		movs	r3, #1
 7125 00f4 85F83F30 		strb	r3, [r5, #63]
 7126 00f8 0020     		movs	r0, #0
 7127 00fa 14E0     		b	.L887
 7128              	.L901:
 7129 00fc 0123     		movs	r3, #1
 7130 00fe 85F84030 		strb	r3, [r5, #64]
 7131 0102 0020     		movs	r0, #0
 7132 0104 0FE0     		b	.L887
 7133              	.L900:
 7134 0106 0123     		movs	r3, #1
 7135 0108 85F84130 		strb	r3, [r5, #65]
 7136 010c 0020     		movs	r0, #0
 7137 010e 0AE0     		b	.L887
 7138              	.L898:
 7139 0110 0123     		movs	r3, #1
 7140 0112 85F84230 		strb	r3, [r5, #66]
 7141 0116 0020     		movs	r0, #0
 7142 0118 05E0     		b	.L887
 7143              	.L897:
 7144 011a 0123     		movs	r3, #1
 7145 011c 85F84330 		strb	r3, [r5, #67]
 7146 0120 0020     		movs	r0, #0
 7147 0122 00E0     		b	.L887
 7148              	.L904:
 7149 0124 0120     		movs	r0, #1
 7150              	.L887:
 7151 0126 38BD     		pop	{r3, r4, r5, pc}
 7152              	.L907:
 7153              		.align	2
 7154              	.L906:
 7155 0128 00000140 		.word	1073807360
 7156 012c 00040140 		.word	1073808384
 7158              		.section	.text.HAL_TIM_IC_Start,"ax",%progbits
 7159              		.align	1
 7160              		.global	HAL_TIM_IC_Start
 7161              		.syntax unified
 7162              		.thumb
 7163              		.thumb_func
 7165              	HAL_TIM_IC_Start:
ARM GAS  C:\Users\aticl\AppData\Local\Temp\ccqcvH4b.s 			page 123


 7166              		@ args = 0, pretend = 0, frame = 0
 7167              		@ frame_needed = 0, uses_anonymous_args = 0
 7168 0000 10B5     		push	{r4, lr}
 7169 0002 0446     		mov	r4, r0
 7170 0004 1029     		cmp	r1, #16
 7171 0006 21D8     		bhi	.L909
 7172 0008 DFE801F0 		tbb	[pc, r1]
 7173              	.L911:
 7174 000c 09       		.byte	(.L915-.L911)/2
 7175 000d 20       		.byte	(.L909-.L911)/2
 7176 000e 20       		.byte	(.L909-.L911)/2
 7177 000f 20       		.byte	(.L909-.L911)/2
 7178 0010 10       		.byte	(.L914-.L911)/2
 7179 0011 20       		.byte	(.L909-.L911)/2
 7180 0012 20       		.byte	(.L909-.L911)/2
 7181 0013 20       		.byte	(.L909-.L911)/2
 7182 0014 14       		.byte	(.L913-.L911)/2
 7183 0015 20       		.byte	(.L909-.L911)/2
 7184 0016 20       		.byte	(.L909-.L911)/2
 7185 0017 20       		.byte	(.L909-.L911)/2
 7186 0018 18       		.byte	(.L912-.L911)/2
 7187 0019 20       		.byte	(.L909-.L911)/2
 7188 001a 20       		.byte	(.L909-.L911)/2
 7189 001b 20       		.byte	(.L909-.L911)/2
 7190 001c 1C       		.byte	(.L910-.L911)/2
 7191 001d 00       		.p2align 1
 7192              	.L915:
 7193 001e 90F83E20 		ldrb	r2, [r0, #62]	@ zero_extendqisi2
 7194 0022 D2B2     		uxtb	r2, r2
 7195 0024 90F84430 		ldrb	r3, [r0, #68]	@ zero_extendqisi2
 7196 0028 DBB2     		uxtb	r3, r3
 7197 002a 19E0     		b	.L916
 7198              	.L914:
 7199 002c 90F83F20 		ldrb	r2, [r0, #63]	@ zero_extendqisi2
 7200 0030 D2B2     		uxtb	r2, r2
 7201 0032 0EE0     		b	.L917
 7202              	.L913:
 7203 0034 90F84020 		ldrb	r2, [r0, #64]	@ zero_extendqisi2
 7204 0038 D2B2     		uxtb	r2, r2
 7205 003a 0AE0     		b	.L917
 7206              	.L912:
 7207 003c 90F84120 		ldrb	r2, [r0, #65]	@ zero_extendqisi2
 7208 0040 D2B2     		uxtb	r2, r2
 7209 0042 06E0     		b	.L917
 7210              	.L910:
 7211 0044 90F84220 		ldrb	r2, [r0, #66]	@ zero_extendqisi2
 7212 0048 D2B2     		uxtb	r2, r2
 7213 004a 02E0     		b	.L917
 7214              	.L909:
 7215 004c 90F84320 		ldrb	r2, [r0, #67]	@ zero_extendqisi2
 7216 0050 D2B2     		uxtb	r2, r2
 7217              	.L917:
 7218 0052 0429     		cmp	r1, #4
 7219 0054 15D0     		beq	.L937
 7220 0056 0829     		cmp	r1, #8
 7221 0058 17D0     		beq	.L938
 7222 005a 94F84730 		ldrb	r3, [r4, #71]	@ zero_extendqisi2
ARM GAS  C:\Users\aticl\AppData\Local\Temp\ccqcvH4b.s 			page 124


 7223 005e DBB2     		uxtb	r3, r3
 7224              	.L916:
 7225 0060 012B     		cmp	r3, #1
 7226 0062 08BF     		it	eq
 7227 0064 012A     		cmpeq	r2, #1
 7228 0066 73D1     		bne	.L934
 7229 0068 1029     		cmp	r1, #16
 7230 006a 28D8     		bhi	.L921
 7231 006c DFE801F0 		tbb	[pc, r1]
 7232              	.L923:
 7233 0070 11       		.byte	(.L927-.L923)/2
 7234 0071 27       		.byte	(.L921-.L923)/2
 7235 0072 27       		.byte	(.L921-.L923)/2
 7236 0073 27       		.byte	(.L921-.L923)/2
 7237 0074 17       		.byte	(.L926-.L923)/2
 7238 0075 27       		.byte	(.L921-.L923)/2
 7239 0076 27       		.byte	(.L921-.L923)/2
 7240 0077 27       		.byte	(.L921-.L923)/2
 7241 0078 1B       		.byte	(.L925-.L923)/2
 7242 0079 27       		.byte	(.L921-.L923)/2
 7243 007a 27       		.byte	(.L921-.L923)/2
 7244 007b 27       		.byte	(.L921-.L923)/2
 7245 007c 1F       		.byte	(.L924-.L923)/2
 7246 007d 27       		.byte	(.L921-.L923)/2
 7247 007e 27       		.byte	(.L921-.L923)/2
 7248 007f 27       		.byte	(.L921-.L923)/2
 7249 0080 23       		.byte	(.L922-.L923)/2
 7250 0081 00       		.p2align 1
 7251              	.L937:
 7252 0082 94F84530 		ldrb	r3, [r4, #69]	@ zero_extendqisi2
 7253 0086 DBB2     		uxtb	r3, r3
 7254 0088 EAE7     		b	.L916
 7255              	.L938:
 7256 008a 94F84630 		ldrb	r3, [r4, #70]	@ zero_extendqisi2
 7257 008e DBB2     		uxtb	r3, r3
 7258 0090 E6E7     		b	.L916
 7259              	.L927:
 7260 0092 0223     		movs	r3, #2
 7261 0094 84F83E30 		strb	r3, [r4, #62]
 7262 0098 84F84430 		strb	r3, [r4, #68]
 7263 009c 19E0     		b	.L928
 7264              	.L926:
 7265 009e 0223     		movs	r3, #2
 7266 00a0 84F83F30 		strb	r3, [r4, #63]
 7267 00a4 0EE0     		b	.L929
 7268              	.L925:
 7269 00a6 0223     		movs	r3, #2
 7270 00a8 84F84030 		strb	r3, [r4, #64]
 7271 00ac 0AE0     		b	.L929
 7272              	.L924:
 7273 00ae 0223     		movs	r3, #2
 7274 00b0 84F84130 		strb	r3, [r4, #65]
 7275 00b4 06E0     		b	.L929
 7276              	.L922:
 7277 00b6 0223     		movs	r3, #2
 7278 00b8 84F84230 		strb	r3, [r4, #66]
 7279 00bc 02E0     		b	.L929
ARM GAS  C:\Users\aticl\AppData\Local\Temp\ccqcvH4b.s 			page 125


 7280              	.L921:
 7281 00be 0223     		movs	r3, #2
 7282 00c0 84F84330 		strb	r3, [r4, #67]
 7283              	.L929:
 7284 00c4 0429     		cmp	r1, #4
 7285 00c6 2DD0     		beq	.L939
 7286 00c8 0829     		cmp	r1, #8
 7287 00ca 2FD0     		beq	.L940
 7288 00cc 0223     		movs	r3, #2
 7289 00ce 84F84730 		strb	r3, [r4, #71]
 7290              	.L928:
 7291 00d2 0122     		movs	r2, #1
 7292 00d4 2068     		ldr	r0, [r4]
 7293 00d6 FFF7FEFF 		bl	TIM_CCxChannelCmd
 7294 00da 2368     		ldr	r3, [r4]
 7295 00dc 1E4A     		ldr	r2, .L941
 7296 00de B3F1804F 		cmp	r3, #1073741824
 7297 00e2 18BF     		it	ne
 7298 00e4 9342     		cmpne	r3, r2
 7299 00e6 25D0     		beq	.L932
 7300 00e8 A2F57C42 		sub	r2, r2, #64512
 7301 00ec 9342     		cmp	r3, r2
 7302 00ee 21D0     		beq	.L932
 7303 00f0 02F58062 		add	r2, r2, #1024
 7304 00f4 9342     		cmp	r3, r2
 7305 00f6 1DD0     		beq	.L932
 7306 00f8 02F58062 		add	r2, r2, #1024
 7307 00fc 9342     		cmp	r3, r2
 7308 00fe 19D0     		beq	.L932
 7309 0100 02F57842 		add	r2, r2, #63488
 7310 0104 9342     		cmp	r3, r2
 7311 0106 15D0     		beq	.L932
 7312 0108 A2F56C42 		sub	r2, r2, #60416
 7313 010c 9342     		cmp	r3, r2
 7314 010e 11D0     		beq	.L932
 7315 0110 02F59432 		add	r2, r2, #75776
 7316 0114 9342     		cmp	r3, r2
 7317 0116 0DD0     		beq	.L932
 7318 0118 1A68     		ldr	r2, [r3]
 7319 011a 42F00102 		orr	r2, r2, #1
 7320 011e 1A60     		str	r2, [r3]
 7321 0120 0020     		movs	r0, #0
 7322 0122 16E0     		b	.L920
 7323              	.L939:
 7324 0124 0223     		movs	r3, #2
 7325 0126 84F84530 		strb	r3, [r4, #69]
 7326 012a D2E7     		b	.L928
 7327              	.L940:
 7328 012c 0223     		movs	r3, #2
 7329 012e 84F84630 		strb	r3, [r4, #70]
 7330 0132 CEE7     		b	.L928
 7331              	.L932:
 7332 0134 9968     		ldr	r1, [r3, #8]
 7333 0136 094A     		ldr	r2, .L941+4
 7334 0138 0A40     		ands	r2, r2, r1
 7335 013a 062A     		cmp	r2, #6
 7336 013c 18BF     		it	ne
ARM GAS  C:\Users\aticl\AppData\Local\Temp\ccqcvH4b.s 			page 126


 7337 013e B2F5803F 		cmpne	r2, #65536
 7338 0142 07D0     		beq	.L935
 7339 0144 1A68     		ldr	r2, [r3]
 7340 0146 42F00102 		orr	r2, r2, #1
 7341 014a 1A60     		str	r2, [r3]
 7342 014c 0020     		movs	r0, #0
 7343 014e 00E0     		b	.L920
 7344              	.L934:
 7345 0150 0120     		movs	r0, #1
 7346              	.L920:
 7347 0152 10BD     		pop	{r4, pc}
 7348              	.L935:
 7349 0154 0020     		movs	r0, #0
 7350 0156 FCE7     		b	.L920
 7351              	.L942:
 7352              		.align	2
 7353              	.L941:
 7354 0158 00000140 		.word	1073807360
 7355 015c 07000100 		.word	65543
 7357              		.section	.text.HAL_TIM_IC_Stop,"ax",%progbits
 7358              		.align	1
 7359              		.global	HAL_TIM_IC_Stop
 7360              		.syntax unified
 7361              		.thumb
 7362              		.thumb_func
 7364              	HAL_TIM_IC_Stop:
 7365              		@ args = 0, pretend = 0, frame = 0
 7366              		@ frame_needed = 0, uses_anonymous_args = 0
 7367 0000 38B5     		push	{r3, r4, r5, lr}
 7368 0002 0446     		mov	r4, r0
 7369 0004 0D46     		mov	r5, r1
 7370 0006 0022     		movs	r2, #0
 7371 0008 0068     		ldr	r0, [r0]
 7372 000a FFF7FEFF 		bl	TIM_CCxChannelCmd
 7373 000e 2368     		ldr	r3, [r4]
 7374 0010 196A     		ldr	r1, [r3, #32]
 7375 0012 41F21112 		movw	r2, #4369
 7376 0016 1142     		tst	r1, r2
 7377 0018 08D1     		bne	.L944
 7378 001a 196A     		ldr	r1, [r3, #32]
 7379 001c 40F24442 		movw	r2, #1092
 7380 0020 1142     		tst	r1, r2
 7381 0022 03D1     		bne	.L944
 7382 0024 1A68     		ldr	r2, [r3]
 7383 0026 22F00102 		bic	r2, r2, #1
 7384 002a 1A60     		str	r2, [r3]
 7385              	.L944:
 7386 002c 102D     		cmp	r5, #16
 7387 002e 20D8     		bhi	.L945
 7388 0030 DFE805F0 		tbb	[pc, r5]
 7389              	.L947:
 7390 0034 09       		.byte	(.L951-.L947)/2
 7391 0035 1F       		.byte	(.L945-.L947)/2
 7392 0036 1F       		.byte	(.L945-.L947)/2
 7393 0037 1F       		.byte	(.L945-.L947)/2
 7394 0038 0F       		.byte	(.L950-.L947)/2
 7395 0039 1F       		.byte	(.L945-.L947)/2
ARM GAS  C:\Users\aticl\AppData\Local\Temp\ccqcvH4b.s 			page 127


 7396 003a 1F       		.byte	(.L945-.L947)/2
 7397 003b 1F       		.byte	(.L945-.L947)/2
 7398 003c 13       		.byte	(.L949-.L947)/2
 7399 003d 1F       		.byte	(.L945-.L947)/2
 7400 003e 1F       		.byte	(.L945-.L947)/2
 7401 003f 1F       		.byte	(.L945-.L947)/2
 7402 0040 17       		.byte	(.L948-.L947)/2
 7403 0041 1F       		.byte	(.L945-.L947)/2
 7404 0042 1F       		.byte	(.L945-.L947)/2
 7405 0043 1F       		.byte	(.L945-.L947)/2
 7406 0044 1B       		.byte	(.L946-.L947)/2
 7407 0045 00       		.p2align 1
 7408              	.L951:
 7409 0046 0123     		movs	r3, #1
 7410 0048 84F83E30 		strb	r3, [r4, #62]
 7411 004c 84F84430 		strb	r3, [r4, #68]
 7412 0050 19E0     		b	.L952
 7413              	.L950:
 7414 0052 0123     		movs	r3, #1
 7415 0054 84F83F30 		strb	r3, [r4, #63]
 7416 0058 0EE0     		b	.L953
 7417              	.L949:
 7418 005a 0123     		movs	r3, #1
 7419 005c 84F84030 		strb	r3, [r4, #64]
 7420 0060 0AE0     		b	.L953
 7421              	.L948:
 7422 0062 0123     		movs	r3, #1
 7423 0064 84F84130 		strb	r3, [r4, #65]
 7424 0068 06E0     		b	.L953
 7425              	.L946:
 7426 006a 0123     		movs	r3, #1
 7427 006c 84F84230 		strb	r3, [r4, #66]
 7428 0070 02E0     		b	.L953
 7429              	.L945:
 7430 0072 0123     		movs	r3, #1
 7431 0074 84F84330 		strb	r3, [r4, #67]
 7432              	.L953:
 7433 0078 042D     		cmp	r5, #4
 7434 007a 06D0     		beq	.L957
 7435 007c 082D     		cmp	r5, #8
 7436 007e 08D0     		beq	.L958
 7437 0080 0123     		movs	r3, #1
 7438 0082 84F84730 		strb	r3, [r4, #71]
 7439              	.L952:
 7440 0086 0020     		movs	r0, #0
 7441 0088 38BD     		pop	{r3, r4, r5, pc}
 7442              	.L957:
 7443 008a 0123     		movs	r3, #1
 7444 008c 84F84530 		strb	r3, [r4, #69]
 7445 0090 F9E7     		b	.L952
 7446              	.L958:
 7447 0092 0123     		movs	r3, #1
 7448 0094 84F84630 		strb	r3, [r4, #70]
 7449 0098 F5E7     		b	.L952
 7451              		.section	.text.HAL_TIM_IC_Start_IT,"ax",%progbits
 7452              		.align	1
 7453              		.global	HAL_TIM_IC_Start_IT
ARM GAS  C:\Users\aticl\AppData\Local\Temp\ccqcvH4b.s 			page 128


 7454              		.syntax unified
 7455              		.thumb
 7456              		.thumb_func
 7458              	HAL_TIM_IC_Start_IT:
 7459              		@ args = 0, pretend = 0, frame = 0
 7460              		@ frame_needed = 0, uses_anonymous_args = 0
 7461 0000 10B5     		push	{r4, lr}
 7462 0002 0446     		mov	r4, r0
 7463 0004 1029     		cmp	r1, #16
 7464 0006 21D8     		bhi	.L960
 7465 0008 DFE801F0 		tbb	[pc, r1]
 7466              	.L962:
 7467 000c 09       		.byte	(.L966-.L962)/2
 7468 000d 20       		.byte	(.L960-.L962)/2
 7469 000e 20       		.byte	(.L960-.L962)/2
 7470 000f 20       		.byte	(.L960-.L962)/2
 7471 0010 10       		.byte	(.L965-.L962)/2
 7472 0011 20       		.byte	(.L960-.L962)/2
 7473 0012 20       		.byte	(.L960-.L962)/2
 7474 0013 20       		.byte	(.L960-.L962)/2
 7475 0014 14       		.byte	(.L964-.L962)/2
 7476 0015 20       		.byte	(.L960-.L962)/2
 7477 0016 20       		.byte	(.L960-.L962)/2
 7478 0017 20       		.byte	(.L960-.L962)/2
 7479 0018 18       		.byte	(.L963-.L962)/2
 7480 0019 20       		.byte	(.L960-.L962)/2
 7481 001a 20       		.byte	(.L960-.L962)/2
 7482 001b 20       		.byte	(.L960-.L962)/2
 7483 001c 1C       		.byte	(.L961-.L962)/2
 7484 001d 00       		.p2align 1
 7485              	.L966:
 7486 001e 90F83E20 		ldrb	r2, [r0, #62]	@ zero_extendqisi2
 7487 0022 D2B2     		uxtb	r2, r2
 7488 0024 90F84430 		ldrb	r3, [r0, #68]	@ zero_extendqisi2
 7489 0028 DBB2     		uxtb	r3, r3
 7490 002a 19E0     		b	.L967
 7491              	.L965:
 7492 002c 90F83F20 		ldrb	r2, [r0, #63]	@ zero_extendqisi2
 7493 0030 D2B2     		uxtb	r2, r2
 7494 0032 0EE0     		b	.L968
 7495              	.L964:
 7496 0034 90F84020 		ldrb	r2, [r0, #64]	@ zero_extendqisi2
 7497 0038 D2B2     		uxtb	r2, r2
 7498 003a 0AE0     		b	.L968
 7499              	.L963:
 7500 003c 90F84120 		ldrb	r2, [r0, #65]	@ zero_extendqisi2
 7501 0040 D2B2     		uxtb	r2, r2
 7502 0042 06E0     		b	.L968
 7503              	.L961:
 7504 0044 90F84220 		ldrb	r2, [r0, #66]	@ zero_extendqisi2
 7505 0048 D2B2     		uxtb	r2, r2
 7506 004a 02E0     		b	.L968
 7507              	.L960:
 7508 004c 90F84320 		ldrb	r2, [r0, #67]	@ zero_extendqisi2
 7509 0050 D2B2     		uxtb	r2, r2
 7510              	.L968:
 7511 0052 0429     		cmp	r1, #4
ARM GAS  C:\Users\aticl\AppData\Local\Temp\ccqcvH4b.s 			page 129


 7512 0054 16D0     		beq	.L997
 7513 0056 0829     		cmp	r1, #8
 7514 0058 18D0     		beq	.L998
 7515 005a 94F84730 		ldrb	r3, [r4, #71]	@ zero_extendqisi2
 7516 005e DBB2     		uxtb	r3, r3
 7517              	.L967:
 7518 0060 012B     		cmp	r3, #1
 7519 0062 08BF     		it	eq
 7520 0064 012A     		cmpeq	r2, #1
 7521 0066 40F0A780 		bne	.L990
 7522 006a 1029     		cmp	r1, #16
 7523 006c 2DD8     		bhi	.L972
 7524 006e DFE801F0 		tbb	[pc, r1]
 7525              	.L974:
 7526 0072 11       		.byte	(.L978-.L974)/2
 7527 0073 2C       		.byte	(.L972-.L974)/2
 7528 0074 2C       		.byte	(.L972-.L974)/2
 7529 0075 2C       		.byte	(.L972-.L974)/2
 7530 0076 1C       		.byte	(.L977-.L974)/2
 7531 0077 2C       		.byte	(.L972-.L974)/2
 7532 0078 2C       		.byte	(.L972-.L974)/2
 7533 0079 2C       		.byte	(.L972-.L974)/2
 7534 007a 20       		.byte	(.L976-.L974)/2
 7535 007b 2C       		.byte	(.L972-.L974)/2
 7536 007c 2C       		.byte	(.L972-.L974)/2
 7537 007d 2C       		.byte	(.L972-.L974)/2
 7538 007e 24       		.byte	(.L975-.L974)/2
 7539 007f 2C       		.byte	(.L972-.L974)/2
 7540 0080 2C       		.byte	(.L972-.L974)/2
 7541 0081 2C       		.byte	(.L972-.L974)/2
 7542 0082 28       		.byte	(.L973-.L974)/2
 7543 0083 00       		.p2align 1
 7544              	.L997:
 7545 0084 94F84530 		ldrb	r3, [r4, #69]	@ zero_extendqisi2
 7546 0088 DBB2     		uxtb	r3, r3
 7547 008a E9E7     		b	.L967
 7548              	.L998:
 7549 008c 94F84630 		ldrb	r3, [r4, #70]	@ zero_extendqisi2
 7550 0090 DBB2     		uxtb	r3, r3
 7551 0092 E5E7     		b	.L967
 7552              	.L978:
 7553 0094 0223     		movs	r3, #2
 7554 0096 84F83E30 		strb	r3, [r4, #62]
 7555 009a 84F84430 		strb	r3, [r4, #68]
 7556              	.L979:
 7557 009e 2268     		ldr	r2, [r4]
 7558 00a0 D368     		ldr	r3, [r2, #12]
 7559 00a2 43F00203 		orr	r3, r3, #2
 7560 00a6 D360     		str	r3, [r2, #12]
 7561 00a8 40E0     		b	.L987
 7562              	.L977:
 7563 00aa 0223     		movs	r3, #2
 7564 00ac 84F83F30 		strb	r3, [r4, #63]
 7565 00b0 0EE0     		b	.L980
 7566              	.L976:
 7567 00b2 0223     		movs	r3, #2
 7568 00b4 84F84030 		strb	r3, [r4, #64]
ARM GAS  C:\Users\aticl\AppData\Local\Temp\ccqcvH4b.s 			page 130


 7569 00b8 0AE0     		b	.L980
 7570              	.L975:
 7571 00ba 0223     		movs	r3, #2
 7572 00bc 84F84130 		strb	r3, [r4, #65]
 7573 00c0 06E0     		b	.L980
 7574              	.L973:
 7575 00c2 0223     		movs	r3, #2
 7576 00c4 84F84230 		strb	r3, [r4, #66]
 7577 00c8 02E0     		b	.L980
 7578              	.L972:
 7579 00ca 0223     		movs	r3, #2
 7580 00cc 84F84330 		strb	r3, [r4, #67]
 7581              	.L980:
 7582 00d0 0429     		cmp	r1, #4
 7583 00d2 23D0     		beq	.L999
 7584 00d4 0829     		cmp	r1, #8
 7585 00d6 52D0     		beq	.L1000
 7586 00d8 0223     		movs	r3, #2
 7587 00da 84F84730 		strb	r3, [r4, #71]
 7588 00de 0C29     		cmp	r1, #12
 7589 00e0 6CD8     		bhi	.L991
 7590 00e2 01A3     		adr	r3, .L986
 7591 00e4 53F821F0 		ldr	pc, [r3, r1, lsl #2]
 7592              		.p2align 2
 7593              	.L986:
 7594 00e8 9F000000 		.word	.L979+1
 7595 00ec BD010000 		.word	.L991+1
 7596 00f0 BD010000 		.word	.L991+1
 7597 00f4 BD010000 		.word	.L991+1
 7598 00f8 23010000 		.word	.L982+1
 7599 00fc BD010000 		.word	.L991+1
 7600 0100 BD010000 		.word	.L991+1
 7601 0104 BD010000 		.word	.L991+1
 7602 0108 85010000 		.word	.L984+1
 7603 010c BD010000 		.word	.L991+1
 7604 0110 BD010000 		.word	.L991+1
 7605 0114 BD010000 		.word	.L991+1
 7606 0118 91010000 		.word	.L985+1
 7607              		.p2align 1
 7608              	.L999:
 7609 011c 0223     		movs	r3, #2
 7610 011e 84F84530 		strb	r3, [r4, #69]
 7611              	.L982:
 7612 0122 2268     		ldr	r2, [r4]
 7613 0124 D368     		ldr	r3, [r2, #12]
 7614 0126 43F00403 		orr	r3, r3, #4
 7615 012a D360     		str	r3, [r2, #12]
 7616              	.L987:
 7617 012c 0122     		movs	r2, #1
 7618 012e 2068     		ldr	r0, [r4]
 7619 0130 FFF7FEFF 		bl	TIM_CCxChannelCmd
 7620 0134 2368     		ldr	r3, [r4]
 7621 0136 234A     		ldr	r2, .L1001
 7622 0138 B3F1804F 		cmp	r3, #1073741824
 7623 013c 18BF     		it	ne
 7624 013e 9342     		cmpne	r3, r2
 7625 0140 2CD0     		beq	.L988
ARM GAS  C:\Users\aticl\AppData\Local\Temp\ccqcvH4b.s 			page 131


 7626 0142 A2F57C42 		sub	r2, r2, #64512
 7627 0146 9342     		cmp	r3, r2
 7628 0148 28D0     		beq	.L988
 7629 014a 02F58062 		add	r2, r2, #1024
 7630 014e 9342     		cmp	r3, r2
 7631 0150 24D0     		beq	.L988
 7632 0152 02F58062 		add	r2, r2, #1024
 7633 0156 9342     		cmp	r3, r2
 7634 0158 20D0     		beq	.L988
 7635 015a 02F57842 		add	r2, r2, #63488
 7636 015e 9342     		cmp	r3, r2
 7637 0160 1CD0     		beq	.L988
 7638 0162 A2F56C42 		sub	r2, r2, #60416
 7639 0166 9342     		cmp	r3, r2
 7640 0168 18D0     		beq	.L988
 7641 016a 02F59432 		add	r2, r2, #75776
 7642 016e 9342     		cmp	r3, r2
 7643 0170 14D0     		beq	.L988
 7644 0172 1A68     		ldr	r2, [r3]
 7645 0174 42F00102 		orr	r2, r2, #1
 7646 0178 1A60     		str	r2, [r3]
 7647 017a 0020     		movs	r0, #0
 7648 017c 1DE0     		b	.L971
 7649              	.L1000:
 7650 017e 0223     		movs	r3, #2
 7651 0180 84F84630 		strb	r3, [r4, #70]
 7652              	.L984:
 7653 0184 2268     		ldr	r2, [r4]
 7654 0186 D368     		ldr	r3, [r2, #12]
 7655 0188 43F00803 		orr	r3, r3, #8
 7656 018c D360     		str	r3, [r2, #12]
 7657 018e CDE7     		b	.L987
 7658              	.L985:
 7659 0190 2268     		ldr	r2, [r4]
 7660 0192 D368     		ldr	r3, [r2, #12]
 7661 0194 43F01003 		orr	r3, r3, #16
 7662 0198 D360     		str	r3, [r2, #12]
 7663 019a C7E7     		b	.L987
 7664              	.L988:
 7665 019c 9968     		ldr	r1, [r3, #8]
 7666 019e 0A4A     		ldr	r2, .L1001+4
 7667 01a0 0A40     		ands	r2, r2, r1
 7668 01a2 062A     		cmp	r2, #6
 7669 01a4 18BF     		it	ne
 7670 01a6 B2F5803F 		cmpne	r2, #65536
 7671 01aa 09D0     		beq	.L992
 7672 01ac 1A68     		ldr	r2, [r3]
 7673 01ae 42F00102 		orr	r2, r2, #1
 7674 01b2 1A60     		str	r2, [r3]
 7675 01b4 0020     		movs	r0, #0
 7676 01b6 00E0     		b	.L971
 7677              	.L990:
 7678 01b8 0120     		movs	r0, #1
 7679              	.L971:
 7680 01ba 10BD     		pop	{r4, pc}
 7681              	.L991:
 7682 01bc 0120     		movs	r0, #1
ARM GAS  C:\Users\aticl\AppData\Local\Temp\ccqcvH4b.s 			page 132


 7683 01be FCE7     		b	.L971
 7684              	.L992:
 7685 01c0 0020     		movs	r0, #0
 7686 01c2 FAE7     		b	.L971
 7687              	.L1002:
 7688              		.align	2
 7689              	.L1001:
 7690 01c4 00000140 		.word	1073807360
 7691 01c8 07000100 		.word	65543
 7693              		.section	.text.HAL_TIM_IC_Stop_IT,"ax",%progbits
 7694              		.align	1
 7695              		.global	HAL_TIM_IC_Stop_IT
 7696              		.syntax unified
 7697              		.thumb
 7698              		.thumb_func
 7700              	HAL_TIM_IC_Stop_IT:
 7701              		@ args = 0, pretend = 0, frame = 0
 7702              		@ frame_needed = 0, uses_anonymous_args = 0
 7703 0000 38B5     		push	{r3, r4, r5, lr}
 7704 0002 0546     		mov	r5, r0
 7705 0004 0C46     		mov	r4, r1
 7706 0006 0C29     		cmp	r1, #12
 7707 0008 6DD8     		bhi	.L1022
 7708 000a DFE801F0 		tbb	[pc, r1]
 7709              	.L1006:
 7710 000e 07       		.byte	(.L1009-.L1006)/2
 7711 000f 6C       		.byte	(.L1022-.L1006)/2
 7712 0010 6C       		.byte	(.L1022-.L1006)/2
 7713 0011 6C       		.byte	(.L1022-.L1006)/2
 7714 0012 2D       		.byte	(.L1008-.L1006)/2
 7715 0013 6C       		.byte	(.L1022-.L1006)/2
 7716 0014 6C       		.byte	(.L1022-.L1006)/2
 7717 0015 6C       		.byte	(.L1022-.L1006)/2
 7718 0016 33       		.byte	(.L1007-.L1006)/2
 7719 0017 6C       		.byte	(.L1022-.L1006)/2
 7720 0018 6C       		.byte	(.L1022-.L1006)/2
 7721 0019 6C       		.byte	(.L1022-.L1006)/2
 7722 001a 39       		.byte	(.L1005-.L1006)/2
 7723 001b 00       		.p2align 1
 7724              	.L1009:
 7725 001c 0268     		ldr	r2, [r0]
 7726 001e D368     		ldr	r3, [r2, #12]
 7727 0020 23F00203 		bic	r3, r3, #2
 7728 0024 D360     		str	r3, [r2, #12]
 7729              	.L1010:
 7730 0026 0022     		movs	r2, #0
 7731 0028 2146     		mov	r1, r4
 7732 002a 2868     		ldr	r0, [r5]
 7733 002c FFF7FEFF 		bl	TIM_CCxChannelCmd
 7734 0030 2B68     		ldr	r3, [r5]
 7735 0032 196A     		ldr	r1, [r3, #32]
 7736 0034 41F21112 		movw	r2, #4369
 7737 0038 1142     		tst	r1, r2
 7738 003a 08D1     		bne	.L1011
 7739 003c 196A     		ldr	r1, [r3, #32]
 7740 003e 40F24442 		movw	r2, #1092
 7741 0042 1142     		tst	r1, r2
ARM GAS  C:\Users\aticl\AppData\Local\Temp\ccqcvH4b.s 			page 133


 7742 0044 03D1     		bne	.L1011
 7743 0046 1A68     		ldr	r2, [r3]
 7744 0048 22F00102 		bic	r2, r2, #1
 7745 004c 1A60     		str	r2, [r3]
 7746              	.L1011:
 7747 004e 102C     		cmp	r4, #16
 7748 0050 33D8     		bhi	.L1012
 7749 0052 DFE804F0 		tbb	[pc, r4]
 7750              	.L1014:
 7751 0056 1B       		.byte	(.L1018-.L1014)/2
 7752 0057 32       		.byte	(.L1012-.L1014)/2
 7753 0058 32       		.byte	(.L1012-.L1014)/2
 7754 0059 32       		.byte	(.L1012-.L1014)/2
 7755 005a 22       		.byte	(.L1017-.L1014)/2
 7756 005b 32       		.byte	(.L1012-.L1014)/2
 7757 005c 32       		.byte	(.L1012-.L1014)/2
 7758 005d 32       		.byte	(.L1012-.L1014)/2
 7759 005e 26       		.byte	(.L1016-.L1014)/2
 7760 005f 32       		.byte	(.L1012-.L1014)/2
 7761 0060 32       		.byte	(.L1012-.L1014)/2
 7762 0061 32       		.byte	(.L1012-.L1014)/2
 7763 0062 2A       		.byte	(.L1015-.L1014)/2
 7764 0063 32       		.byte	(.L1012-.L1014)/2
 7765 0064 32       		.byte	(.L1012-.L1014)/2
 7766 0065 32       		.byte	(.L1012-.L1014)/2
 7767 0066 2E       		.byte	(.L1013-.L1014)/2
 7768 0067 00       		.p2align 1
 7769              	.L1008:
 7770 0068 0268     		ldr	r2, [r0]
 7771 006a D368     		ldr	r3, [r2, #12]
 7772 006c 23F00403 		bic	r3, r3, #4
 7773 0070 D360     		str	r3, [r2, #12]
 7774 0072 D8E7     		b	.L1010
 7775              	.L1007:
 7776 0074 0268     		ldr	r2, [r0]
 7777 0076 D368     		ldr	r3, [r2, #12]
 7778 0078 23F00803 		bic	r3, r3, #8
 7779 007c D360     		str	r3, [r2, #12]
 7780 007e D2E7     		b	.L1010
 7781              	.L1005:
 7782 0080 0268     		ldr	r2, [r0]
 7783 0082 D368     		ldr	r3, [r2, #12]
 7784 0084 23F01003 		bic	r3, r3, #16
 7785 0088 D360     		str	r3, [r2, #12]
 7786 008a CCE7     		b	.L1010
 7787              	.L1018:
 7788 008c 0123     		movs	r3, #1
 7789 008e 85F83E30 		strb	r3, [r5, #62]
 7790 0092 85F84430 		strb	r3, [r5, #68]
 7791 0096 0020     		movs	r0, #0
 7792 0098 26E0     		b	.L1004
 7793              	.L1017:
 7794 009a 0123     		movs	r3, #1
 7795 009c 85F83F30 		strb	r3, [r5, #63]
 7796 00a0 0EE0     		b	.L1019
 7797              	.L1016:
 7798 00a2 0123     		movs	r3, #1
ARM GAS  C:\Users\aticl\AppData\Local\Temp\ccqcvH4b.s 			page 134


 7799 00a4 85F84030 		strb	r3, [r5, #64]
 7800 00a8 0AE0     		b	.L1019
 7801              	.L1015:
 7802 00aa 0123     		movs	r3, #1
 7803 00ac 85F84130 		strb	r3, [r5, #65]
 7804 00b0 06E0     		b	.L1019
 7805              	.L1013:
 7806 00b2 0123     		movs	r3, #1
 7807 00b4 85F84230 		strb	r3, [r5, #66]
 7808 00b8 02E0     		b	.L1019
 7809              	.L1012:
 7810 00ba 0123     		movs	r3, #1
 7811 00bc 85F84330 		strb	r3, [r5, #67]
 7812              	.L1019:
 7813 00c0 042C     		cmp	r4, #4
 7814 00c2 06D0     		beq	.L1024
 7815 00c4 082C     		cmp	r4, #8
 7816 00c6 09D0     		beq	.L1025
 7817 00c8 0123     		movs	r3, #1
 7818 00ca 85F84730 		strb	r3, [r5, #71]
 7819 00ce 0020     		movs	r0, #0
 7820 00d0 0AE0     		b	.L1004
 7821              	.L1024:
 7822 00d2 0123     		movs	r3, #1
 7823 00d4 85F84530 		strb	r3, [r5, #69]
 7824 00d8 0020     		movs	r0, #0
 7825 00da 05E0     		b	.L1004
 7826              	.L1025:
 7827 00dc 0123     		movs	r3, #1
 7828 00de 85F84630 		strb	r3, [r5, #70]
 7829 00e2 0020     		movs	r0, #0
 7830 00e4 00E0     		b	.L1004
 7831              	.L1022:
 7832 00e6 0120     		movs	r0, #1
 7833              	.L1004:
 7834 00e8 38BD     		pop	{r3, r4, r5, pc}
 7836              		.section	.text.HAL_TIM_IC_Start_DMA,"ax",%progbits
 7837              		.align	1
 7838              		.global	HAL_TIM_IC_Start_DMA
 7839              		.syntax unified
 7840              		.thumb
 7841              		.thumb_func
 7843              	HAL_TIM_IC_Start_DMA:
 7844              		@ args = 0, pretend = 0, frame = 0
 7845              		@ frame_needed = 0, uses_anonymous_args = 0
 7846 0000 F8B5     		push	{r3, r4, r5, r6, r7, lr}
 7847 0002 0546     		mov	r5, r0
 7848 0004 0C46     		mov	r4, r1
 7849 0006 1646     		mov	r6, r2
 7850 0008 1F46     		mov	r7, r3
 7851 000a 1029     		cmp	r1, #16
 7852 000c 21D8     		bhi	.L1027
 7853 000e DFE801F0 		tbb	[pc, r1]
 7854              	.L1029:
 7855 0012 09       		.byte	(.L1033-.L1029)/2
 7856 0013 20       		.byte	(.L1027-.L1029)/2
 7857 0014 20       		.byte	(.L1027-.L1029)/2
ARM GAS  C:\Users\aticl\AppData\Local\Temp\ccqcvH4b.s 			page 135


 7858 0015 20       		.byte	(.L1027-.L1029)/2
 7859 0016 10       		.byte	(.L1032-.L1029)/2
 7860 0017 20       		.byte	(.L1027-.L1029)/2
 7861 0018 20       		.byte	(.L1027-.L1029)/2
 7862 0019 20       		.byte	(.L1027-.L1029)/2
 7863 001a 14       		.byte	(.L1031-.L1029)/2
 7864 001b 20       		.byte	(.L1027-.L1029)/2
 7865 001c 20       		.byte	(.L1027-.L1029)/2
 7866 001d 20       		.byte	(.L1027-.L1029)/2
 7867 001e 18       		.byte	(.L1030-.L1029)/2
 7868 001f 20       		.byte	(.L1027-.L1029)/2
 7869 0020 20       		.byte	(.L1027-.L1029)/2
 7870 0021 20       		.byte	(.L1027-.L1029)/2
 7871 0022 1C       		.byte	(.L1028-.L1029)/2
 7872 0023 00       		.p2align 1
 7873              	.L1033:
 7874 0024 90F83E30 		ldrb	r3, [r0, #62]	@ zero_extendqisi2
 7875 0028 DBB2     		uxtb	r3, r3
 7876 002a 90F84410 		ldrb	r1, [r0, #68]	@ zero_extendqisi2
 7877 002e C9B2     		uxtb	r1, r1
 7878 0030 19E0     		b	.L1034
 7879              	.L1032:
 7880 0032 90F83F30 		ldrb	r3, [r0, #63]	@ zero_extendqisi2
 7881 0036 DBB2     		uxtb	r3, r3
 7882 0038 0EE0     		b	.L1035
 7883              	.L1031:
 7884 003a 90F84030 		ldrb	r3, [r0, #64]	@ zero_extendqisi2
 7885 003e DBB2     		uxtb	r3, r3
 7886 0040 0AE0     		b	.L1035
 7887              	.L1030:
 7888 0042 90F84130 		ldrb	r3, [r0, #65]	@ zero_extendqisi2
 7889 0046 DBB2     		uxtb	r3, r3
 7890 0048 06E0     		b	.L1035
 7891              	.L1028:
 7892 004a 90F84230 		ldrb	r3, [r0, #66]	@ zero_extendqisi2
 7893 004e DBB2     		uxtb	r3, r3
 7894 0050 02E0     		b	.L1035
 7895              	.L1027:
 7896 0052 90F84330 		ldrb	r3, [r0, #67]	@ zero_extendqisi2
 7897 0056 DBB2     		uxtb	r3, r3
 7898              	.L1035:
 7899 0058 042C     		cmp	r4, #4
 7900 005a 20D0     		beq	.L1067
 7901 005c 082C     		cmp	r4, #8
 7902 005e 22D0     		beq	.L1068
 7903 0060 95F84710 		ldrb	r1, [r5, #71]	@ zero_extendqisi2
 7904 0064 C9B2     		uxtb	r1, r1
 7905              	.L1034:
 7906 0066 0229     		cmp	r1, #2
 7907 0068 18BF     		it	ne
 7908 006a 022B     		cmpne	r3, #2
 7909 006c 00F0EA80 		beq	.L1058
 7910 0070 012B     		cmp	r3, #1
 7911 0072 08BF     		it	eq
 7912 0074 0129     		cmpeq	r1, #1
 7913 0076 40F0E780 		bne	.L1059
 7914 007a 002F     		cmp	r7, #0
ARM GAS  C:\Users\aticl\AppData\Local\Temp\ccqcvH4b.s 			page 136


 7915 007c 18BF     		it	ne
 7916 007e 002E     		cmpne	r6, #0
 7917 0080 00F0E480 		beq	.L1060
 7918 0084 102C     		cmp	r4, #16
 7919 0086 28D8     		bhi	.L1039
 7920 0088 DFE804F0 		tbb	[pc, r4]
 7921              	.L1041:
 7922 008c 11       		.byte	(.L1045-.L1041)/2
 7923 008d 27       		.byte	(.L1039-.L1041)/2
 7924 008e 27       		.byte	(.L1039-.L1041)/2
 7925 008f 27       		.byte	(.L1039-.L1041)/2
 7926 0090 17       		.byte	(.L1044-.L1041)/2
 7927 0091 27       		.byte	(.L1039-.L1041)/2
 7928 0092 27       		.byte	(.L1039-.L1041)/2
 7929 0093 27       		.byte	(.L1039-.L1041)/2
 7930 0094 1B       		.byte	(.L1043-.L1041)/2
 7931 0095 27       		.byte	(.L1039-.L1041)/2
 7932 0096 27       		.byte	(.L1039-.L1041)/2
 7933 0097 27       		.byte	(.L1039-.L1041)/2
 7934 0098 1F       		.byte	(.L1042-.L1041)/2
 7935 0099 27       		.byte	(.L1039-.L1041)/2
 7936 009a 27       		.byte	(.L1039-.L1041)/2
 7937 009b 27       		.byte	(.L1039-.L1041)/2
 7938 009c 23       		.byte	(.L1040-.L1041)/2
 7939 009d 00       		.p2align 1
 7940              	.L1067:
 7941 009e 95F84510 		ldrb	r1, [r5, #69]	@ zero_extendqisi2
 7942 00a2 C9B2     		uxtb	r1, r1
 7943 00a4 DFE7     		b	.L1034
 7944              	.L1068:
 7945 00a6 95F84610 		ldrb	r1, [r5, #70]	@ zero_extendqisi2
 7946 00aa C9B2     		uxtb	r1, r1
 7947 00ac DBE7     		b	.L1034
 7948              	.L1045:
 7949 00ae 0223     		movs	r3, #2
 7950 00b0 85F83E30 		strb	r3, [r5, #62]
 7951 00b4 85F84430 		strb	r3, [r5, #68]
 7952 00b8 19E0     		b	.L1046
 7953              	.L1044:
 7954 00ba 0223     		movs	r3, #2
 7955 00bc 85F83F30 		strb	r3, [r5, #63]
 7956 00c0 0EE0     		b	.L1047
 7957              	.L1043:
 7958 00c2 0223     		movs	r3, #2
 7959 00c4 85F84030 		strb	r3, [r5, #64]
 7960 00c8 0AE0     		b	.L1047
 7961              	.L1042:
 7962 00ca 0223     		movs	r3, #2
 7963 00cc 85F84130 		strb	r3, [r5, #65]
 7964 00d0 06E0     		b	.L1047
 7965              	.L1040:
 7966 00d2 0223     		movs	r3, #2
 7967 00d4 85F84230 		strb	r3, [r5, #66]
 7968 00d8 02E0     		b	.L1047
 7969              	.L1039:
 7970 00da 0223     		movs	r3, #2
 7971 00dc 85F84330 		strb	r3, [r5, #67]
ARM GAS  C:\Users\aticl\AppData\Local\Temp\ccqcvH4b.s 			page 137


 7972              	.L1047:
 7973 00e0 042C     		cmp	r4, #4
 7974 00e2 14D0     		beq	.L1069
 7975 00e4 082C     		cmp	r4, #8
 7976 00e6 16D0     		beq	.L1070
 7977 00e8 0223     		movs	r3, #2
 7978 00ea 85F84730 		strb	r3, [r5, #71]
 7979              	.L1046:
 7980 00ee 0122     		movs	r2, #1
 7981 00f0 2146     		mov	r1, r4
 7982 00f2 2868     		ldr	r0, [r5]
 7983 00f4 FFF7FEFF 		bl	TIM_CCxChannelCmd
 7984 00f8 0C2C     		cmp	r4, #12
 7985 00fa 71D8     		bhi	.L1061
 7986 00fc DFE804F0 		tbb	[pc, r4]
 7987              	.L1052:
 7988 0100 0F       		.byte	(.L1055-.L1052)/2
 7989 0101 70       		.byte	(.L1061-.L1052)/2
 7990 0102 70       		.byte	(.L1061-.L1052)/2
 7991 0103 70       		.byte	(.L1061-.L1052)/2
 7992 0104 28       		.byte	(.L1054-.L1052)/2
 7993 0105 70       		.byte	(.L1061-.L1052)/2
 7994 0106 70       		.byte	(.L1061-.L1052)/2
 7995 0107 70       		.byte	(.L1061-.L1052)/2
 7996 0108 40       		.byte	(.L1053-.L1052)/2
 7997 0109 70       		.byte	(.L1061-.L1052)/2
 7998 010a 70       		.byte	(.L1061-.L1052)/2
 7999 010b 70       		.byte	(.L1061-.L1052)/2
 8000 010c 58       		.byte	(.L1051-.L1052)/2
 8001 010d 00       		.p2align 1
 8002              	.L1069:
 8003 010e 0223     		movs	r3, #2
 8004 0110 85F84530 		strb	r3, [r5, #69]
 8005 0114 EBE7     		b	.L1046
 8006              	.L1070:
 8007 0116 0223     		movs	r3, #2
 8008 0118 85F84630 		strb	r3, [r5, #70]
 8009 011c E7E7     		b	.L1046
 8010              	.L1055:
 8011 011e 6B6A     		ldr	r3, [r5, #36]
 8012 0120 4F4A     		ldr	r2, .L1071
 8013 0122 DA63     		str	r2, [r3, #60]
 8014 0124 6B6A     		ldr	r3, [r5, #36]
 8015 0126 4F4A     		ldr	r2, .L1071+4
 8016 0128 1A64     		str	r2, [r3, #64]
 8017 012a 6B6A     		ldr	r3, [r5, #36]
 8018 012c 4E4A     		ldr	r2, .L1071+8
 8019 012e DA64     		str	r2, [r3, #76]
 8020 0130 2968     		ldr	r1, [r5]
 8021 0132 3B46     		mov	r3, r7
 8022 0134 3246     		mov	r2, r6
 8023 0136 3431     		adds	r1, r1, #52
 8024 0138 686A     		ldr	r0, [r5, #36]
 8025 013a FFF7FEFF 		bl	HAL_DMA_Start_IT
 8026 013e 0028     		cmp	r0, #0
 8027 0140 40F08680 		bne	.L1062
 8028 0144 2A68     		ldr	r2, [r5]
ARM GAS  C:\Users\aticl\AppData\Local\Temp\ccqcvH4b.s 			page 138


 8029 0146 D368     		ldr	r3, [r2, #12]
 8030 0148 43F40073 		orr	r3, r3, #512
 8031 014c D360     		str	r3, [r2, #12]
 8032 014e 48E0     		b	.L1050
 8033              	.L1054:
 8034 0150 AB6A     		ldr	r3, [r5, #40]
 8035 0152 434A     		ldr	r2, .L1071
 8036 0154 DA63     		str	r2, [r3, #60]
 8037 0156 AB6A     		ldr	r3, [r5, #40]
 8038 0158 424A     		ldr	r2, .L1071+4
 8039 015a 1A64     		str	r2, [r3, #64]
 8040 015c AB6A     		ldr	r3, [r5, #40]
 8041 015e 424A     		ldr	r2, .L1071+8
 8042 0160 DA64     		str	r2, [r3, #76]
 8043 0162 2968     		ldr	r1, [r5]
 8044 0164 3B46     		mov	r3, r7
 8045 0166 3246     		mov	r2, r6
 8046 0168 3831     		adds	r1, r1, #56
 8047 016a A86A     		ldr	r0, [r5, #40]
 8048 016c FFF7FEFF 		bl	HAL_DMA_Start_IT
 8049 0170 0028     		cmp	r0, #0
 8050 0172 6FD1     		bne	.L1063
 8051 0174 2A68     		ldr	r2, [r5]
 8052 0176 D368     		ldr	r3, [r2, #12]
 8053 0178 43F48063 		orr	r3, r3, #1024
 8054 017c D360     		str	r3, [r2, #12]
 8055 017e 30E0     		b	.L1050
 8056              	.L1053:
 8057 0180 EB6A     		ldr	r3, [r5, #44]
 8058 0182 374A     		ldr	r2, .L1071
 8059 0184 DA63     		str	r2, [r3, #60]
 8060 0186 EB6A     		ldr	r3, [r5, #44]
 8061 0188 364A     		ldr	r2, .L1071+4
 8062 018a 1A64     		str	r2, [r3, #64]
 8063 018c EB6A     		ldr	r3, [r5, #44]
 8064 018e 364A     		ldr	r2, .L1071+8
 8065 0190 DA64     		str	r2, [r3, #76]
 8066 0192 2968     		ldr	r1, [r5]
 8067 0194 3B46     		mov	r3, r7
 8068 0196 3246     		mov	r2, r6
 8069 0198 3C31     		adds	r1, r1, #60
 8070 019a E86A     		ldr	r0, [r5, #44]
 8071 019c FFF7FEFF 		bl	HAL_DMA_Start_IT
 8072 01a0 0028     		cmp	r0, #0
 8073 01a2 59D1     		bne	.L1064
 8074 01a4 2A68     		ldr	r2, [r5]
 8075 01a6 D368     		ldr	r3, [r2, #12]
 8076 01a8 43F40063 		orr	r3, r3, #2048
 8077 01ac D360     		str	r3, [r2, #12]
 8078 01ae 18E0     		b	.L1050
 8079              	.L1051:
 8080 01b0 2B6B     		ldr	r3, [r5, #48]
 8081 01b2 2B4A     		ldr	r2, .L1071
 8082 01b4 DA63     		str	r2, [r3, #60]
 8083 01b6 2B6B     		ldr	r3, [r5, #48]
 8084 01b8 2A4A     		ldr	r2, .L1071+4
 8085 01ba 1A64     		str	r2, [r3, #64]
ARM GAS  C:\Users\aticl\AppData\Local\Temp\ccqcvH4b.s 			page 139


 8086 01bc 2B6B     		ldr	r3, [r5, #48]
 8087 01be 2A4A     		ldr	r2, .L1071+8
 8088 01c0 DA64     		str	r2, [r3, #76]
 8089 01c2 2968     		ldr	r1, [r5]
 8090 01c4 3B46     		mov	r3, r7
 8091 01c6 3246     		mov	r2, r6
 8092 01c8 4031     		adds	r1, r1, #64
 8093 01ca 286B     		ldr	r0, [r5, #48]
 8094 01cc FFF7FEFF 		bl	HAL_DMA_Start_IT
 8095 01d0 0028     		cmp	r0, #0
 8096 01d2 43D1     		bne	.L1065
 8097 01d4 2A68     		ldr	r2, [r5]
 8098 01d6 D368     		ldr	r3, [r2, #12]
 8099 01d8 43F48053 		orr	r3, r3, #4096
 8100 01dc D360     		str	r3, [r2, #12]
 8101 01de 00E0     		b	.L1050
 8102              	.L1061:
 8103 01e0 0120     		movs	r0, #1
 8104              	.L1050:
 8105 01e2 2B68     		ldr	r3, [r5]
 8106 01e4 214A     		ldr	r2, .L1071+12
 8107 01e6 B3F1804F 		cmp	r3, #1073741824
 8108 01ea 18BF     		it	ne
 8109 01ec 9342     		cmpne	r3, r2
 8110 01ee 1CD0     		beq	.L1056
 8111 01f0 A2F57C42 		sub	r2, r2, #64512
 8112 01f4 9342     		cmp	r3, r2
 8113 01f6 18D0     		beq	.L1056
 8114 01f8 02F58062 		add	r2, r2, #1024
 8115 01fc 9342     		cmp	r3, r2
 8116 01fe 14D0     		beq	.L1056
 8117 0200 02F58062 		add	r2, r2, #1024
 8118 0204 9342     		cmp	r3, r2
 8119 0206 10D0     		beq	.L1056
 8120 0208 02F57842 		add	r2, r2, #63488
 8121 020c 9342     		cmp	r3, r2
 8122 020e 0CD0     		beq	.L1056
 8123 0210 A2F56C42 		sub	r2, r2, #60416
 8124 0214 9342     		cmp	r3, r2
 8125 0216 08D0     		beq	.L1056
 8126 0218 02F59432 		add	r2, r2, #75776
 8127 021c 9342     		cmp	r3, r2
 8128 021e 04D0     		beq	.L1056
 8129 0220 1A68     		ldr	r2, [r3]
 8130 0222 42F00102 		orr	r2, r2, #1
 8131 0226 1A60     		str	r2, [r3]
 8132 0228 0FE0     		b	.L1038
 8133              	.L1056:
 8134 022a 9968     		ldr	r1, [r3, #8]
 8135 022c 104A     		ldr	r2, .L1071+16
 8136 022e 0A40     		ands	r2, r2, r1
 8137 0230 062A     		cmp	r2, #6
 8138 0232 18BF     		it	ne
 8139 0234 B2F5803F 		cmpne	r2, #65536
 8140 0238 07D0     		beq	.L1038
 8141 023a 1A68     		ldr	r2, [r3]
 8142 023c 42F00102 		orr	r2, r2, #1
ARM GAS  C:\Users\aticl\AppData\Local\Temp\ccqcvH4b.s 			page 140


 8143 0240 1A60     		str	r2, [r3]
 8144 0242 02E0     		b	.L1038
 8145              	.L1058:
 8146 0244 0220     		movs	r0, #2
 8147 0246 00E0     		b	.L1038
 8148              	.L1059:
 8149 0248 0120     		movs	r0, #1
 8150              	.L1038:
 8151 024a F8BD     		pop	{r3, r4, r5, r6, r7, pc}
 8152              	.L1060:
 8153 024c 0120     		movs	r0, #1
 8154 024e FCE7     		b	.L1038
 8155              	.L1062:
 8156 0250 0120     		movs	r0, #1
 8157 0252 FAE7     		b	.L1038
 8158              	.L1063:
 8159 0254 0120     		movs	r0, #1
 8160 0256 F8E7     		b	.L1038
 8161              	.L1064:
 8162 0258 0120     		movs	r0, #1
 8163 025a F6E7     		b	.L1038
 8164              	.L1065:
 8165 025c 0120     		movs	r0, #1
 8166 025e F4E7     		b	.L1038
 8167              	.L1072:
 8168              		.align	2
 8169              	.L1071:
 8170 0260 00000000 		.word	TIM_DMACaptureCplt
 8171 0264 00000000 		.word	TIM_DMACaptureHalfCplt
 8172 0268 00000000 		.word	TIM_DMAError
 8173 026c 00000140 		.word	1073807360
 8174 0270 07000100 		.word	65543
 8176              		.section	.text.HAL_TIM_IC_Stop_DMA,"ax",%progbits
 8177              		.align	1
 8178              		.global	HAL_TIM_IC_Stop_DMA
 8179              		.syntax unified
 8180              		.thumb
 8181              		.thumb_func
 8183              	HAL_TIM_IC_Stop_DMA:
 8184              		@ args = 0, pretend = 0, frame = 0
 8185              		@ frame_needed = 0, uses_anonymous_args = 0
 8186 0000 38B5     		push	{r3, r4, r5, lr}
 8187 0002 0546     		mov	r5, r0
 8188 0004 0C46     		mov	r4, r1
 8189 0006 0022     		movs	r2, #0
 8190 0008 0068     		ldr	r0, [r0]
 8191 000a FFF7FEFF 		bl	TIM_CCxChannelCmd
 8192 000e 0C2C     		cmp	r4, #12
 8193 0010 74D8     		bhi	.L1092
 8194 0012 DFE804F0 		tbb	[pc, r4]
 8195              	.L1076:
 8196 0016 07       		.byte	(.L1079-.L1076)/2
 8197 0017 73       		.byte	(.L1092-.L1076)/2
 8198 0018 73       		.byte	(.L1092-.L1076)/2
 8199 0019 73       		.byte	(.L1092-.L1076)/2
 8200 001a 2B       		.byte	(.L1078-.L1076)/2
 8201 001b 73       		.byte	(.L1092-.L1076)/2
ARM GAS  C:\Users\aticl\AppData\Local\Temp\ccqcvH4b.s 			page 141


 8202 001c 73       		.byte	(.L1092-.L1076)/2
 8203 001d 73       		.byte	(.L1092-.L1076)/2
 8204 001e 34       		.byte	(.L1077-.L1076)/2
 8205 001f 73       		.byte	(.L1092-.L1076)/2
 8206 0020 73       		.byte	(.L1092-.L1076)/2
 8207 0021 73       		.byte	(.L1092-.L1076)/2
 8208 0022 3D       		.byte	(.L1075-.L1076)/2
 8209 0023 00       		.p2align 1
 8210              	.L1079:
 8211 0024 2A68     		ldr	r2, [r5]
 8212 0026 D368     		ldr	r3, [r2, #12]
 8213 0028 23F40073 		bic	r3, r3, #512
 8214 002c D360     		str	r3, [r2, #12]
 8215 002e 686A     		ldr	r0, [r5, #36]
 8216 0030 FFF7FEFF 		bl	HAL_DMA_Abort_IT
 8217              	.L1080:
 8218 0034 2B68     		ldr	r3, [r5]
 8219 0036 196A     		ldr	r1, [r3, #32]
 8220 0038 41F21112 		movw	r2, #4369
 8221 003c 1142     		tst	r1, r2
 8222 003e 08D1     		bne	.L1081
 8223 0040 196A     		ldr	r1, [r3, #32]
 8224 0042 40F24442 		movw	r2, #1092
 8225 0046 1142     		tst	r1, r2
 8226 0048 03D1     		bne	.L1081
 8227 004a 1A68     		ldr	r2, [r3]
 8228 004c 22F00102 		bic	r2, r2, #1
 8229 0050 1A60     		str	r2, [r3]
 8230              	.L1081:
 8231 0052 102C     		cmp	r4, #16
 8232 0054 3CD8     		bhi	.L1082
 8233 0056 DFE804F0 		tbb	[pc, r4]
 8234              	.L1084:
 8235 005a 24       		.byte	(.L1088-.L1084)/2
 8236 005b 3B       		.byte	(.L1082-.L1084)/2
 8237 005c 3B       		.byte	(.L1082-.L1084)/2
 8238 005d 3B       		.byte	(.L1082-.L1084)/2
 8239 005e 2B       		.byte	(.L1087-.L1084)/2
 8240 005f 3B       		.byte	(.L1082-.L1084)/2
 8241 0060 3B       		.byte	(.L1082-.L1084)/2
 8242 0061 3B       		.byte	(.L1082-.L1084)/2
 8243 0062 2F       		.byte	(.L1086-.L1084)/2
 8244 0063 3B       		.byte	(.L1082-.L1084)/2
 8245 0064 3B       		.byte	(.L1082-.L1084)/2
 8246 0065 3B       		.byte	(.L1082-.L1084)/2
 8247 0066 33       		.byte	(.L1085-.L1084)/2
 8248 0067 3B       		.byte	(.L1082-.L1084)/2
 8249 0068 3B       		.byte	(.L1082-.L1084)/2
 8250 0069 3B       		.byte	(.L1082-.L1084)/2
 8251 006a 37       		.byte	(.L1083-.L1084)/2
 8252 006b 00       		.p2align 1
 8253              	.L1078:
 8254 006c 2A68     		ldr	r2, [r5]
 8255 006e D368     		ldr	r3, [r2, #12]
 8256 0070 23F48063 		bic	r3, r3, #1024
 8257 0074 D360     		str	r3, [r2, #12]
 8258 0076 A86A     		ldr	r0, [r5, #40]
ARM GAS  C:\Users\aticl\AppData\Local\Temp\ccqcvH4b.s 			page 142


 8259 0078 FFF7FEFF 		bl	HAL_DMA_Abort_IT
 8260 007c DAE7     		b	.L1080
 8261              	.L1077:
 8262 007e 2A68     		ldr	r2, [r5]
 8263 0080 D368     		ldr	r3, [r2, #12]
 8264 0082 23F40063 		bic	r3, r3, #2048
 8265 0086 D360     		str	r3, [r2, #12]
 8266 0088 E86A     		ldr	r0, [r5, #44]
 8267 008a FFF7FEFF 		bl	HAL_DMA_Abort_IT
 8268 008e D1E7     		b	.L1080
 8269              	.L1075:
 8270 0090 2A68     		ldr	r2, [r5]
 8271 0092 D368     		ldr	r3, [r2, #12]
 8272 0094 23F48053 		bic	r3, r3, #4096
 8273 0098 D360     		str	r3, [r2, #12]
 8274 009a 286B     		ldr	r0, [r5, #48]
 8275 009c FFF7FEFF 		bl	HAL_DMA_Abort_IT
 8276 00a0 C8E7     		b	.L1080
 8277              	.L1088:
 8278 00a2 0123     		movs	r3, #1
 8279 00a4 85F83E30 		strb	r3, [r5, #62]
 8280 00a8 85F84430 		strb	r3, [r5, #68]
 8281 00ac 0020     		movs	r0, #0
 8282 00ae 26E0     		b	.L1074
 8283              	.L1087:
 8284 00b0 0123     		movs	r3, #1
 8285 00b2 85F83F30 		strb	r3, [r5, #63]
 8286 00b6 0EE0     		b	.L1089
 8287              	.L1086:
 8288 00b8 0123     		movs	r3, #1
 8289 00ba 85F84030 		strb	r3, [r5, #64]
 8290 00be 0AE0     		b	.L1089
 8291              	.L1085:
 8292 00c0 0123     		movs	r3, #1
 8293 00c2 85F84130 		strb	r3, [r5, #65]
 8294 00c6 06E0     		b	.L1089
 8295              	.L1083:
 8296 00c8 0123     		movs	r3, #1
 8297 00ca 85F84230 		strb	r3, [r5, #66]
 8298 00ce 02E0     		b	.L1089
 8299              	.L1082:
 8300 00d0 0123     		movs	r3, #1
 8301 00d2 85F84330 		strb	r3, [r5, #67]
 8302              	.L1089:
 8303 00d6 042C     		cmp	r4, #4
 8304 00d8 06D0     		beq	.L1094
 8305 00da 082C     		cmp	r4, #8
 8306 00dc 09D0     		beq	.L1095
 8307 00de 0123     		movs	r3, #1
 8308 00e0 85F84730 		strb	r3, [r5, #71]
 8309 00e4 0020     		movs	r0, #0
 8310 00e6 0AE0     		b	.L1074
 8311              	.L1094:
 8312 00e8 0123     		movs	r3, #1
 8313 00ea 85F84530 		strb	r3, [r5, #69]
 8314 00ee 0020     		movs	r0, #0
 8315 00f0 05E0     		b	.L1074
ARM GAS  C:\Users\aticl\AppData\Local\Temp\ccqcvH4b.s 			page 143


 8316              	.L1095:
 8317 00f2 0123     		movs	r3, #1
 8318 00f4 85F84630 		strb	r3, [r5, #70]
 8319 00f8 0020     		movs	r0, #0
 8320 00fa 00E0     		b	.L1074
 8321              	.L1092:
 8322 00fc 0120     		movs	r0, #1
 8323              	.L1074:
 8324 00fe 38BD     		pop	{r3, r4, r5, pc}
 8326              		.section	.text.HAL_TIM_OnePulse_Start,"ax",%progbits
 8327              		.align	1
 8328              		.global	HAL_TIM_OnePulse_Start
 8329              		.syntax unified
 8330              		.thumb
 8331              		.thumb_func
 8333              	HAL_TIM_OnePulse_Start:
 8334              		@ args = 0, pretend = 0, frame = 0
 8335              		@ frame_needed = 0, uses_anonymous_args = 0
 8336 0000 10B5     		push	{r4, lr}
 8337 0002 0446     		mov	r4, r0
 8338 0004 90F83E00 		ldrb	r0, [r0, #62]	@ zero_extendqisi2
 8339 0008 94F83F10 		ldrb	r1, [r4, #63]	@ zero_extendqisi2
 8340 000c 94F84430 		ldrb	r3, [r4, #68]	@ zero_extendqisi2
 8341 0010 DAB2     		uxtb	r2, r3
 8342 0012 94F84530 		ldrb	r3, [r4, #69]	@ zero_extendqisi2
 8343 0016 0129     		cmp	r1, #1
 8344 0018 08BF     		it	eq
 8345 001a 0128     		cmpeq	r0, #1
 8346 001c 33D1     		bne	.L1099
 8347 001e DBB2     		uxtb	r3, r3
 8348 0020 013B     		subs	r3, r3, #1
 8349 0022 18BF     		it	ne
 8350 0024 0123     		movne	r3, #1
 8351 0026 012A     		cmp	r2, #1
 8352 0028 2FD1     		bne	.L1100
 8353 002a 73BB     		cbnz	r3, .L1100
 8354 002c 0223     		movs	r3, #2
 8355 002e 84F83E30 		strb	r3, [r4, #62]
 8356 0032 84F83F30 		strb	r3, [r4, #63]
 8357 0036 84F84430 		strb	r3, [r4, #68]
 8358 003a 84F84530 		strb	r3, [r4, #69]
 8359 003e 0021     		movs	r1, #0
 8360 0040 2068     		ldr	r0, [r4]
 8361 0042 FFF7FEFF 		bl	TIM_CCxChannelCmd
 8362 0046 0122     		movs	r2, #1
 8363 0048 0421     		movs	r1, #4
 8364 004a 2068     		ldr	r0, [r4]
 8365 004c FFF7FEFF 		bl	TIM_CCxChannelCmd
 8366 0050 2368     		ldr	r3, [r4]
 8367 0052 0F49     		ldr	r1, .L1103
 8368 0054 0F4A     		ldr	r2, .L1103+4
 8369 0056 9342     		cmp	r3, r2
 8370 0058 18BF     		it	ne
 8371 005a 8B42     		cmpne	r3, r1
 8372 005c 0DD0     		beq	.L1098
 8373 005e 02F57052 		add	r2, r2, #15360
 8374 0062 9342     		cmp	r3, r2
ARM GAS  C:\Users\aticl\AppData\Local\Temp\ccqcvH4b.s 			page 144


 8375 0064 09D0     		beq	.L1098
 8376 0066 02F58062 		add	r2, r2, #1024
 8377 006a 9342     		cmp	r3, r2
 8378 006c 05D0     		beq	.L1098
 8379 006e 02F58062 		add	r2, r2, #1024
 8380 0072 9342     		cmp	r3, r2
 8381 0074 01D0     		beq	.L1098
 8382 0076 0020     		movs	r0, #0
 8383 0078 06E0     		b	.L1097
 8384              	.L1098:
 8385 007a 5A6C     		ldr	r2, [r3, #68]
 8386 007c 42F40042 		orr	r2, r2, #32768
 8387 0080 5A64     		str	r2, [r3, #68]
 8388 0082 0020     		movs	r0, #0
 8389 0084 00E0     		b	.L1097
 8390              	.L1099:
 8391 0086 0120     		movs	r0, #1
 8392              	.L1097:
 8393 0088 10BD     		pop	{r4, pc}
 8394              	.L1100:
 8395 008a 0120     		movs	r0, #1
 8396 008c FCE7     		b	.L1097
 8397              	.L1104:
 8398 008e 00BF     		.align	2
 8399              	.L1103:
 8400 0090 00000140 		.word	1073807360
 8401 0094 00040140 		.word	1073808384
 8403              		.section	.text.HAL_TIM_OnePulse_Stop,"ax",%progbits
 8404              		.align	1
 8405              		.global	HAL_TIM_OnePulse_Stop
 8406              		.syntax unified
 8407              		.thumb
 8408              		.thumb_func
 8410              	HAL_TIM_OnePulse_Stop:
 8411              		@ args = 0, pretend = 0, frame = 0
 8412              		@ frame_needed = 0, uses_anonymous_args = 0
 8413 0000 10B5     		push	{r4, lr}
 8414 0002 0446     		mov	r4, r0
 8415 0004 0022     		movs	r2, #0
 8416 0006 1146     		mov	r1, r2
 8417 0008 0068     		ldr	r0, [r0]
 8418 000a FFF7FEFF 		bl	TIM_CCxChannelCmd
 8419 000e 0022     		movs	r2, #0
 8420 0010 0421     		movs	r1, #4
 8421 0012 2068     		ldr	r0, [r4]
 8422 0014 FFF7FEFF 		bl	TIM_CCxChannelCmd
 8423 0018 2368     		ldr	r3, [r4]
 8424 001a 1D49     		ldr	r1, .L1110
 8425 001c 1D4A     		ldr	r2, .L1110+4
 8426 001e 9342     		cmp	r3, r2
 8427 0020 18BF     		it	ne
 8428 0022 8B42     		cmpne	r3, r1
 8429 0024 0BD0     		beq	.L1106
 8430 0026 02F57052 		add	r2, r2, #15360
 8431 002a 9342     		cmp	r3, r2
 8432 002c 07D0     		beq	.L1106
 8433 002e 02F58062 		add	r2, r2, #1024
ARM GAS  C:\Users\aticl\AppData\Local\Temp\ccqcvH4b.s 			page 145


 8434 0032 9342     		cmp	r3, r2
 8435 0034 03D0     		beq	.L1106
 8436 0036 02F58062 		add	r2, r2, #1024
 8437 003a 9342     		cmp	r3, r2
 8438 003c 0DD1     		bne	.L1107
 8439              	.L1106:
 8440 003e 196A     		ldr	r1, [r3, #32]
 8441 0040 41F21112 		movw	r2, #4369
 8442 0044 1142     		tst	r1, r2
 8443 0046 08D1     		bne	.L1107
 8444 0048 196A     		ldr	r1, [r3, #32]
 8445 004a 40F24442 		movw	r2, #1092
 8446 004e 1142     		tst	r1, r2
 8447 0050 03D1     		bne	.L1107
 8448 0052 5A6C     		ldr	r2, [r3, #68]
 8449 0054 22F40042 		bic	r2, r2, #32768
 8450 0058 5A64     		str	r2, [r3, #68]
 8451              	.L1107:
 8452 005a 2368     		ldr	r3, [r4]
 8453 005c 196A     		ldr	r1, [r3, #32]
 8454 005e 41F21112 		movw	r2, #4369
 8455 0062 1142     		tst	r1, r2
 8456 0064 08D1     		bne	.L1108
 8457 0066 196A     		ldr	r1, [r3, #32]
 8458 0068 40F24442 		movw	r2, #1092
 8459 006c 1142     		tst	r1, r2
 8460 006e 03D1     		bne	.L1108
 8461 0070 1A68     		ldr	r2, [r3]
 8462 0072 22F00102 		bic	r2, r2, #1
 8463 0076 1A60     		str	r2, [r3]
 8464              	.L1108:
 8465 0078 0123     		movs	r3, #1
 8466 007a 84F83E30 		strb	r3, [r4, #62]
 8467 007e 84F83F30 		strb	r3, [r4, #63]
 8468 0082 84F84430 		strb	r3, [r4, #68]
 8469 0086 84F84530 		strb	r3, [r4, #69]
 8470 008a 0020     		movs	r0, #0
 8471 008c 10BD     		pop	{r4, pc}
 8472              	.L1111:
 8473 008e 00BF     		.align	2
 8474              	.L1110:
 8475 0090 00000140 		.word	1073807360
 8476 0094 00040140 		.word	1073808384
 8478              		.section	.text.HAL_TIM_OnePulse_Start_IT,"ax",%progbits
 8479              		.align	1
 8480              		.global	HAL_TIM_OnePulse_Start_IT
 8481              		.syntax unified
 8482              		.thumb
 8483              		.thumb_func
 8485              	HAL_TIM_OnePulse_Start_IT:
 8486              		@ args = 0, pretend = 0, frame = 0
 8487              		@ frame_needed = 0, uses_anonymous_args = 0
 8488 0000 10B5     		push	{r4, lr}
 8489 0002 0446     		mov	r4, r0
 8490 0004 90F83E00 		ldrb	r0, [r0, #62]	@ zero_extendqisi2
 8491 0008 94F83F10 		ldrb	r1, [r4, #63]	@ zero_extendqisi2
 8492 000c 94F84430 		ldrb	r3, [r4, #68]	@ zero_extendqisi2
ARM GAS  C:\Users\aticl\AppData\Local\Temp\ccqcvH4b.s 			page 146


 8493 0010 DAB2     		uxtb	r2, r3
 8494 0012 94F84530 		ldrb	r3, [r4, #69]	@ zero_extendqisi2
 8495 0016 0129     		cmp	r1, #1
 8496 0018 08BF     		it	eq
 8497 001a 0128     		cmpeq	r0, #1
 8498 001c 3FD1     		bne	.L1115
 8499 001e DBB2     		uxtb	r3, r3
 8500 0020 013B     		subs	r3, r3, #1
 8501 0022 18BF     		it	ne
 8502 0024 0123     		movne	r3, #1
 8503 0026 012A     		cmp	r2, #1
 8504 0028 3BD1     		bne	.L1116
 8505 002a 002B     		cmp	r3, #0
 8506 002c 39D1     		bne	.L1116
 8507 002e 0223     		movs	r3, #2
 8508 0030 84F83E30 		strb	r3, [r4, #62]
 8509 0034 84F83F30 		strb	r3, [r4, #63]
 8510 0038 84F84430 		strb	r3, [r4, #68]
 8511 003c 84F84530 		strb	r3, [r4, #69]
 8512 0040 2268     		ldr	r2, [r4]
 8513 0042 D368     		ldr	r3, [r2, #12]
 8514 0044 43F00203 		orr	r3, r3, #2
 8515 0048 D360     		str	r3, [r2, #12]
 8516 004a 2268     		ldr	r2, [r4]
 8517 004c D368     		ldr	r3, [r2, #12]
 8518 004e 43F00403 		orr	r3, r3, #4
 8519 0052 D360     		str	r3, [r2, #12]
 8520 0054 0122     		movs	r2, #1
 8521 0056 0021     		movs	r1, #0
 8522 0058 2068     		ldr	r0, [r4]
 8523 005a FFF7FEFF 		bl	TIM_CCxChannelCmd
 8524 005e 0122     		movs	r2, #1
 8525 0060 0421     		movs	r1, #4
 8526 0062 2068     		ldr	r0, [r4]
 8527 0064 FFF7FEFF 		bl	TIM_CCxChannelCmd
 8528 0068 2368     		ldr	r3, [r4]
 8529 006a 0F49     		ldr	r1, .L1119
 8530 006c 0F4A     		ldr	r2, .L1119+4
 8531 006e 9342     		cmp	r3, r2
 8532 0070 18BF     		it	ne
 8533 0072 8B42     		cmpne	r3, r1
 8534 0074 0DD0     		beq	.L1114
 8535 0076 02F57052 		add	r2, r2, #15360
 8536 007a 9342     		cmp	r3, r2
 8537 007c 09D0     		beq	.L1114
 8538 007e 02F58062 		add	r2, r2, #1024
 8539 0082 9342     		cmp	r3, r2
 8540 0084 05D0     		beq	.L1114
 8541 0086 02F58062 		add	r2, r2, #1024
 8542 008a 9342     		cmp	r3, r2
 8543 008c 01D0     		beq	.L1114
 8544 008e 0020     		movs	r0, #0
 8545 0090 06E0     		b	.L1113
 8546              	.L1114:
 8547 0092 5A6C     		ldr	r2, [r3, #68]
 8548 0094 42F40042 		orr	r2, r2, #32768
 8549 0098 5A64     		str	r2, [r3, #68]
ARM GAS  C:\Users\aticl\AppData\Local\Temp\ccqcvH4b.s 			page 147


 8550 009a 0020     		movs	r0, #0
 8551 009c 00E0     		b	.L1113
 8552              	.L1115:
 8553 009e 0120     		movs	r0, #1
 8554              	.L1113:
 8555 00a0 10BD     		pop	{r4, pc}
 8556              	.L1116:
 8557 00a2 0120     		movs	r0, #1
 8558 00a4 FCE7     		b	.L1113
 8559              	.L1120:
 8560 00a6 00BF     		.align	2
 8561              	.L1119:
 8562 00a8 00000140 		.word	1073807360
 8563 00ac 00040140 		.word	1073808384
 8565              		.section	.text.HAL_TIM_OnePulse_Stop_IT,"ax",%progbits
 8566              		.align	1
 8567              		.global	HAL_TIM_OnePulse_Stop_IT
 8568              		.syntax unified
 8569              		.thumb
 8570              		.thumb_func
 8572              	HAL_TIM_OnePulse_Stop_IT:
 8573              		@ args = 0, pretend = 0, frame = 0
 8574              		@ frame_needed = 0, uses_anonymous_args = 0
 8575 0000 10B5     		push	{r4, lr}
 8576 0002 0446     		mov	r4, r0
 8577 0004 0268     		ldr	r2, [r0]
 8578 0006 D368     		ldr	r3, [r2, #12]
 8579 0008 23F00203 		bic	r3, r3, #2
 8580 000c D360     		str	r3, [r2, #12]
 8581 000e 0268     		ldr	r2, [r0]
 8582 0010 D368     		ldr	r3, [r2, #12]
 8583 0012 23F00403 		bic	r3, r3, #4
 8584 0016 D360     		str	r3, [r2, #12]
 8585 0018 0022     		movs	r2, #0
 8586 001a 1146     		mov	r1, r2
 8587 001c 0068     		ldr	r0, [r0]
 8588 001e FFF7FEFF 		bl	TIM_CCxChannelCmd
 8589 0022 0022     		movs	r2, #0
 8590 0024 0421     		movs	r1, #4
 8591 0026 2068     		ldr	r0, [r4]
 8592 0028 FFF7FEFF 		bl	TIM_CCxChannelCmd
 8593 002c 2368     		ldr	r3, [r4]
 8594 002e 1D49     		ldr	r1, .L1126
 8595 0030 1D4A     		ldr	r2, .L1126+4
 8596 0032 9342     		cmp	r3, r2
 8597 0034 18BF     		it	ne
 8598 0036 8B42     		cmpne	r3, r1
 8599 0038 0BD0     		beq	.L1122
 8600 003a 02F57052 		add	r2, r2, #15360
 8601 003e 9342     		cmp	r3, r2
 8602 0040 07D0     		beq	.L1122
 8603 0042 02F58062 		add	r2, r2, #1024
 8604 0046 9342     		cmp	r3, r2
 8605 0048 03D0     		beq	.L1122
 8606 004a 02F58062 		add	r2, r2, #1024
 8607 004e 9342     		cmp	r3, r2
 8608 0050 0DD1     		bne	.L1123
ARM GAS  C:\Users\aticl\AppData\Local\Temp\ccqcvH4b.s 			page 148


 8609              	.L1122:
 8610 0052 196A     		ldr	r1, [r3, #32]
 8611 0054 41F21112 		movw	r2, #4369
 8612 0058 1142     		tst	r1, r2
 8613 005a 08D1     		bne	.L1123
 8614 005c 196A     		ldr	r1, [r3, #32]
 8615 005e 40F24442 		movw	r2, #1092
 8616 0062 1142     		tst	r1, r2
 8617 0064 03D1     		bne	.L1123
 8618 0066 5A6C     		ldr	r2, [r3, #68]
 8619 0068 22F40042 		bic	r2, r2, #32768
 8620 006c 5A64     		str	r2, [r3, #68]
 8621              	.L1123:
 8622 006e 2368     		ldr	r3, [r4]
 8623 0070 196A     		ldr	r1, [r3, #32]
 8624 0072 41F21112 		movw	r2, #4369
 8625 0076 1142     		tst	r1, r2
 8626 0078 08D1     		bne	.L1124
 8627 007a 196A     		ldr	r1, [r3, #32]
 8628 007c 40F24442 		movw	r2, #1092
 8629 0080 1142     		tst	r1, r2
 8630 0082 03D1     		bne	.L1124
 8631 0084 1A68     		ldr	r2, [r3]
 8632 0086 22F00102 		bic	r2, r2, #1
 8633 008a 1A60     		str	r2, [r3]
 8634              	.L1124:
 8635 008c 0123     		movs	r3, #1
 8636 008e 84F83E30 		strb	r3, [r4, #62]
 8637 0092 84F83F30 		strb	r3, [r4, #63]
 8638 0096 84F84430 		strb	r3, [r4, #68]
 8639 009a 84F84530 		strb	r3, [r4, #69]
 8640 009e 0020     		movs	r0, #0
 8641 00a0 10BD     		pop	{r4, pc}
 8642              	.L1127:
 8643 00a2 00BF     		.align	2
 8644              	.L1126:
 8645 00a4 00000140 		.word	1073807360
 8646 00a8 00040140 		.word	1073808384
 8648              		.section	.text.HAL_TIM_Encoder_Start,"ax",%progbits
 8649              		.align	1
 8650              		.global	HAL_TIM_Encoder_Start
 8651              		.syntax unified
 8652              		.thumb
 8653              		.thumb_func
 8655              	HAL_TIM_Encoder_Start:
 8656              		@ args = 0, pretend = 0, frame = 0
 8657              		@ frame_needed = 0, uses_anonymous_args = 0
 8658 0000 38B5     		push	{r3, r4, r5, lr}
 8659 0002 0446     		mov	r4, r0
 8660 0004 90F83E30 		ldrb	r3, [r0, #62]	@ zero_extendqisi2
 8661 0008 DBB2     		uxtb	r3, r3
 8662 000a 90F83F20 		ldrb	r2, [r0, #63]	@ zero_extendqisi2
 8663 000e 5FFA82FC 		uxtb	ip, r2
 8664 0012 90F84420 		ldrb	r2, [r0, #68]	@ zero_extendqisi2
 8665 0016 D0B2     		uxtb	r0, r2
 8666 0018 94F84520 		ldrb	r2, [r4, #69]	@ zero_extendqisi2
 8667 001c 0D46     		mov	r5, r1
ARM GAS  C:\Users\aticl\AppData\Local\Temp\ccqcvH4b.s 			page 149


 8668 001e B1B9     		cbnz	r1, .L1129
 8669 0020 0128     		cmp	r0, #1
 8670 0022 08BF     		it	eq
 8671 0024 012B     		cmpeq	r3, #1
 8672 0026 47D1     		bne	.L1137
 8673 0028 0223     		movs	r3, #2
 8674 002a 84F83E30 		strb	r3, [r4, #62]
 8675 002e 84F84430 		strb	r3, [r4, #68]
 8676              	.L1131:
 8677 0032 7DB3     		cbz	r5, .L1133
 8678 0034 042D     		cmp	r5, #4
 8679 0036 39D0     		beq	.L1134
 8680 0038 0122     		movs	r2, #1
 8681 003a 0021     		movs	r1, #0
 8682 003c 2068     		ldr	r0, [r4]
 8683 003e FFF7FEFF 		bl	TIM_CCxChannelCmd
 8684 0042 0122     		movs	r2, #1
 8685 0044 0421     		movs	r1, #4
 8686 0046 2068     		ldr	r0, [r4]
 8687 0048 FFF7FEFF 		bl	TIM_CCxChannelCmd
 8688 004c 27E0     		b	.L1136
 8689              	.L1129:
 8690 004e D2B2     		uxtb	r2, r2
 8691 0050 0429     		cmp	r1, #4
 8692 0052 14D0     		beq	.L1143
 8693 0054 BCF1010F 		cmp	ip, #1
 8694 0058 08BF     		it	eq
 8695 005a 012B     		cmpeq	r3, #1
 8696 005c 30D1     		bne	.L1139
 8697 005e 013A     		subs	r2, r2, #1
 8698 0060 18BF     		it	ne
 8699 0062 0122     		movne	r2, #1
 8700 0064 0128     		cmp	r0, #1
 8701 0066 2DD1     		bne	.L1140
 8702 0068 62BB     		cbnz	r2, .L1140
 8703 006a 0223     		movs	r3, #2
 8704 006c 84F83E30 		strb	r3, [r4, #62]
 8705 0070 84F83F30 		strb	r3, [r4, #63]
 8706 0074 84F84430 		strb	r3, [r4, #68]
 8707 0078 84F84530 		strb	r3, [r4, #69]
 8708 007c D9E7     		b	.L1131
 8709              	.L1143:
 8710 007e 012A     		cmp	r2, #1
 8711 0080 08BF     		it	eq
 8712 0082 BCF1010F 		cmpeq	ip, #1
 8713 0086 19D1     		bne	.L1138
 8714 0088 0223     		movs	r3, #2
 8715 008a 84F83F30 		strb	r3, [r4, #63]
 8716 008e 84F84530 		strb	r3, [r4, #69]
 8717 0092 CEE7     		b	.L1131
 8718              	.L1133:
 8719 0094 0122     		movs	r2, #1
 8720 0096 0021     		movs	r1, #0
 8721 0098 2068     		ldr	r0, [r4]
 8722 009a FFF7FEFF 		bl	TIM_CCxChannelCmd
 8723              	.L1136:
 8724 009e 2268     		ldr	r2, [r4]
ARM GAS  C:\Users\aticl\AppData\Local\Temp\ccqcvH4b.s 			page 150


 8725 00a0 1368     		ldr	r3, [r2]
 8726 00a2 43F00103 		orr	r3, r3, #1
 8727 00a6 1360     		str	r3, [r2]
 8728 00a8 0020     		movs	r0, #0
 8729              	.L1130:
 8730 00aa 38BD     		pop	{r3, r4, r5, pc}
 8731              	.L1134:
 8732 00ac 0122     		movs	r2, #1
 8733 00ae 0421     		movs	r1, #4
 8734 00b0 2068     		ldr	r0, [r4]
 8735 00b2 FFF7FEFF 		bl	TIM_CCxChannelCmd
 8736 00b6 F2E7     		b	.L1136
 8737              	.L1137:
 8738 00b8 0120     		movs	r0, #1
 8739 00ba F6E7     		b	.L1130
 8740              	.L1138:
 8741 00bc 0120     		movs	r0, #1
 8742 00be F4E7     		b	.L1130
 8743              	.L1139:
 8744 00c0 0120     		movs	r0, #1
 8745 00c2 F2E7     		b	.L1130
 8746              	.L1140:
 8747 00c4 0120     		movs	r0, #1
 8748 00c6 F0E7     		b	.L1130
 8750              		.section	.text.HAL_TIM_Encoder_Stop,"ax",%progbits
 8751              		.align	1
 8752              		.global	HAL_TIM_Encoder_Stop
 8753              		.syntax unified
 8754              		.thumb
 8755              		.thumb_func
 8757              	HAL_TIM_Encoder_Stop:
 8758              		@ args = 0, pretend = 0, frame = 0
 8759              		@ frame_needed = 0, uses_anonymous_args = 0
 8760 0000 38B5     		push	{r3, r4, r5, lr}
 8761 0002 0446     		mov	r4, r0
 8762 0004 0D46     		mov	r5, r1
 8763 0006 61B1     		cbz	r1, .L1145
 8764 0008 0429     		cmp	r1, #4
 8765 000a 2FD0     		beq	.L1146
 8766 000c 0022     		movs	r2, #0
 8767 000e 1146     		mov	r1, r2
 8768 0010 0068     		ldr	r0, [r0]
 8769 0012 FFF7FEFF 		bl	TIM_CCxChannelCmd
 8770 0016 0022     		movs	r2, #0
 8771 0018 0421     		movs	r1, #4
 8772 001a 2068     		ldr	r0, [r4]
 8773 001c FFF7FEFF 		bl	TIM_CCxChannelCmd
 8774 0020 04E0     		b	.L1148
 8775              	.L1145:
 8776 0022 0022     		movs	r2, #0
 8777 0024 1146     		mov	r1, r2
 8778 0026 0068     		ldr	r0, [r0]
 8779 0028 FFF7FEFF 		bl	TIM_CCxChannelCmd
 8780              	.L1148:
 8781 002c 2368     		ldr	r3, [r4]
 8782 002e 196A     		ldr	r1, [r3, #32]
 8783 0030 41F21112 		movw	r2, #4369
ARM GAS  C:\Users\aticl\AppData\Local\Temp\ccqcvH4b.s 			page 151


 8784 0034 1142     		tst	r1, r2
 8785 0036 08D1     		bne	.L1149
 8786 0038 196A     		ldr	r1, [r3, #32]
 8787 003a 40F24442 		movw	r2, #1092
 8788 003e 1142     		tst	r1, r2
 8789 0040 03D1     		bne	.L1149
 8790 0042 1A68     		ldr	r2, [r3]
 8791 0044 22F00102 		bic	r2, r2, #1
 8792 0048 1A60     		str	r2, [r3]
 8793              	.L1149:
 8794 004a 042D     		cmp	r5, #4
 8795 004c 18BF     		it	ne
 8796 004e 002D     		cmpne	r5, #0
 8797 0050 3ED1     		bne	.L1150
 8798 0052 102D     		cmp	r5, #16
 8799 0054 2BD8     		bhi	.L1151
 8800 0056 DFE805F0 		tbb	[pc, r5]
 8801              	.L1153:
 8802 005a 0F       		.byte	(.L1157-.L1153)/2
 8803 005b 2A       		.byte	(.L1151-.L1153)/2
 8804 005c 2A       		.byte	(.L1151-.L1153)/2
 8805 005d 2A       		.byte	(.L1151-.L1153)/2
 8806 005e 13       		.byte	(.L1156-.L1153)/2
 8807 005f 2A       		.byte	(.L1151-.L1153)/2
 8808 0060 2A       		.byte	(.L1151-.L1153)/2
 8809 0061 2A       		.byte	(.L1151-.L1153)/2
 8810 0062 1E       		.byte	(.L1155-.L1153)/2
 8811 0063 2A       		.byte	(.L1151-.L1153)/2
 8812 0064 2A       		.byte	(.L1151-.L1153)/2
 8813 0065 2A       		.byte	(.L1151-.L1153)/2
 8814 0066 22       		.byte	(.L1154-.L1153)/2
 8815 0067 2A       		.byte	(.L1151-.L1153)/2
 8816 0068 2A       		.byte	(.L1151-.L1153)/2
 8817 0069 2A       		.byte	(.L1151-.L1153)/2
 8818 006a 26       		.byte	(.L1152-.L1153)/2
 8819 006b 00       		.p2align 1
 8820              	.L1146:
 8821 006c 0022     		movs	r2, #0
 8822 006e 0421     		movs	r1, #4
 8823 0070 0068     		ldr	r0, [r0]
 8824 0072 FFF7FEFF 		bl	TIM_CCxChannelCmd
 8825 0076 D9E7     		b	.L1148
 8826              	.L1157:
 8827 0078 0123     		movs	r3, #1
 8828 007a 84F83E30 		strb	r3, [r4, #62]
 8829 007e 1BE0     		b	.L1158
 8830              	.L1156:
 8831 0080 0123     		movs	r3, #1
 8832 0082 84F83F30 		strb	r3, [r4, #63]
 8833              	.L1159:
 8834 0086 042D     		cmp	r5, #4
 8835 0088 1AD0     		beq	.L1165
 8836 008a 082D     		cmp	r5, #8
 8837 008c 1CD0     		beq	.L1166
 8838 008e 0123     		movs	r3, #1
 8839 0090 84F84730 		strb	r3, [r4, #71]
 8840 0094 25E0     		b	.L1160
ARM GAS  C:\Users\aticl\AppData\Local\Temp\ccqcvH4b.s 			page 152


 8841              	.L1155:
 8842 0096 0123     		movs	r3, #1
 8843 0098 84F84030 		strb	r3, [r4, #64]
 8844 009c F3E7     		b	.L1159
 8845              	.L1154:
 8846 009e 0123     		movs	r3, #1
 8847 00a0 84F84130 		strb	r3, [r4, #65]
 8848 00a4 EFE7     		b	.L1159
 8849              	.L1152:
 8850 00a6 0123     		movs	r3, #1
 8851 00a8 84F84230 		strb	r3, [r4, #66]
 8852 00ac EBE7     		b	.L1159
 8853              	.L1151:
 8854 00ae 0123     		movs	r3, #1
 8855 00b0 84F84330 		strb	r3, [r4, #67]
 8856 00b4 002D     		cmp	r5, #0
 8857 00b6 E6D1     		bne	.L1159
 8858              	.L1158:
 8859 00b8 0123     		movs	r3, #1
 8860 00ba 84F84430 		strb	r3, [r4, #68]
 8861 00be 10E0     		b	.L1160
 8862              	.L1165:
 8863 00c0 0123     		movs	r3, #1
 8864 00c2 84F84530 		strb	r3, [r4, #69]
 8865 00c6 0CE0     		b	.L1160
 8866              	.L1166:
 8867 00c8 0123     		movs	r3, #1
 8868 00ca 84F84630 		strb	r3, [r4, #70]
 8869 00ce 08E0     		b	.L1160
 8870              	.L1150:
 8871 00d0 0123     		movs	r3, #1
 8872 00d2 84F83E30 		strb	r3, [r4, #62]
 8873 00d6 84F83F30 		strb	r3, [r4, #63]
 8874 00da 84F84430 		strb	r3, [r4, #68]
 8875 00de 84F84530 		strb	r3, [r4, #69]
 8876              	.L1160:
 8877 00e2 0020     		movs	r0, #0
 8878 00e4 38BD     		pop	{r3, r4, r5, pc}
 8880              		.section	.text.HAL_TIM_Encoder_Start_IT,"ax",%progbits
 8881              		.align	1
 8882              		.global	HAL_TIM_Encoder_Start_IT
 8883              		.syntax unified
 8884              		.thumb
 8885              		.thumb_func
 8887              	HAL_TIM_Encoder_Start_IT:
 8888              		@ args = 0, pretend = 0, frame = 0
 8889              		@ frame_needed = 0, uses_anonymous_args = 0
 8890 0000 38B5     		push	{r3, r4, r5, lr}
 8891 0002 0446     		mov	r4, r0
 8892 0004 90F83E30 		ldrb	r3, [r0, #62]	@ zero_extendqisi2
 8893 0008 DBB2     		uxtb	r3, r3
 8894 000a 90F83F20 		ldrb	r2, [r0, #63]	@ zero_extendqisi2
 8895 000e 5FFA82FC 		uxtb	ip, r2
 8896 0012 90F84420 		ldrb	r2, [r0, #68]	@ zero_extendqisi2
 8897 0016 D0B2     		uxtb	r0, r2
 8898 0018 94F84520 		ldrb	r2, [r4, #69]	@ zero_extendqisi2
 8899 001c 0D46     		mov	r5, r1
ARM GAS  C:\Users\aticl\AppData\Local\Temp\ccqcvH4b.s 			page 153


 8900 001e 09BB     		cbnz	r1, .L1168
 8901 0020 0128     		cmp	r0, #1
 8902 0022 08BF     		it	eq
 8903 0024 012B     		cmpeq	r3, #1
 8904 0026 5DD1     		bne	.L1176
 8905 0028 0223     		movs	r3, #2
 8906 002a 84F83E30 		strb	r3, [r4, #62]
 8907 002e 84F84430 		strb	r3, [r4, #68]
 8908              	.L1170:
 8909 0032 002D     		cmp	r5, #0
 8910 0034 3AD0     		beq	.L1172
 8911 0036 042D     		cmp	r5, #4
 8912 0038 49D0     		beq	.L1173
 8913 003a 0122     		movs	r2, #1
 8914 003c 0021     		movs	r1, #0
 8915 003e 2068     		ldr	r0, [r4]
 8916 0040 FFF7FEFF 		bl	TIM_CCxChannelCmd
 8917 0044 0122     		movs	r2, #1
 8918 0046 0421     		movs	r1, #4
 8919 0048 2068     		ldr	r0, [r4]
 8920 004a FFF7FEFF 		bl	TIM_CCxChannelCmd
 8921 004e 2268     		ldr	r2, [r4]
 8922 0050 D368     		ldr	r3, [r2, #12]
 8923 0052 43F00203 		orr	r3, r3, #2
 8924 0056 D360     		str	r3, [r2, #12]
 8925 0058 2268     		ldr	r2, [r4]
 8926 005a D368     		ldr	r3, [r2, #12]
 8927 005c 43F00403 		orr	r3, r3, #4
 8928 0060 D360     		str	r3, [r2, #12]
 8929 0062 2DE0     		b	.L1175
 8930              	.L1168:
 8931 0064 D2B2     		uxtb	r2, r2
 8932 0066 0429     		cmp	r1, #4
 8933 0068 15D0     		beq	.L1182
 8934 006a BCF1010F 		cmp	ip, #1
 8935 006e 08BF     		it	eq
 8936 0070 012B     		cmpeq	r3, #1
 8937 0072 3BD1     		bne	.L1178
 8938 0074 013A     		subs	r2, r2, #1
 8939 0076 18BF     		it	ne
 8940 0078 0122     		movne	r2, #1
 8941 007a 0128     		cmp	r0, #1
 8942 007c 38D1     		bne	.L1179
 8943 007e 002A     		cmp	r2, #0
 8944 0080 36D1     		bne	.L1179
 8945 0082 0223     		movs	r3, #2
 8946 0084 84F83E30 		strb	r3, [r4, #62]
 8947 0088 84F83F30 		strb	r3, [r4, #63]
 8948 008c 84F84430 		strb	r3, [r4, #68]
 8949 0090 84F84530 		strb	r3, [r4, #69]
 8950 0094 CDE7     		b	.L1170
 8951              	.L1182:
 8952 0096 012A     		cmp	r2, #1
 8953 0098 08BF     		it	eq
 8954 009a BCF1010F 		cmpeq	ip, #1
 8955 009e 23D1     		bne	.L1177
 8956 00a0 0223     		movs	r3, #2
ARM GAS  C:\Users\aticl\AppData\Local\Temp\ccqcvH4b.s 			page 154


 8957 00a2 84F83F30 		strb	r3, [r4, #63]
 8958 00a6 84F84530 		strb	r3, [r4, #69]
 8959 00aa C2E7     		b	.L1170
 8960              	.L1172:
 8961 00ac 0122     		movs	r2, #1
 8962 00ae 0021     		movs	r1, #0
 8963 00b0 2068     		ldr	r0, [r4]
 8964 00b2 FFF7FEFF 		bl	TIM_CCxChannelCmd
 8965 00b6 2268     		ldr	r2, [r4]
 8966 00b8 D368     		ldr	r3, [r2, #12]
 8967 00ba 43F00203 		orr	r3, r3, #2
 8968 00be D360     		str	r3, [r2, #12]
 8969              	.L1175:
 8970 00c0 2268     		ldr	r2, [r4]
 8971 00c2 1368     		ldr	r3, [r2]
 8972 00c4 43F00103 		orr	r3, r3, #1
 8973 00c8 1360     		str	r3, [r2]
 8974 00ca 0020     		movs	r0, #0
 8975              	.L1169:
 8976 00cc 38BD     		pop	{r3, r4, r5, pc}
 8977              	.L1173:
 8978 00ce 0122     		movs	r2, #1
 8979 00d0 0421     		movs	r1, #4
 8980 00d2 2068     		ldr	r0, [r4]
 8981 00d4 FFF7FEFF 		bl	TIM_CCxChannelCmd
 8982 00d8 2268     		ldr	r2, [r4]
 8983 00da D368     		ldr	r3, [r2, #12]
 8984 00dc 43F00403 		orr	r3, r3, #4
 8985 00e0 D360     		str	r3, [r2, #12]
 8986 00e2 EDE7     		b	.L1175
 8987              	.L1176:
 8988 00e4 0120     		movs	r0, #1
 8989 00e6 F1E7     		b	.L1169
 8990              	.L1177:
 8991 00e8 0120     		movs	r0, #1
 8992 00ea EFE7     		b	.L1169
 8993              	.L1178:
 8994 00ec 0120     		movs	r0, #1
 8995 00ee EDE7     		b	.L1169
 8996              	.L1179:
 8997 00f0 0120     		movs	r0, #1
 8998 00f2 EBE7     		b	.L1169
 9000              		.section	.text.HAL_TIM_Encoder_Stop_IT,"ax",%progbits
 9001              		.align	1
 9002              		.global	HAL_TIM_Encoder_Stop_IT
 9003              		.syntax unified
 9004              		.thumb
 9005              		.thumb_func
 9007              	HAL_TIM_Encoder_Stop_IT:
 9008              		@ args = 0, pretend = 0, frame = 0
 9009              		@ frame_needed = 0, uses_anonymous_args = 0
 9010 0000 38B5     		push	{r3, r4, r5, lr}
 9011 0002 0446     		mov	r4, r0
 9012 0004 0D46     		mov	r5, r1
 9013 0006 0029     		cmp	r1, #0
 9014 0008 35D0     		beq	.L1202
 9015 000a 0429     		cmp	r1, #4
ARM GAS  C:\Users\aticl\AppData\Local\Temp\ccqcvH4b.s 			page 155


 9016 000c 3ED0     		beq	.L1203
 9017 000e 0022     		movs	r2, #0
 9018 0010 1146     		mov	r1, r2
 9019 0012 0068     		ldr	r0, [r0]
 9020 0014 FFF7FEFF 		bl	TIM_CCxChannelCmd
 9021 0018 0022     		movs	r2, #0
 9022 001a 0421     		movs	r1, #4
 9023 001c 2068     		ldr	r0, [r4]
 9024 001e FFF7FEFF 		bl	TIM_CCxChannelCmd
 9025 0022 2268     		ldr	r2, [r4]
 9026 0024 D368     		ldr	r3, [r2, #12]
 9027 0026 23F00203 		bic	r3, r3, #2
 9028 002a D360     		str	r3, [r2, #12]
 9029 002c 2268     		ldr	r2, [r4]
 9030 002e D368     		ldr	r3, [r2, #12]
 9031 0030 23F00403 		bic	r3, r3, #4
 9032 0034 D360     		str	r3, [r2, #12]
 9033              	.L1185:
 9034 0036 2368     		ldr	r3, [r4]
 9035 0038 196A     		ldr	r1, [r3, #32]
 9036 003a 41F21112 		movw	r2, #4369
 9037 003e 1142     		tst	r1, r2
 9038 0040 08D1     		bne	.L1187
 9039 0042 196A     		ldr	r1, [r3, #32]
 9040 0044 40F24442 		movw	r2, #1092
 9041 0048 1142     		tst	r1, r2
 9042 004a 03D1     		bne	.L1187
 9043 004c 1A68     		ldr	r2, [r3]
 9044 004e 22F00102 		bic	r2, r2, #1
 9045 0052 1A60     		str	r2, [r3]
 9046              	.L1187:
 9047 0054 042D     		cmp	r5, #4
 9048 0056 18BF     		it	ne
 9049 0058 002D     		cmpne	r5, #0
 9050 005a 4ED1     		bne	.L1188
 9051 005c 102D     		cmp	r5, #16
 9052 005e 3BD8     		bhi	.L1189
 9053 0060 DFE805F0 		tbb	[pc, r5]
 9054              	.L1191:
 9055 0064 1F       		.byte	(.L1195-.L1191)/2
 9056 0065 3A       		.byte	(.L1189-.L1191)/2
 9057 0066 3A       		.byte	(.L1189-.L1191)/2
 9058 0067 3A       		.byte	(.L1189-.L1191)/2
 9059 0068 23       		.byte	(.L1194-.L1191)/2
 9060 0069 3A       		.byte	(.L1189-.L1191)/2
 9061 006a 3A       		.byte	(.L1189-.L1191)/2
 9062 006b 3A       		.byte	(.L1189-.L1191)/2
 9063 006c 2E       		.byte	(.L1193-.L1191)/2
 9064 006d 3A       		.byte	(.L1189-.L1191)/2
 9065 006e 3A       		.byte	(.L1189-.L1191)/2
 9066 006f 3A       		.byte	(.L1189-.L1191)/2
 9067 0070 32       		.byte	(.L1192-.L1191)/2
 9068 0071 3A       		.byte	(.L1189-.L1191)/2
 9069 0072 3A       		.byte	(.L1189-.L1191)/2
 9070 0073 3A       		.byte	(.L1189-.L1191)/2
 9071 0074 36       		.byte	(.L1190-.L1191)/2
 9072 0075 00       		.p2align 1
ARM GAS  C:\Users\aticl\AppData\Local\Temp\ccqcvH4b.s 			page 156


 9073              	.L1202:
 9074 0076 0022     		movs	r2, #0
 9075 0078 1146     		mov	r1, r2
 9076 007a 0068     		ldr	r0, [r0]
 9077 007c FFF7FEFF 		bl	TIM_CCxChannelCmd
 9078 0080 2268     		ldr	r2, [r4]
 9079 0082 D368     		ldr	r3, [r2, #12]
 9080 0084 23F00203 		bic	r3, r3, #2
 9081 0088 D360     		str	r3, [r2, #12]
 9082 008a D4E7     		b	.L1185
 9083              	.L1203:
 9084 008c 0022     		movs	r2, #0
 9085 008e 0421     		movs	r1, #4
 9086 0090 0068     		ldr	r0, [r0]
 9087 0092 FFF7FEFF 		bl	TIM_CCxChannelCmd
 9088 0096 2268     		ldr	r2, [r4]
 9089 0098 D368     		ldr	r3, [r2, #12]
 9090 009a 23F00403 		bic	r3, r3, #4
 9091 009e D360     		str	r3, [r2, #12]
 9092 00a0 C9E7     		b	.L1185
 9093              	.L1195:
 9094 00a2 0123     		movs	r3, #1
 9095 00a4 84F83E30 		strb	r3, [r4, #62]
 9096 00a8 1BE0     		b	.L1196
 9097              	.L1194:
 9098 00aa 0123     		movs	r3, #1
 9099 00ac 84F83F30 		strb	r3, [r4, #63]
 9100              	.L1197:
 9101 00b0 042D     		cmp	r5, #4
 9102 00b2 1AD0     		beq	.L1204
 9103 00b4 082D     		cmp	r5, #8
 9104 00b6 1CD0     		beq	.L1205
 9105 00b8 0123     		movs	r3, #1
 9106 00ba 84F84730 		strb	r3, [r4, #71]
 9107 00be 25E0     		b	.L1198
 9108              	.L1193:
 9109 00c0 0123     		movs	r3, #1
 9110 00c2 84F84030 		strb	r3, [r4, #64]
 9111 00c6 F3E7     		b	.L1197
 9112              	.L1192:
 9113 00c8 0123     		movs	r3, #1
 9114 00ca 84F84130 		strb	r3, [r4, #65]
 9115 00ce EFE7     		b	.L1197
 9116              	.L1190:
 9117 00d0 0123     		movs	r3, #1
 9118 00d2 84F84230 		strb	r3, [r4, #66]
 9119 00d6 EBE7     		b	.L1197
 9120              	.L1189:
 9121 00d8 0123     		movs	r3, #1
 9122 00da 84F84330 		strb	r3, [r4, #67]
 9123 00de 002D     		cmp	r5, #0
 9124 00e0 E6D1     		bne	.L1197
 9125              	.L1196:
 9126 00e2 0123     		movs	r3, #1
 9127 00e4 84F84430 		strb	r3, [r4, #68]
 9128 00e8 10E0     		b	.L1198
 9129              	.L1204:
ARM GAS  C:\Users\aticl\AppData\Local\Temp\ccqcvH4b.s 			page 157


 9130 00ea 0123     		movs	r3, #1
 9131 00ec 84F84530 		strb	r3, [r4, #69]
 9132 00f0 0CE0     		b	.L1198
 9133              	.L1205:
 9134 00f2 0123     		movs	r3, #1
 9135 00f4 84F84630 		strb	r3, [r4, #70]
 9136 00f8 08E0     		b	.L1198
 9137              	.L1188:
 9138 00fa 0123     		movs	r3, #1
 9139 00fc 84F83E30 		strb	r3, [r4, #62]
 9140 0100 84F83F30 		strb	r3, [r4, #63]
 9141 0104 84F84430 		strb	r3, [r4, #68]
 9142 0108 84F84530 		strb	r3, [r4, #69]
 9143              	.L1198:
 9144 010c 0020     		movs	r0, #0
 9145 010e 38BD     		pop	{r3, r4, r5, pc}
 9147              		.section	.text.HAL_TIM_Encoder_Start_DMA,"ax",%progbits
 9148              		.align	1
 9149              		.global	HAL_TIM_Encoder_Start_DMA
 9150              		.syntax unified
 9151              		.thumb
 9152              		.thumb_func
 9154              	HAL_TIM_Encoder_Start_DMA:
 9155              		@ args = 4, pretend = 0, frame = 0
 9156              		@ frame_needed = 0, uses_anonymous_args = 0
 9157 0000 F8B5     		push	{r3, r4, r5, r6, r7, lr}
 9158 0002 0446     		mov	r4, r0
 9159 0004 1D46     		mov	r5, r3
 9160 0006 BDF81860 		ldrh	r6, [sp, #24]
 9161 000a 90F83E00 		ldrb	r0, [r0, #62]	@ zero_extendqisi2
 9162 000e C0B2     		uxtb	r0, r0
 9163 0010 94F83F30 		ldrb	r3, [r4, #63]	@ zero_extendqisi2
 9164 0014 94F844C0 		ldrb	ip, [r4, #68]	@ zero_extendqisi2
 9165 0018 5FFA8CFC 		uxtb	ip, ip
 9166 001c 94F845E0 		ldrb	lr, [r4, #69]	@ zero_extendqisi2
 9167 0020 0F46     		mov	r7, r1
 9168 0022 71BB     		cbnz	r1, .L1207
 9169 0024 BCF1020F 		cmp	ip, #2
 9170 0028 18BF     		it	ne
 9171 002a 0228     		cmpne	r0, #2
 9172 002c 00F0EE80 		beq	.L1214
 9173 0030 0128     		cmp	r0, #1
 9174 0032 08BF     		it	eq
 9175 0034 BCF1010F 		cmpeq	ip, #1
 9176 0038 40F0EA80 		bne	.L1215
 9177 003c 002E     		cmp	r6, #0
 9178 003e 18BF     		it	ne
 9179 0040 002A     		cmpne	r2, #0
 9180 0042 00F0E880 		beq	.L1216
 9181 0046 0223     		movs	r3, #2
 9182 0048 84F83E30 		strb	r3, [r4, #62]
 9183 004c 84F84430 		strb	r3, [r4, #68]
 9184              	.L1209:
 9185 0050 002F     		cmp	r7, #0
 9186 0052 66D0     		beq	.L1211
 9187 0054 042F     		cmp	r7, #4
 9188 0056 00F08780 		beq	.L1212
ARM GAS  C:\Users\aticl\AppData\Local\Temp\ccqcvH4b.s 			page 158


 9189 005a 636A     		ldr	r3, [r4, #36]
 9190 005c 7849     		ldr	r1, .L1237
 9191 005e D963     		str	r1, [r3, #60]
 9192 0060 636A     		ldr	r3, [r4, #36]
 9193 0062 7849     		ldr	r1, .L1237+4
 9194 0064 1964     		str	r1, [r3, #64]
 9195 0066 636A     		ldr	r3, [r4, #36]
 9196 0068 7749     		ldr	r1, .L1237+8
 9197 006a D964     		str	r1, [r3, #76]
 9198 006c 2168     		ldr	r1, [r4]
 9199 006e 3346     		mov	r3, r6
 9200 0070 3431     		adds	r1, r1, #52
 9201 0072 606A     		ldr	r0, [r4, #36]
 9202 0074 FFF7FEFF 		bl	HAL_DMA_Start_IT
 9203 0078 0028     		cmp	r0, #0
 9204 007a 00F09980 		beq	.L1232
 9205 007e 0125     		movs	r5, #1
 9206 0080 C7E0     		b	.L1208
 9207              	.L1207:
 9208 0082 DBB2     		uxtb	r3, r3
 9209 0084 5FFA8EFE 		uxtb	lr, lr
 9210 0088 0429     		cmp	r1, #4
 9211 008a 33D0     		beq	.L1233
 9212 008c 022B     		cmp	r3, #2
 9213 008e 18BF     		it	ne
 9214 0090 0228     		cmpne	r0, #2
 9215 0092 00F0C880 		beq	.L1220
 9216 0096 BEF1020F 		cmp	lr, #2
 9217 009a 14BF     		ite	ne
 9218 009c 0021     		movne	r1, #0
 9219 009e 0121     		moveq	r1, #1
 9220 00a0 BCF1020F 		cmp	ip, #2
 9221 00a4 00F0C180 		beq	.L1221
 9222 00a8 0029     		cmp	r1, #0
 9223 00aa 40F0BE80 		bne	.L1221
 9224 00ae 0128     		cmp	r0, #1
 9225 00b0 08BF     		it	eq
 9226 00b2 012B     		cmpeq	r3, #1
 9227 00b4 40F0BB80 		bne	.L1222
 9228 00b8 BEF1010F 		cmp	lr, #1
 9229 00bc 14BF     		ite	ne
 9230 00be 0023     		movne	r3, #0
 9231 00c0 0123     		moveq	r3, #1
 9232 00c2 BCF1010F 		cmp	ip, #1
 9233 00c6 40F0B480 		bne	.L1223
 9234 00ca 002B     		cmp	r3, #0
 9235 00cc 00F0B180 		beq	.L1223
 9236 00d0 002D     		cmp	r5, #0
 9237 00d2 18BF     		it	ne
 9238 00d4 002A     		cmpne	r2, #0
 9239 00d6 00F0AE80 		beq	.L1224
 9240 00da 002E     		cmp	r6, #0
 9241 00dc 00F0AD80 		beq	.L1225
 9242 00e0 0223     		movs	r3, #2
 9243 00e2 84F83E30 		strb	r3, [r4, #62]
 9244 00e6 84F83F30 		strb	r3, [r4, #63]
 9245 00ea 84F84430 		strb	r3, [r4, #68]
ARM GAS  C:\Users\aticl\AppData\Local\Temp\ccqcvH4b.s 			page 159


 9246 00ee 84F84530 		strb	r3, [r4, #69]
 9247 00f2 ADE7     		b	.L1209
 9248              	.L1233:
 9249 00f4 BEF1020F 		cmp	lr, #2
 9250 00f8 18BF     		it	ne
 9251 00fa 022B     		cmpne	r3, #2
 9252 00fc 00F08D80 		beq	.L1217
 9253 0100 012B     		cmp	r3, #1
 9254 0102 08BF     		it	eq
 9255 0104 BEF1010F 		cmpeq	lr, #1
 9256 0108 40F08980 		bne	.L1218
 9257 010c 002E     		cmp	r6, #0
 9258 010e 18BF     		it	ne
 9259 0110 002D     		cmpne	r5, #0
 9260 0112 00F08680 		beq	.L1219
 9261 0116 0223     		movs	r3, #2
 9262 0118 84F83F30 		strb	r3, [r4, #63]
 9263 011c 84F84530 		strb	r3, [r4, #69]
 9264 0120 96E7     		b	.L1209
 9265              	.L1211:
 9266 0122 636A     		ldr	r3, [r4, #36]
 9267 0124 4649     		ldr	r1, .L1237
 9268 0126 D963     		str	r1, [r3, #60]
 9269 0128 636A     		ldr	r3, [r4, #36]
 9270 012a 4649     		ldr	r1, .L1237+4
 9271 012c 1964     		str	r1, [r3, #64]
 9272 012e 636A     		ldr	r3, [r4, #36]
 9273 0130 4549     		ldr	r1, .L1237+8
 9274 0132 D964     		str	r1, [r3, #76]
 9275 0134 2168     		ldr	r1, [r4]
 9276 0136 3346     		mov	r3, r6
 9277 0138 3431     		adds	r1, r1, #52
 9278 013a 606A     		ldr	r0, [r4, #36]
 9279 013c FFF7FEFF 		bl	HAL_DMA_Start_IT
 9280 0140 0546     		mov	r5, r0
 9281 0142 08B1     		cbz	r0, .L1234
 9282 0144 0125     		movs	r5, #1
 9283 0146 64E0     		b	.L1208
 9284              	.L1234:
 9285 0148 2268     		ldr	r2, [r4]
 9286 014a D368     		ldr	r3, [r2, #12]
 9287 014c 43F40073 		orr	r3, r3, #512
 9288 0150 D360     		str	r3, [r2, #12]
 9289 0152 0122     		movs	r2, #1
 9290 0154 0021     		movs	r1, #0
 9291 0156 2068     		ldr	r0, [r4]
 9292 0158 FFF7FEFF 		bl	TIM_CCxChannelCmd
 9293 015c 2268     		ldr	r2, [r4]
 9294 015e 1368     		ldr	r3, [r2]
 9295 0160 43F00103 		orr	r3, r3, #1
 9296 0164 1360     		str	r3, [r2]
 9297 0166 54E0     		b	.L1208
 9298              	.L1212:
 9299 0168 A36A     		ldr	r3, [r4, #40]
 9300 016a 354A     		ldr	r2, .L1237
 9301 016c DA63     		str	r2, [r3, #60]
 9302 016e A36A     		ldr	r3, [r4, #40]
ARM GAS  C:\Users\aticl\AppData\Local\Temp\ccqcvH4b.s 			page 160


 9303 0170 344A     		ldr	r2, .L1237+4
 9304 0172 1A64     		str	r2, [r3, #64]
 9305 0174 A36A     		ldr	r3, [r4, #40]
 9306 0176 344A     		ldr	r2, .L1237+8
 9307 0178 DA64     		str	r2, [r3, #76]
 9308 017a 2168     		ldr	r1, [r4]
 9309 017c 3346     		mov	r3, r6
 9310 017e 2A46     		mov	r2, r5
 9311 0180 3831     		adds	r1, r1, #56
 9312 0182 A06A     		ldr	r0, [r4, #40]
 9313 0184 FFF7FEFF 		bl	HAL_DMA_Start_IT
 9314 0188 0546     		mov	r5, r0
 9315 018a 08B1     		cbz	r0, .L1235
 9316 018c 0125     		movs	r5, #1
 9317 018e 40E0     		b	.L1208
 9318              	.L1235:
 9319 0190 2268     		ldr	r2, [r4]
 9320 0192 D368     		ldr	r3, [r2, #12]
 9321 0194 43F48063 		orr	r3, r3, #1024
 9322 0198 D360     		str	r3, [r2, #12]
 9323 019a 0122     		movs	r2, #1
 9324 019c 0421     		movs	r1, #4
 9325 019e 2068     		ldr	r0, [r4]
 9326 01a0 FFF7FEFF 		bl	TIM_CCxChannelCmd
 9327 01a4 2268     		ldr	r2, [r4]
 9328 01a6 1368     		ldr	r3, [r2]
 9329 01a8 43F00103 		orr	r3, r3, #1
 9330 01ac 1360     		str	r3, [r2]
 9331 01ae 30E0     		b	.L1208
 9332              	.L1232:
 9333 01b0 A36A     		ldr	r3, [r4, #40]
 9334 01b2 234A     		ldr	r2, .L1237
 9335 01b4 DA63     		str	r2, [r3, #60]
 9336 01b6 A36A     		ldr	r3, [r4, #40]
 9337 01b8 224A     		ldr	r2, .L1237+4
 9338 01ba 1A64     		str	r2, [r3, #64]
 9339 01bc A36A     		ldr	r3, [r4, #40]
 9340 01be 224A     		ldr	r2, .L1237+8
 9341 01c0 DA64     		str	r2, [r3, #76]
 9342 01c2 2168     		ldr	r1, [r4]
 9343 01c4 3346     		mov	r3, r6
 9344 01c6 2A46     		mov	r2, r5
 9345 01c8 3831     		adds	r1, r1, #56
 9346 01ca A06A     		ldr	r0, [r4, #40]
 9347 01cc FFF7FEFF 		bl	HAL_DMA_Start_IT
 9348 01d0 0546     		mov	r5, r0
 9349 01d2 08B1     		cbz	r0, .L1236
 9350 01d4 0125     		movs	r5, #1
 9351 01d6 1CE0     		b	.L1208
 9352              	.L1236:
 9353 01d8 2268     		ldr	r2, [r4]
 9354 01da D368     		ldr	r3, [r2, #12]
 9355 01dc 43F40073 		orr	r3, r3, #512
 9356 01e0 D360     		str	r3, [r2, #12]
 9357 01e2 2268     		ldr	r2, [r4]
 9358 01e4 D368     		ldr	r3, [r2, #12]
 9359 01e6 43F48063 		orr	r3, r3, #1024
ARM GAS  C:\Users\aticl\AppData\Local\Temp\ccqcvH4b.s 			page 161


 9360 01ea D360     		str	r3, [r2, #12]
 9361 01ec 0122     		movs	r2, #1
 9362 01ee 0021     		movs	r1, #0
 9363 01f0 2068     		ldr	r0, [r4]
 9364 01f2 FFF7FEFF 		bl	TIM_CCxChannelCmd
 9365 01f6 0122     		movs	r2, #1
 9366 01f8 0421     		movs	r1, #4
 9367 01fa 2068     		ldr	r0, [r4]
 9368 01fc FFF7FEFF 		bl	TIM_CCxChannelCmd
 9369 0200 2268     		ldr	r2, [r4]
 9370 0202 1368     		ldr	r3, [r2]
 9371 0204 43F00103 		orr	r3, r3, #1
 9372 0208 1360     		str	r3, [r2]
 9373 020a 02E0     		b	.L1208
 9374              	.L1214:
 9375 020c 0225     		movs	r5, #2
 9376 020e 00E0     		b	.L1208
 9377              	.L1215:
 9378 0210 0125     		movs	r5, #1
 9379              	.L1208:
 9380 0212 2846     		mov	r0, r5
 9381 0214 F8BD     		pop	{r3, r4, r5, r6, r7, pc}
 9382              	.L1216:
 9383 0216 0125     		movs	r5, #1
 9384 0218 FBE7     		b	.L1208
 9385              	.L1217:
 9386 021a 0225     		movs	r5, #2
 9387 021c F9E7     		b	.L1208
 9388              	.L1218:
 9389 021e 0125     		movs	r5, #1
 9390 0220 F7E7     		b	.L1208
 9391              	.L1219:
 9392 0222 0125     		movs	r5, #1
 9393 0224 F5E7     		b	.L1208
 9394              	.L1220:
 9395 0226 0225     		movs	r5, #2
 9396 0228 F3E7     		b	.L1208
 9397              	.L1221:
 9398 022a 0225     		movs	r5, #2
 9399 022c F1E7     		b	.L1208
 9400              	.L1222:
 9401 022e 0125     		movs	r5, #1
 9402 0230 EFE7     		b	.L1208
 9403              	.L1223:
 9404 0232 0125     		movs	r5, #1
 9405 0234 EDE7     		b	.L1208
 9406              	.L1224:
 9407 0236 0125     		movs	r5, #1
 9408 0238 EBE7     		b	.L1208
 9409              	.L1225:
 9410 023a 0125     		movs	r5, #1
 9411 023c E9E7     		b	.L1208
 9412              	.L1238:
 9413 023e 00BF     		.align	2
 9414              	.L1237:
 9415 0240 00000000 		.word	TIM_DMACaptureCplt
 9416 0244 00000000 		.word	TIM_DMACaptureHalfCplt
ARM GAS  C:\Users\aticl\AppData\Local\Temp\ccqcvH4b.s 			page 162


 9417 0248 00000000 		.word	TIM_DMAError
 9419              		.section	.text.HAL_TIM_Encoder_Stop_DMA,"ax",%progbits
 9420              		.align	1
 9421              		.global	HAL_TIM_Encoder_Stop_DMA
 9422              		.syntax unified
 9423              		.thumb
 9424              		.thumb_func
 9426              	HAL_TIM_Encoder_Stop_DMA:
 9427              		@ args = 0, pretend = 0, frame = 0
 9428              		@ frame_needed = 0, uses_anonymous_args = 0
 9429 0000 38B5     		push	{r3, r4, r5, lr}
 9430 0002 0446     		mov	r4, r0
 9431 0004 0D46     		mov	r5, r1
 9432 0006 0029     		cmp	r1, #0
 9433 0008 3BD0     		beq	.L1258
 9434 000a 0429     		cmp	r1, #4
 9435 000c 47D0     		beq	.L1259
 9436 000e 0022     		movs	r2, #0
 9437 0010 1146     		mov	r1, r2
 9438 0012 0068     		ldr	r0, [r0]
 9439 0014 FFF7FEFF 		bl	TIM_CCxChannelCmd
 9440 0018 0022     		movs	r2, #0
 9441 001a 0421     		movs	r1, #4
 9442 001c 2068     		ldr	r0, [r4]
 9443 001e FFF7FEFF 		bl	TIM_CCxChannelCmd
 9444 0022 2268     		ldr	r2, [r4]
 9445 0024 D368     		ldr	r3, [r2, #12]
 9446 0026 23F40073 		bic	r3, r3, #512
 9447 002a D360     		str	r3, [r2, #12]
 9448 002c 2268     		ldr	r2, [r4]
 9449 002e D368     		ldr	r3, [r2, #12]
 9450 0030 23F48063 		bic	r3, r3, #1024
 9451 0034 D360     		str	r3, [r2, #12]
 9452 0036 606A     		ldr	r0, [r4, #36]
 9453 0038 FFF7FEFF 		bl	HAL_DMA_Abort_IT
 9454 003c A06A     		ldr	r0, [r4, #40]
 9455 003e FFF7FEFF 		bl	HAL_DMA_Abort_IT
 9456              	.L1241:
 9457 0042 2368     		ldr	r3, [r4]
 9458 0044 196A     		ldr	r1, [r3, #32]
 9459 0046 41F21112 		movw	r2, #4369
 9460 004a 1142     		tst	r1, r2
 9461 004c 08D1     		bne	.L1243
 9462 004e 196A     		ldr	r1, [r3, #32]
 9463 0050 40F24442 		movw	r2, #1092
 9464 0054 1142     		tst	r1, r2
 9465 0056 03D1     		bne	.L1243
 9466 0058 1A68     		ldr	r2, [r3]
 9467 005a 22F00102 		bic	r2, r2, #1
 9468 005e 1A60     		str	r2, [r3]
 9469              	.L1243:
 9470 0060 042D     		cmp	r5, #4
 9471 0062 18BF     		it	ne
 9472 0064 002D     		cmpne	r5, #0
 9473 0066 54D1     		bne	.L1244
 9474 0068 102D     		cmp	r5, #16
 9475 006a 41D8     		bhi	.L1245
ARM GAS  C:\Users\aticl\AppData\Local\Temp\ccqcvH4b.s 			page 163


 9476 006c DFE805F0 		tbb	[pc, r5]
 9477              	.L1247:
 9478 0070 25       		.byte	(.L1251-.L1247)/2
 9479 0071 40       		.byte	(.L1245-.L1247)/2
 9480 0072 40       		.byte	(.L1245-.L1247)/2
 9481 0073 40       		.byte	(.L1245-.L1247)/2
 9482 0074 29       		.byte	(.L1250-.L1247)/2
 9483 0075 40       		.byte	(.L1245-.L1247)/2
 9484 0076 40       		.byte	(.L1245-.L1247)/2
 9485 0077 40       		.byte	(.L1245-.L1247)/2
 9486 0078 34       		.byte	(.L1249-.L1247)/2
 9487 0079 40       		.byte	(.L1245-.L1247)/2
 9488 007a 40       		.byte	(.L1245-.L1247)/2
 9489 007b 40       		.byte	(.L1245-.L1247)/2
 9490 007c 38       		.byte	(.L1248-.L1247)/2
 9491 007d 40       		.byte	(.L1245-.L1247)/2
 9492 007e 40       		.byte	(.L1245-.L1247)/2
 9493 007f 40       		.byte	(.L1245-.L1247)/2
 9494 0080 3C       		.byte	(.L1246-.L1247)/2
 9495 0081 00       		.p2align 1
 9496              	.L1258:
 9497 0082 0022     		movs	r2, #0
 9498 0084 1146     		mov	r1, r2
 9499 0086 0068     		ldr	r0, [r0]
 9500 0088 FFF7FEFF 		bl	TIM_CCxChannelCmd
 9501 008c 2268     		ldr	r2, [r4]
 9502 008e D368     		ldr	r3, [r2, #12]
 9503 0090 23F40073 		bic	r3, r3, #512
 9504 0094 D360     		str	r3, [r2, #12]
 9505 0096 606A     		ldr	r0, [r4, #36]
 9506 0098 FFF7FEFF 		bl	HAL_DMA_Abort_IT
 9507 009c D1E7     		b	.L1241
 9508              	.L1259:
 9509 009e 0022     		movs	r2, #0
 9510 00a0 0421     		movs	r1, #4
 9511 00a2 0068     		ldr	r0, [r0]
 9512 00a4 FFF7FEFF 		bl	TIM_CCxChannelCmd
 9513 00a8 2268     		ldr	r2, [r4]
 9514 00aa D368     		ldr	r3, [r2, #12]
 9515 00ac 23F48063 		bic	r3, r3, #1024
 9516 00b0 D360     		str	r3, [r2, #12]
 9517 00b2 A06A     		ldr	r0, [r4, #40]
 9518 00b4 FFF7FEFF 		bl	HAL_DMA_Abort_IT
 9519 00b8 C3E7     		b	.L1241
 9520              	.L1251:
 9521 00ba 0123     		movs	r3, #1
 9522 00bc 84F83E30 		strb	r3, [r4, #62]
 9523 00c0 1BE0     		b	.L1252
 9524              	.L1250:
 9525 00c2 0123     		movs	r3, #1
 9526 00c4 84F83F30 		strb	r3, [r4, #63]
 9527              	.L1253:
 9528 00c8 042D     		cmp	r5, #4
 9529 00ca 1AD0     		beq	.L1260
 9530 00cc 082D     		cmp	r5, #8
 9531 00ce 1CD0     		beq	.L1261
 9532 00d0 0123     		movs	r3, #1
ARM GAS  C:\Users\aticl\AppData\Local\Temp\ccqcvH4b.s 			page 164


 9533 00d2 84F84730 		strb	r3, [r4, #71]
 9534 00d6 25E0     		b	.L1254
 9535              	.L1249:
 9536 00d8 0123     		movs	r3, #1
 9537 00da 84F84030 		strb	r3, [r4, #64]
 9538 00de F3E7     		b	.L1253
 9539              	.L1248:
 9540 00e0 0123     		movs	r3, #1
 9541 00e2 84F84130 		strb	r3, [r4, #65]
 9542 00e6 EFE7     		b	.L1253
 9543              	.L1246:
 9544 00e8 0123     		movs	r3, #1
 9545 00ea 84F84230 		strb	r3, [r4, #66]
 9546 00ee EBE7     		b	.L1253
 9547              	.L1245:
 9548 00f0 0123     		movs	r3, #1
 9549 00f2 84F84330 		strb	r3, [r4, #67]
 9550 00f6 002D     		cmp	r5, #0
 9551 00f8 E6D1     		bne	.L1253
 9552              	.L1252:
 9553 00fa 0123     		movs	r3, #1
 9554 00fc 84F84430 		strb	r3, [r4, #68]
 9555 0100 10E0     		b	.L1254
 9556              	.L1260:
 9557 0102 0123     		movs	r3, #1
 9558 0104 84F84530 		strb	r3, [r4, #69]
 9559 0108 0CE0     		b	.L1254
 9560              	.L1261:
 9561 010a 0123     		movs	r3, #1
 9562 010c 84F84630 		strb	r3, [r4, #70]
 9563 0110 08E0     		b	.L1254
 9564              	.L1244:
 9565 0112 0123     		movs	r3, #1
 9566 0114 84F83E30 		strb	r3, [r4, #62]
 9567 0118 84F83F30 		strb	r3, [r4, #63]
 9568 011c 84F84430 		strb	r3, [r4, #68]
 9569 0120 84F84530 		strb	r3, [r4, #69]
 9570              	.L1254:
 9571 0124 0020     		movs	r0, #0
 9572 0126 38BD     		pop	{r3, r4, r5, pc}
 9574              		.ident	"GCC: (xPack GNU Arm Embedded GCC x86_64) 14.2.1 20241119"
ARM GAS  C:\Users\aticl\AppData\Local\Temp\ccqcvH4b.s 			page 165


DEFINED SYMBOLS
                            *ABS*:00000000 stm32h7xx_hal_tim.c
C:\Users\aticl\AppData\Local\Temp\ccqcvH4b.s:17     .text.TIM_OC1_SetConfig:00000000 $t
C:\Users\aticl\AppData\Local\Temp\ccqcvH4b.s:22     .text.TIM_OC1_SetConfig:00000000 TIM_OC1_SetConfig
C:\Users\aticl\AppData\Local\Temp\ccqcvH4b.s:97     .text.TIM_OC1_SetConfig:0000008c $d
C:\Users\aticl\AppData\Local\Temp\ccqcvH4b.s:105    .text.TIM_OC3_SetConfig:00000000 $t
C:\Users\aticl\AppData\Local\Temp\ccqcvH4b.s:110    .text.TIM_OC3_SetConfig:00000000 TIM_OC3_SetConfig
C:\Users\aticl\AppData\Local\Temp\ccqcvH4b.s:172    .text.TIM_OC3_SetConfig:0000007c $d
C:\Users\aticl\AppData\Local\Temp\ccqcvH4b.s:180    .text.TIM_OC4_SetConfig:00000000 $t
C:\Users\aticl\AppData\Local\Temp\ccqcvH4b.s:185    .text.TIM_OC4_SetConfig:00000000 TIM_OC4_SetConfig
C:\Users\aticl\AppData\Local\Temp\ccqcvH4b.s:236    .text.TIM_OC4_SetConfig:00000064 $d
C:\Users\aticl\AppData\Local\Temp\ccqcvH4b.s:242    .text.TIM_OC5_SetConfig:00000000 $t
C:\Users\aticl\AppData\Local\Temp\ccqcvH4b.s:247    .text.TIM_OC5_SetConfig:00000000 TIM_OC5_SetConfig
C:\Users\aticl\AppData\Local\Temp\ccqcvH4b.s:298    .text.TIM_OC5_SetConfig:00000064 $d
C:\Users\aticl\AppData\Local\Temp\ccqcvH4b.s:304    .text.TIM_OC6_SetConfig:00000000 $t
C:\Users\aticl\AppData\Local\Temp\ccqcvH4b.s:309    .text.TIM_OC6_SetConfig:00000000 TIM_OC6_SetConfig
C:\Users\aticl\AppData\Local\Temp\ccqcvH4b.s:360    .text.TIM_OC6_SetConfig:00000064 $d
C:\Users\aticl\AppData\Local\Temp\ccqcvH4b.s:366    .text.TIM_TI1_ConfigInputStage:00000000 $t
C:\Users\aticl\AppData\Local\Temp\ccqcvH4b.s:371    .text.TIM_TI1_ConfigInputStage:00000000 TIM_TI1_ConfigInputStage
C:\Users\aticl\AppData\Local\Temp\ccqcvH4b.s:391    .text.TIM_TI2_SetConfig:00000000 $t
C:\Users\aticl\AppData\Local\Temp\ccqcvH4b.s:396    .text.TIM_TI2_SetConfig:00000000 TIM_TI2_SetConfig
C:\Users\aticl\AppData\Local\Temp\ccqcvH4b.s:422    .text.TIM_TI2_ConfigInputStage:00000000 $t
C:\Users\aticl\AppData\Local\Temp\ccqcvH4b.s:427    .text.TIM_TI2_ConfigInputStage:00000000 TIM_TI2_ConfigInputStage
C:\Users\aticl\AppData\Local\Temp\ccqcvH4b.s:447    .text.TIM_TI3_SetConfig:00000000 $t
C:\Users\aticl\AppData\Local\Temp\ccqcvH4b.s:452    .text.TIM_TI3_SetConfig:00000000 TIM_TI3_SetConfig
C:\Users\aticl\AppData\Local\Temp\ccqcvH4b.s:478    .text.TIM_TI4_SetConfig:00000000 $t
C:\Users\aticl\AppData\Local\Temp\ccqcvH4b.s:483    .text.TIM_TI4_SetConfig:00000000 TIM_TI4_SetConfig
C:\Users\aticl\AppData\Local\Temp\ccqcvH4b.s:509    .text.TIM_ITRx_SetConfig:00000000 $t
C:\Users\aticl\AppData\Local\Temp\ccqcvH4b.s:514    .text.TIM_ITRx_SetConfig:00000000 TIM_ITRx_SetConfig
C:\Users\aticl\AppData\Local\Temp\ccqcvH4b.s:528    .text.TIM_ITRx_SetConfig:00000010 $d
C:\Users\aticl\AppData\Local\Temp\ccqcvH4b.s:531    .text.HAL_TIM_Base_MspInit:00000000 $t
C:\Users\aticl\AppData\Local\Temp\ccqcvH4b.s:537    .text.HAL_TIM_Base_MspInit:00000000 HAL_TIM_Base_MspInit
C:\Users\aticl\AppData\Local\Temp\ccqcvH4b.s:544    .text.HAL_TIM_Base_MspDeInit:00000000 $t
C:\Users\aticl\AppData\Local\Temp\ccqcvH4b.s:550    .text.HAL_TIM_Base_MspDeInit:00000000 HAL_TIM_Base_MspDeInit
C:\Users\aticl\AppData\Local\Temp\ccqcvH4b.s:557    .text.HAL_TIM_Base_DeInit:00000000 $t
C:\Users\aticl\AppData\Local\Temp\ccqcvH4b.s:563    .text.HAL_TIM_Base_DeInit:00000000 HAL_TIM_Base_DeInit
C:\Users\aticl\AppData\Local\Temp\ccqcvH4b.s:602    .text.HAL_TIM_Base_Start:00000000 $t
C:\Users\aticl\AppData\Local\Temp\ccqcvH4b.s:608    .text.HAL_TIM_Base_Start:00000000 HAL_TIM_Base_Start
C:\Users\aticl\AppData\Local\Temp\ccqcvH4b.s:668    .text.HAL_TIM_Base_Start:0000007c $d
C:\Users\aticl\AppData\Local\Temp\ccqcvH4b.s:672    .text.HAL_TIM_Base_Stop:00000000 $t
C:\Users\aticl\AppData\Local\Temp\ccqcvH4b.s:678    .text.HAL_TIM_Base_Stop:00000000 HAL_TIM_Base_Stop
C:\Users\aticl\AppData\Local\Temp\ccqcvH4b.s:701    .text.HAL_TIM_Base_Start_IT:00000000 $t
C:\Users\aticl\AppData\Local\Temp\ccqcvH4b.s:707    .text.HAL_TIM_Base_Start_IT:00000000 HAL_TIM_Base_Start_IT
C:\Users\aticl\AppData\Local\Temp\ccqcvH4b.s:771    .text.HAL_TIM_Base_Start_IT:00000088 $d
C:\Users\aticl\AppData\Local\Temp\ccqcvH4b.s:775    .text.HAL_TIM_Base_Stop_IT:00000000 $t
C:\Users\aticl\AppData\Local\Temp\ccqcvH4b.s:781    .text.HAL_TIM_Base_Stop_IT:00000000 HAL_TIM_Base_Stop_IT
C:\Users\aticl\AppData\Local\Temp\ccqcvH4b.s:808    .text.HAL_TIM_Base_Start_DMA:00000000 $t
C:\Users\aticl\AppData\Local\Temp\ccqcvH4b.s:814    .text.HAL_TIM_Base_Start_DMA:00000000 HAL_TIM_Base_Start_DMA
C:\Users\aticl\AppData\Local\Temp\ccqcvH4b.s:907    .text.HAL_TIM_Base_Start_DMA:000000c8 $d
C:\Users\aticl\AppData\Local\Temp\ccqcvH4b.s:2024   .text.TIM_DMAPeriodElapsedCplt:00000000 TIM_DMAPeriodElapsedCplt
C:\Users\aticl\AppData\Local\Temp\ccqcvH4b.s:2057   .text.TIM_DMAPeriodElapsedHalfCplt:00000000 TIM_DMAPeriodElapsedHalfCplt
C:\Users\aticl\AppData\Local\Temp\ccqcvH4b.s:2611   .text.TIM_DMAError:00000000 TIM_DMAError
C:\Users\aticl\AppData\Local\Temp\ccqcvH4b.s:914    .text.HAL_TIM_Base_Stop_DMA:00000000 $t
C:\Users\aticl\AppData\Local\Temp\ccqcvH4b.s:920    .text.HAL_TIM_Base_Stop_DMA:00000000 HAL_TIM_Base_Stop_DMA
C:\Users\aticl\AppData\Local\Temp\ccqcvH4b.s:950    .text.HAL_TIM_OC_MspInit:00000000 $t
C:\Users\aticl\AppData\Local\Temp\ccqcvH4b.s:956    .text.HAL_TIM_OC_MspInit:00000000 HAL_TIM_OC_MspInit
C:\Users\aticl\AppData\Local\Temp\ccqcvH4b.s:963    .text.HAL_TIM_OC_MspDeInit:00000000 $t
ARM GAS  C:\Users\aticl\AppData\Local\Temp\ccqcvH4b.s 			page 166


C:\Users\aticl\AppData\Local\Temp\ccqcvH4b.s:969    .text.HAL_TIM_OC_MspDeInit:00000000 HAL_TIM_OC_MspDeInit
C:\Users\aticl\AppData\Local\Temp\ccqcvH4b.s:976    .text.HAL_TIM_OC_DeInit:00000000 $t
C:\Users\aticl\AppData\Local\Temp\ccqcvH4b.s:982    .text.HAL_TIM_OC_DeInit:00000000 HAL_TIM_OC_DeInit
C:\Users\aticl\AppData\Local\Temp\ccqcvH4b.s:1021   .text.HAL_TIM_PWM_MspInit:00000000 $t
C:\Users\aticl\AppData\Local\Temp\ccqcvH4b.s:1027   .text.HAL_TIM_PWM_MspInit:00000000 HAL_TIM_PWM_MspInit
C:\Users\aticl\AppData\Local\Temp\ccqcvH4b.s:1034   .text.HAL_TIM_PWM_MspDeInit:00000000 $t
C:\Users\aticl\AppData\Local\Temp\ccqcvH4b.s:1040   .text.HAL_TIM_PWM_MspDeInit:00000000 HAL_TIM_PWM_MspDeInit
C:\Users\aticl\AppData\Local\Temp\ccqcvH4b.s:1047   .text.HAL_TIM_PWM_DeInit:00000000 $t
C:\Users\aticl\AppData\Local\Temp\ccqcvH4b.s:1053   .text.HAL_TIM_PWM_DeInit:00000000 HAL_TIM_PWM_DeInit
C:\Users\aticl\AppData\Local\Temp\ccqcvH4b.s:1092   .text.HAL_TIM_IC_MspInit:00000000 $t
C:\Users\aticl\AppData\Local\Temp\ccqcvH4b.s:1098   .text.HAL_TIM_IC_MspInit:00000000 HAL_TIM_IC_MspInit
C:\Users\aticl\AppData\Local\Temp\ccqcvH4b.s:1105   .text.HAL_TIM_IC_MspDeInit:00000000 $t
C:\Users\aticl\AppData\Local\Temp\ccqcvH4b.s:1111   .text.HAL_TIM_IC_MspDeInit:00000000 HAL_TIM_IC_MspDeInit
C:\Users\aticl\AppData\Local\Temp\ccqcvH4b.s:1118   .text.HAL_TIM_IC_DeInit:00000000 $t
C:\Users\aticl\AppData\Local\Temp\ccqcvH4b.s:1124   .text.HAL_TIM_IC_DeInit:00000000 HAL_TIM_IC_DeInit
C:\Users\aticl\AppData\Local\Temp\ccqcvH4b.s:1163   .text.HAL_TIM_OnePulse_MspInit:00000000 $t
C:\Users\aticl\AppData\Local\Temp\ccqcvH4b.s:1169   .text.HAL_TIM_OnePulse_MspInit:00000000 HAL_TIM_OnePulse_MspInit
C:\Users\aticl\AppData\Local\Temp\ccqcvH4b.s:1176   .text.HAL_TIM_OnePulse_MspDeInit:00000000 $t
C:\Users\aticl\AppData\Local\Temp\ccqcvH4b.s:1182   .text.HAL_TIM_OnePulse_MspDeInit:00000000 HAL_TIM_OnePulse_MspDeInit
C:\Users\aticl\AppData\Local\Temp\ccqcvH4b.s:1189   .text.HAL_TIM_OnePulse_DeInit:00000000 $t
C:\Users\aticl\AppData\Local\Temp\ccqcvH4b.s:1195   .text.HAL_TIM_OnePulse_DeInit:00000000 HAL_TIM_OnePulse_DeInit
C:\Users\aticl\AppData\Local\Temp\ccqcvH4b.s:1228   .text.HAL_TIM_Encoder_MspInit:00000000 $t
C:\Users\aticl\AppData\Local\Temp\ccqcvH4b.s:1234   .text.HAL_TIM_Encoder_MspInit:00000000 HAL_TIM_Encoder_MspInit
C:\Users\aticl\AppData\Local\Temp\ccqcvH4b.s:1241   .text.HAL_TIM_Encoder_MspDeInit:00000000 $t
C:\Users\aticl\AppData\Local\Temp\ccqcvH4b.s:1247   .text.HAL_TIM_Encoder_MspDeInit:00000000 HAL_TIM_Encoder_MspDeInit
C:\Users\aticl\AppData\Local\Temp\ccqcvH4b.s:1254   .text.HAL_TIM_Encoder_DeInit:00000000 $t
C:\Users\aticl\AppData\Local\Temp\ccqcvH4b.s:1260   .text.HAL_TIM_Encoder_DeInit:00000000 HAL_TIM_Encoder_DeInit
C:\Users\aticl\AppData\Local\Temp\ccqcvH4b.s:1293   .text.HAL_TIM_DMABurst_MultiWriteStart:00000000 $t
C:\Users\aticl\AppData\Local\Temp\ccqcvH4b.s:1299   .text.HAL_TIM_DMABurst_MultiWriteStart:00000000 HAL_TIM_DMABurst_MultiWriteStart
C:\Users\aticl\AppData\Local\Temp\ccqcvH4b.s:1497   .text.HAL_TIM_DMABurst_MultiWriteStart:00000190 $d
C:\Users\aticl\AppData\Local\Temp\ccqcvH4b.s:2239   .text.TIM_DMADelayPulseCplt:00000000 TIM_DMADelayPulseCplt
C:\Users\aticl\AppData\Local\Temp\ccqcvH4b.s:2319   .text.TIM_DMADelayPulseHalfCplt:00000000 TIM_DMADelayPulseHalfCplt
C:\Users\aticl\AppData\Local\Temp\ccqcvH4b.s:2550   .text.TIM_DMATriggerCplt:00000000 TIM_DMATriggerCplt
C:\Users\aticl\AppData\Local\Temp\ccqcvH4b.s:2583   .text.TIM_DMATriggerHalfCplt:00000000 TIM_DMATriggerHalfCplt
C:\Users\aticl\AppData\Local\Temp\ccqcvH4b.s:1508   .text.HAL_TIM_DMABurst_WriteStart:00000000 $t
C:\Users\aticl\AppData\Local\Temp\ccqcvH4b.s:1514   .text.HAL_TIM_DMABurst_WriteStart:00000000 HAL_TIM_DMABurst_WriteStart
C:\Users\aticl\AppData\Local\Temp\ccqcvH4b.s:1530   .text.HAL_TIM_DMABurst_WriteStop:00000000 $t
C:\Users\aticl\AppData\Local\Temp\ccqcvH4b.s:1536   .text.HAL_TIM_DMABurst_WriteStop:00000000 HAL_TIM_DMABurst_WriteStop
C:\Users\aticl\AppData\Local\Temp\ccqcvH4b.s:1601   .text.HAL_TIM_DMABurst_MultiReadStart:00000000 $t
C:\Users\aticl\AppData\Local\Temp\ccqcvH4b.s:1607   .text.HAL_TIM_DMABurst_MultiReadStart:00000000 HAL_TIM_DMABurst_MultiReadStart
C:\Users\aticl\AppData\Local\Temp\ccqcvH4b.s:1805   .text.HAL_TIM_DMABurst_MultiReadStart:00000198 $d
C:\Users\aticl\AppData\Local\Temp\ccqcvH4b.s:2098   .text.TIM_DMACaptureCplt:00000000 TIM_DMACaptureCplt
C:\Users\aticl\AppData\Local\Temp\ccqcvH4b.s:2182   .text.TIM_DMACaptureHalfCplt:00000000 TIM_DMACaptureHalfCplt
C:\Users\aticl\AppData\Local\Temp\ccqcvH4b.s:1816   .text.HAL_TIM_DMABurst_ReadStart:00000000 $t
C:\Users\aticl\AppData\Local\Temp\ccqcvH4b.s:1822   .text.HAL_TIM_DMABurst_ReadStart:00000000 HAL_TIM_DMABurst_ReadStart
C:\Users\aticl\AppData\Local\Temp\ccqcvH4b.s:1838   .text.HAL_TIM_DMABurst_ReadStop:00000000 $t
C:\Users\aticl\AppData\Local\Temp\ccqcvH4b.s:1844   .text.HAL_TIM_DMABurst_ReadStop:00000000 HAL_TIM_DMABurst_ReadStop
C:\Users\aticl\AppData\Local\Temp\ccqcvH4b.s:1909   .text.HAL_TIM_GenerateEvent:00000000 $t
C:\Users\aticl\AppData\Local\Temp\ccqcvH4b.s:1915   .text.HAL_TIM_GenerateEvent:00000000 HAL_TIM_GenerateEvent
C:\Users\aticl\AppData\Local\Temp\ccqcvH4b.s:1938   .text.HAL_TIM_ConfigTI1Input:00000000 $t
C:\Users\aticl\AppData\Local\Temp\ccqcvH4b.s:1944   .text.HAL_TIM_ConfigTI1Input:00000000 HAL_TIM_ConfigTI1Input
C:\Users\aticl\AppData\Local\Temp\ccqcvH4b.s:1957   .text.HAL_TIM_ReadCapturedValue:00000000 $t
C:\Users\aticl\AppData\Local\Temp\ccqcvH4b.s:1963   .text.HAL_TIM_ReadCapturedValue:00000000 HAL_TIM_ReadCapturedValue
C:\Users\aticl\AppData\Local\Temp\ccqcvH4b.s:1971   .text.HAL_TIM_ReadCapturedValue:00000008 $d
C:\Users\aticl\AppData\Local\Temp\ccqcvH4b.s:2006   .text.HAL_TIM_PeriodElapsedCallback:00000000 $t
C:\Users\aticl\AppData\Local\Temp\ccqcvH4b.s:2012   .text.HAL_TIM_PeriodElapsedCallback:00000000 HAL_TIM_PeriodElapsedCallback
C:\Users\aticl\AppData\Local\Temp\ccqcvH4b.s:2019   .text.TIM_DMAPeriodElapsedCplt:00000000 $t
ARM GAS  C:\Users\aticl\AppData\Local\Temp\ccqcvH4b.s 			page 167


C:\Users\aticl\AppData\Local\Temp\ccqcvH4b.s:2039   .text.HAL_TIM_PeriodElapsedHalfCpltCallback:00000000 $t
C:\Users\aticl\AppData\Local\Temp\ccqcvH4b.s:2045   .text.HAL_TIM_PeriodElapsedHalfCpltCallback:00000000 HAL_TIM_PeriodElapsedHalfCpltCallback
C:\Users\aticl\AppData\Local\Temp\ccqcvH4b.s:2052   .text.TIM_DMAPeriodElapsedHalfCplt:00000000 $t
C:\Users\aticl\AppData\Local\Temp\ccqcvH4b.s:2066   .text.HAL_TIM_OC_DelayElapsedCallback:00000000 $t
C:\Users\aticl\AppData\Local\Temp\ccqcvH4b.s:2072   .text.HAL_TIM_OC_DelayElapsedCallback:00000000 HAL_TIM_OC_DelayElapsedCallback
C:\Users\aticl\AppData\Local\Temp\ccqcvH4b.s:2079   .text.HAL_TIM_IC_CaptureCallback:00000000 $t
C:\Users\aticl\AppData\Local\Temp\ccqcvH4b.s:2085   .text.HAL_TIM_IC_CaptureCallback:00000000 HAL_TIM_IC_CaptureCallback
C:\Users\aticl\AppData\Local\Temp\ccqcvH4b.s:2092   .text.TIM_DMACaptureCplt:00000000 $t
C:\Users\aticl\AppData\Local\Temp\ccqcvH4b.s:2163   .text.HAL_TIM_IC_CaptureHalfCpltCallback:00000000 $t
C:\Users\aticl\AppData\Local\Temp\ccqcvH4b.s:2169   .text.HAL_TIM_IC_CaptureHalfCpltCallback:00000000 HAL_TIM_IC_CaptureHalfCpltCallback
C:\Users\aticl\AppData\Local\Temp\ccqcvH4b.s:2176   .text.TIM_DMACaptureHalfCplt:00000000 $t
C:\Users\aticl\AppData\Local\Temp\ccqcvH4b.s:2221   .text.HAL_TIM_PWM_PulseFinishedCallback:00000000 $t
C:\Users\aticl\AppData\Local\Temp\ccqcvH4b.s:2227   .text.HAL_TIM_PWM_PulseFinishedCallback:00000000 HAL_TIM_PWM_PulseFinishedCallback
C:\Users\aticl\AppData\Local\Temp\ccqcvH4b.s:2234   .text.TIM_DMADelayPulseCplt:00000000 $t
C:\Users\aticl\AppData\Local\Temp\ccqcvH4b.s:2300   .text.HAL_TIM_PWM_PulseFinishedHalfCpltCallback:00000000 $t
C:\Users\aticl\AppData\Local\Temp\ccqcvH4b.s:2306   .text.HAL_TIM_PWM_PulseFinishedHalfCpltCallback:00000000 HAL_TIM_PWM_PulseFinishedHalfCpltCallback
C:\Users\aticl\AppData\Local\Temp\ccqcvH4b.s:2313   .text.TIM_DMADelayPulseHalfCplt:00000000 $t
C:\Users\aticl\AppData\Local\Temp\ccqcvH4b.s:2358   .text.HAL_TIM_TriggerCallback:00000000 $t
C:\Users\aticl\AppData\Local\Temp\ccqcvH4b.s:2364   .text.HAL_TIM_TriggerCallback:00000000 HAL_TIM_TriggerCallback
C:\Users\aticl\AppData\Local\Temp\ccqcvH4b.s:2371   .text.HAL_TIM_IRQHandler:00000000 $t
C:\Users\aticl\AppData\Local\Temp\ccqcvH4b.s:2377   .text.HAL_TIM_IRQHandler:00000000 HAL_TIM_IRQHandler
C:\Users\aticl\AppData\Local\Temp\ccqcvH4b.s:2545   .text.TIM_DMATriggerCplt:00000000 $t
C:\Users\aticl\AppData\Local\Temp\ccqcvH4b.s:2565   .text.HAL_TIM_TriggerHalfCpltCallback:00000000 $t
C:\Users\aticl\AppData\Local\Temp\ccqcvH4b.s:2571   .text.HAL_TIM_TriggerHalfCpltCallback:00000000 HAL_TIM_TriggerHalfCpltCallback
C:\Users\aticl\AppData\Local\Temp\ccqcvH4b.s:2578   .text.TIM_DMATriggerHalfCplt:00000000 $t
C:\Users\aticl\AppData\Local\Temp\ccqcvH4b.s:2592   .text.HAL_TIM_ErrorCallback:00000000 $t
C:\Users\aticl\AppData\Local\Temp\ccqcvH4b.s:2598   .text.HAL_TIM_ErrorCallback:00000000 HAL_TIM_ErrorCallback
C:\Users\aticl\AppData\Local\Temp\ccqcvH4b.s:2605   .text.TIM_DMAError:00000000 $t
C:\Users\aticl\AppData\Local\Temp\ccqcvH4b.s:2661   .text.HAL_TIM_Base_GetState:00000000 $t
C:\Users\aticl\AppData\Local\Temp\ccqcvH4b.s:2667   .text.HAL_TIM_Base_GetState:00000000 HAL_TIM_Base_GetState
C:\Users\aticl\AppData\Local\Temp\ccqcvH4b.s:2675   .text.HAL_TIM_OC_GetState:00000000 $t
C:\Users\aticl\AppData\Local\Temp\ccqcvH4b.s:2681   .text.HAL_TIM_OC_GetState:00000000 HAL_TIM_OC_GetState
C:\Users\aticl\AppData\Local\Temp\ccqcvH4b.s:2689   .text.HAL_TIM_PWM_GetState:00000000 $t
C:\Users\aticl\AppData\Local\Temp\ccqcvH4b.s:2695   .text.HAL_TIM_PWM_GetState:00000000 HAL_TIM_PWM_GetState
C:\Users\aticl\AppData\Local\Temp\ccqcvH4b.s:2703   .text.HAL_TIM_IC_GetState:00000000 $t
C:\Users\aticl\AppData\Local\Temp\ccqcvH4b.s:2709   .text.HAL_TIM_IC_GetState:00000000 HAL_TIM_IC_GetState
C:\Users\aticl\AppData\Local\Temp\ccqcvH4b.s:2717   .text.HAL_TIM_OnePulse_GetState:00000000 $t
C:\Users\aticl\AppData\Local\Temp\ccqcvH4b.s:2723   .text.HAL_TIM_OnePulse_GetState:00000000 HAL_TIM_OnePulse_GetState
C:\Users\aticl\AppData\Local\Temp\ccqcvH4b.s:2731   .text.HAL_TIM_Encoder_GetState:00000000 $t
C:\Users\aticl\AppData\Local\Temp\ccqcvH4b.s:2737   .text.HAL_TIM_Encoder_GetState:00000000 HAL_TIM_Encoder_GetState
C:\Users\aticl\AppData\Local\Temp\ccqcvH4b.s:2745   .text.HAL_TIM_GetActiveChannel:00000000 $t
C:\Users\aticl\AppData\Local\Temp\ccqcvH4b.s:2751   .text.HAL_TIM_GetActiveChannel:00000000 HAL_TIM_GetActiveChannel
C:\Users\aticl\AppData\Local\Temp\ccqcvH4b.s:2759   .text.HAL_TIM_GetChannelState:00000000 $t
C:\Users\aticl\AppData\Local\Temp\ccqcvH4b.s:2765   .text.HAL_TIM_GetChannelState:00000000 HAL_TIM_GetChannelState
C:\Users\aticl\AppData\Local\Temp\ccqcvH4b.s:2773   .text.HAL_TIM_GetChannelState:00000008 $d
C:\Users\aticl\AppData\Local\Temp\ccqcvH4b.s:2817   .text.HAL_TIM_DMABurstState:00000000 $t
C:\Users\aticl\AppData\Local\Temp\ccqcvH4b.s:2823   .text.HAL_TIM_DMABurstState:00000000 HAL_TIM_DMABurstState
C:\Users\aticl\AppData\Local\Temp\ccqcvH4b.s:2831   .text.TIM_Base_SetConfig:00000000 $t
C:\Users\aticl\AppData\Local\Temp\ccqcvH4b.s:2837   .text.TIM_Base_SetConfig:00000000 TIM_Base_SetConfig
C:\Users\aticl\AppData\Local\Temp\ccqcvH4b.s:2953   .text.TIM_Base_SetConfig:000000ec $d
C:\Users\aticl\AppData\Local\Temp\ccqcvH4b.s:2961   .text.HAL_TIM_Base_Init:00000000 $t
C:\Users\aticl\AppData\Local\Temp\ccqcvH4b.s:2967   .text.HAL_TIM_Base_Init:00000000 HAL_TIM_Base_Init
C:\Users\aticl\AppData\Local\Temp\ccqcvH4b.s:3005   .text.HAL_TIM_OC_Init:00000000 $t
C:\Users\aticl\AppData\Local\Temp\ccqcvH4b.s:3011   .text.HAL_TIM_OC_Init:00000000 HAL_TIM_OC_Init
C:\Users\aticl\AppData\Local\Temp\ccqcvH4b.s:3049   .text.HAL_TIM_PWM_Init:00000000 $t
C:\Users\aticl\AppData\Local\Temp\ccqcvH4b.s:3055   .text.HAL_TIM_PWM_Init:00000000 HAL_TIM_PWM_Init
C:\Users\aticl\AppData\Local\Temp\ccqcvH4b.s:3093   .text.HAL_TIM_IC_Init:00000000 $t
ARM GAS  C:\Users\aticl\AppData\Local\Temp\ccqcvH4b.s 			page 168


C:\Users\aticl\AppData\Local\Temp\ccqcvH4b.s:3099   .text.HAL_TIM_IC_Init:00000000 HAL_TIM_IC_Init
C:\Users\aticl\AppData\Local\Temp\ccqcvH4b.s:3137   .text.HAL_TIM_OnePulse_Init:00000000 $t
C:\Users\aticl\AppData\Local\Temp\ccqcvH4b.s:3143   .text.HAL_TIM_OnePulse_Init:00000000 HAL_TIM_OnePulse_Init
C:\Users\aticl\AppData\Local\Temp\ccqcvH4b.s:3184   .text.HAL_TIM_Encoder_Init:00000000 $t
C:\Users\aticl\AppData\Local\Temp\ccqcvH4b.s:3190   .text.HAL_TIM_Encoder_Init:00000000 HAL_TIM_Encoder_Init
C:\Users\aticl\AppData\Local\Temp\ccqcvH4b.s:3264   .text.HAL_TIM_Encoder_Init:000000a4 $d
C:\Users\aticl\AppData\Local\Temp\ccqcvH4b.s:3269   .text.TIM_OC2_SetConfig:00000000 $t
C:\Users\aticl\AppData\Local\Temp\ccqcvH4b.s:3275   .text.TIM_OC2_SetConfig:00000000 TIM_OC2_SetConfig
C:\Users\aticl\AppData\Local\Temp\ccqcvH4b.s:3337   .text.TIM_OC2_SetConfig:0000007c $d
C:\Users\aticl\AppData\Local\Temp\ccqcvH4b.s:3345   .text.HAL_TIM_OC_ConfigChannel:00000000 $t
C:\Users\aticl\AppData\Local\Temp\ccqcvH4b.s:3351   .text.HAL_TIM_OC_ConfigChannel:00000000 HAL_TIM_OC_ConfigChannel
C:\Users\aticl\AppData\Local\Temp\ccqcvH4b.s:3365   .text.HAL_TIM_OC_ConfigChannel:0000001a $d
C:\Users\aticl\AppData\Local\Temp\ccqcvH4b.s:3428   .text.HAL_TIM_PWM_ConfigChannel:00000000 $t
C:\Users\aticl\AppData\Local\Temp\ccqcvH4b.s:3434   .text.HAL_TIM_PWM_ConfigChannel:00000000 HAL_TIM_PWM_ConfigChannel
C:\Users\aticl\AppData\Local\Temp\ccqcvH4b.s:3449   .text.HAL_TIM_PWM_ConfigChannel:00000020 $d
C:\Users\aticl\AppData\Local\Temp\ccqcvH4b.s:3591   .text.TIM_TI1_SetConfig:00000000 $t
C:\Users\aticl\AppData\Local\Temp\ccqcvH4b.s:3597   .text.TIM_TI1_SetConfig:00000000 TIM_TI1_SetConfig
C:\Users\aticl\AppData\Local\Temp\ccqcvH4b.s:3661   .text.TIM_TI1_SetConfig:00000088 $d
C:\Users\aticl\AppData\Local\Temp\ccqcvH4b.s:3666   .text.HAL_TIM_IC_ConfigChannel:00000000 $t
C:\Users\aticl\AppData\Local\Temp\ccqcvH4b.s:3672   .text.HAL_TIM_IC_ConfigChannel:00000000 HAL_TIM_IC_ConfigChannel
C:\Users\aticl\AppData\Local\Temp\ccqcvH4b.s:3687   .text.HAL_TIM_IC_ConfigChannel:0000001c $d
C:\Users\aticl\AppData\Local\Temp\ccqcvH4b.s:3781   .text.HAL_TIM_OnePulse_ConfigChannel:00000000 $t
C:\Users\aticl\AppData\Local\Temp\ccqcvH4b.s:3787   .text.HAL_TIM_OnePulse_ConfigChannel:00000000 HAL_TIM_OnePulse_ConfigChannel
C:\Users\aticl\AppData\Local\Temp\ccqcvH4b.s:3913   .text.HAL_TIM_OnePulse_ConfigChannel:000000fc $d
C:\Users\aticl\AppData\Local\Temp\ccqcvH4b.s:3917   .text.TIM_ETR_SetConfig:00000000 $t
C:\Users\aticl\AppData\Local\Temp\ccqcvH4b.s:3923   .text.TIM_ETR_SetConfig:00000000 TIM_ETR_SetConfig
C:\Users\aticl\AppData\Local\Temp\ccqcvH4b.s:3938   .text.HAL_TIM_ConfigOCrefClear:00000000 $t
C:\Users\aticl\AppData\Local\Temp\ccqcvH4b.s:3944   .text.HAL_TIM_ConfigOCrefClear:00000000 HAL_TIM_ConfigOCrefClear
C:\Users\aticl\AppData\Local\Temp\ccqcvH4b.s:3980   .text.HAL_TIM_ConfigOCrefClear:00000048 $d
C:\Users\aticl\AppData\Local\Temp\ccqcvH4b.s:4120   .text.HAL_TIM_ConfigClockSource:00000000 $t
C:\Users\aticl\AppData\Local\Temp\ccqcvH4b.s:4126   .text.HAL_TIM_ConfigClockSource:00000000 HAL_TIM_ConfigClockSource
C:\Users\aticl\AppData\Local\Temp\ccqcvH4b.s:4277   .text.HAL_TIM_ConfigClockSource:0000012c $d
C:\Users\aticl\AppData\Local\Temp\ccqcvH4b.s:4282   .text.TIM_SlaveTimer_SetConfig:00000000 $t
C:\Users\aticl\AppData\Local\Temp\ccqcvH4b.s:4287   .text.TIM_SlaveTimer_SetConfig:00000000 TIM_SlaveTimer_SetConfig
C:\Users\aticl\AppData\Local\Temp\ccqcvH4b.s:4466   .text.TIM_SlaveTimer_SetConfig:00000138 $d
C:\Users\aticl\AppData\Local\Temp\ccqcvH4b.s:4474   .text.HAL_TIM_SlaveConfigSynchro:00000000 $t
C:\Users\aticl\AppData\Local\Temp\ccqcvH4b.s:4480   .text.HAL_TIM_SlaveConfigSynchro:00000000 HAL_TIM_SlaveConfigSynchro
C:\Users\aticl\AppData\Local\Temp\ccqcvH4b.s:4519   .text.HAL_TIM_SlaveConfigSynchro_IT:00000000 $t
C:\Users\aticl\AppData\Local\Temp\ccqcvH4b.s:4525   .text.HAL_TIM_SlaveConfigSynchro_IT:00000000 HAL_TIM_SlaveConfigSynchro_IT
C:\Users\aticl\AppData\Local\Temp\ccqcvH4b.s:4564   .text.TIM_CCxChannelCmd:00000000 $t
C:\Users\aticl\AppData\Local\Temp\ccqcvH4b.s:4570   .text.TIM_CCxChannelCmd:00000000 TIM_CCxChannelCmd
C:\Users\aticl\AppData\Local\Temp\ccqcvH4b.s:4587   .text.HAL_TIM_OC_Start:00000000 $t
C:\Users\aticl\AppData\Local\Temp\ccqcvH4b.s:4593   .text.HAL_TIM_OC_Start:00000000 HAL_TIM_OC_Start
C:\Users\aticl\AppData\Local\Temp\ccqcvH4b.s:4602   .text.HAL_TIM_OC_Start:0000000c $d
C:\Users\aticl\AppData\Local\Temp\ccqcvH4b.s:4662   .text.HAL_TIM_OC_Start:00000070 $d
C:\Users\aticl\AppData\Local\Temp\ccqcvH4b.s:4780   .text.HAL_TIM_OC_Start:00000154 $d
C:\Users\aticl\AppData\Local\Temp\ccqcvH4b.s:4785   .text.HAL_TIM_OC_Stop:00000000 $t
C:\Users\aticl\AppData\Local\Temp\ccqcvH4b.s:4791   .text.HAL_TIM_OC_Stop:00000000 HAL_TIM_OC_Stop
C:\Users\aticl\AppData\Local\Temp\ccqcvH4b.s:4846   .text.HAL_TIM_OC_Stop:00000076 $d
C:\Users\aticl\AppData\Local\Temp\ccqcvH4b.s:4893   .text.HAL_TIM_OC_Stop:000000bc $d
C:\Users\aticl\AppData\Local\Temp\ccqcvH4b.s:4897   .text.HAL_TIM_OC_Start_IT:00000000 $t
C:\Users\aticl\AppData\Local\Temp\ccqcvH4b.s:4903   .text.HAL_TIM_OC_Start_IT:00000000 HAL_TIM_OC_Start_IT
C:\Users\aticl\AppData\Local\Temp\ccqcvH4b.s:4912   .text.HAL_TIM_OC_Start_IT:0000000c $d
C:\Users\aticl\AppData\Local\Temp\ccqcvH4b.s:4972   .text.HAL_TIM_OC_Start_IT:00000072 $d
C:\Users\aticl\AppData\Local\Temp\ccqcvH4b.s:5093   .text.HAL_TIM_OC_Start_IT:00000164 $d
C:\Users\aticl\AppData\Local\Temp\ccqcvH4b.s:5106   .text.HAL_TIM_OC_Start_IT:00000198 $t
C:\Users\aticl\AppData\Local\Temp\ccqcvH4b.s:5133   .text.HAL_TIM_OC_Start_IT:000001c0 $d
ARM GAS  C:\Users\aticl\AppData\Local\Temp\ccqcvH4b.s 			page 169


C:\Users\aticl\AppData\Local\Temp\ccqcvH4b.s:5138   .text.HAL_TIM_OC_Stop_IT:00000000 $t
C:\Users\aticl\AppData\Local\Temp\ccqcvH4b.s:5144   .text.HAL_TIM_OC_Stop_IT:00000000 HAL_TIM_OC_Stop_IT
C:\Users\aticl\AppData\Local\Temp\ccqcvH4b.s:5154   .text.HAL_TIM_OC_Stop_IT:0000000e $d
C:\Users\aticl\AppData\Local\Temp\ccqcvH4b.s:5224   .text.HAL_TIM_OC_Stop_IT:00000098 $d
C:\Users\aticl\AppData\Local\Temp\ccqcvH4b.s:5297   .text.HAL_TIM_OC_Stop_IT:00000110 $d
C:\Users\aticl\AppData\Local\Temp\ccqcvH4b.s:5301   .text.HAL_TIM_OC_Start_DMA:00000000 $t
C:\Users\aticl\AppData\Local\Temp\ccqcvH4b.s:5307   .text.HAL_TIM_OC_Start_DMA:00000000 HAL_TIM_OC_Start_DMA
C:\Users\aticl\AppData\Local\Temp\ccqcvH4b.s:5318   .text.HAL_TIM_OC_Start_DMA:00000010 $d
C:\Users\aticl\AppData\Local\Temp\ccqcvH4b.s:5384   .text.HAL_TIM_OC_Start_DMA:00000082 $d
C:\Users\aticl\AppData\Local\Temp\ccqcvH4b.s:5454   .text.HAL_TIM_OC_Start_DMA:00000100 $d
C:\Users\aticl\AppData\Local\Temp\ccqcvH4b.s:5471   .text.HAL_TIM_OC_Start_DMA:00000122 $t
C:\Users\aticl\AppData\Local\Temp\ccqcvH4b.s:5636   .text.HAL_TIM_OC_Start_DMA:00000290 $d
C:\Users\aticl\AppData\Local\Temp\ccqcvH4b.s:5649   .text.HAL_TIM_OC_Start_DMA:000002c4 $t
C:\Users\aticl\AppData\Local\Temp\ccqcvH4b.s:5694   .text.HAL_TIM_OC_Start_DMA:00000304 $d
C:\Users\aticl\AppData\Local\Temp\ccqcvH4b.s:5702   .text.HAL_TIM_OC_Stop_DMA:00000000 $t
C:\Users\aticl\AppData\Local\Temp\ccqcvH4b.s:5708   .text.HAL_TIM_OC_Stop_DMA:00000000 HAL_TIM_OC_Stop_DMA
C:\Users\aticl\AppData\Local\Temp\ccqcvH4b.s:5718   .text.HAL_TIM_OC_Stop_DMA:00000010 $d
C:\Users\aticl\AppData\Local\Temp\ccqcvH4b.s:5790   .text.HAL_TIM_OC_Stop_DMA:000000a0 $d
C:\Users\aticl\AppData\Local\Temp\ccqcvH4b.s:5869   .text.HAL_TIM_OC_Stop_DMA:00000128 $d
C:\Users\aticl\AppData\Local\Temp\ccqcvH4b.s:5873   .text.HAL_TIM_PWM_Start:00000000 $t
C:\Users\aticl\AppData\Local\Temp\ccqcvH4b.s:5879   .text.HAL_TIM_PWM_Start:00000000 HAL_TIM_PWM_Start
C:\Users\aticl\AppData\Local\Temp\ccqcvH4b.s:5888   .text.HAL_TIM_PWM_Start:0000000c $d
C:\Users\aticl\AppData\Local\Temp\ccqcvH4b.s:5948   .text.HAL_TIM_PWM_Start:00000070 $d
C:\Users\aticl\AppData\Local\Temp\ccqcvH4b.s:6066   .text.HAL_TIM_PWM_Start:00000154 $d
C:\Users\aticl\AppData\Local\Temp\ccqcvH4b.s:6071   .text.HAL_TIM_PWM_Stop:00000000 $t
C:\Users\aticl\AppData\Local\Temp\ccqcvH4b.s:6077   .text.HAL_TIM_PWM_Stop:00000000 HAL_TIM_PWM_Stop
C:\Users\aticl\AppData\Local\Temp\ccqcvH4b.s:6132   .text.HAL_TIM_PWM_Stop:00000076 $d
C:\Users\aticl\AppData\Local\Temp\ccqcvH4b.s:6179   .text.HAL_TIM_PWM_Stop:000000bc $d
C:\Users\aticl\AppData\Local\Temp\ccqcvH4b.s:6183   .text.HAL_TIM_PWM_Start_IT:00000000 $t
C:\Users\aticl\AppData\Local\Temp\ccqcvH4b.s:6189   .text.HAL_TIM_PWM_Start_IT:00000000 HAL_TIM_PWM_Start_IT
C:\Users\aticl\AppData\Local\Temp\ccqcvH4b.s:6198   .text.HAL_TIM_PWM_Start_IT:0000000c $d
C:\Users\aticl\AppData\Local\Temp\ccqcvH4b.s:6258   .text.HAL_TIM_PWM_Start_IT:00000072 $d
C:\Users\aticl\AppData\Local\Temp\ccqcvH4b.s:6379   .text.HAL_TIM_PWM_Start_IT:00000164 $d
C:\Users\aticl\AppData\Local\Temp\ccqcvH4b.s:6392   .text.HAL_TIM_PWM_Start_IT:00000198 $t
C:\Users\aticl\AppData\Local\Temp\ccqcvH4b.s:6419   .text.HAL_TIM_PWM_Start_IT:000001c0 $d
C:\Users\aticl\AppData\Local\Temp\ccqcvH4b.s:6424   .text.HAL_TIM_PWM_Stop_IT:00000000 $t
C:\Users\aticl\AppData\Local\Temp\ccqcvH4b.s:6430   .text.HAL_TIM_PWM_Stop_IT:00000000 HAL_TIM_PWM_Stop_IT
C:\Users\aticl\AppData\Local\Temp\ccqcvH4b.s:6440   .text.HAL_TIM_PWM_Stop_IT:0000000e $d
C:\Users\aticl\AppData\Local\Temp\ccqcvH4b.s:6510   .text.HAL_TIM_PWM_Stop_IT:00000098 $d
C:\Users\aticl\AppData\Local\Temp\ccqcvH4b.s:6583   .text.HAL_TIM_PWM_Stop_IT:00000110 $d
C:\Users\aticl\AppData\Local\Temp\ccqcvH4b.s:6587   .text.HAL_TIM_PWM_Start_DMA:00000000 $t
C:\Users\aticl\AppData\Local\Temp\ccqcvH4b.s:6593   .text.HAL_TIM_PWM_Start_DMA:00000000 HAL_TIM_PWM_Start_DMA
C:\Users\aticl\AppData\Local\Temp\ccqcvH4b.s:6604   .text.HAL_TIM_PWM_Start_DMA:00000010 $d
C:\Users\aticl\AppData\Local\Temp\ccqcvH4b.s:6670   .text.HAL_TIM_PWM_Start_DMA:00000082 $d
C:\Users\aticl\AppData\Local\Temp\ccqcvH4b.s:6740   .text.HAL_TIM_PWM_Start_DMA:00000100 $d
C:\Users\aticl\AppData\Local\Temp\ccqcvH4b.s:6757   .text.HAL_TIM_PWM_Start_DMA:00000122 $t
C:\Users\aticl\AppData\Local\Temp\ccqcvH4b.s:6922   .text.HAL_TIM_PWM_Start_DMA:00000290 $d
C:\Users\aticl\AppData\Local\Temp\ccqcvH4b.s:6935   .text.HAL_TIM_PWM_Start_DMA:000002c4 $t
C:\Users\aticl\AppData\Local\Temp\ccqcvH4b.s:6980   .text.HAL_TIM_PWM_Start_DMA:00000304 $d
C:\Users\aticl\AppData\Local\Temp\ccqcvH4b.s:6988   .text.HAL_TIM_PWM_Stop_DMA:00000000 $t
C:\Users\aticl\AppData\Local\Temp\ccqcvH4b.s:6994   .text.HAL_TIM_PWM_Stop_DMA:00000000 HAL_TIM_PWM_Stop_DMA
C:\Users\aticl\AppData\Local\Temp\ccqcvH4b.s:7004   .text.HAL_TIM_PWM_Stop_DMA:00000010 $d
C:\Users\aticl\AppData\Local\Temp\ccqcvH4b.s:7076   .text.HAL_TIM_PWM_Stop_DMA:000000a0 $d
C:\Users\aticl\AppData\Local\Temp\ccqcvH4b.s:7155   .text.HAL_TIM_PWM_Stop_DMA:00000128 $d
C:\Users\aticl\AppData\Local\Temp\ccqcvH4b.s:7159   .text.HAL_TIM_IC_Start:00000000 $t
C:\Users\aticl\AppData\Local\Temp\ccqcvH4b.s:7165   .text.HAL_TIM_IC_Start:00000000 HAL_TIM_IC_Start
C:\Users\aticl\AppData\Local\Temp\ccqcvH4b.s:7174   .text.HAL_TIM_IC_Start:0000000c $d
ARM GAS  C:\Users\aticl\AppData\Local\Temp\ccqcvH4b.s 			page 170


C:\Users\aticl\AppData\Local\Temp\ccqcvH4b.s:7233   .text.HAL_TIM_IC_Start:00000070 $d
C:\Users\aticl\AppData\Local\Temp\ccqcvH4b.s:7354   .text.HAL_TIM_IC_Start:00000158 $d
C:\Users\aticl\AppData\Local\Temp\ccqcvH4b.s:7358   .text.HAL_TIM_IC_Stop:00000000 $t
C:\Users\aticl\AppData\Local\Temp\ccqcvH4b.s:7364   .text.HAL_TIM_IC_Stop:00000000 HAL_TIM_IC_Stop
C:\Users\aticl\AppData\Local\Temp\ccqcvH4b.s:7390   .text.HAL_TIM_IC_Stop:00000034 $d
C:\Users\aticl\AppData\Local\Temp\ccqcvH4b.s:7452   .text.HAL_TIM_IC_Start_IT:00000000 $t
C:\Users\aticl\AppData\Local\Temp\ccqcvH4b.s:7458   .text.HAL_TIM_IC_Start_IT:00000000 HAL_TIM_IC_Start_IT
C:\Users\aticl\AppData\Local\Temp\ccqcvH4b.s:7467   .text.HAL_TIM_IC_Start_IT:0000000c $d
C:\Users\aticl\AppData\Local\Temp\ccqcvH4b.s:7526   .text.HAL_TIM_IC_Start_IT:00000072 $d
C:\Users\aticl\AppData\Local\Temp\ccqcvH4b.s:7594   .text.HAL_TIM_IC_Start_IT:000000e8 $d
C:\Users\aticl\AppData\Local\Temp\ccqcvH4b.s:7607   .text.HAL_TIM_IC_Start_IT:0000011c $t
C:\Users\aticl\AppData\Local\Temp\ccqcvH4b.s:7690   .text.HAL_TIM_IC_Start_IT:000001c4 $d
C:\Users\aticl\AppData\Local\Temp\ccqcvH4b.s:7694   .text.HAL_TIM_IC_Stop_IT:00000000 $t
C:\Users\aticl\AppData\Local\Temp\ccqcvH4b.s:7700   .text.HAL_TIM_IC_Stop_IT:00000000 HAL_TIM_IC_Stop_IT
C:\Users\aticl\AppData\Local\Temp\ccqcvH4b.s:7710   .text.HAL_TIM_IC_Stop_IT:0000000e $d
C:\Users\aticl\AppData\Local\Temp\ccqcvH4b.s:7751   .text.HAL_TIM_IC_Stop_IT:00000056 $d
C:\Users\aticl\AppData\Local\Temp\ccqcvH4b.s:7837   .text.HAL_TIM_IC_Start_DMA:00000000 $t
C:\Users\aticl\AppData\Local\Temp\ccqcvH4b.s:7843   .text.HAL_TIM_IC_Start_DMA:00000000 HAL_TIM_IC_Start_DMA
C:\Users\aticl\AppData\Local\Temp\ccqcvH4b.s:7855   .text.HAL_TIM_IC_Start_DMA:00000012 $d
C:\Users\aticl\AppData\Local\Temp\ccqcvH4b.s:7922   .text.HAL_TIM_IC_Start_DMA:0000008c $d
C:\Users\aticl\AppData\Local\Temp\ccqcvH4b.s:7988   .text.HAL_TIM_IC_Start_DMA:00000100 $d
C:\Users\aticl\AppData\Local\Temp\ccqcvH4b.s:8170   .text.HAL_TIM_IC_Start_DMA:00000260 $d
C:\Users\aticl\AppData\Local\Temp\ccqcvH4b.s:8177   .text.HAL_TIM_IC_Stop_DMA:00000000 $t
C:\Users\aticl\AppData\Local\Temp\ccqcvH4b.s:8183   .text.HAL_TIM_IC_Stop_DMA:00000000 HAL_TIM_IC_Stop_DMA
C:\Users\aticl\AppData\Local\Temp\ccqcvH4b.s:8196   .text.HAL_TIM_IC_Stop_DMA:00000016 $d
C:\Users\aticl\AppData\Local\Temp\ccqcvH4b.s:8235   .text.HAL_TIM_IC_Stop_DMA:0000005a $d
C:\Users\aticl\AppData\Local\Temp\ccqcvH4b.s:8327   .text.HAL_TIM_OnePulse_Start:00000000 $t
C:\Users\aticl\AppData\Local\Temp\ccqcvH4b.s:8333   .text.HAL_TIM_OnePulse_Start:00000000 HAL_TIM_OnePulse_Start
C:\Users\aticl\AppData\Local\Temp\ccqcvH4b.s:8400   .text.HAL_TIM_OnePulse_Start:00000090 $d
C:\Users\aticl\AppData\Local\Temp\ccqcvH4b.s:8404   .text.HAL_TIM_OnePulse_Stop:00000000 $t
C:\Users\aticl\AppData\Local\Temp\ccqcvH4b.s:8410   .text.HAL_TIM_OnePulse_Stop:00000000 HAL_TIM_OnePulse_Stop
C:\Users\aticl\AppData\Local\Temp\ccqcvH4b.s:8475   .text.HAL_TIM_OnePulse_Stop:00000090 $d
C:\Users\aticl\AppData\Local\Temp\ccqcvH4b.s:8479   .text.HAL_TIM_OnePulse_Start_IT:00000000 $t
C:\Users\aticl\AppData\Local\Temp\ccqcvH4b.s:8485   .text.HAL_TIM_OnePulse_Start_IT:00000000 HAL_TIM_OnePulse_Start_IT
C:\Users\aticl\AppData\Local\Temp\ccqcvH4b.s:8562   .text.HAL_TIM_OnePulse_Start_IT:000000a8 $d
C:\Users\aticl\AppData\Local\Temp\ccqcvH4b.s:8566   .text.HAL_TIM_OnePulse_Stop_IT:00000000 $t
C:\Users\aticl\AppData\Local\Temp\ccqcvH4b.s:8572   .text.HAL_TIM_OnePulse_Stop_IT:00000000 HAL_TIM_OnePulse_Stop_IT
C:\Users\aticl\AppData\Local\Temp\ccqcvH4b.s:8645   .text.HAL_TIM_OnePulse_Stop_IT:000000a4 $d
C:\Users\aticl\AppData\Local\Temp\ccqcvH4b.s:8649   .text.HAL_TIM_Encoder_Start:00000000 $t
C:\Users\aticl\AppData\Local\Temp\ccqcvH4b.s:8655   .text.HAL_TIM_Encoder_Start:00000000 HAL_TIM_Encoder_Start
C:\Users\aticl\AppData\Local\Temp\ccqcvH4b.s:8751   .text.HAL_TIM_Encoder_Stop:00000000 $t
C:\Users\aticl\AppData\Local\Temp\ccqcvH4b.s:8757   .text.HAL_TIM_Encoder_Stop:00000000 HAL_TIM_Encoder_Stop
C:\Users\aticl\AppData\Local\Temp\ccqcvH4b.s:8802   .text.HAL_TIM_Encoder_Stop:0000005a $d
C:\Users\aticl\AppData\Local\Temp\ccqcvH4b.s:8881   .text.HAL_TIM_Encoder_Start_IT:00000000 $t
C:\Users\aticl\AppData\Local\Temp\ccqcvH4b.s:8887   .text.HAL_TIM_Encoder_Start_IT:00000000 HAL_TIM_Encoder_Start_IT
C:\Users\aticl\AppData\Local\Temp\ccqcvH4b.s:9001   .text.HAL_TIM_Encoder_Stop_IT:00000000 $t
C:\Users\aticl\AppData\Local\Temp\ccqcvH4b.s:9007   .text.HAL_TIM_Encoder_Stop_IT:00000000 HAL_TIM_Encoder_Stop_IT
C:\Users\aticl\AppData\Local\Temp\ccqcvH4b.s:9055   .text.HAL_TIM_Encoder_Stop_IT:00000064 $d
C:\Users\aticl\AppData\Local\Temp\ccqcvH4b.s:9148   .text.HAL_TIM_Encoder_Start_DMA:00000000 $t
C:\Users\aticl\AppData\Local\Temp\ccqcvH4b.s:9154   .text.HAL_TIM_Encoder_Start_DMA:00000000 HAL_TIM_Encoder_Start_DMA
C:\Users\aticl\AppData\Local\Temp\ccqcvH4b.s:9415   .text.HAL_TIM_Encoder_Start_DMA:00000240 $d
C:\Users\aticl\AppData\Local\Temp\ccqcvH4b.s:9420   .text.HAL_TIM_Encoder_Stop_DMA:00000000 $t
C:\Users\aticl\AppData\Local\Temp\ccqcvH4b.s:9426   .text.HAL_TIM_Encoder_Stop_DMA:00000000 HAL_TIM_Encoder_Stop_DMA
C:\Users\aticl\AppData\Local\Temp\ccqcvH4b.s:9478   .text.HAL_TIM_Encoder_Stop_DMA:00000070 $d
C:\Users\aticl\AppData\Local\Temp\ccqcvH4b.s:1984   .text.HAL_TIM_ReadCapturedValue:00000015 $d
C:\Users\aticl\AppData\Local\Temp\ccqcvH4b.s:1984   .text.HAL_TIM_ReadCapturedValue:00000016 $t
C:\Users\aticl\AppData\Local\Temp\ccqcvH4b.s:2790   .text.HAL_TIM_GetChannelState:00000019 $d
ARM GAS  C:\Users\aticl\AppData\Local\Temp\ccqcvH4b.s 			page 171


C:\Users\aticl\AppData\Local\Temp\ccqcvH4b.s:2790   .text.HAL_TIM_GetChannelState:0000001a $t
C:\Users\aticl\AppData\Local\Temp\ccqcvH4b.s:3386   .text.HAL_TIM_OC_ConfigChannel:0000002f $d
C:\Users\aticl\AppData\Local\Temp\ccqcvH4b.s:3386   .text.HAL_TIM_OC_ConfigChannel:00000030 $t
C:\Users\aticl\AppData\Local\Temp\ccqcvH4b.s:3470   .text.HAL_TIM_PWM_ConfigChannel:00000035 $d
C:\Users\aticl\AppData\Local\Temp\ccqcvH4b.s:3470   .text.HAL_TIM_PWM_ConfigChannel:00000036 $t
C:\Users\aticl\AppData\Local\Temp\ccqcvH4b.s:3700   .text.HAL_TIM_IC_ConfigChannel:00000029 $d
C:\Users\aticl\AppData\Local\Temp\ccqcvH4b.s:3700   .text.HAL_TIM_IC_ConfigChannel:0000002a $t
C:\Users\aticl\AppData\Local\Temp\ccqcvH4b.s:4001   .text.HAL_TIM_ConfigOCrefClear:0000005d $d
C:\Users\aticl\AppData\Local\Temp\ccqcvH4b.s:4001   .text.HAL_TIM_ConfigOCrefClear:0000005e $t
C:\Users\aticl\AppData\Local\Temp\ccqcvH4b.s:4619   .text.HAL_TIM_OC_Start:0000001d $d
C:\Users\aticl\AppData\Local\Temp\ccqcvH4b.s:4619   .text.HAL_TIM_OC_Start:0000001e $t
C:\Users\aticl\AppData\Local\Temp\ccqcvH4b.s:4679   .text.HAL_TIM_OC_Start:00000081 $d
C:\Users\aticl\AppData\Local\Temp\ccqcvH4b.s:4679   .text.HAL_TIM_OC_Start:00000082 $t
C:\Users\aticl\AppData\Local\Temp\ccqcvH4b.s:4863   .text.HAL_TIM_OC_Stop:00000087 $d
C:\Users\aticl\AppData\Local\Temp\ccqcvH4b.s:4863   .text.HAL_TIM_OC_Stop:00000088 $t
C:\Users\aticl\AppData\Local\Temp\ccqcvH4b.s:4929   .text.HAL_TIM_OC_Start_IT:0000001d $d
C:\Users\aticl\AppData\Local\Temp\ccqcvH4b.s:4929   .text.HAL_TIM_OC_Start_IT:0000001e $t
C:\Users\aticl\AppData\Local\Temp\ccqcvH4b.s:4989   .text.HAL_TIM_OC_Start_IT:00000083 $d
C:\Users\aticl\AppData\Local\Temp\ccqcvH4b.s:4989   .text.HAL_TIM_OC_Start_IT:00000084 $t
C:\Users\aticl\AppData\Local\Temp\ccqcvH4b.s:5167   .text.HAL_TIM_OC_Stop_IT:0000001b $d
C:\Users\aticl\AppData\Local\Temp\ccqcvH4b.s:5167   .text.HAL_TIM_OC_Stop_IT:0000001c $t
C:\Users\aticl\AppData\Local\Temp\ccqcvH4b.s:5241   .text.HAL_TIM_OC_Stop_IT:000000a9 $d
C:\Users\aticl\AppData\Local\Temp\ccqcvH4b.s:5241   .text.HAL_TIM_OC_Stop_IT:000000aa $t
C:\Users\aticl\AppData\Local\Temp\ccqcvH4b.s:5335   .text.HAL_TIM_OC_Start_DMA:00000021 $d
C:\Users\aticl\AppData\Local\Temp\ccqcvH4b.s:5335   .text.HAL_TIM_OC_Start_DMA:00000022 $t
C:\Users\aticl\AppData\Local\Temp\ccqcvH4b.s:5401   .text.HAL_TIM_OC_Start_DMA:00000093 $d
C:\Users\aticl\AppData\Local\Temp\ccqcvH4b.s:5401   .text.HAL_TIM_OC_Start_DMA:00000094 $t
C:\Users\aticl\AppData\Local\Temp\ccqcvH4b.s:5731   .text.HAL_TIM_OC_Stop_DMA:0000001d $d
C:\Users\aticl\AppData\Local\Temp\ccqcvH4b.s:5731   .text.HAL_TIM_OC_Stop_DMA:0000001e $t
C:\Users\aticl\AppData\Local\Temp\ccqcvH4b.s:5807   .text.HAL_TIM_OC_Stop_DMA:000000b1 $d
C:\Users\aticl\AppData\Local\Temp\ccqcvH4b.s:5807   .text.HAL_TIM_OC_Stop_DMA:000000b2 $t
C:\Users\aticl\AppData\Local\Temp\ccqcvH4b.s:5905   .text.HAL_TIM_PWM_Start:0000001d $d
C:\Users\aticl\AppData\Local\Temp\ccqcvH4b.s:5905   .text.HAL_TIM_PWM_Start:0000001e $t
C:\Users\aticl\AppData\Local\Temp\ccqcvH4b.s:5965   .text.HAL_TIM_PWM_Start:00000081 $d
C:\Users\aticl\AppData\Local\Temp\ccqcvH4b.s:5965   .text.HAL_TIM_PWM_Start:00000082 $t
C:\Users\aticl\AppData\Local\Temp\ccqcvH4b.s:6149   .text.HAL_TIM_PWM_Stop:00000087 $d
C:\Users\aticl\AppData\Local\Temp\ccqcvH4b.s:6149   .text.HAL_TIM_PWM_Stop:00000088 $t
C:\Users\aticl\AppData\Local\Temp\ccqcvH4b.s:6215   .text.HAL_TIM_PWM_Start_IT:0000001d $d
C:\Users\aticl\AppData\Local\Temp\ccqcvH4b.s:6215   .text.HAL_TIM_PWM_Start_IT:0000001e $t
C:\Users\aticl\AppData\Local\Temp\ccqcvH4b.s:6275   .text.HAL_TIM_PWM_Start_IT:00000083 $d
C:\Users\aticl\AppData\Local\Temp\ccqcvH4b.s:6275   .text.HAL_TIM_PWM_Start_IT:00000084 $t
C:\Users\aticl\AppData\Local\Temp\ccqcvH4b.s:6453   .text.HAL_TIM_PWM_Stop_IT:0000001b $d
C:\Users\aticl\AppData\Local\Temp\ccqcvH4b.s:6453   .text.HAL_TIM_PWM_Stop_IT:0000001c $t
C:\Users\aticl\AppData\Local\Temp\ccqcvH4b.s:6527   .text.HAL_TIM_PWM_Stop_IT:000000a9 $d
C:\Users\aticl\AppData\Local\Temp\ccqcvH4b.s:6527   .text.HAL_TIM_PWM_Stop_IT:000000aa $t
C:\Users\aticl\AppData\Local\Temp\ccqcvH4b.s:6621   .text.HAL_TIM_PWM_Start_DMA:00000021 $d
C:\Users\aticl\AppData\Local\Temp\ccqcvH4b.s:6621   .text.HAL_TIM_PWM_Start_DMA:00000022 $t
C:\Users\aticl\AppData\Local\Temp\ccqcvH4b.s:6687   .text.HAL_TIM_PWM_Start_DMA:00000093 $d
C:\Users\aticl\AppData\Local\Temp\ccqcvH4b.s:6687   .text.HAL_TIM_PWM_Start_DMA:00000094 $t
C:\Users\aticl\AppData\Local\Temp\ccqcvH4b.s:7017   .text.HAL_TIM_PWM_Stop_DMA:0000001d $d
C:\Users\aticl\AppData\Local\Temp\ccqcvH4b.s:7017   .text.HAL_TIM_PWM_Stop_DMA:0000001e $t
C:\Users\aticl\AppData\Local\Temp\ccqcvH4b.s:7093   .text.HAL_TIM_PWM_Stop_DMA:000000b1 $d
C:\Users\aticl\AppData\Local\Temp\ccqcvH4b.s:7093   .text.HAL_TIM_PWM_Stop_DMA:000000b2 $t
C:\Users\aticl\AppData\Local\Temp\ccqcvH4b.s:7191   .text.HAL_TIM_IC_Start:0000001d $d
C:\Users\aticl\AppData\Local\Temp\ccqcvH4b.s:7191   .text.HAL_TIM_IC_Start:0000001e $t
C:\Users\aticl\AppData\Local\Temp\ccqcvH4b.s:7250   .text.HAL_TIM_IC_Start:00000081 $d
C:\Users\aticl\AppData\Local\Temp\ccqcvH4b.s:7250   .text.HAL_TIM_IC_Start:00000082 $t
ARM GAS  C:\Users\aticl\AppData\Local\Temp\ccqcvH4b.s 			page 172


C:\Users\aticl\AppData\Local\Temp\ccqcvH4b.s:7407   .text.HAL_TIM_IC_Stop:00000045 $d
C:\Users\aticl\AppData\Local\Temp\ccqcvH4b.s:7407   .text.HAL_TIM_IC_Stop:00000046 $t
C:\Users\aticl\AppData\Local\Temp\ccqcvH4b.s:7484   .text.HAL_TIM_IC_Start_IT:0000001d $d
C:\Users\aticl\AppData\Local\Temp\ccqcvH4b.s:7484   .text.HAL_TIM_IC_Start_IT:0000001e $t
C:\Users\aticl\AppData\Local\Temp\ccqcvH4b.s:7543   .text.HAL_TIM_IC_Start_IT:00000083 $d
C:\Users\aticl\AppData\Local\Temp\ccqcvH4b.s:7543   .text.HAL_TIM_IC_Start_IT:00000084 $t
C:\Users\aticl\AppData\Local\Temp\ccqcvH4b.s:7723   .text.HAL_TIM_IC_Stop_IT:0000001b $d
C:\Users\aticl\AppData\Local\Temp\ccqcvH4b.s:7723   .text.HAL_TIM_IC_Stop_IT:0000001c $t
C:\Users\aticl\AppData\Local\Temp\ccqcvH4b.s:7768   .text.HAL_TIM_IC_Stop_IT:00000067 $d
C:\Users\aticl\AppData\Local\Temp\ccqcvH4b.s:7768   .text.HAL_TIM_IC_Stop_IT:00000068 $t
C:\Users\aticl\AppData\Local\Temp\ccqcvH4b.s:7872   .text.HAL_TIM_IC_Start_DMA:00000023 $d
C:\Users\aticl\AppData\Local\Temp\ccqcvH4b.s:7872   .text.HAL_TIM_IC_Start_DMA:00000024 $t
C:\Users\aticl\AppData\Local\Temp\ccqcvH4b.s:7939   .text.HAL_TIM_IC_Start_DMA:0000009d $d
C:\Users\aticl\AppData\Local\Temp\ccqcvH4b.s:7939   .text.HAL_TIM_IC_Start_DMA:0000009e $t
C:\Users\aticl\AppData\Local\Temp\ccqcvH4b.s:8001   .text.HAL_TIM_IC_Start_DMA:0000010d $d
C:\Users\aticl\AppData\Local\Temp\ccqcvH4b.s:8001   .text.HAL_TIM_IC_Start_DMA:0000010e $t
C:\Users\aticl\AppData\Local\Temp\ccqcvH4b.s:8209   .text.HAL_TIM_IC_Stop_DMA:00000023 $d
C:\Users\aticl\AppData\Local\Temp\ccqcvH4b.s:8209   .text.HAL_TIM_IC_Stop_DMA:00000024 $t
C:\Users\aticl\AppData\Local\Temp\ccqcvH4b.s:8252   .text.HAL_TIM_IC_Stop_DMA:0000006b $d
C:\Users\aticl\AppData\Local\Temp\ccqcvH4b.s:8252   .text.HAL_TIM_IC_Stop_DMA:0000006c $t
C:\Users\aticl\AppData\Local\Temp\ccqcvH4b.s:8819   .text.HAL_TIM_Encoder_Stop:0000006b $d
C:\Users\aticl\AppData\Local\Temp\ccqcvH4b.s:8819   .text.HAL_TIM_Encoder_Stop:0000006c $t
C:\Users\aticl\AppData\Local\Temp\ccqcvH4b.s:9072   .text.HAL_TIM_Encoder_Stop_IT:00000075 $d
C:\Users\aticl\AppData\Local\Temp\ccqcvH4b.s:9072   .text.HAL_TIM_Encoder_Stop_IT:00000076 $t
C:\Users\aticl\AppData\Local\Temp\ccqcvH4b.s:9495   .text.HAL_TIM_Encoder_Stop_DMA:00000081 $d
C:\Users\aticl\AppData\Local\Temp\ccqcvH4b.s:9495   .text.HAL_TIM_Encoder_Stop_DMA:00000082 $t

UNDEFINED SYMBOLS
HAL_DMA_Start_IT
HAL_DMA_Abort_IT
TIMEx_DMACommutationCplt
TIMEx_DMACommutationHalfCplt
HAL_TIMEx_BreakCallback
HAL_TIMEx_Break2Callback
HAL_TIMEx_CommutCallback
