ARM GAS  C:\Users\aticl\AppData\Local\Temp\ccYh1Zq4.s 			page 1


   1              		.cpu cortex-m7
   2              		.arch armv7e-m
   3              		.fpu fpv5-d16
   4              		.eabi_attribute 28, 1
   5              		.eabi_attribute 20, 1
   6              		.eabi_attribute 21, 1
   7              		.eabi_attribute 23, 3
   8              		.eabi_attribute 24, 1
   9              		.eabi_attribute 25, 1
  10              		.eabi_attribute 26, 1
  11              		.eabi_attribute 30, 1
  12              		.eabi_attribute 34, 1
  13              		.eabi_attribute 18, 4
  14              		.file	"usbd_core.c"
  15              		.text
  16              		.section	.text.USBD_Init,"ax",%progbits
  17              		.align	1
  18              		.global	USBD_Init
  19              		.syntax unified
  20              		.thumb
  21              		.thumb_func
  23              	USBD_Init:
  24              		@ args = 0, pretend = 0, frame = 0
  25              		@ frame_needed = 0, uses_anonymous_args = 0
  26 0000 98B1     		cbz	r0, .L4
  27 0002 08B5     		push	{r3, lr}
  28 0004 0346     		mov	r3, r0
  29 0006 0020     		movs	r0, #0
  30 0008 C3F8B802 		str	r0, [r3, #696]
  31 000c C3F8C402 		str	r0, [r3, #708]
  32 0010 C3F8D002 		str	r0, [r3, #720]
  33 0014 09B1     		cbz	r1, .L3
  34 0016 C3F8B412 		str	r1, [r3, #692]
  35              	.L3:
  36 001a 0121     		movs	r1, #1
  37 001c 83F89C12 		strb	r1, [r3, #668]
  38 0020 1A70     		strb	r2, [r3]
  39 0022 1846     		mov	r0, r3
  40 0024 FFF7FEFF 		bl	USBD_LL_Init
  41 0028 08BD     		pop	{r3, pc}
  42              	.L4:
  43 002a 0320     		movs	r0, #3
  44 002c 7047     		bx	lr
  46              		.section	.text.USBD_DeInit,"ax",%progbits
  47              		.align	1
  48              		.global	USBD_DeInit
  49              		.syntax unified
  50              		.thumb
  51              		.thumb_func
  53              	USBD_DeInit:
  54              		@ args = 0, pretend = 0, frame = 0
  55              		@ frame_needed = 0, uses_anonymous_args = 0
  56 0000 10B5     		push	{r4, lr}
  57 0002 0446     		mov	r4, r0
  58 0004 FFF7FEFF 		bl	USBD_LL_Stop
  59 0008 0123     		movs	r3, #1
  60 000a 84F89C32 		strb	r3, [r4, #668]
ARM GAS  C:\Users\aticl\AppData\Local\Temp\ccYh1Zq4.s 			page 2


  61 000e D4F8B832 		ldr	r3, [r4, #696]
  62 0012 1BB1     		cbz	r3, .L10
  63 0014 5B68     		ldr	r3, [r3, #4]
  64 0016 2179     		ldrb	r1, [r4, #4]	@ zero_extendqisi2
  65 0018 2046     		mov	r0, r4
  66 001a 9847     		blx	r3
  67              	.L10:
  68 001c 0023     		movs	r3, #0
  69 001e C4F8C432 		str	r3, [r4, #708]
  70 0022 C4F8B432 		str	r3, [r4, #692]
  71 0026 C4F8D032 		str	r3, [r4, #720]
  72 002a 2046     		mov	r0, r4
  73 002c FFF7FEFF 		bl	USBD_LL_DeInit
  74 0030 10BD     		pop	{r4, pc}
  76              		.section	.text.USBD_RegisterClass,"ax",%progbits
  77              		.align	1
  78              		.global	USBD_RegisterClass
  79              		.syntax unified
  80              		.thumb
  81              		.thumb_func
  83              	USBD_RegisterClass:
  84              		@ args = 0, pretend = 0, frame = 8
  85              		@ frame_needed = 0, uses_anonymous_args = 0
  86 0000 10B5     		push	{r4, lr}
  87 0002 82B0     		sub	sp, sp, #8
  88 0004 0023     		movs	r3, #0
  89 0006 ADF80630 		strh	r3, [sp, #6]	@ movhi
  90 000a B9B1     		cbz	r1, .L15
  91 000c 0446     		mov	r4, r0
  92 000e C0F8B812 		str	r1, [r0, #696]
  93 0012 D0F8D422 		ldr	r2, [r0, #724]
  94 0016 CB6A     		ldr	r3, [r1, #44]
  95 0018 43B1     		cbz	r3, .L14
  96 001a AE32     		adds	r2, r2, #174
  97 001c 50F82230 		ldr	r3, [r0, r2, lsl #2]
  98 0020 DB6A     		ldr	r3, [r3, #44]
  99 0022 0DF10600 		add	r0, sp, #6
 100 0026 9847     		blx	r3
 101 0028 C4F8D002 		str	r0, [r4, #720]
 102              	.L14:
 103 002c D4F8D832 		ldr	r3, [r4, #728]
 104 0030 0133     		adds	r3, r3, #1
 105 0032 C4F8D832 		str	r3, [r4, #728]
 106 0036 0020     		movs	r0, #0
 107              	.L13:
 108 0038 02B0     		add	sp, sp, #8
 109              		@ sp needed
 110 003a 10BD     		pop	{r4, pc}
 111              	.L15:
 112 003c 0320     		movs	r0, #3
 113 003e FBE7     		b	.L13
 115              		.section	.text.USBD_Start,"ax",%progbits
 116              		.align	1
 117              		.global	USBD_Start
 118              		.syntax unified
 119              		.thumb
 120              		.thumb_func
ARM GAS  C:\Users\aticl\AppData\Local\Temp\ccYh1Zq4.s 			page 3


 122              	USBD_Start:
 123              		@ args = 0, pretend = 0, frame = 0
 124              		@ frame_needed = 0, uses_anonymous_args = 0
 125 0000 08B5     		push	{r3, lr}
 126 0002 FFF7FEFF 		bl	USBD_LL_Start
 127 0006 08BD     		pop	{r3, pc}
 129              		.section	.text.USBD_Stop,"ax",%progbits
 130              		.align	1
 131              		.global	USBD_Stop
 132              		.syntax unified
 133              		.thumb
 134              		.thumb_func
 136              	USBD_Stop:
 137              		@ args = 0, pretend = 0, frame = 0
 138              		@ frame_needed = 0, uses_anonymous_args = 0
 139 0000 10B5     		push	{r4, lr}
 140 0002 0446     		mov	r4, r0
 141 0004 FFF7FEFF 		bl	USBD_LL_Stop
 142 0008 D4F8B832 		ldr	r3, [r4, #696]
 143 000c 1BB1     		cbz	r3, .L20
 144 000e 5B68     		ldr	r3, [r3, #4]
 145 0010 2179     		ldrb	r1, [r4, #4]	@ zero_extendqisi2
 146 0012 2046     		mov	r0, r4
 147 0014 9847     		blx	r3
 148              	.L20:
 149 0016 0020     		movs	r0, #0
 150 0018 10BD     		pop	{r4, pc}
 152              		.section	.text.USBD_RunTestMode,"ax",%progbits
 153              		.align	1
 154              		.global	USBD_RunTestMode
 155              		.syntax unified
 156              		.thumb
 157              		.thumb_func
 159              	USBD_RunTestMode:
 160              		@ args = 0, pretend = 0, frame = 0
 161              		@ frame_needed = 0, uses_anonymous_args = 0
 162              		@ link register save eliminated.
 163 0000 0020     		movs	r0, #0
 164 0002 7047     		bx	lr
 166              		.section	.text.USBD_SetClassConfig,"ax",%progbits
 167              		.align	1
 168              		.global	USBD_SetClassConfig
 169              		.syntax unified
 170              		.thumb
 171              		.thumb_func
 173              	USBD_SetClassConfig:
 174              		@ args = 0, pretend = 0, frame = 0
 175              		@ frame_needed = 0, uses_anonymous_args = 0
 176 0000 08B5     		push	{r3, lr}
 177 0002 D0F8B832 		ldr	r3, [r0, #696]
 178 0006 13B1     		cbz	r3, .L25
 179 0008 1B68     		ldr	r3, [r3]
 180 000a 9847     		blx	r3
 181              	.L24:
 182 000c 08BD     		pop	{r3, pc}
 183              	.L25:
 184 000e 0020     		movs	r0, #0
ARM GAS  C:\Users\aticl\AppData\Local\Temp\ccYh1Zq4.s 			page 4


 185 0010 FCE7     		b	.L24
 187              		.section	.text.USBD_ClrClassConfig,"ax",%progbits
 188              		.align	1
 189              		.global	USBD_ClrClassConfig
 190              		.syntax unified
 191              		.thumb
 192              		.thumb_func
 194              	USBD_ClrClassConfig:
 195              		@ args = 0, pretend = 0, frame = 0
 196              		@ frame_needed = 0, uses_anonymous_args = 0
 197 0000 08B5     		push	{r3, lr}
 198 0002 D0F8B832 		ldr	r3, [r0, #696]
 199 0006 5B68     		ldr	r3, [r3, #4]
 200 0008 9847     		blx	r3
 201 000a 00B9     		cbnz	r0, .L31
 202              	.L28:
 203 000c 08BD     		pop	{r3, pc}
 204              	.L31:
 205 000e 0320     		movs	r0, #3
 206 0010 FCE7     		b	.L28
 208              		.section	.text.USBD_LL_SetupStage,"ax",%progbits
 209              		.align	1
 210              		.global	USBD_LL_SetupStage
 211              		.syntax unified
 212              		.thumb
 213              		.thumb_func
 215              	USBD_LL_SetupStage:
 216              		@ args = 0, pretend = 0, frame = 0
 217              		@ frame_needed = 0, uses_anonymous_args = 0
 218 0000 38B5     		push	{r3, r4, r5, lr}
 219 0002 0446     		mov	r4, r0
 220 0004 00F2AA25 		addw	r5, r0, #682
 221 0008 2846     		mov	r0, r5
 222 000a FFF7FEFF 		bl	USBD_ParseSetupRequest
 223 000e 0123     		movs	r3, #1
 224 0010 C4F89432 		str	r3, [r4, #660]
 225 0014 B4F8B032 		ldrh	r3, [r4, #688]
 226 0018 C4F89832 		str	r3, [r4, #664]
 227 001c 94F8AA12 		ldrb	r1, [r4, #682]	@ zero_extendqisi2
 228 0020 01F01F03 		and	r3, r1, #31
 229 0024 012B     		cmp	r3, #1
 230 0026 07D0     		beq	.L33
 231 0028 022B     		cmp	r3, #2
 232 002a 0AD0     		beq	.L34
 233 002c 73B9     		cbnz	r3, .L35
 234 002e 2946     		mov	r1, r5
 235 0030 2046     		mov	r0, r4
 236 0032 FFF7FEFF 		bl	USBD_StdDevReq
 237              	.L36:
 238 0036 38BD     		pop	{r3, r4, r5, pc}
 239              	.L33:
 240 0038 2946     		mov	r1, r5
 241 003a 2046     		mov	r0, r4
 242 003c FFF7FEFF 		bl	USBD_StdItfReq
 243 0040 F9E7     		b	.L36
 244              	.L34:
 245 0042 2946     		mov	r1, r5
ARM GAS  C:\Users\aticl\AppData\Local\Temp\ccYh1Zq4.s 			page 5


 246 0044 2046     		mov	r0, r4
 247 0046 FFF7FEFF 		bl	USBD_StdEPReq
 248 004a F4E7     		b	.L36
 249              	.L35:
 250 004c 01F08001 		and	r1, r1, #128
 251 0050 2046     		mov	r0, r4
 252 0052 FFF7FEFF 		bl	USBD_LL_StallEP
 253 0056 EEE7     		b	.L36
 255              		.section	.text.USBD_LL_Reset,"ax",%progbits
 256              		.align	1
 257              		.global	USBD_LL_Reset
 258              		.syntax unified
 259              		.thumb
 260              		.thumb_func
 262              	USBD_LL_Reset:
 263              		@ args = 0, pretend = 0, frame = 0
 264              		@ frame_needed = 0, uses_anonymous_args = 0
 265 0000 F8B5     		push	{r3, r4, r5, r6, r7, lr}
 266 0002 0446     		mov	r4, r0
 267 0004 0123     		movs	r3, #1
 268 0006 80F89C32 		strb	r3, [r0, #668]
 269 000a 0023     		movs	r3, #0
 270 000c C0F89432 		str	r3, [r0, #660]
 271 0010 4360     		str	r3, [r0, #4]
 272 0012 C0F8A432 		str	r3, [r0, #676]
 273 0016 80F8A032 		strb	r3, [r0, #672]
 274 001a D0F8B832 		ldr	r3, [r0, #696]
 275 001e DBB1     		cbz	r3, .L40
 276 0020 5B68     		ldr	r3, [r3, #4]
 277 0022 DBB1     		cbz	r3, .L41
 278 0024 0021     		movs	r1, #0
 279 0026 9847     		blx	r3
 280 0028 0746     		mov	r7, r0
 281 002a C8B9     		cbnz	r0, .L44
 282              	.L39:
 283 002c 4023     		movs	r3, #64
 284 002e 0022     		movs	r2, #0
 285 0030 1146     		mov	r1, r2
 286 0032 2046     		mov	r0, r4
 287 0034 FFF7FEFF 		bl	USBD_LL_OpenEP
 288 0038 0126     		movs	r6, #1
 289 003a A4F86461 		strh	r6, [r4, #356]	@ movhi
 290 003e 4025     		movs	r5, #64
 291 0040 C4F86051 		str	r5, [r4, #352]
 292 0044 2B46     		mov	r3, r5
 293 0046 0022     		movs	r2, #0
 294 0048 8021     		movs	r1, #128
 295 004a 2046     		mov	r0, r4
 296 004c FFF7FEFF 		bl	USBD_LL_OpenEP
 297 0050 A684     		strh	r6, [r4, #36]	@ movhi
 298 0052 2562     		str	r5, [r4, #32]
 299 0054 3846     		mov	r0, r7
 300 0056 F8BD     		pop	{r3, r4, r5, r6, r7, pc}
 301              	.L40:
 302 0058 0027     		movs	r7, #0
 303 005a E7E7     		b	.L39
 304              	.L41:
ARM GAS  C:\Users\aticl\AppData\Local\Temp\ccYh1Zq4.s 			page 6


 305 005c 0027     		movs	r7, #0
 306 005e E5E7     		b	.L39
 307              	.L44:
 308 0060 0327     		movs	r7, #3
 309 0062 E3E7     		b	.L39
 311              		.section	.text.USBD_LL_SetSpeed,"ax",%progbits
 312              		.align	1
 313              		.global	USBD_LL_SetSpeed
 314              		.syntax unified
 315              		.thumb
 316              		.thumb_func
 318              	USBD_LL_SetSpeed:
 319              		@ args = 0, pretend = 0, frame = 0
 320              		@ frame_needed = 0, uses_anonymous_args = 0
 321              		@ link register save eliminated.
 322 0000 0174     		strb	r1, [r0, #16]
 323 0002 0020     		movs	r0, #0
 324 0004 7047     		bx	lr
 326              		.section	.text.USBD_LL_Suspend,"ax",%progbits
 327              		.align	1
 328              		.global	USBD_LL_Suspend
 329              		.syntax unified
 330              		.thumb
 331              		.thumb_func
 333              	USBD_LL_Suspend:
 334              		@ args = 0, pretend = 0, frame = 0
 335              		@ frame_needed = 0, uses_anonymous_args = 0
 336              		@ link register save eliminated.
 337 0000 90F89C32 		ldrb	r3, [r0, #668]	@ zero_extendqisi2
 338 0004 042B     		cmp	r3, #4
 339 0006 04D0     		beq	.L47
 340 0008 90F89C32 		ldrb	r3, [r0, #668]	@ zero_extendqisi2
 341 000c DBB2     		uxtb	r3, r3
 342 000e 80F89D32 		strb	r3, [r0, #669]
 343              	.L47:
 344 0012 0423     		movs	r3, #4
 345 0014 80F89C32 		strb	r3, [r0, #668]
 346 0018 0020     		movs	r0, #0
 347 001a 7047     		bx	lr
 349              		.section	.text.USBD_LL_Resume,"ax",%progbits
 350              		.align	1
 351              		.global	USBD_LL_Resume
 352              		.syntax unified
 353              		.thumb
 354              		.thumb_func
 356              	USBD_LL_Resume:
 357              		@ args = 0, pretend = 0, frame = 0
 358              		@ frame_needed = 0, uses_anonymous_args = 0
 359              		@ link register save eliminated.
 360 0000 90F89C32 		ldrb	r3, [r0, #668]	@ zero_extendqisi2
 361 0004 042B     		cmp	r3, #4
 362 0006 01D0     		beq	.L50
 363              	.L49:
 364 0008 0020     		movs	r0, #0
 365 000a 7047     		bx	lr
 366              	.L50:
 367 000c 90F89D32 		ldrb	r3, [r0, #669]	@ zero_extendqisi2
ARM GAS  C:\Users\aticl\AppData\Local\Temp\ccYh1Zq4.s 			page 7


 368 0010 DBB2     		uxtb	r3, r3
 369 0012 80F89C32 		strb	r3, [r0, #668]
 370 0016 F7E7     		b	.L49
 372              		.section	.text.USBD_LL_SOF,"ax",%progbits
 373              		.align	1
 374              		.global	USBD_LL_SOF
 375              		.syntax unified
 376              		.thumb
 377              		.thumb_func
 379              	USBD_LL_SOF:
 380              		@ args = 0, pretend = 0, frame = 0
 381              		@ frame_needed = 0, uses_anonymous_args = 0
 382 0000 08B5     		push	{r3, lr}
 383 0002 90F89C32 		ldrb	r3, [r0, #668]	@ zero_extendqisi2
 384 0006 032B     		cmp	r3, #3
 385 0008 01D0     		beq	.L54
 386              	.L52:
 387 000a 0020     		movs	r0, #0
 388 000c 08BD     		pop	{r3, pc}
 389              	.L54:
 390 000e D0F8B832 		ldr	r3, [r0, #696]
 391 0012 002B     		cmp	r3, #0
 392 0014 F9D0     		beq	.L52
 393 0016 DB69     		ldr	r3, [r3, #28]
 394 0018 002B     		cmp	r3, #0
 395 001a F6D0     		beq	.L52
 396 001c 9847     		blx	r3
 397 001e F4E7     		b	.L52
 399              		.section	.text.USBD_LL_IsoINIncomplete,"ax",%progbits
 400              		.align	1
 401              		.global	USBD_LL_IsoINIncomplete
 402              		.syntax unified
 403              		.thumb
 404              		.thumb_func
 406              	USBD_LL_IsoINIncomplete:
 407              		@ args = 0, pretend = 0, frame = 0
 408              		@ frame_needed = 0, uses_anonymous_args = 0
 409 0000 08B5     		push	{r3, lr}
 410 0002 D0F8D432 		ldr	r3, [r0, #724]
 411 0006 AE33     		adds	r3, r3, #174
 412 0008 50F82330 		ldr	r3, [r0, r3, lsl #2]
 413 000c 53B1     		cbz	r3, .L57
 414 000e 90F89C22 		ldrb	r2, [r0, #668]	@ zero_extendqisi2
 415 0012 032A     		cmp	r2, #3
 416 0014 01D0     		beq	.L61
 417 0016 0020     		movs	r0, #0
 418              	.L56:
 419 0018 08BD     		pop	{r3, pc}
 420              	.L61:
 421 001a 1B6A     		ldr	r3, [r3, #32]
 422 001c 23B1     		cbz	r3, .L59
 423 001e 9847     		blx	r3
 424 0020 0020     		movs	r0, #0
 425 0022 F9E7     		b	.L56
 426              	.L57:
 427 0024 0320     		movs	r0, #3
 428 0026 F7E7     		b	.L56
ARM GAS  C:\Users\aticl\AppData\Local\Temp\ccYh1Zq4.s 			page 8


 429              	.L59:
 430 0028 0020     		movs	r0, #0
 431 002a F5E7     		b	.L56
 433              		.section	.text.USBD_LL_IsoOUTIncomplete,"ax",%progbits
 434              		.align	1
 435              		.global	USBD_LL_IsoOUTIncomplete
 436              		.syntax unified
 437              		.thumb
 438              		.thumb_func
 440              	USBD_LL_IsoOUTIncomplete:
 441              		@ args = 0, pretend = 0, frame = 0
 442              		@ frame_needed = 0, uses_anonymous_args = 0
 443 0000 08B5     		push	{r3, lr}
 444 0002 D0F8D432 		ldr	r3, [r0, #724]
 445 0006 AE33     		adds	r3, r3, #174
 446 0008 50F82330 		ldr	r3, [r0, r3, lsl #2]
 447 000c 53B1     		cbz	r3, .L64
 448 000e 90F89C22 		ldrb	r2, [r0, #668]	@ zero_extendqisi2
 449 0012 032A     		cmp	r2, #3
 450 0014 01D0     		beq	.L68
 451 0016 0020     		movs	r0, #0
 452              	.L63:
 453 0018 08BD     		pop	{r3, pc}
 454              	.L68:
 455 001a 5B6A     		ldr	r3, [r3, #36]
 456 001c 23B1     		cbz	r3, .L66
 457 001e 9847     		blx	r3
 458 0020 0020     		movs	r0, #0
 459 0022 F9E7     		b	.L63
 460              	.L64:
 461 0024 0320     		movs	r0, #3
 462 0026 F7E7     		b	.L63
 463              	.L66:
 464 0028 0020     		movs	r0, #0
 465 002a F5E7     		b	.L63
 467              		.section	.text.USBD_LL_DevConnected,"ax",%progbits
 468              		.align	1
 469              		.global	USBD_LL_DevConnected
 470              		.syntax unified
 471              		.thumb
 472              		.thumb_func
 474              	USBD_LL_DevConnected:
 475              		@ args = 0, pretend = 0, frame = 0
 476              		@ frame_needed = 0, uses_anonymous_args = 0
 477              		@ link register save eliminated.
 478 0000 0020     		movs	r0, #0
 479 0002 7047     		bx	lr
 481              		.section	.text.USBD_LL_DevDisconnected,"ax",%progbits
 482              		.align	1
 483              		.global	USBD_LL_DevDisconnected
 484              		.syntax unified
 485              		.thumb
 486              		.thumb_func
 488              	USBD_LL_DevDisconnected:
 489              		@ args = 0, pretend = 0, frame = 0
 490              		@ frame_needed = 0, uses_anonymous_args = 0
 491 0000 08B5     		push	{r3, lr}
ARM GAS  C:\Users\aticl\AppData\Local\Temp\ccYh1Zq4.s 			page 9


 492 0002 0123     		movs	r3, #1
 493 0004 80F89C32 		strb	r3, [r0, #668]
 494 0008 D0F8B832 		ldr	r3, [r0, #696]
 495 000c 23B1     		cbz	r3, .L72
 496 000e 5B68     		ldr	r3, [r3, #4]
 497 0010 0179     		ldrb	r1, [r0, #4]	@ zero_extendqisi2
 498 0012 9847     		blx	r3
 499 0014 10B9     		cbnz	r0, .L75
 500              	.L71:
 501 0016 08BD     		pop	{r3, pc}
 502              	.L72:
 503 0018 0020     		movs	r0, #0
 504 001a FCE7     		b	.L71
 505              	.L75:
 506 001c 0320     		movs	r0, #3
 507 001e FAE7     		b	.L71
 509              		.section	.text.USBD_CoreFindIF,"ax",%progbits
 510              		.align	1
 511              		.global	USBD_CoreFindIF
 512              		.syntax unified
 513              		.thumb
 514              		.thumb_func
 516              	USBD_CoreFindIF:
 517              		@ args = 0, pretend = 0, frame = 0
 518              		@ frame_needed = 0, uses_anonymous_args = 0
 519              		@ link register save eliminated.
 520 0000 0020     		movs	r0, #0
 521 0002 7047     		bx	lr
 523              		.section	.text.USBD_CoreFindEP,"ax",%progbits
 524              		.align	1
 525              		.global	USBD_CoreFindEP
 526              		.syntax unified
 527              		.thumb
 528              		.thumb_func
 530              	USBD_CoreFindEP:
 531              		@ args = 0, pretend = 0, frame = 0
 532              		@ frame_needed = 0, uses_anonymous_args = 0
 533              		@ link register save eliminated.
 534 0000 0020     		movs	r0, #0
 535 0002 7047     		bx	lr
 537              		.section	.text.USBD_LL_DataOutStage,"ax",%progbits
 538              		.align	1
 539              		.global	USBD_LL_DataOutStage
 540              		.syntax unified
 541              		.thumb
 542              		.thumb_func
 544              	USBD_LL_DataOutStage:
 545              		@ args = 0, pretend = 0, frame = 0
 546              		@ frame_needed = 0, uses_anonymous_args = 0
 547 0000 38B5     		push	{r3, r4, r5, lr}
 548 0002 0446     		mov	r4, r0
 549 0004 0D46     		mov	r5, r1
 550 0006 0029     		cmp	r1, #0
 551 0008 41D1     		bne	.L79
 552 000a 1346     		mov	r3, r2
 553 000c D0F89422 		ldr	r2, [r0, #660]
 554 0010 032A     		cmp	r2, #3
ARM GAS  C:\Users\aticl\AppData\Local\Temp\ccYh1Zq4.s 			page 10


 555 0012 01D0     		beq	.L90
 556 0014 0846     		mov	r0, r1
 557              	.L80:
 558 0016 38BD     		pop	{r3, r4, r5, pc}
 559              	.L90:
 560 0018 D0F85C11 		ldr	r1, [r0, #348]
 561 001c D0F86021 		ldr	r2, [r0, #352]
 562 0020 9142     		cmp	r1, r2
 563 0022 09D8     		bhi	.L91
 564 0024 90F8AA32 		ldrb	r3, [r0, #682]	@ zero_extendqisi2
 565 0028 03F01F03 		and	r3, r3, #31
 566 002c 012B     		cmp	r3, #1
 567 002e 0ED0     		beq	.L82
 568 0030 022B     		cmp	r3, #2
 569 0032 1AD0     		beq	.L83
 570 0034 2846     		mov	r0, r5
 571 0036 0FE0     		b	.L84
 572              	.L91:
 573 0038 891A     		subs	r1, r1, r2
 574 003a C0F85C11 		str	r1, [r0, #348]
 575 003e 8A42     		cmp	r2, r1
 576 0040 28BF     		it	cs
 577 0042 0A46     		movcs	r2, r1
 578 0044 1946     		mov	r1, r3
 579 0046 FFF7FEFF 		bl	USBD_CtlContinueRx
 580 004a 2846     		mov	r0, r5
 581 004c E3E7     		b	.L80
 582              	.L82:
 583 004e 90F8AE12 		ldrb	r1, [r0, #686]	@ zero_extendqisi2
 584 0052 FFF7FEFF 		bl	USBD_CoreFindIF
 585              	.L85:
 586 0056 18B9     		cbnz	r0, .L86
 587              	.L84:
 588 0058 94F89C32 		ldrb	r3, [r4, #668]	@ zero_extendqisi2
 589 005c 032B     		cmp	r3, #3
 590 005e 09D0     		beq	.L92
 591              	.L86:
 592 0060 2046     		mov	r0, r4
 593 0062 FFF7FEFF 		bl	USBD_CtlSendStatus
 594 0066 2846     		mov	r0, r5
 595 0068 D5E7     		b	.L80
 596              	.L83:
 597 006a 90F8AE12 		ldrb	r1, [r0, #686]	@ zero_extendqisi2
 598 006e FFF7FEFF 		bl	USBD_CoreFindEP
 599 0072 F0E7     		b	.L85
 600              	.L92:
 601 0074 00F1AE03 		add	r3, r0, #174
 602 0078 54F82330 		ldr	r3, [r4, r3, lsl #2]
 603 007c 1A69     		ldr	r2, [r3, #16]
 604 007e 002A     		cmp	r2, #0
 605 0080 EED0     		beq	.L86
 606 0082 C4F8D402 		str	r0, [r4, #724]
 607 0086 1B69     		ldr	r3, [r3, #16]
 608 0088 2046     		mov	r0, r4
 609 008a 9847     		blx	r3
 610 008c E8E7     		b	.L86
 611              	.L79:
ARM GAS  C:\Users\aticl\AppData\Local\Temp\ccYh1Zq4.s 			page 11


 612 008e 01F07F01 		and	r1, r1, #127
 613 0092 FFF7FEFF 		bl	USBD_CoreFindEP
 614 0096 88B9     		cbnz	r0, .L88
 615 0098 94F89C32 		ldrb	r3, [r4, #668]	@ zero_extendqisi2
 616 009c 032B     		cmp	r3, #3
 617 009e BAD1     		bne	.L80
 618 00a0 00F1AE03 		add	r3, r0, #174
 619 00a4 54F82330 		ldr	r3, [r4, r3, lsl #2]
 620 00a8 9A69     		ldr	r2, [r3, #24]
 621 00aa 002A     		cmp	r2, #0
 622 00ac B3D0     		beq	.L80
 623 00ae C4F8D402 		str	r0, [r4, #724]
 624 00b2 9B69     		ldr	r3, [r3, #24]
 625 00b4 2946     		mov	r1, r5
 626 00b6 2046     		mov	r0, r4
 627 00b8 9847     		blx	r3
 628 00ba ACE7     		b	.L80
 629              	.L88:
 630 00bc 0020     		movs	r0, #0
 631 00be AAE7     		b	.L80
 633              		.section	.text.USBD_LL_DataInStage,"ax",%progbits
 634              		.align	1
 635              		.global	USBD_LL_DataInStage
 636              		.syntax unified
 637              		.thumb
 638              		.thumb_func
 640              	USBD_LL_DataInStage:
 641              		@ args = 0, pretend = 0, frame = 0
 642              		@ frame_needed = 0, uses_anonymous_args = 0
 643 0000 38B5     		push	{r3, r4, r5, lr}
 644 0002 0446     		mov	r4, r0
 645 0004 0D46     		mov	r5, r1
 646 0006 0029     		cmp	r1, #0
 647 0008 4AD1     		bne	.L94
 648 000a 1346     		mov	r3, r2
 649 000c D0F89422 		ldr	r2, [r0, #660]
 650 0010 022A     		cmp	r2, #2
 651 0012 07D0     		beq	.L102
 652              	.L95:
 653 0014 94F8A002 		ldrb	r0, [r4, #672]	@ zero_extendqisi2
 654 0018 18B1     		cbz	r0, .L99
 655 001a 0023     		movs	r3, #0
 656 001c 84F8A032 		strb	r3, [r4, #672]
 657 0020 2846     		mov	r0, r5
 658              	.L99:
 659 0022 38BD     		pop	{r3, r4, r5, pc}
 660              	.L102:
 661 0024 C269     		ldr	r2, [r0, #28]
 662 0026 016A     		ldr	r1, [r0, #32]
 663 0028 8A42     		cmp	r2, r1
 664 002a 0DD8     		bhi	.L103
 665 002c 8A42     		cmp	r2, r1
 666 002e 17D0     		beq	.L104
 667              	.L97:
 668 0030 94F89C32 		ldrb	r3, [r4, #668]	@ zero_extendqisi2
 669 0034 032B     		cmp	r3, #3
 670 0036 27D0     		beq	.L105
ARM GAS  C:\Users\aticl\AppData\Local\Temp\ccYh1Zq4.s 			page 12


 671              	.L98:
 672 0038 8021     		movs	r1, #128
 673 003a 2046     		mov	r0, r4
 674 003c FFF7FEFF 		bl	USBD_LL_StallEP
 675 0040 2046     		mov	r0, r4
 676 0042 FFF7FEFF 		bl	USBD_CtlReceiveStatus
 677 0046 E5E7     		b	.L95
 678              	.L103:
 679 0048 521A     		subs	r2, r2, r1
 680 004a C261     		str	r2, [r0, #28]
 681 004c 1946     		mov	r1, r3
 682 004e FFF7FEFF 		bl	USBD_CtlContinueSendData
 683 0052 0023     		movs	r3, #0
 684 0054 1A46     		mov	r2, r3
 685 0056 1946     		mov	r1, r3
 686 0058 2046     		mov	r0, r4
 687 005a FFF7FEFF 		bl	USBD_LL_PrepareReceive
 688 005e D9E7     		b	.L95
 689              	.L104:
 690 0060 8369     		ldr	r3, [r0, #24]
 691 0062 9942     		cmp	r1, r3
 692 0064 E4D8     		bhi	.L97
 693 0066 D0F89822 		ldr	r2, [r0, #664]
 694 006a 9342     		cmp	r3, r2
 695 006c E0D2     		bcs	.L97
 696 006e 0022     		movs	r2, #0
 697 0070 1146     		mov	r1, r2
 698 0072 FFF7FEFF 		bl	USBD_CtlContinueSendData
 699 0076 0021     		movs	r1, #0
 700 0078 C4F89812 		str	r1, [r4, #664]
 701 007c 0B46     		mov	r3, r1
 702 007e 0A46     		mov	r2, r1
 703 0080 2046     		mov	r0, r4
 704 0082 FFF7FEFF 		bl	USBD_LL_PrepareReceive
 705 0086 C5E7     		b	.L95
 706              	.L105:
 707 0088 D4F8B832 		ldr	r3, [r4, #696]
 708 008c DA68     		ldr	r2, [r3, #12]
 709 008e 002A     		cmp	r2, #0
 710 0090 D2D0     		beq	.L98
 711 0092 0022     		movs	r2, #0
 712 0094 C4F8D422 		str	r2, [r4, #724]
 713 0098 DB68     		ldr	r3, [r3, #12]
 714 009a 2046     		mov	r0, r4
 715 009c 9847     		blx	r3
 716 009e CBE7     		b	.L98
 717              	.L94:
 718 00a0 41F08001 		orr	r1, r1, #128
 719 00a4 FFF7FEFF 		bl	USBD_CoreFindEP
 720 00a8 88B9     		cbnz	r0, .L100
 721 00aa 94F89C32 		ldrb	r3, [r4, #668]	@ zero_extendqisi2
 722 00ae 032B     		cmp	r3, #3
 723 00b0 B7D1     		bne	.L99
 724 00b2 00F1AE03 		add	r3, r0, #174
 725 00b6 54F82330 		ldr	r3, [r4, r3, lsl #2]
 726 00ba 5A69     		ldr	r2, [r3, #20]
 727 00bc 002A     		cmp	r2, #0
ARM GAS  C:\Users\aticl\AppData\Local\Temp\ccYh1Zq4.s 			page 13


 728 00be B0D0     		beq	.L99
 729 00c0 C4F8D402 		str	r0, [r4, #724]
 730 00c4 5B69     		ldr	r3, [r3, #20]
 731 00c6 2946     		mov	r1, r5
 732 00c8 2046     		mov	r0, r4
 733 00ca 9847     		blx	r3
 734 00cc A9E7     		b	.L99
 735              	.L100:
 736 00ce 0020     		movs	r0, #0
 737 00d0 A7E7     		b	.L99
 739              		.section	.text.USBD_GetNextDesc,"ax",%progbits
 740              		.align	1
 741              		.global	USBD_GetNextDesc
 742              		.syntax unified
 743              		.thumb
 744              		.thumb_func
 746              	USBD_GetNextDesc:
 747              		@ args = 0, pretend = 0, frame = 0
 748              		@ frame_needed = 0, uses_anonymous_args = 0
 749              		@ link register save eliminated.
 750 0000 0B88     		ldrh	r3, [r1]
 751 0002 0278     		ldrb	r2, [r0]	@ zero_extendqisi2
 752 0004 1344     		add	r3, r3, r2
 753 0006 0B80     		strh	r3, [r1]	@ movhi
 754 0008 0378     		ldrb	r3, [r0]	@ zero_extendqisi2
 755 000a 1844     		add	r0, r0, r3
 756 000c 7047     		bx	lr
 758              		.section	.text.USBD_GetEpDesc,"ax",%progbits
 759              		.align	1
 760              		.global	USBD_GetEpDesc
 761              		.syntax unified
 762              		.thumb
 763              		.thumb_func
 765              	USBD_GetEpDesc:
 766              		@ args = 0, pretend = 0, frame = 8
 767              		@ frame_needed = 0, uses_anonymous_args = 0
 768 0000 4288     		ldrh	r2, [r0, #2]	@ unaligned
 769 0002 0378     		ldrb	r3, [r0]	@ zero_extendqisi2
 770 0004 9A42     		cmp	r2, r3
 771 0006 18D9     		bls	.L111
 772 0008 30B5     		push	{r4, r5, lr}
 773 000a 83B0     		sub	sp, sp, #12
 774 000c 0446     		mov	r4, r0
 775 000e 0D46     		mov	r5, r1
 776 0010 ADF80630 		strh	r3, [sp, #6]	@ movhi
 777              	.L109:
 778 0014 6388     		ldrh	r3, [r4, #2]	@ unaligned
 779 0016 BDF80620 		ldrh	r2, [sp, #6]
 780 001a 9A42     		cmp	r2, r3
 781 001c 0AD2     		bcs	.L116
 782 001e 0DF10601 		add	r1, sp, #6
 783 0022 FFF7FEFF 		bl	USBD_GetNextDesc
 784 0026 4378     		ldrb	r3, [r0, #1]	@ zero_extendqisi2
 785 0028 052B     		cmp	r3, #5
 786 002a F3D1     		bne	.L109
 787 002c 8378     		ldrb	r3, [r0, #2]	@ zero_extendqisi2
 788 002e AB42     		cmp	r3, r5
ARM GAS  C:\Users\aticl\AppData\Local\Temp\ccYh1Zq4.s 			page 14


 789 0030 F0D1     		bne	.L109
 790 0032 00E0     		b	.L107
 791              	.L116:
 792 0034 0020     		movs	r0, #0
 793              	.L107:
 794 0036 03B0     		add	sp, sp, #12
 795              		@ sp needed
 796 0038 30BD     		pop	{r4, r5, pc}
 797              	.L111:
 798 003a 0020     		movs	r0, #0
 799 003c 7047     		bx	lr
 801              		.ident	"GCC: (xPack GNU Arm Embedded GCC x86_64) 14.2.1 20241119"
ARM GAS  C:\Users\aticl\AppData\Local\Temp\ccYh1Zq4.s 			page 15

